ARM GAS  /tmp/ccq0cjMd.s 			page 1


   1              		.cpu cortex-m7
   2              		.arch armv7e-m
   3              		.fpu fpv5-d16
   4              		.eabi_attribute 28, 1
   5              		.eabi_attribute 20, 1
   6              		.eabi_attribute 21, 1
   7              		.eabi_attribute 23, 3
   8              		.eabi_attribute 24, 1
   9              		.eabi_attribute 25, 1
  10              		.eabi_attribute 26, 1
  11              		.eabi_attribute 30, 1
  12              		.eabi_attribute 34, 1
  13              		.eabi_attribute 18, 4
  14              		.file	"init.c"
  15              		.text
  16              	.Ltext0:
  17              		.cfi_sections	.debug_frame
  18              		.file 1 "../../../init/terminal/init.c"
  19              		.section	.text.SystemClock_Config,"ax",%progbits
  20              		.align	1
  21              		.global	SystemClock_Config
  22              		.syntax unified
  23              		.thumb
  24              		.thumb_func
  26              	SystemClock_Config:
  27              	.LFB144:
   1:../../../init/terminal/init.c **** /*******************************************************************************
   2:../../../init/terminal/init.c **** *                                                                              *
   3:../../../init/terminal/init.c **** * FILE:                                                                        *
   4:../../../init/terminal/init.c **** * 		init.c                                                                 *
   5:../../../init/terminal/init.c **** *                                                                              *
   6:../../../init/terminal/init.c **** * DESCRIPTION:                                                                 *
   7:../../../init/terminal/init.c **** * 		Contains initialization routines for MCU core and peripherals          *
   8:../../../init/terminal/init.c **** *                                                                              *
   9:../../../init/terminal/init.c **** *******************************************************************************/
  10:../../../init/terminal/init.c **** 
  11:../../../init/terminal/init.c **** 
  12:../../../init/terminal/init.c **** /*------------------------------------------------------------------------------
  13:../../../init/terminal/init.c ****  Standard Includes                                                              
  14:../../../init/terminal/init.c **** ------------------------------------------------------------------------------*/
  15:../../../init/terminal/init.c **** 
  16:../../../init/terminal/init.c **** 
  17:../../../init/terminal/init.c **** /*------------------------------------------------------------------------------
  18:../../../init/terminal/init.c ****  Project Includes                                                               
  19:../../../init/terminal/init.c **** ------------------------------------------------------------------------------*/
  20:../../../init/terminal/init.c **** #include "main.h"
  21:../../../init/terminal/init.c **** #include "init.h"
  22:../../../init/terminal/init.c **** #include "sdr_pin_defines_A0002.h"
  23:../../../init/terminal/init.c **** #include "sdr_error.h"
  24:../../../init/terminal/init.c **** #include "fatfs.h"
  25:../../../init/terminal/init.c **** 
  26:../../../init/terminal/init.c **** 
  27:../../../init/terminal/init.c **** /*------------------------------------------------------------------------------
  28:../../../init/terminal/init.c ****  Global Variables 
  29:../../../init/terminal/init.c **** ------------------------------------------------------------------------------*/
  30:../../../init/terminal/init.c **** extern I2C_HandleTypeDef  hi2c1;   /* Baro sensor    */
  31:../../../init/terminal/init.c **** extern I2C_HandleTypeDef  hi2c2;   /* IMU and GPS    */
ARM GAS  /tmp/ccq0cjMd.s 			page 2


  32:../../../init/terminal/init.c **** extern SD_HandleTypeDef   hsd1;    /* SD Card        */
  33:../../../init/terminal/init.c **** extern SPI_HandleTypeDef  hspi2;   /* External flash */
  34:../../../init/terminal/init.c **** extern TIM_HandleTypeDef  htim4;   /* Buzzer Timer   */
  35:../../../init/terminal/init.c **** extern UART_HandleTypeDef huart6;  /* USB            */
  36:../../../init/terminal/init.c **** extern TIM_HandleTypeDef  htim2;   /* PWM 4 Timer */
  37:../../../init/terminal/init.c **** extern TIM_HandleTypeDef  htim3;   /* PWM 1,2,3 Timer */
  38:../../../init/terminal/init.c **** 
  39:../../../init/terminal/init.c **** /*------------------------------------------------------------------------------
  40:../../../init/terminal/init.c ****  Procedures 
  41:../../../init/terminal/init.c **** ------------------------------------------------------------------------------*/
  42:../../../init/terminal/init.c **** 
  43:../../../init/terminal/init.c **** 
  44:../../../init/terminal/init.c **** /*******************************************************************************
  45:../../../init/terminal/init.c **** *                                                                              *
  46:../../../init/terminal/init.c **** * PROCEDURE:                                                                   * 
  47:../../../init/terminal/init.c **** * 		SystemClock_Config                                                     *
  48:../../../init/terminal/init.c **** *                                                                              *
  49:../../../init/terminal/init.c **** * DESCRIPTION:                                                                 * 
  50:../../../init/terminal/init.c **** * 		Initializes the microcontroller clock. Enables peripheral clocks and   *
  51:../../../init/terminal/init.c **** *       sets prescalers                                                        *
  52:../../../init/terminal/init.c **** *                                                                              *
  53:../../../init/terminal/init.c **** *******************************************************************************/
  54:../../../init/terminal/init.c **** void SystemClock_Config
  55:../../../init/terminal/init.c **** 	(
  56:../../../init/terminal/init.c **** 	void
  57:../../../init/terminal/init.c **** 	)
  58:../../../init/terminal/init.c **** {
  28              		.loc 1 58 1 view -0
  29              		.cfi_startproc
  30              		@ args = 0, pretend = 0, frame = 112
  31              		@ frame_needed = 0, uses_anonymous_args = 0
  32 0000 00B5     		push	{lr}
  33              	.LCFI0:
  34              		.cfi_def_cfa_offset 4
  35              		.cfi_offset 14, -4
  36 0002 9DB0     		sub	sp, sp, #116
  37              	.LCFI1:
  38              		.cfi_def_cfa_offset 120
  59:../../../init/terminal/init.c **** /* System Clock Initialization structs */
  60:../../../init/terminal/init.c **** RCC_OscInitTypeDef RCC_OscInitStruct = {0};
  39              		.loc 1 60 1 view .LVU1
  40              		.loc 1 60 20 is_stmt 0 view .LVU2
  41 0004 4C22     		movs	r2, #76
  42 0006 0021     		movs	r1, #0
  43 0008 09A8     		add	r0, sp, #36
  44 000a FFF7FEFF 		bl	memset
  45              	.LVL0:
  61:../../../init/terminal/init.c **** RCC_ClkInitTypeDef RCC_ClkInitStruct = {0};
  46              		.loc 1 61 1 is_stmt 1 view .LVU3
  47              		.loc 1 61 20 is_stmt 0 view .LVU4
  48 000e 2022     		movs	r2, #32
  49 0010 0021     		movs	r1, #0
  50 0012 01A8     		add	r0, sp, #4
  51 0014 FFF7FEFF 		bl	memset
  52              	.LVL1:
  62:../../../init/terminal/init.c **** 
  63:../../../init/terminal/init.c **** /* Supply configuration update enable */
ARM GAS  /tmp/ccq0cjMd.s 			page 3


  64:../../../init/terminal/init.c **** HAL_PWREx_ConfigSupply( PWR_LDO_SUPPLY );
  53              		.loc 1 64 1 is_stmt 1 view .LVU5
  54 0018 0220     		movs	r0, #2
  55 001a FFF7FEFF 		bl	HAL_PWREx_ConfigSupply
  56              	.LVL2:
  65:../../../init/terminal/init.c **** 
  66:../../../init/terminal/init.c **** /* Configure the main internal regulator output voltage */
  67:../../../init/terminal/init.c **** __HAL_PWR_VOLTAGESCALING_CONFIG( PWR_REGULATOR_VOLTAGE_SCALE0 );
  57              		.loc 1 67 1 view .LVU6
  58              	.LBB2:
  59              		.loc 1 67 1 view .LVU7
  60 001e 0023     		movs	r3, #0
  61 0020 0093     		str	r3, [sp]
  62              		.loc 1 67 1 view .LVU8
  63              		.loc 1 67 1 view .LVU9
  64 0022 274B     		ldr	r3, .L8
  65 0024 9A69     		ldr	r2, [r3, #24]
  66 0026 42F44042 		orr	r2, r2, #49152
  67 002a 9A61     		str	r2, [r3, #24]
  68              		.loc 1 67 1 view .LVU10
  69 002c 9B69     		ldr	r3, [r3, #24]
  70 002e 03F44043 		and	r3, r3, #49152
  71 0032 0093     		str	r3, [sp]
  72              		.loc 1 67 1 view .LVU11
  73 0034 234B     		ldr	r3, .L8+4
  74 0036 DA6A     		ldr	r2, [r3, #44]
  75 0038 42F00102 		orr	r2, r2, #1
  76 003c DA62     		str	r2, [r3, #44]
  77              		.loc 1 67 1 view .LVU12
  78 003e DB6A     		ldr	r3, [r3, #44]
  79 0040 03F00103 		and	r3, r3, #1
  80 0044 0093     		str	r3, [sp]
  81              		.loc 1 67 1 view .LVU13
  82 0046 009B     		ldr	r3, [sp]
  83              	.LBE2:
  84              		.loc 1 67 1 view .LVU14
  68:../../../init/terminal/init.c **** while( !__HAL_PWR_GET_FLAG(PWR_FLAG_VOSRDY) ) 
  85              		.loc 1 68 1 view .LVU15
  86              	.L2:
  69:../../../init/terminal/init.c **** 	{
  70:../../../init/terminal/init.c **** 	/* Wait for PWR_FLAG_VOSRDY flag */
  71:../../../init/terminal/init.c **** 	}
  87              		.loc 1 71 2 discriminator 1 view .LVU16
  68:../../../init/terminal/init.c **** while( !__HAL_PWR_GET_FLAG(PWR_FLAG_VOSRDY) ) 
  88              		.loc 1 68 8 discriminator 1 view .LVU17
  68:../../../init/terminal/init.c **** while( !__HAL_PWR_GET_FLAG(PWR_FLAG_VOSRDY) ) 
  89              		.loc 1 68 9 is_stmt 0 discriminator 1 view .LVU18
  90 0048 1D4B     		ldr	r3, .L8
  91 004a 9B69     		ldr	r3, [r3, #24]
  68:../../../init/terminal/init.c **** while( !__HAL_PWR_GET_FLAG(PWR_FLAG_VOSRDY) ) 
  92              		.loc 1 68 8 discriminator 1 view .LVU19
  93 004c 13F4005F 		tst	r3, #8192
  94 0050 FAD0     		beq	.L2
  72:../../../init/terminal/init.c **** 
  73:../../../init/terminal/init.c **** /* Initializes the RCC Oscillators according to the specified parameters
  74:../../../init/terminal/init.c ****    in the RCC_OscInitTypeDef structure. */
  75:../../../init/terminal/init.c **** RCC_OscInitStruct.OscillatorType = RCC_OSCILLATORTYPE_HSE;
ARM GAS  /tmp/ccq0cjMd.s 			page 4


  95              		.loc 1 75 1 is_stmt 1 view .LVU20
  96              		.loc 1 75 34 is_stmt 0 view .LVU21
  97 0052 0123     		movs	r3, #1
  98 0054 0993     		str	r3, [sp, #36]
  76:../../../init/terminal/init.c **** RCC_OscInitStruct.HSEState       = RCC_HSE_ON;
  99              		.loc 1 76 1 is_stmt 1 view .LVU22
 100              		.loc 1 76 34 is_stmt 0 view .LVU23
 101 0056 4FF48033 		mov	r3, #65536
 102 005a 0A93     		str	r3, [sp, #40]
  77:../../../init/terminal/init.c **** RCC_OscInitStruct.PLL.PLLState   = RCC_PLL_ON;
 103              		.loc 1 77 1 is_stmt 1 view .LVU24
 104              		.loc 1 77 34 is_stmt 0 view .LVU25
 105 005c 0223     		movs	r3, #2
 106 005e 1293     		str	r3, [sp, #72]
  78:../../../init/terminal/init.c **** RCC_OscInitStruct.PLL.PLLSource  = RCC_PLLSOURCE_HSE;
 107              		.loc 1 78 1 is_stmt 1 view .LVU26
 108              		.loc 1 78 34 is_stmt 0 view .LVU27
 109 0060 1393     		str	r3, [sp, #76]
  79:../../../init/terminal/init.c **** RCC_OscInitStruct.PLL.PLLM       = 2;
 110              		.loc 1 79 1 is_stmt 1 view .LVU28
 111              		.loc 1 79 34 is_stmt 0 view .LVU29
 112 0062 1493     		str	r3, [sp, #80]
  80:../../../init/terminal/init.c **** RCC_OscInitStruct.PLL.PLLN       = 80;
 113              		.loc 1 80 1 is_stmt 1 view .LVU30
 114              		.loc 1 80 34 is_stmt 0 view .LVU31
 115 0064 5022     		movs	r2, #80
 116 0066 1592     		str	r2, [sp, #84]
  81:../../../init/terminal/init.c **** RCC_OscInitStruct.PLL.PLLP       = 2;
 117              		.loc 1 81 1 is_stmt 1 view .LVU32
 118              		.loc 1 81 34 is_stmt 0 view .LVU33
 119 0068 1693     		str	r3, [sp, #88]
  82:../../../init/terminal/init.c **** RCC_OscInitStruct.PLL.PLLQ       = 2;
 120              		.loc 1 82 1 is_stmt 1 view .LVU34
 121              		.loc 1 82 34 is_stmt 0 view .LVU35
 122 006a 1793     		str	r3, [sp, #92]
  83:../../../init/terminal/init.c **** RCC_OscInitStruct.PLL.PLLR       = 2;
 123              		.loc 1 83 1 is_stmt 1 view .LVU36
 124              		.loc 1 83 34 is_stmt 0 view .LVU37
 125 006c 1893     		str	r3, [sp, #96]
  84:../../../init/terminal/init.c **** RCC_OscInitStruct.PLL.PLLRGE     = RCC_PLL1VCIRANGE_3;
 126              		.loc 1 84 1 is_stmt 1 view .LVU38
 127              		.loc 1 84 34 is_stmt 0 view .LVU39
 128 006e 0C23     		movs	r3, #12
 129 0070 1993     		str	r3, [sp, #100]
  85:../../../init/terminal/init.c **** RCC_OscInitStruct.PLL.PLLVCOSEL  = RCC_PLL1VCOWIDE;
 130              		.loc 1 85 1 is_stmt 1 view .LVU40
 131              		.loc 1 85 34 is_stmt 0 view .LVU41
 132 0072 0023     		movs	r3, #0
 133 0074 1A93     		str	r3, [sp, #104]
  86:../../../init/terminal/init.c **** RCC_OscInitStruct.PLL.PLLFRACN   = 0;
 134              		.loc 1 86 1 is_stmt 1 view .LVU42
 135              		.loc 1 86 34 is_stmt 0 view .LVU43
 136 0076 1B93     		str	r3, [sp, #108]
  87:../../../init/terminal/init.c **** if ( HAL_RCC_OscConfig( &RCC_OscInitStruct ) != HAL_OK )
 137              		.loc 1 87 1 is_stmt 1 view .LVU44
 138              		.loc 1 87 6 is_stmt 0 view .LVU45
 139 0078 09A8     		add	r0, sp, #36
ARM GAS  /tmp/ccq0cjMd.s 			page 5


 140 007a FFF7FEFF 		bl	HAL_RCC_OscConfig
 141              	.LVL3:
 142              		.loc 1 87 4 view .LVU46
 143 007e B8B9     		cbnz	r0, .L6
 144              	.L3:
  88:../../../init/terminal/init.c **** 	{
  89:../../../init/terminal/init.c **** 	Error_Handler( ERROR_SYSCLOCK_CONFIG_ERROR );
  90:../../../init/terminal/init.c **** 	}
  91:../../../init/terminal/init.c **** 
  92:../../../init/terminal/init.c **** /* Initializes the CPU, AHB and APB buses clocks */
  93:../../../init/terminal/init.c **** RCC_ClkInitStruct.ClockType      = RCC_CLOCKTYPE_HCLK    |
 145              		.loc 1 93 1 is_stmt 1 view .LVU47
 146              		.loc 1 93 34 is_stmt 0 view .LVU48
 147 0080 3F23     		movs	r3, #63
 148 0082 0193     		str	r3, [sp, #4]
  94:../../../init/terminal/init.c **** 								   RCC_CLOCKTYPE_SYSCLK  |
  95:../../../init/terminal/init.c ****                                    RCC_CLOCKTYPE_PCLK1   |
  96:../../../init/terminal/init.c **** 	                               RCC_CLOCKTYPE_PCLK2   |
  97:../../../init/terminal/init.c ****                                    RCC_CLOCKTYPE_D3PCLK1 |
  98:../../../init/terminal/init.c **** 	                               RCC_CLOCKTYPE_D1PCLK1;
  99:../../../init/terminal/init.c **** RCC_ClkInitStruct.SYSCLKSource   = RCC_SYSCLKSOURCE_PLLCLK;
 149              		.loc 1 99 1 is_stmt 1 view .LVU49
 150              		.loc 1 99 34 is_stmt 0 view .LVU50
 151 0084 0323     		movs	r3, #3
 152 0086 0293     		str	r3, [sp, #8]
 100:../../../init/terminal/init.c **** RCC_ClkInitStruct.SYSCLKDivider  = RCC_SYSCLK_DIV1;
 153              		.loc 1 100 1 is_stmt 1 view .LVU51
 154              		.loc 1 100 34 is_stmt 0 view .LVU52
 155 0088 0023     		movs	r3, #0
 156 008a 0393     		str	r3, [sp, #12]
 101:../../../init/terminal/init.c **** RCC_ClkInitStruct.AHBCLKDivider  = RCC_HCLK_DIV2;
 157              		.loc 1 101 1 is_stmt 1 view .LVU53
 158              		.loc 1 101 34 is_stmt 0 view .LVU54
 159 008c 0823     		movs	r3, #8
 160 008e 0493     		str	r3, [sp, #16]
 102:../../../init/terminal/init.c **** RCC_ClkInitStruct.APB3CLKDivider = RCC_APB3_DIV2;
 161              		.loc 1 102 1 is_stmt 1 view .LVU55
 162              		.loc 1 102 34 is_stmt 0 view .LVU56
 163 0090 4023     		movs	r3, #64
 164 0092 0593     		str	r3, [sp, #20]
 103:../../../init/terminal/init.c **** RCC_ClkInitStruct.APB1CLKDivider = RCC_APB1_DIV2;
 165              		.loc 1 103 1 is_stmt 1 view .LVU57
 166              		.loc 1 103 34 is_stmt 0 view .LVU58
 167 0094 0693     		str	r3, [sp, #24]
 104:../../../init/terminal/init.c **** RCC_ClkInitStruct.APB2CLKDivider = RCC_APB2_DIV2;
 168              		.loc 1 104 1 is_stmt 1 view .LVU59
 169              		.loc 1 104 34 is_stmt 0 view .LVU60
 170 0096 4FF48062 		mov	r2, #1024
 171 009a 0792     		str	r2, [sp, #28]
 105:../../../init/terminal/init.c **** RCC_ClkInitStruct.APB4CLKDivider = RCC_APB4_DIV2;
 172              		.loc 1 105 1 is_stmt 1 view .LVU61
 173              		.loc 1 105 34 is_stmt 0 view .LVU62
 174 009c 0893     		str	r3, [sp, #32]
 106:../../../init/terminal/init.c **** 
 107:../../../init/terminal/init.c **** if ( HAL_RCC_ClockConfig( &RCC_ClkInitStruct, FLASH_LATENCY_4 ) != HAL_OK )
 175              		.loc 1 107 1 is_stmt 1 view .LVU63
 176              		.loc 1 107 6 is_stmt 0 view .LVU64
ARM GAS  /tmp/ccq0cjMd.s 			page 6


 177 009e 0421     		movs	r1, #4
 178 00a0 0DEB0100 		add	r0, sp, r1
 179 00a4 FFF7FEFF 		bl	HAL_RCC_ClockConfig
 180              	.LVL4:
 181              		.loc 1 107 4 view .LVU65
 182 00a8 30B9     		cbnz	r0, .L7
 183              	.L1:
 108:../../../init/terminal/init.c **** 	{
 109:../../../init/terminal/init.c **** 	Error_Handler( ERROR_SYSCLOCK_CONFIG_ERROR );
 110:../../../init/terminal/init.c **** 	}
 111:../../../init/terminal/init.c **** 
 112:../../../init/terminal/init.c **** } /* SystemClock_Config */
 184              		.loc 1 112 1 view .LVU66
 185 00aa 1DB0     		add	sp, sp, #116
 186              	.LCFI2:
 187              		.cfi_remember_state
 188              		.cfi_def_cfa_offset 4
 189              		@ sp needed
 190 00ac 5DF804FB 		ldr	pc, [sp], #4
 191              	.L6:
 192              	.LCFI3:
 193              		.cfi_restore_state
  89:../../../init/terminal/init.c **** 	}
 194              		.loc 1 89 2 is_stmt 1 view .LVU67
 195 00b0 0B20     		movs	r0, #11
 196 00b2 FFF7FEFF 		bl	Error_Handler
 197              	.LVL5:
 198 00b6 E3E7     		b	.L3
 199              	.L7:
 109:../../../init/terminal/init.c **** 	}
 200              		.loc 1 109 2 view .LVU68
 201 00b8 0B20     		movs	r0, #11
 202 00ba FFF7FEFF 		bl	Error_Handler
 203              	.LVL6:
 204              		.loc 1 112 1 is_stmt 0 view .LVU69
 205 00be F4E7     		b	.L1
 206              	.L9:
 207              		.align	2
 208              	.L8:
 209 00c0 00480258 		.word	1476544512
 210 00c4 00040058 		.word	1476396032
 211              		.cfi_endproc
 212              	.LFE144:
 214              		.section	.text.PeriphCommonClock_Config,"ax",%progbits
 215              		.align	1
 216              		.global	PeriphCommonClock_Config
 217              		.syntax unified
 218              		.thumb
 219              		.thumb_func
 221              	PeriphCommonClock_Config:
 222              	.LFB145:
 113:../../../init/terminal/init.c **** 
 114:../../../init/terminal/init.c **** 
 115:../../../init/terminal/init.c **** /*******************************************************************************
 116:../../../init/terminal/init.c **** *                                                                              *
 117:../../../init/terminal/init.c **** * PROCEDURE:                                                                   *
 118:../../../init/terminal/init.c **** * 		PeriphCommonClock_Config                                               *
ARM GAS  /tmp/ccq0cjMd.s 			page 7


 119:../../../init/terminal/init.c **** *                                                                              *
 120:../../../init/terminal/init.c **** * DESCRIPTION:                                                                 *
 121:../../../init/terminal/init.c **** *       brief Peripherals Common Clock Configuration                           *
 122:../../../init/terminal/init.c **** *                                                                              *
 123:../../../init/terminal/init.c **** *******************************************************************************/
 124:../../../init/terminal/init.c **** void PeriphCommonClock_Config
 125:../../../init/terminal/init.c **** 	(
 126:../../../init/terminal/init.c **** 	void
 127:../../../init/terminal/init.c **** 	)
 128:../../../init/terminal/init.c **** {
 223              		.loc 1 128 1 is_stmt 1 view -0
 224              		.cfi_startproc
 225              		@ args = 0, pretend = 0, frame = 192
 226              		@ frame_needed = 0, uses_anonymous_args = 0
 227 0000 00B5     		push	{lr}
 228              	.LCFI4:
 229              		.cfi_def_cfa_offset 4
 230              		.cfi_offset 14, -4
 231 0002 B1B0     		sub	sp, sp, #196
 232              	.LCFI5:
 233              		.cfi_def_cfa_offset 200
 129:../../../init/terminal/init.c **** RCC_PeriphCLKInitTypeDef PeriphClkInitStruct = {0};
 234              		.loc 1 129 1 view .LVU71
 235              		.loc 1 129 26 is_stmt 0 view .LVU72
 236 0004 BC22     		movs	r2, #188
 237 0006 0021     		movs	r1, #0
 238 0008 01A8     		add	r0, sp, #4
 239 000a FFF7FEFF 		bl	memset
 240              	.LVL7:
 130:../../../init/terminal/init.c **** 
 131:../../../init/terminal/init.c **** /* Initializes the peripherals clock */
 132:../../../init/terminal/init.c **** PeriphClkInitStruct.PeriphClockSelection = RCC_PERIPHCLK_SDMMC |
 241              		.loc 1 132 1 is_stmt 1 view .LVU73
 242              		.loc 1 132 42 is_stmt 0 view .LVU74
 243 000e 4FF48833 		mov	r3, #69632
 244 0012 0193     		str	r3, [sp, #4]
 133:../../../init/terminal/init.c ****                                            RCC_PERIPHCLK_SPI2;
 134:../../../init/terminal/init.c **** PeriphClkInitStruct.PLL2.PLL2M           = 2;
 245              		.loc 1 134 1 is_stmt 1 view .LVU75
 246              		.loc 1 134 42 is_stmt 0 view .LVU76
 247 0014 0223     		movs	r3, #2
 248 0016 0293     		str	r3, [sp, #8]
 135:../../../init/terminal/init.c **** PeriphClkInitStruct.PLL2.PLL2N           = 16;
 249              		.loc 1 135 1 is_stmt 1 view .LVU77
 250              		.loc 1 135 42 is_stmt 0 view .LVU78
 251 0018 1022     		movs	r2, #16
 252 001a 0392     		str	r2, [sp, #12]
 136:../../../init/terminal/init.c **** PeriphClkInitStruct.PLL2.PLL2P           = 2;
 253              		.loc 1 136 1 is_stmt 1 view .LVU79
 254              		.loc 1 136 42 is_stmt 0 view .LVU80
 255 001c 0493     		str	r3, [sp, #16]
 137:../../../init/terminal/init.c **** PeriphClkInitStruct.PLL2.PLL2Q           = 2;
 256              		.loc 1 137 1 is_stmt 1 view .LVU81
 257              		.loc 1 137 42 is_stmt 0 view .LVU82
 258 001e 0593     		str	r3, [sp, #20]
 138:../../../init/terminal/init.c **** PeriphClkInitStruct.PLL2.PLL2R           = 2;
 259              		.loc 1 138 1 is_stmt 1 view .LVU83
ARM GAS  /tmp/ccq0cjMd.s 			page 8


 260              		.loc 1 138 42 is_stmt 0 view .LVU84
 261 0020 0693     		str	r3, [sp, #24]
 139:../../../init/terminal/init.c **** PeriphClkInitStruct.PLL2.PLL2RGE         = RCC_PLL2VCIRANGE_3;
 262              		.loc 1 139 1 is_stmt 1 view .LVU85
 263              		.loc 1 139 42 is_stmt 0 view .LVU86
 264 0022 C023     		movs	r3, #192
 265 0024 0793     		str	r3, [sp, #28]
 140:../../../init/terminal/init.c **** PeriphClkInitStruct.PLL2.PLL2VCOSEL      = RCC_PLL2VCOWIDE;
 266              		.loc 1 140 1 is_stmt 1 view .LVU87
 141:../../../init/terminal/init.c **** PeriphClkInitStruct.PLL2.PLL2FRACN       = 0;
 267              		.loc 1 141 1 view .LVU88
 142:../../../init/terminal/init.c **** PeriphClkInitStruct.SdmmcClockSelection  = RCC_SDMMCCLKSOURCE_PLL2;
 268              		.loc 1 142 1 view .LVU89
 269              		.loc 1 142 42 is_stmt 0 view .LVU90
 270 0026 4FF48033 		mov	r3, #65536
 271 002a 1493     		str	r3, [sp, #80]
 143:../../../init/terminal/init.c **** PeriphClkInitStruct.Spi123ClockSelection = RCC_SPI123CLKSOURCE_PLL2;
 272              		.loc 1 143 1 is_stmt 1 view .LVU91
 273              		.loc 1 143 42 is_stmt 0 view .LVU92
 274 002c 4FF48053 		mov	r3, #4096
 275 0030 1893     		str	r3, [sp, #96]
 144:../../../init/terminal/init.c **** if ( HAL_RCCEx_PeriphCLKConfig( &PeriphClkInitStruct ) != HAL_OK )
 276              		.loc 1 144 1 is_stmt 1 view .LVU93
 277              		.loc 1 144 6 is_stmt 0 view .LVU94
 278 0032 01A8     		add	r0, sp, #4
 279 0034 FFF7FEFF 		bl	HAL_RCCEx_PeriphCLKConfig
 280              	.LVL8:
 281              		.loc 1 144 4 view .LVU95
 282 0038 10B9     		cbnz	r0, .L13
 283              	.L10:
 145:../../../init/terminal/init.c **** 	{
 146:../../../init/terminal/init.c **** 	Error_Handler( ERROR_COMMON_CLOCK_CONFIG_ERROR );
 147:../../../init/terminal/init.c **** 	}
 148:../../../init/terminal/init.c **** } /* PeriphCommonClock_Config */
 284              		.loc 1 148 1 view .LVU96
 285 003a 31B0     		add	sp, sp, #196
 286              	.LCFI6:
 287              		.cfi_remember_state
 288              		.cfi_def_cfa_offset 4
 289              		@ sp needed
 290 003c 5DF804FB 		ldr	pc, [sp], #4
 291              	.L13:
 292              	.LCFI7:
 293              		.cfi_restore_state
 146:../../../init/terminal/init.c **** 	}
 294              		.loc 1 146 2 is_stmt 1 view .LVU97
 295 0040 0C20     		movs	r0, #12
 296 0042 FFF7FEFF 		bl	Error_Handler
 297              	.LVL9:
 298              		.loc 1 148 1 is_stmt 0 view .LVU98
 299 0046 F8E7     		b	.L10
 300              		.cfi_endproc
 301              	.LFE145:
 303              		.section	.text.IMU_GPS_I2C_Init,"ax",%progbits
 304              		.align	1
 305              		.global	IMU_GPS_I2C_Init
 306              		.syntax unified
ARM GAS  /tmp/ccq0cjMd.s 			page 9


 307              		.thumb
 308              		.thumb_func
 310              	IMU_GPS_I2C_Init:
 311              	.LFB146:
 149:../../../init/terminal/init.c **** 
 150:../../../init/terminal/init.c **** 
 151:../../../init/terminal/init.c **** /*******************************************************************************
 152:../../../init/terminal/init.c **** *                                                                              *
 153:../../../init/terminal/init.c **** * PROCEDURE:                                                                   *
 154:../../../init/terminal/init.c **** * 		IMU_GPS_I2C_Init                                                       *
 155:../../../init/terminal/init.c **** *                                                                              *
 156:../../../init/terminal/init.c **** * DESCRIPTION:                                                                 *
 157:../../../init/terminal/init.c **** * 		Initializes the microcontroller I2C Interface for the IMU and GPS      *
 158:../../../init/terminal/init.c **** *                                                                              *
 159:../../../init/terminal/init.c **** *******************************************************************************/
 160:../../../init/terminal/init.c **** void IMU_GPS_I2C_Init
 161:../../../init/terminal/init.c **** 	(
 162:../../../init/terminal/init.c **** 	void
 163:../../../init/terminal/init.c **** 	)
 164:../../../init/terminal/init.c **** {
 312              		.loc 1 164 1 is_stmt 1 view -0
 313              		.cfi_startproc
 314              		@ args = 0, pretend = 0, frame = 0
 315              		@ frame_needed = 0, uses_anonymous_args = 0
 316 0000 08B5     		push	{r3, lr}
 317              	.LCFI8:
 318              		.cfi_def_cfa_offset 8
 319              		.cfi_offset 3, -8
 320              		.cfi_offset 14, -4
 165:../../../init/terminal/init.c **** 
 166:../../../init/terminal/init.c **** /* I2C configuration settings */
 167:../../../init/terminal/init.c **** hi2c2.Instance              = I2C2;
 321              		.loc 1 167 1 view .LVU100
 322              		.loc 1 167 29 is_stmt 0 view .LVU101
 323 0002 1648     		ldr	r0, .L22
 324 0004 164B     		ldr	r3, .L22+4
 325 0006 0360     		str	r3, [r0]
 168:../../../init/terminal/init.c **** hi2c2.Init.Timing           = 0x307075B1;
 326              		.loc 1 168 1 is_stmt 1 view .LVU102
 327              		.loc 1 168 29 is_stmt 0 view .LVU103
 328 0008 A3F17863 		sub	r3, r3, #260046848
 329 000c A3F57E23 		sub	r3, r3, #1040384
 330 0010 A3F24F23 		subw	r3, r3, #591
 331 0014 4360     		str	r3, [r0, #4]
 169:../../../init/terminal/init.c **** hi2c2.Init.OwnAddress1      = 0;
 332              		.loc 1 169 1 is_stmt 1 view .LVU104
 333              		.loc 1 169 29 is_stmt 0 view .LVU105
 334 0016 0023     		movs	r3, #0
 335 0018 8360     		str	r3, [r0, #8]
 170:../../../init/terminal/init.c **** hi2c2.Init.AddressingMode   = I2C_ADDRESSINGMODE_7BIT;
 336              		.loc 1 170 1 is_stmt 1 view .LVU106
 337              		.loc 1 170 29 is_stmt 0 view .LVU107
 338 001a 0122     		movs	r2, #1
 339 001c C260     		str	r2, [r0, #12]
 171:../../../init/terminal/init.c **** hi2c2.Init.DualAddressMode  = I2C_DUALADDRESS_DISABLE;
 340              		.loc 1 171 1 is_stmt 1 view .LVU108
 341              		.loc 1 171 29 is_stmt 0 view .LVU109
ARM GAS  /tmp/ccq0cjMd.s 			page 10


 342 001e 0361     		str	r3, [r0, #16]
 172:../../../init/terminal/init.c **** hi2c2.Init.OwnAddress2      = 0;
 343              		.loc 1 172 1 is_stmt 1 view .LVU110
 344              		.loc 1 172 29 is_stmt 0 view .LVU111
 345 0020 4361     		str	r3, [r0, #20]
 173:../../../init/terminal/init.c **** hi2c2.Init.OwnAddress2Masks = I2C_OA2_NOMASK;
 346              		.loc 1 173 1 is_stmt 1 view .LVU112
 347              		.loc 1 173 29 is_stmt 0 view .LVU113
 348 0022 8361     		str	r3, [r0, #24]
 174:../../../init/terminal/init.c **** hi2c2.Init.GeneralCallMode  = I2C_GENERALCALL_DISABLE;
 349              		.loc 1 174 1 is_stmt 1 view .LVU114
 350              		.loc 1 174 29 is_stmt 0 view .LVU115
 351 0024 C361     		str	r3, [r0, #28]
 175:../../../init/terminal/init.c **** hi2c2.Init.NoStretchMode    = I2C_NOSTRETCH_DISABLE;
 352              		.loc 1 175 1 is_stmt 1 view .LVU116
 353              		.loc 1 175 29 is_stmt 0 view .LVU117
 354 0026 0362     		str	r3, [r0, #32]
 176:../../../init/terminal/init.c **** 
 177:../../../init/terminal/init.c **** /* Apply settings */
 178:../../../init/terminal/init.c **** if ( HAL_I2C_Init( &hi2c2 ) != HAL_OK )
 355              		.loc 1 178 1 is_stmt 1 view .LVU118
 356              		.loc 1 178 6 is_stmt 0 view .LVU119
 357 0028 FFF7FEFF 		bl	HAL_I2C_Init
 358              	.LVL10:
 359              		.loc 1 178 4 view .LVU120
 360 002c 50B9     		cbnz	r0, .L19
 361              	.L15:
 179:../../../init/terminal/init.c **** 	{
 180:../../../init/terminal/init.c **** 	Error_Handler( ERROR_IMU_I2C_INIT_ERROR );
 181:../../../init/terminal/init.c **** 	}
 182:../../../init/terminal/init.c **** 
 183:../../../init/terminal/init.c **** /* Configure Analogue filter */
 184:../../../init/terminal/init.c **** if ( HAL_I2CEx_ConfigAnalogFilter( &hi2c2, I2C_ANALOGFILTER_ENABLE ) != HAL_OK )
 362              		.loc 1 184 1 is_stmt 1 view .LVU121
 363              		.loc 1 184 6 is_stmt 0 view .LVU122
 364 002e 0021     		movs	r1, #0
 365 0030 0A48     		ldr	r0, .L22
 366 0032 FFF7FEFF 		bl	HAL_I2CEx_ConfigAnalogFilter
 367              	.LVL11:
 368              		.loc 1 184 4 view .LVU123
 369 0036 48B9     		cbnz	r0, .L20
 370              	.L16:
 185:../../../init/terminal/init.c **** 	{
 186:../../../init/terminal/init.c **** 	Error_Handler( ERROR_IMU_I2C_INIT_ERROR );
 187:../../../init/terminal/init.c **** 	}
 188:../../../init/terminal/init.c **** 
 189:../../../init/terminal/init.c **** /* Configure Digital filter */
 190:../../../init/terminal/init.c **** if ( HAL_I2CEx_ConfigDigitalFilter( &hi2c2, 0 ) != HAL_OK )
 371              		.loc 1 190 1 is_stmt 1 view .LVU124
 372              		.loc 1 190 6 is_stmt 0 view .LVU125
 373 0038 0021     		movs	r1, #0
 374 003a 0848     		ldr	r0, .L22
 375 003c FFF7FEFF 		bl	HAL_I2CEx_ConfigDigitalFilter
 376              	.LVL12:
 377              		.loc 1 190 4 view .LVU126
 378 0040 40B9     		cbnz	r0, .L21
 379              	.L14:
ARM GAS  /tmp/ccq0cjMd.s 			page 11


 191:../../../init/terminal/init.c **** 	{
 192:../../../init/terminal/init.c **** 	Error_Handler( ERROR_IMU_I2C_INIT_ERROR );
 193:../../../init/terminal/init.c **** 	}
 194:../../../init/terminal/init.c **** 
 195:../../../init/terminal/init.c **** } /* IMU_GPS_I2C_Init */
 380              		.loc 1 195 1 view .LVU127
 381 0042 08BD     		pop	{r3, pc}
 382              	.L19:
 180:../../../init/terminal/init.c **** 	}
 383              		.loc 1 180 2 is_stmt 1 view .LVU128
 384 0044 0D20     		movs	r0, #13
 385 0046 FFF7FEFF 		bl	Error_Handler
 386              	.LVL13:
 387 004a F0E7     		b	.L15
 388              	.L20:
 186:../../../init/terminal/init.c **** 	}
 389              		.loc 1 186 2 view .LVU129
 390 004c 0D20     		movs	r0, #13
 391 004e FFF7FEFF 		bl	Error_Handler
 392              	.LVL14:
 393 0052 F1E7     		b	.L16
 394              	.L21:
 192:../../../init/terminal/init.c **** 	}
 395              		.loc 1 192 2 view .LVU130
 396 0054 0D20     		movs	r0, #13
 397 0056 FFF7FEFF 		bl	Error_Handler
 398              	.LVL15:
 399              		.loc 1 195 1 is_stmt 0 view .LVU131
 400 005a F2E7     		b	.L14
 401              	.L23:
 402              		.align	2
 403              	.L22:
 404 005c 00000000 		.word	hi2c2
 405 0060 00580040 		.word	1073764352
 406              		.cfi_endproc
 407              	.LFE146:
 409              		.section	.text.Baro_I2C_Init,"ax",%progbits
 410              		.align	1
 411              		.global	Baro_I2C_Init
 412              		.syntax unified
 413              		.thumb
 414              		.thumb_func
 416              	Baro_I2C_Init:
 417              	.LFB147:
 196:../../../init/terminal/init.c **** 
 197:../../../init/terminal/init.c **** 
 198:../../../init/terminal/init.c **** /*******************************************************************************
 199:../../../init/terminal/init.c **** *                                                                              *
 200:../../../init/terminal/init.c **** * PROCEDURE:                                                                   * 
 201:../../../init/terminal/init.c **** * 		Baro_I2C_Config                                                        *
 202:../../../init/terminal/init.c **** *                                                                              *
 203:../../../init/terminal/init.c **** * DESCRIPTION:                                                                 * 
 204:../../../init/terminal/init.c **** * 		Initializes the microcontroller I2C Interface for the barometric       *
 205:../../../init/terminal/init.c **** *       pressure sensor                                                        *
 206:../../../init/terminal/init.c **** *                                                                              *
 207:../../../init/terminal/init.c **** *******************************************************************************/
 208:../../../init/terminal/init.c **** void Baro_I2C_Init
ARM GAS  /tmp/ccq0cjMd.s 			page 12


 209:../../../init/terminal/init.c **** 	(
 210:../../../init/terminal/init.c **** 	void
 211:../../../init/terminal/init.c **** 	)
 212:../../../init/terminal/init.c **** {
 418              		.loc 1 212 1 is_stmt 1 view -0
 419              		.cfi_startproc
 420              		@ args = 0, pretend = 0, frame = 0
 421              		@ frame_needed = 0, uses_anonymous_args = 0
 422 0000 08B5     		push	{r3, lr}
 423              	.LCFI9:
 424              		.cfi_def_cfa_offset 8
 425              		.cfi_offset 3, -8
 426              		.cfi_offset 14, -4
 213:../../../init/terminal/init.c **** 
 214:../../../init/terminal/init.c **** /* I2C Settings */
 215:../../../init/terminal/init.c **** hi2c1.Instance              = I2C1;
 427              		.loc 1 215 1 view .LVU133
 428              		.loc 1 215 29 is_stmt 0 view .LVU134
 429 0002 1648     		ldr	r0, .L32
 430 0004 164B     		ldr	r3, .L32+4
 431 0006 0360     		str	r3, [r0]
 216:../../../init/terminal/init.c **** hi2c1.Init.Timing           = 0x307075B1;
 432              		.loc 1 216 1 is_stmt 1 view .LVU135
 433              		.loc 1 216 29 is_stmt 0 view .LVU136
 434 0008 A3F17863 		sub	r3, r3, #260046848
 435 000c A3F57D23 		sub	r3, r3, #1036288
 436 0010 A3F64F63 		subw	r3, r3, #3663
 437 0014 4360     		str	r3, [r0, #4]
 217:../../../init/terminal/init.c **** hi2c1.Init.OwnAddress1      = 0;
 438              		.loc 1 217 1 is_stmt 1 view .LVU137
 439              		.loc 1 217 29 is_stmt 0 view .LVU138
 440 0016 0023     		movs	r3, #0
 441 0018 8360     		str	r3, [r0, #8]
 218:../../../init/terminal/init.c **** hi2c1.Init.AddressingMode   = I2C_ADDRESSINGMODE_7BIT;
 442              		.loc 1 218 1 is_stmt 1 view .LVU139
 443              		.loc 1 218 29 is_stmt 0 view .LVU140
 444 001a 0122     		movs	r2, #1
 445 001c C260     		str	r2, [r0, #12]
 219:../../../init/terminal/init.c **** hi2c1.Init.DualAddressMode  = I2C_DUALADDRESS_DISABLE;
 446              		.loc 1 219 1 is_stmt 1 view .LVU141
 447              		.loc 1 219 29 is_stmt 0 view .LVU142
 448 001e 0361     		str	r3, [r0, #16]
 220:../../../init/terminal/init.c **** hi2c1.Init.OwnAddress2      = 0;
 449              		.loc 1 220 1 is_stmt 1 view .LVU143
 450              		.loc 1 220 29 is_stmt 0 view .LVU144
 451 0020 4361     		str	r3, [r0, #20]
 221:../../../init/terminal/init.c **** hi2c1.Init.OwnAddress2Masks = I2C_OA2_NOMASK;
 452              		.loc 1 221 1 is_stmt 1 view .LVU145
 453              		.loc 1 221 29 is_stmt 0 view .LVU146
 454 0022 8361     		str	r3, [r0, #24]
 222:../../../init/terminal/init.c **** hi2c1.Init.GeneralCallMode  = I2C_GENERALCALL_DISABLE;
 455              		.loc 1 222 1 is_stmt 1 view .LVU147
 456              		.loc 1 222 29 is_stmt 0 view .LVU148
 457 0024 C361     		str	r3, [r0, #28]
 223:../../../init/terminal/init.c **** hi2c1.Init.NoStretchMode    = I2C_NOSTRETCH_DISABLE;
 458              		.loc 1 223 1 is_stmt 1 view .LVU149
 459              		.loc 1 223 29 is_stmt 0 view .LVU150
ARM GAS  /tmp/ccq0cjMd.s 			page 13


 460 0026 0362     		str	r3, [r0, #32]
 224:../../../init/terminal/init.c **** 
 225:../../../init/terminal/init.c **** /* Apply Settings */
 226:../../../init/terminal/init.c **** if ( HAL_I2C_Init( &hi2c1 ) != HAL_OK )
 461              		.loc 1 226 1 is_stmt 1 view .LVU151
 462              		.loc 1 226 6 is_stmt 0 view .LVU152
 463 0028 FFF7FEFF 		bl	HAL_I2C_Init
 464              	.LVL16:
 465              		.loc 1 226 4 view .LVU153
 466 002c 50B9     		cbnz	r0, .L29
 467              	.L25:
 227:../../../init/terminal/init.c **** 	{
 228:../../../init/terminal/init.c **** 	Error_Handler( ERROR_BARO_I2C_INIT_ERROR );
 229:../../../init/terminal/init.c **** 	}
 230:../../../init/terminal/init.c **** 
 231:../../../init/terminal/init.c **** /* Configure Analogue filter */
 232:../../../init/terminal/init.c **** if ( HAL_I2CEx_ConfigAnalogFilter( &hi2c1, I2C_ANALOGFILTER_ENABLE ) != HAL_OK )
 468              		.loc 1 232 1 is_stmt 1 view .LVU154
 469              		.loc 1 232 6 is_stmt 0 view .LVU155
 470 002e 0021     		movs	r1, #0
 471 0030 0A48     		ldr	r0, .L32
 472 0032 FFF7FEFF 		bl	HAL_I2CEx_ConfigAnalogFilter
 473              	.LVL17:
 474              		.loc 1 232 4 view .LVU156
 475 0036 48B9     		cbnz	r0, .L30
 476              	.L26:
 233:../../../init/terminal/init.c **** 	{
 234:../../../init/terminal/init.c **** 	Error_Handler( ERROR_BARO_I2C_INIT_ERROR );
 235:../../../init/terminal/init.c **** 	}
 236:../../../init/terminal/init.c **** 
 237:../../../init/terminal/init.c **** /* Configure Digital filter */
 238:../../../init/terminal/init.c **** if ( HAL_I2CEx_ConfigDigitalFilter( &hi2c1, 0 ) != HAL_OK )
 477              		.loc 1 238 1 is_stmt 1 view .LVU157
 478              		.loc 1 238 6 is_stmt 0 view .LVU158
 479 0038 0021     		movs	r1, #0
 480 003a 0848     		ldr	r0, .L32
 481 003c FFF7FEFF 		bl	HAL_I2CEx_ConfigDigitalFilter
 482              	.LVL18:
 483              		.loc 1 238 4 view .LVU159
 484 0040 40B9     		cbnz	r0, .L31
 485              	.L24:
 239:../../../init/terminal/init.c **** 	{
 240:../../../init/terminal/init.c **** 	Error_Handler( ERROR_BARO_I2C_INIT_ERROR );
 241:../../../init/terminal/init.c **** 	}
 242:../../../init/terminal/init.c **** 
 243:../../../init/terminal/init.c **** } /* Baro_I2C_Init */
 486              		.loc 1 243 1 view .LVU160
 487 0042 08BD     		pop	{r3, pc}
 488              	.L29:
 228:../../../init/terminal/init.c **** 	}
 489              		.loc 1 228 2 is_stmt 1 view .LVU161
 490 0044 0E20     		movs	r0, #14
 491 0046 FFF7FEFF 		bl	Error_Handler
 492              	.LVL19:
 493 004a F0E7     		b	.L25
 494              	.L30:
 234:../../../init/terminal/init.c **** 	}
ARM GAS  /tmp/ccq0cjMd.s 			page 14


 495              		.loc 1 234 2 view .LVU162
 496 004c 0E20     		movs	r0, #14
 497 004e FFF7FEFF 		bl	Error_Handler
 498              	.LVL20:
 499 0052 F1E7     		b	.L26
 500              	.L31:
 240:../../../init/terminal/init.c **** 	}
 501              		.loc 1 240 2 view .LVU163
 502 0054 0E20     		movs	r0, #14
 503 0056 FFF7FEFF 		bl	Error_Handler
 504              	.LVL21:
 505              		.loc 1 243 1 is_stmt 0 view .LVU164
 506 005a F2E7     		b	.L24
 507              	.L33:
 508              		.align	2
 509              	.L32:
 510 005c 00000000 		.word	hi2c1
 511 0060 00540040 		.word	1073763328
 512              		.cfi_endproc
 513              	.LFE147:
 515              		.section	.text.SD_SDMMC_Init,"ax",%progbits
 516              		.align	1
 517              		.global	SD_SDMMC_Init
 518              		.syntax unified
 519              		.thumb
 520              		.thumb_func
 522              	SD_SDMMC_Init:
 523              	.LFB148:
 244:../../../init/terminal/init.c **** 
 245:../../../init/terminal/init.c **** 
 246:../../../init/terminal/init.c **** /*******************************************************************************
 247:../../../init/terminal/init.c **** *                                                                              *
 248:../../../init/terminal/init.c **** * PROCEDURE NAME:                                                              *
 249:../../../init/terminal/init.c **** * 		SD_SDMMC_Init                                                          *
 250:../../../init/terminal/init.c **** *                                                                              *
 251:../../../init/terminal/init.c **** * DESCRIPTION:                                                                 *
 252:../../../init/terminal/init.c **** * 		Initializes the SDMMC interface used for communication with the SD     *
 253:../../../init/terminal/init.c **** *       card                                                                   *
 254:../../../init/terminal/init.c **** *                                                                              *
 255:../../../init/terminal/init.c **** *******************************************************************************/
 256:../../../init/terminal/init.c **** void SD_SDMMC_Init
 257:../../../init/terminal/init.c **** 	(
 258:../../../init/terminal/init.c **** 	void
 259:../../../init/terminal/init.c **** 	)
 260:../../../init/terminal/init.c **** {
 524              		.loc 1 260 1 is_stmt 1 view -0
 525              		.cfi_startproc
 526              		@ args = 0, pretend = 0, frame = 0
 527              		@ frame_needed = 0, uses_anonymous_args = 0
 528              		@ link register save eliminated.
 261:../../../init/terminal/init.c **** hsd1.Instance                 = SDMMC1;
 529              		.loc 1 261 1 view .LVU166
 530              		.loc 1 261 31 is_stmt 0 view .LVU167
 531 0000 064B     		ldr	r3, .L35
 532 0002 074A     		ldr	r2, .L35+4
 533 0004 1A60     		str	r2, [r3]
 262:../../../init/terminal/init.c **** hsd1.Init.ClockEdge           = SDMMC_CLOCK_EDGE_RISING;
ARM GAS  /tmp/ccq0cjMd.s 			page 15


 534              		.loc 1 262 1 is_stmt 1 view .LVU168
 535              		.loc 1 262 31 is_stmt 0 view .LVU169
 536 0006 0022     		movs	r2, #0
 537 0008 5A60     		str	r2, [r3, #4]
 263:../../../init/terminal/init.c **** hsd1.Init.ClockPowerSave      = SDMMC_CLOCK_POWER_SAVE_DISABLE;
 538              		.loc 1 263 1 is_stmt 1 view .LVU170
 539              		.loc 1 263 31 is_stmt 0 view .LVU171
 540 000a 9A60     		str	r2, [r3, #8]
 264:../../../init/terminal/init.c **** hsd1.Init.BusWide             = SDMMC_BUS_WIDE_4B;
 541              		.loc 1 264 1 is_stmt 1 view .LVU172
 542              		.loc 1 264 31 is_stmt 0 view .LVU173
 543 000c 4FF48041 		mov	r1, #16384
 544 0010 D960     		str	r1, [r3, #12]
 265:../../../init/terminal/init.c **** hsd1.Init.HardwareFlowControl = SDMMC_HARDWARE_FLOW_CONTROL_DISABLE;
 545              		.loc 1 265 1 is_stmt 1 view .LVU174
 546              		.loc 1 265 31 is_stmt 0 view .LVU175
 547 0012 1A61     		str	r2, [r3, #16]
 266:../../../init/terminal/init.c **** hsd1.Init.ClockDiv            = 2;
 548              		.loc 1 266 1 is_stmt 1 view .LVU176
 549              		.loc 1 266 31 is_stmt 0 view .LVU177
 550 0014 0222     		movs	r2, #2
 551 0016 5A61     		str	r2, [r3, #20]
 267:../../../init/terminal/init.c **** } /* SD_SDMMC_Init */
 552              		.loc 1 267 1 view .LVU178
 553 0018 7047     		bx	lr
 554              	.L36:
 555 001a 00BF     		.align	2
 556              	.L35:
 557 001c 00000000 		.word	hsd1
 558 0020 00700052 		.word	1375760384
 559              		.cfi_endproc
 560              	.LFE148:
 562              		.section	.text.FLASH_SPI_Init,"ax",%progbits
 563              		.align	1
 564              		.global	FLASH_SPI_Init
 565              		.syntax unified
 566              		.thumb
 567              		.thumb_func
 569              	FLASH_SPI_Init:
 570              	.LFB149:
 268:../../../init/terminal/init.c **** 
 269:../../../init/terminal/init.c **** 
 270:../../../init/terminal/init.c **** /*******************************************************************************
 271:../../../init/terminal/init.c **** *                                                                              *
 272:../../../init/terminal/init.c **** * PROCEDURE NAME:                                                              *
 273:../../../init/terminal/init.c **** * 		FLASH_SPI_Init                                                         *
 274:../../../init/terminal/init.c **** *                                                                              *
 275:../../../init/terminal/init.c **** * DESCRIPTION:                                                                 *
 276:../../../init/terminal/init.c **** * 		Initializes the SPI interface used for communication with the external *
 277:../../../init/terminal/init.c **** *       flash chip                                                             *
 278:../../../init/terminal/init.c **** *                                                                              *
 279:../../../init/terminal/init.c **** *******************************************************************************/
 280:../../../init/terminal/init.c **** void FLASH_SPI_Init
 281:../../../init/terminal/init.c **** 	(
 282:../../../init/terminal/init.c **** 	void
 283:../../../init/terminal/init.c **** 	)
 284:../../../init/terminal/init.c **** {
ARM GAS  /tmp/ccq0cjMd.s 			page 16


 571              		.loc 1 284 1 is_stmt 1 view -0
 572              		.cfi_startproc
 573              		@ args = 0, pretend = 0, frame = 0
 574              		@ frame_needed = 0, uses_anonymous_args = 0
 575 0000 08B5     		push	{r3, lr}
 576              	.LCFI10:
 577              		.cfi_def_cfa_offset 8
 578              		.cfi_offset 3, -8
 579              		.cfi_offset 14, -4
 285:../../../init/terminal/init.c **** 
 286:../../../init/terminal/init.c **** /* SPI2 parameter configuration*/
 287:../../../init/terminal/init.c **** hspi2.Instance                        = SPI2;
 580              		.loc 1 287 1 view .LVU180
 581              		.loc 1 287 39 is_stmt 0 view .LVU181
 582 0002 1448     		ldr	r0, .L41
 583 0004 144B     		ldr	r3, .L41+4
 584 0006 0360     		str	r3, [r0]
 288:../../../init/terminal/init.c **** hspi2.Init.Mode                       = SPI_MODE_MASTER;
 585              		.loc 1 288 1 is_stmt 1 view .LVU182
 586              		.loc 1 288 39 is_stmt 0 view .LVU183
 587 0008 4FF48003 		mov	r3, #4194304
 588 000c 4360     		str	r3, [r0, #4]
 289:../../../init/terminal/init.c **** hspi2.Init.Direction                  = SPI_DIRECTION_2LINES;
 589              		.loc 1 289 1 is_stmt 1 view .LVU184
 590              		.loc 1 289 39 is_stmt 0 view .LVU185
 591 000e 0023     		movs	r3, #0
 592 0010 8360     		str	r3, [r0, #8]
 290:../../../init/terminal/init.c **** hspi2.Init.DataSize                   = SPI_DATASIZE_8BIT;
 593              		.loc 1 290 1 is_stmt 1 view .LVU186
 594              		.loc 1 290 39 is_stmt 0 view .LVU187
 595 0012 0722     		movs	r2, #7
 596 0014 C260     		str	r2, [r0, #12]
 291:../../../init/terminal/init.c **** hspi2.Init.CLKPolarity                = SPI_POLARITY_LOW;
 597              		.loc 1 291 1 is_stmt 1 view .LVU188
 598              		.loc 1 291 39 is_stmt 0 view .LVU189
 599 0016 0361     		str	r3, [r0, #16]
 292:../../../init/terminal/init.c **** hspi2.Init.CLKPhase                   = SPI_PHASE_1EDGE;
 600              		.loc 1 292 1 is_stmt 1 view .LVU190
 601              		.loc 1 292 39 is_stmt 0 view .LVU191
 602 0018 4361     		str	r3, [r0, #20]
 293:../../../init/terminal/init.c **** hspi2.Init.NSS                        = SPI_NSS_SOFT;
 603              		.loc 1 293 1 is_stmt 1 view .LVU192
 604              		.loc 1 293 39 is_stmt 0 view .LVU193
 605 001a 4FF08062 		mov	r2, #67108864
 606 001e 8261     		str	r2, [r0, #24]
 294:../../../init/terminal/init.c **** hspi2.Init.BaudRatePrescaler          = SPI_BAUDRATEPRESCALER_2;
 607              		.loc 1 294 1 is_stmt 1 view .LVU194
 608              		.loc 1 294 39 is_stmt 0 view .LVU195
 609 0020 C361     		str	r3, [r0, #28]
 295:../../../init/terminal/init.c **** hspi2.Init.FirstBit                   = SPI_FIRSTBIT_MSB;
 610              		.loc 1 295 1 is_stmt 1 view .LVU196
 611              		.loc 1 295 39 is_stmt 0 view .LVU197
 612 0022 0362     		str	r3, [r0, #32]
 296:../../../init/terminal/init.c **** hspi2.Init.TIMode                     = SPI_TIMODE_DISABLE;
 613              		.loc 1 296 1 is_stmt 1 view .LVU198
 614              		.loc 1 296 39 is_stmt 0 view .LVU199
 615 0024 4362     		str	r3, [r0, #36]
ARM GAS  /tmp/ccq0cjMd.s 			page 17


 297:../../../init/terminal/init.c **** hspi2.Init.CRCCalculation             = SPI_CRCCALCULATION_DISABLE;
 616              		.loc 1 297 1 is_stmt 1 view .LVU200
 617              		.loc 1 297 39 is_stmt 0 view .LVU201
 618 0026 8362     		str	r3, [r0, #40]
 298:../../../init/terminal/init.c **** hspi2.Init.CRCPolynomial              = 0x0;
 619              		.loc 1 298 1 is_stmt 1 view .LVU202
 620              		.loc 1 298 39 is_stmt 0 view .LVU203
 621 0028 C362     		str	r3, [r0, #44]
 299:../../../init/terminal/init.c **** hspi2.Init.NSSPMode                   = SPI_NSS_PULSE_ENABLE;
 622              		.loc 1 299 1 is_stmt 1 view .LVU204
 623              		.loc 1 299 39 is_stmt 0 view .LVU205
 624 002a 4FF08042 		mov	r2, #1073741824
 625 002e 4263     		str	r2, [r0, #52]
 300:../../../init/terminal/init.c **** hspi2.Init.NSSPolarity                = SPI_NSS_POLARITY_LOW;
 626              		.loc 1 300 1 is_stmt 1 view .LVU206
 627              		.loc 1 300 39 is_stmt 0 view .LVU207
 628 0030 8363     		str	r3, [r0, #56]
 301:../../../init/terminal/init.c **** hspi2.Init.FifoThreshold              = SPI_FIFO_THRESHOLD_01DATA;
 629              		.loc 1 301 1 is_stmt 1 view .LVU208
 630              		.loc 1 301 39 is_stmt 0 view .LVU209
 631 0032 C363     		str	r3, [r0, #60]
 302:../../../init/terminal/init.c **** hspi2.Init.TxCRCInitializationPattern = SPI_CRC_INITIALIZATION_ALL_ZERO_PATTERN;
 632              		.loc 1 302 1 is_stmt 1 view .LVU210
 633              		.loc 1 302 39 is_stmt 0 view .LVU211
 634 0034 0364     		str	r3, [r0, #64]
 303:../../../init/terminal/init.c **** hspi2.Init.RxCRCInitializationPattern = SPI_CRC_INITIALIZATION_ALL_ZERO_PATTERN;
 635              		.loc 1 303 1 is_stmt 1 view .LVU212
 636              		.loc 1 303 39 is_stmt 0 view .LVU213
 637 0036 4364     		str	r3, [r0, #68]
 304:../../../init/terminal/init.c **** hspi2.Init.MasterSSIdleness           = SPI_MASTER_SS_IDLENESS_00CYCLE;
 638              		.loc 1 304 1 is_stmt 1 view .LVU214
 639              		.loc 1 304 39 is_stmt 0 view .LVU215
 640 0038 8364     		str	r3, [r0, #72]
 305:../../../init/terminal/init.c **** hspi2.Init.MasterInterDataIdleness    = SPI_MASTER_INTERDATA_IDLENESS_00CYCLE;
 641              		.loc 1 305 1 is_stmt 1 view .LVU216
 642              		.loc 1 305 39 is_stmt 0 view .LVU217
 643 003a C364     		str	r3, [r0, #76]
 306:../../../init/terminal/init.c **** hspi2.Init.MasterReceiverAutoSusp     = SPI_MASTER_RX_AUTOSUSP_DISABLE;
 644              		.loc 1 306 1 is_stmt 1 view .LVU218
 645              		.loc 1 306 39 is_stmt 0 view .LVU219
 646 003c 0365     		str	r3, [r0, #80]
 307:../../../init/terminal/init.c **** hspi2.Init.MasterKeepIOState          = SPI_MASTER_KEEP_IO_STATE_DISABLE;
 647              		.loc 1 307 1 is_stmt 1 view .LVU220
 648              		.loc 1 307 39 is_stmt 0 view .LVU221
 649 003e 4365     		str	r3, [r0, #84]
 308:../../../init/terminal/init.c **** hspi2.Init.IOSwap                     = SPI_IO_SWAP_DISABLE;
 650              		.loc 1 308 1 is_stmt 1 view .LVU222
 651              		.loc 1 308 39 is_stmt 0 view .LVU223
 652 0040 8365     		str	r3, [r0, #88]
 309:../../../init/terminal/init.c **** 
 310:../../../init/terminal/init.c **** /* Initialize the peripheral */
 311:../../../init/terminal/init.c **** if ( HAL_SPI_Init( &hspi2 ) != HAL_OK )
 653              		.loc 1 311 1 is_stmt 1 view .LVU224
 654              		.loc 1 311 6 is_stmt 0 view .LVU225
 655 0042 FFF7FEFF 		bl	HAL_SPI_Init
 656              	.LVL22:
 657              		.loc 1 311 4 view .LVU226
ARM GAS  /tmp/ccq0cjMd.s 			page 18


 658 0046 00B9     		cbnz	r0, .L40
 659              	.L37:
 312:../../../init/terminal/init.c **** 	{
 313:../../../init/terminal/init.c **** 	Error_Handler( ERROR_FLASH_SPI_INIT_ERROR );
 314:../../../init/terminal/init.c **** 	}
 315:../../../init/terminal/init.c **** 
 316:../../../init/terminal/init.c **** } /* FLASH_SPI_Init */
 660              		.loc 1 316 1 view .LVU227
 661 0048 08BD     		pop	{r3, pc}
 662              	.L40:
 313:../../../init/terminal/init.c **** 	}
 663              		.loc 1 313 2 is_stmt 1 view .LVU228
 664 004a 0F20     		movs	r0, #15
 665 004c FFF7FEFF 		bl	Error_Handler
 666              	.LVL23:
 667              		.loc 1 316 1 is_stmt 0 view .LVU229
 668 0050 FAE7     		b	.L37
 669              	.L42:
 670 0052 00BF     		.align	2
 671              	.L41:
 672 0054 00000000 		.word	hspi2
 673 0058 00380040 		.word	1073756160
 674              		.cfi_endproc
 675              	.LFE149:
 677              		.section	.text.USB_UART_Init,"ax",%progbits
 678              		.align	1
 679              		.global	USB_UART_Init
 680              		.syntax unified
 681              		.thumb
 682              		.thumb_func
 684              	USB_UART_Init:
 685              	.LFB150:
 317:../../../init/terminal/init.c **** 
 318:../../../init/terminal/init.c **** 
 319:../../../init/terminal/init.c **** /*******************************************************************************
 320:../../../init/terminal/init.c **** *                                                                              *
 321:../../../init/terminal/init.c **** * PROCEDURE NAME:                                                              *
 322:../../../init/terminal/init.c **** * 		USB_UART_Init                                                          *
 323:../../../init/terminal/init.c **** *                                                                              *
 324:../../../init/terminal/init.c **** * DESCRIPTION:                                                                 *
 325:../../../init/terminal/init.c **** * 		Initializes the UART interface used for USB communication with a host  *
 326:../../../init/terminal/init.c **** *        PC                                                                    *
 327:../../../init/terminal/init.c **** *                                                                              *
 328:../../../init/terminal/init.c **** *******************************************************************************/
 329:../../../init/terminal/init.c **** void USB_UART_Init
 330:../../../init/terminal/init.c **** 	(
 331:../../../init/terminal/init.c **** 	void
 332:../../../init/terminal/init.c **** 	)
 333:../../../init/terminal/init.c **** {
 686              		.loc 1 333 1 is_stmt 1 view -0
 687              		.cfi_startproc
 688              		@ args = 0, pretend = 0, frame = 0
 689              		@ frame_needed = 0, uses_anonymous_args = 0
 690 0000 08B5     		push	{r3, lr}
 691              	.LCFI11:
 692              		.cfi_def_cfa_offset 8
 693              		.cfi_offset 3, -8
ARM GAS  /tmp/ccq0cjMd.s 			page 19


 694              		.cfi_offset 14, -4
 334:../../../init/terminal/init.c **** /* UART handler instance */
 335:../../../init/terminal/init.c **** huart6.Instance                    = USART6;
 695              		.loc 1 335 1 view .LVU231
 696              		.loc 1 335 36 is_stmt 0 view .LVU232
 697 0002 1948     		ldr	r0, .L53
 698 0004 194B     		ldr	r3, .L53+4
 699 0006 0360     		str	r3, [r0]
 336:../../../init/terminal/init.c **** 
 337:../../../init/terminal/init.c **** /* Initialization settings */
 338:../../../init/terminal/init.c **** huart6.Init.BaudRate               = 921600;
 700              		.loc 1 338 1 is_stmt 1 view .LVU233
 701              		.loc 1 338 36 is_stmt 0 view .LVU234
 702 0008 4FF46123 		mov	r3, #921600
 703 000c 4360     		str	r3, [r0, #4]
 339:../../../init/terminal/init.c **** huart6.Init.WordLength             = UART_WORDLENGTH_8B;
 704              		.loc 1 339 1 is_stmt 1 view .LVU235
 705              		.loc 1 339 36 is_stmt 0 view .LVU236
 706 000e 0023     		movs	r3, #0
 707 0010 8360     		str	r3, [r0, #8]
 340:../../../init/terminal/init.c **** huart6.Init.StopBits               = UART_STOPBITS_1;
 708              		.loc 1 340 1 is_stmt 1 view .LVU237
 709              		.loc 1 340 36 is_stmt 0 view .LVU238
 710 0012 C360     		str	r3, [r0, #12]
 341:../../../init/terminal/init.c **** huart6.Init.Parity                 = UART_PARITY_NONE;
 711              		.loc 1 341 1 is_stmt 1 view .LVU239
 712              		.loc 1 341 36 is_stmt 0 view .LVU240
 713 0014 0361     		str	r3, [r0, #16]
 342:../../../init/terminal/init.c **** huart6.Init.Mode                   = UART_MODE_TX_RX;
 714              		.loc 1 342 1 is_stmt 1 view .LVU241
 715              		.loc 1 342 36 is_stmt 0 view .LVU242
 716 0016 0C22     		movs	r2, #12
 717 0018 4261     		str	r2, [r0, #20]
 343:../../../init/terminal/init.c **** huart6.Init.HwFlowCtl              = UART_HWCONTROL_NONE;
 718              		.loc 1 343 1 is_stmt 1 view .LVU243
 719              		.loc 1 343 36 is_stmt 0 view .LVU244
 720 001a 8361     		str	r3, [r0, #24]
 344:../../../init/terminal/init.c **** huart6.Init.OverSampling           = UART_OVERSAMPLING_16;
 721              		.loc 1 344 1 is_stmt 1 view .LVU245
 722              		.loc 1 344 36 is_stmt 0 view .LVU246
 723 001c C361     		str	r3, [r0, #28]
 345:../../../init/terminal/init.c **** huart6.Init.OneBitSampling         = UART_ONE_BIT_SAMPLE_DISABLE;
 724              		.loc 1 345 1 is_stmt 1 view .LVU247
 725              		.loc 1 345 36 is_stmt 0 view .LVU248
 726 001e 0362     		str	r3, [r0, #32]
 346:../../../init/terminal/init.c **** huart6.Init.ClockPrescaler         = UART_PRESCALER_DIV1;
 727              		.loc 1 346 1 is_stmt 1 view .LVU249
 728              		.loc 1 346 36 is_stmt 0 view .LVU250
 729 0020 4362     		str	r3, [r0, #36]
 347:../../../init/terminal/init.c **** huart6.AdvancedInit.AdvFeatureInit = UART_ADVFEATURE_NO_INIT;
 730              		.loc 1 347 1 is_stmt 1 view .LVU251
 731              		.loc 1 347 36 is_stmt 0 view .LVU252
 732 0022 8362     		str	r3, [r0, #40]
 348:../../../init/terminal/init.c **** 
 349:../../../init/terminal/init.c **** /* Write to registers and call error handler if initialization fails */
 350:../../../init/terminal/init.c **** if ( HAL_UART_Init( &huart6 ) != HAL_OK )
 733              		.loc 1 350 1 is_stmt 1 view .LVU253
ARM GAS  /tmp/ccq0cjMd.s 			page 20


 734              		.loc 1 350 6 is_stmt 0 view .LVU254
 735 0024 FFF7FEFF 		bl	HAL_UART_Init
 736              	.LVL24:
 737              		.loc 1 350 4 view .LVU255
 738 0028 70B9     		cbnz	r0, .L49
 739              	.L44:
 351:../../../init/terminal/init.c **** 	{
 352:../../../init/terminal/init.c **** 	Error_Handler( ERROR_USB_UART_INIT_ERROR );
 353:../../../init/terminal/init.c **** 	}
 354:../../../init/terminal/init.c **** if ( HAL_UARTEx_SetTxFifoThreshold( &huart6, UART_TXFIFO_THRESHOLD_1_8 ) != HAL_OK )
 740              		.loc 1 354 1 is_stmt 1 view .LVU256
 741              		.loc 1 354 6 is_stmt 0 view .LVU257
 742 002a 0021     		movs	r1, #0
 743 002c 0E48     		ldr	r0, .L53
 744 002e FFF7FEFF 		bl	HAL_UARTEx_SetTxFifoThreshold
 745              	.LVL25:
 746              		.loc 1 354 4 view .LVU258
 747 0032 68B9     		cbnz	r0, .L50
 748              	.L45:
 355:../../../init/terminal/init.c **** 	{
 356:../../../init/terminal/init.c **** 	Error_Handler( ERROR_USB_UART_INIT_ERROR );
 357:../../../init/terminal/init.c **** 	}
 358:../../../init/terminal/init.c **** if ( HAL_UARTEx_SetRxFifoThreshold( &huart6, UART_RXFIFO_THRESHOLD_1_8 ) != HAL_OK )
 749              		.loc 1 358 1 is_stmt 1 view .LVU259
 750              		.loc 1 358 6 is_stmt 0 view .LVU260
 751 0034 0021     		movs	r1, #0
 752 0036 0C48     		ldr	r0, .L53
 753 0038 FFF7FEFF 		bl	HAL_UARTEx_SetRxFifoThreshold
 754              	.LVL26:
 755              		.loc 1 358 4 view .LVU261
 756 003c 60B9     		cbnz	r0, .L51
 757              	.L46:
 359:../../../init/terminal/init.c **** 	{
 360:../../../init/terminal/init.c **** 	Error_Handler( ERROR_USB_UART_INIT_ERROR );
 361:../../../init/terminal/init.c **** 	}
 362:../../../init/terminal/init.c **** if ( HAL_UARTEx_DisableFifoMode( &huart6 ) != HAL_OK )
 758              		.loc 1 362 1 is_stmt 1 view .LVU262
 759              		.loc 1 362 6 is_stmt 0 view .LVU263
 760 003e 0A48     		ldr	r0, .L53
 761 0040 FFF7FEFF 		bl	HAL_UARTEx_DisableFifoMode
 762              	.LVL27:
 763              		.loc 1 362 4 view .LVU264
 764 0044 60B9     		cbnz	r0, .L52
 765              	.L43:
 363:../../../init/terminal/init.c **** 	{
 364:../../../init/terminal/init.c **** 	Error_Handler( ERROR_USB_UART_INIT_ERROR );
 365:../../../init/terminal/init.c **** 	}
 366:../../../init/terminal/init.c **** } /* USB_UART_Init */
 766              		.loc 1 366 1 view .LVU265
 767 0046 08BD     		pop	{r3, pc}
 768              	.L49:
 352:../../../init/terminal/init.c **** 	}
 769              		.loc 1 352 2 is_stmt 1 view .LVU266
 770 0048 1020     		movs	r0, #16
 771 004a FFF7FEFF 		bl	Error_Handler
 772              	.LVL28:
 773 004e ECE7     		b	.L44
ARM GAS  /tmp/ccq0cjMd.s 			page 21


 774              	.L50:
 356:../../../init/terminal/init.c **** 	}
 775              		.loc 1 356 2 view .LVU267
 776 0050 1020     		movs	r0, #16
 777 0052 FFF7FEFF 		bl	Error_Handler
 778              	.LVL29:
 779 0056 EDE7     		b	.L45
 780              	.L51:
 360:../../../init/terminal/init.c **** 	}
 781              		.loc 1 360 2 view .LVU268
 782 0058 1020     		movs	r0, #16
 783 005a FFF7FEFF 		bl	Error_Handler
 784              	.LVL30:
 785 005e EEE7     		b	.L46
 786              	.L52:
 364:../../../init/terminal/init.c **** 	}
 787              		.loc 1 364 2 view .LVU269
 788 0060 1020     		movs	r0, #16
 789 0062 FFF7FEFF 		bl	Error_Handler
 790              	.LVL31:
 791              		.loc 1 366 1 is_stmt 0 view .LVU270
 792 0066 EEE7     		b	.L43
 793              	.L54:
 794              		.align	2
 795              	.L53:
 796 0068 00000000 		.word	huart6
 797 006c 00140140 		.word	1073812480
 798              		.cfi_endproc
 799              	.LFE150:
 801              		.section	.text.BUZZER_TIM_Init,"ax",%progbits
 802              		.align	1
 803              		.global	BUZZER_TIM_Init
 804              		.syntax unified
 805              		.thumb
 806              		.thumb_func
 808              	BUZZER_TIM_Init:
 809              	.LFB151:
 367:../../../init/terminal/init.c **** 
 368:../../../init/terminal/init.c **** 
 369:../../../init/terminal/init.c **** /*******************************************************************************
 370:../../../init/terminal/init.c **** *                                                                              *
 371:../../../init/terminal/init.c **** * PROCEDURE NAME:                                                              *
 372:../../../init/terminal/init.c **** * 		BUZZER_TIM_Init                                                        *
 373:../../../init/terminal/init.c **** *                                                                              *
 374:../../../init/terminal/init.c **** * DESCRIPTION:                                                                 *
 375:../../../init/terminal/init.c **** *       Initializes the TIM4 peripheral for the buzzer                         *
 376:../../../init/terminal/init.c **** *                                                                              *
 377:../../../init/terminal/init.c **** *******************************************************************************/
 378:../../../init/terminal/init.c **** void BUZZER_TIM_Init 
 379:../../../init/terminal/init.c **** 	(
 380:../../../init/terminal/init.c **** 	void
 381:../../../init/terminal/init.c **** 	)
 382:../../../init/terminal/init.c **** {
 810              		.loc 1 382 1 is_stmt 1 view -0
 811              		.cfi_startproc
 812              		@ args = 0, pretend = 0, frame = 56
 813              		@ frame_needed = 0, uses_anonymous_args = 0
ARM GAS  /tmp/ccq0cjMd.s 			page 22


 814 0000 00B5     		push	{lr}
 815              	.LCFI12:
 816              		.cfi_def_cfa_offset 4
 817              		.cfi_offset 14, -4
 818 0002 8FB0     		sub	sp, sp, #60
 819              	.LCFI13:
 820              		.cfi_def_cfa_offset 64
 383:../../../init/terminal/init.c **** /*------------------------------------------------------------------------------
 384:../../../init/terminal/init.c ****  Local Variables 
 385:../../../init/terminal/init.c **** ------------------------------------------------------------------------------*/
 386:../../../init/terminal/init.c **** uint16_t                pwm_period;               /* Max timer count value    */
 821              		.loc 1 386 1 view .LVU272
 387:../../../init/terminal/init.c **** uint16_t                pwm_pulse_cnt;            /* Count to pwm transition  */
 822              		.loc 1 387 1 view .LVU273
 388:../../../init/terminal/init.c **** TIM_ClockConfigTypeDef  sClockSourceConfig = {0}; /* Init Structs             */
 823              		.loc 1 388 1 view .LVU274
 824              		.loc 1 388 25 is_stmt 0 view .LVU275
 825 0004 0023     		movs	r3, #0
 826 0006 0A93     		str	r3, [sp, #40]
 827 0008 0B93     		str	r3, [sp, #44]
 828 000a 0C93     		str	r3, [sp, #48]
 829 000c 0D93     		str	r3, [sp, #52]
 389:../../../init/terminal/init.c **** TIM_MasterConfigTypeDef sMasterConfig      = {0};
 830              		.loc 1 389 1 is_stmt 1 view .LVU276
 831              		.loc 1 389 25 is_stmt 0 view .LVU277
 832 000e 0793     		str	r3, [sp, #28]
 833 0010 0893     		str	r3, [sp, #32]
 834 0012 0993     		str	r3, [sp, #36]
 390:../../../init/terminal/init.c **** TIM_OC_InitTypeDef      sConfigOC          = {0};
 835              		.loc 1 390 1 is_stmt 1 view .LVU278
 836              		.loc 1 390 25 is_stmt 0 view .LVU279
 837 0014 0093     		str	r3, [sp]
 838 0016 0193     		str	r3, [sp, #4]
 839 0018 0293     		str	r3, [sp, #8]
 840 001a 0393     		str	r3, [sp, #12]
 841 001c 0493     		str	r3, [sp, #16]
 842 001e 0593     		str	r3, [sp, #20]
 843 0020 0693     		str	r3, [sp, #24]
 391:../../../init/terminal/init.c **** 
 392:../../../init/terminal/init.c **** 
 393:../../../init/terminal/init.c **** /*------------------------------------------------------------------------------
 394:../../../init/terminal/init.c ****  Initializations 
 395:../../../init/terminal/init.c **** ------------------------------------------------------------------------------*/
 396:../../../init/terminal/init.c **** pwm_period    = 40000;                          /* 6 kHz max frequency        */
 844              		.loc 1 396 1 is_stmt 1 view .LVU280
 845              	.LVL32:
 397:../../../init/terminal/init.c **** pwm_pulse_cnt = pwm_period - ( pwm_period/10 ); /* 90% Duty cycle             */
 846              		.loc 1 397 1 view .LVU281
 398:../../../init/terminal/init.c **** 
 399:../../../init/terminal/init.c **** 
 400:../../../init/terminal/init.c **** /*------------------------------------------------------------------------------
 401:../../../init/terminal/init.c ****  Setup PWM Timer
 402:../../../init/terminal/init.c **** ------------------------------------------------------------------------------*/
 403:../../../init/terminal/init.c **** 
 404:../../../init/terminal/init.c **** /* Set configuration settings and initialize */
 405:../../../init/terminal/init.c **** htim4.Instance                    = TIM4;
 847              		.loc 1 405 1 view .LVU282
ARM GAS  /tmp/ccq0cjMd.s 			page 23


 848              		.loc 1 405 35 is_stmt 0 view .LVU283
 849 0022 2548     		ldr	r0, .L67
 850 0024 254A     		ldr	r2, .L67+4
 851 0026 0260     		str	r2, [r0]
 406:../../../init/terminal/init.c **** htim4.Init.Prescaler              = 10;
 852              		.loc 1 406 1 is_stmt 1 view .LVU284
 853              		.loc 1 406 35 is_stmt 0 view .LVU285
 854 0028 0A22     		movs	r2, #10
 855 002a 4260     		str	r2, [r0, #4]
 407:../../../init/terminal/init.c **** htim4.Init.CounterMode            = TIM_COUNTERMODE_UP;
 856              		.loc 1 407 1 is_stmt 1 view .LVU286
 857              		.loc 1 407 35 is_stmt 0 view .LVU287
 858 002c 8360     		str	r3, [r0, #8]
 408:../../../init/terminal/init.c **** htim4.Init.Period                 = pwm_period;
 859              		.loc 1 408 1 is_stmt 1 view .LVU288
 860              		.loc 1 408 35 is_stmt 0 view .LVU289
 861 002e 49F64042 		movw	r2, #40000
 862 0032 C260     		str	r2, [r0, #12]
 409:../../../init/terminal/init.c **** htim4.Init.ClockDivision          = TIM_CLOCKDIVISION_DIV1;
 863              		.loc 1 409 1 is_stmt 1 view .LVU290
 864              		.loc 1 409 35 is_stmt 0 view .LVU291
 865 0034 0361     		str	r3, [r0, #16]
 410:../../../init/terminal/init.c **** htim4.Init.AutoReloadPreload      = TIM_AUTORELOAD_PRELOAD_DISABLE;
 866              		.loc 1 410 1 is_stmt 1 view .LVU292
 867              		.loc 1 410 35 is_stmt 0 view .LVU293
 868 0036 8361     		str	r3, [r0, #24]
 411:../../../init/terminal/init.c **** if ( HAL_TIM_Base_Init( &htim4 ) != HAL_OK )
 869              		.loc 1 411 1 is_stmt 1 view .LVU294
 870              		.loc 1 411 6 is_stmt 0 view .LVU295
 871 0038 FFF7FEFF 		bl	HAL_TIM_Base_Init
 872              	.LVL33:
 873              		.loc 1 411 4 view .LVU296
 874 003c 38BB     		cbnz	r0, .L62
 875              	.L56:
 412:../../../init/terminal/init.c **** 	{
 413:../../../init/terminal/init.c **** 	Error_Handler( ERROR_BUZZER_TIM_INIT_ERROR );
 414:../../../init/terminal/init.c **** 	}
 415:../../../init/terminal/init.c **** sClockSourceConfig.ClockSource    = TIM_CLOCKSOURCE_INTERNAL;
 876              		.loc 1 415 1 is_stmt 1 view .LVU297
 877              		.loc 1 415 35 is_stmt 0 view .LVU298
 878 003e 4FF48053 		mov	r3, #4096
 879 0042 0A93     		str	r3, [sp, #40]
 416:../../../init/terminal/init.c **** if ( HAL_TIM_ConfigClockSource( &htim4, &sClockSourceConfig ) != HAL_OK )
 880              		.loc 1 416 1 is_stmt 1 view .LVU299
 881              		.loc 1 416 6 is_stmt 0 view .LVU300
 882 0044 0AA9     		add	r1, sp, #40
 883 0046 1C48     		ldr	r0, .L67
 884 0048 FFF7FEFF 		bl	HAL_TIM_ConfigClockSource
 885              	.LVL34:
 886              		.loc 1 416 4 view .LVU301
 887 004c 18BB     		cbnz	r0, .L63
 888              	.L57:
 417:../../../init/terminal/init.c **** 	{
 418:../../../init/terminal/init.c **** 	Error_Handler( ERROR_BUZZER_TIM_INIT_ERROR );
 419:../../../init/terminal/init.c **** 	}
 420:../../../init/terminal/init.c **** if ( HAL_TIM_PWM_Init( &htim4 ) != HAL_OK )
 889              		.loc 1 420 1 is_stmt 1 view .LVU302
ARM GAS  /tmp/ccq0cjMd.s 			page 24


 890              		.loc 1 420 6 is_stmt 0 view .LVU303
 891 004e 1A48     		ldr	r0, .L67
 892 0050 FFF7FEFF 		bl	HAL_TIM_PWM_Init
 893              	.LVL35:
 894              		.loc 1 420 4 view .LVU304
 895 0054 18BB     		cbnz	r0, .L64
 896              	.L58:
 421:../../../init/terminal/init.c **** 	{
 422:../../../init/terminal/init.c **** 	Error_Handler( ERROR_BUZZER_TIM_INIT_ERROR );
 423:../../../init/terminal/init.c **** 	}
 424:../../../init/terminal/init.c **** sMasterConfig.MasterOutputTrigger = TIM_TRGO_RESET;
 897              		.loc 1 424 1 is_stmt 1 view .LVU305
 898              		.loc 1 424 35 is_stmt 0 view .LVU306
 899 0056 0023     		movs	r3, #0
 900 0058 0793     		str	r3, [sp, #28]
 425:../../../init/terminal/init.c **** sMasterConfig.MasterSlaveMode     = TIM_MASTERSLAVEMODE_DISABLE;
 901              		.loc 1 425 1 is_stmt 1 view .LVU307
 902              		.loc 1 425 35 is_stmt 0 view .LVU308
 903 005a 0993     		str	r3, [sp, #36]
 426:../../../init/terminal/init.c **** if ( HAL_TIMEx_MasterConfigSynchronization( &htim4, &sMasterConfig ) != HAL_OK )
 904              		.loc 1 426 1 is_stmt 1 view .LVU309
 905              		.loc 1 426 6 is_stmt 0 view .LVU310
 906 005c 07A9     		add	r1, sp, #28
 907 005e 1648     		ldr	r0, .L67
 908 0060 FFF7FEFF 		bl	HAL_TIMEx_MasterConfigSynchronization
 909              	.LVL36:
 910              		.loc 1 426 4 view .LVU311
 911 0064 F8B9     		cbnz	r0, .L65
 912              	.L59:
 427:../../../init/terminal/init.c **** 	{
 428:../../../init/terminal/init.c **** 	Error_Handler( ERROR_BUZZER_TIM_INIT_ERROR );
 429:../../../init/terminal/init.c **** 	}
 430:../../../init/terminal/init.c **** sConfigOC.OCMode                  = TIM_OCMODE_PWM1;
 913              		.loc 1 430 1 is_stmt 1 view .LVU312
 914              		.loc 1 430 35 is_stmt 0 view .LVU313
 915 0066 6023     		movs	r3, #96
 916 0068 0093     		str	r3, [sp]
 431:../../../init/terminal/init.c **** sConfigOC.Pulse                   = pwm_pulse_cnt;
 917              		.loc 1 431 1 is_stmt 1 view .LVU314
 918              		.loc 1 431 35 is_stmt 0 view .LVU315
 919 006a 48F6A043 		movw	r3, #36000
 920 006e 0193     		str	r3, [sp, #4]
 432:../../../init/terminal/init.c **** sConfigOC.OCPolarity              = TIM_OCPOLARITY_HIGH;
 921              		.loc 1 432 1 is_stmt 1 view .LVU316
 922              		.loc 1 432 35 is_stmt 0 view .LVU317
 923 0070 0023     		movs	r3, #0
 924 0072 0293     		str	r3, [sp, #8]
 433:../../../init/terminal/init.c **** sConfigOC.OCFastMode              = TIM_OCFAST_DISABLE;
 925              		.loc 1 433 1 is_stmt 1 view .LVU318
 926              		.loc 1 433 35 is_stmt 0 view .LVU319
 927 0074 0493     		str	r3, [sp, #16]
 434:../../../init/terminal/init.c **** if ( HAL_TIM_PWM_ConfigChannel( &htim4, &sConfigOC, BUZZ_TIM_CHANNEL ) != HAL_OK )
 928              		.loc 1 434 1 is_stmt 1 view .LVU320
 929              		.loc 1 434 6 is_stmt 0 view .LVU321
 930 0076 0822     		movs	r2, #8
 931 0078 6946     		mov	r1, sp
 932 007a 0F48     		ldr	r0, .L67
ARM GAS  /tmp/ccq0cjMd.s 			page 25


 933 007c FFF7FEFF 		bl	HAL_TIM_PWM_ConfigChannel
 934              	.LVL37:
 935              		.loc 1 434 4 view .LVU322
 936 0080 A8B9     		cbnz	r0, .L66
 937              	.L60:
 435:../../../init/terminal/init.c **** 	{
 436:../../../init/terminal/init.c **** 	Error_Handler( ERROR_BUZZER_TIM_INIT_ERROR );
 437:../../../init/terminal/init.c **** 	}
 438:../../../init/terminal/init.c **** HAL_TIM_MspPostInit( &htim4 );
 938              		.loc 1 438 1 is_stmt 1 view .LVU323
 939 0082 0D48     		ldr	r0, .L67
 940 0084 FFF7FEFF 		bl	HAL_TIM_MspPostInit
 941              	.LVL38:
 439:../../../init/terminal/init.c **** 
 440:../../../init/terminal/init.c **** } /* BUZZER_TIM_Init */
 942              		.loc 1 440 1 is_stmt 0 view .LVU324
 943 0088 0FB0     		add	sp, sp, #60
 944              	.LCFI14:
 945              		.cfi_remember_state
 946              		.cfi_def_cfa_offset 4
 947              		@ sp needed
 948 008a 5DF804FB 		ldr	pc, [sp], #4
 949              	.L62:
 950              	.LCFI15:
 951              		.cfi_restore_state
 413:../../../init/terminal/init.c **** 	}
 952              		.loc 1 413 2 is_stmt 1 view .LVU325
 953 008e 1120     		movs	r0, #17
 954 0090 FFF7FEFF 		bl	Error_Handler
 955              	.LVL39:
 956 0094 D3E7     		b	.L56
 957              	.L63:
 418:../../../init/terminal/init.c **** 	}
 958              		.loc 1 418 2 view .LVU326
 959 0096 1120     		movs	r0, #17
 960 0098 FFF7FEFF 		bl	Error_Handler
 961              	.LVL40:
 962 009c D7E7     		b	.L57
 963              	.L64:
 422:../../../init/terminal/init.c **** 	}
 964              		.loc 1 422 2 view .LVU327
 965 009e 1120     		movs	r0, #17
 966 00a0 FFF7FEFF 		bl	Error_Handler
 967              	.LVL41:
 968 00a4 D7E7     		b	.L58
 969              	.L65:
 428:../../../init/terminal/init.c **** 	}
 970              		.loc 1 428 2 view .LVU328
 971 00a6 1120     		movs	r0, #17
 972 00a8 FFF7FEFF 		bl	Error_Handler
 973              	.LVL42:
 974 00ac DBE7     		b	.L59
 975              	.L66:
 436:../../../init/terminal/init.c **** 	}
 976              		.loc 1 436 2 view .LVU329
 977 00ae 1120     		movs	r0, #17
 978 00b0 FFF7FEFF 		bl	Error_Handler
ARM GAS  /tmp/ccq0cjMd.s 			page 26


 979              	.LVL43:
 980 00b4 E5E7     		b	.L60
 981              	.L68:
 982 00b6 00BF     		.align	2
 983              	.L67:
 984 00b8 00000000 		.word	htim4
 985 00bc 00080040 		.word	1073743872
 986              		.cfi_endproc
 987              	.LFE151:
 989              		.section	.text.PWM4_TIM_Init,"ax",%progbits
 990              		.align	1
 991              		.global	PWM4_TIM_Init
 992              		.syntax unified
 993              		.thumb
 994              		.thumb_func
 996              	PWM4_TIM_Init:
 997              	.LFB152:
 441:../../../init/terminal/init.c **** 
 442:../../../init/terminal/init.c **** 
 443:../../../init/terminal/init.c **** /*******************************************************************************
 444:../../../init/terminal/init.c **** *                                                                              *
 445:../../../init/terminal/init.c **** * PROCEDURE NAME:                                                              *
 446:../../../init/terminal/init.c **** * 		PWM4_TIM_Init                                                        *
 447:../../../init/terminal/init.c **** *                                                                              *
 448:../../../init/terminal/init.c **** * DESCRIPTION:                                                                 *
 449:../../../init/terminal/init.c **** *       Initializes the PWM TIM 2 for motor 4                             *
 450:../../../init/terminal/init.c **** *                                                                              *
 451:../../../init/terminal/init.c **** *******************************************************************************/
 452:../../../init/terminal/init.c **** void PWM4_TIM_Init
 453:../../../init/terminal/init.c **** 	(
 454:../../../init/terminal/init.c **** 	void
 455:../../../init/terminal/init.c **** 	)
 456:../../../init/terminal/init.c **** {
 998              		.loc 1 456 1 view -0
 999              		.cfi_startproc
 1000              		@ args = 0, pretend = 0, frame = 56
 1001              		@ frame_needed = 0, uses_anonymous_args = 0
 1002 0000 00B5     		push	{lr}
 1003              	.LCFI16:
 1004              		.cfi_def_cfa_offset 4
 1005              		.cfi_offset 14, -4
 1006 0002 8FB0     		sub	sp, sp, #60
 1007              	.LCFI17:
 1008              		.cfi_def_cfa_offset 64
 457:../../../init/terminal/init.c **** /*------------------------------------------------------------------------------
 458:../../../init/terminal/init.c ****  Local Variables 
 459:../../../init/terminal/init.c **** ------------------------------------------------------------------------------*/
 460:../../../init/terminal/init.c **** TIM_ClockConfigTypeDef sClockSourceConfig = {0};
 1009              		.loc 1 460 1 view .LVU331
 1010              		.loc 1 460 24 is_stmt 0 view .LVU332
 1011 0004 0023     		movs	r3, #0
 1012 0006 0A93     		str	r3, [sp, #40]
 1013 0008 0B93     		str	r3, [sp, #44]
 1014 000a 0C93     		str	r3, [sp, #48]
 1015 000c 0D93     		str	r3, [sp, #52]
 461:../../../init/terminal/init.c **** TIM_MasterConfigTypeDef sMasterConfig = {0};
 1016              		.loc 1 461 1 is_stmt 1 view .LVU333
ARM GAS  /tmp/ccq0cjMd.s 			page 27


 1017              		.loc 1 461 25 is_stmt 0 view .LVU334
 1018 000e 0793     		str	r3, [sp, #28]
 1019 0010 0893     		str	r3, [sp, #32]
 1020 0012 0993     		str	r3, [sp, #36]
 462:../../../init/terminal/init.c **** TIM_OC_InitTypeDef sConfigOC = {0};
 1021              		.loc 1 462 1 is_stmt 1 view .LVU335
 1022              		.loc 1 462 20 is_stmt 0 view .LVU336
 1023 0014 0093     		str	r3, [sp]
 1024 0016 0193     		str	r3, [sp, #4]
 1025 0018 0293     		str	r3, [sp, #8]
 1026 001a 0393     		str	r3, [sp, #12]
 1027 001c 0493     		str	r3, [sp, #16]
 1028 001e 0593     		str	r3, [sp, #20]
 1029 0020 0693     		str	r3, [sp, #24]
 463:../../../init/terminal/init.c **** 
 464:../../../init/terminal/init.c **** /*------------------------------------------------------------------------------
 465:../../../init/terminal/init.c ****  Initializations 
 466:../../../init/terminal/init.c **** ------------------------------------------------------------------------------*/
 467:../../../init/terminal/init.c **** htim2.Instance = TIM2;
 1030              		.loc 1 467 1 is_stmt 1 view .LVU337
 1031              		.loc 1 467 16 is_stmt 0 view .LVU338
 1032 0022 2348     		ldr	r0, .L81
 1033 0024 4FF08042 		mov	r2, #1073741824
 1034 0028 0260     		str	r2, [r0]
 468:../../../init/terminal/init.c **** htim2.Init.Prescaler = 240-1;
 1035              		.loc 1 468 1 is_stmt 1 view .LVU339
 1036              		.loc 1 468 22 is_stmt 0 view .LVU340
 1037 002a EF22     		movs	r2, #239
 1038 002c 4260     		str	r2, [r0, #4]
 469:../../../init/terminal/init.c **** htim2.Init.CounterMode = TIM_COUNTERMODE_UP;
 1039              		.loc 1 469 1 is_stmt 1 view .LVU341
 1040              		.loc 1 469 24 is_stmt 0 view .LVU342
 1041 002e 8360     		str	r3, [r0, #8]
 470:../../../init/terminal/init.c **** htim2.Init.Period = 100-1;
 1042              		.loc 1 470 1 is_stmt 1 view .LVU343
 1043              		.loc 1 470 19 is_stmt 0 view .LVU344
 1044 0030 6322     		movs	r2, #99
 1045 0032 C260     		str	r2, [r0, #12]
 471:../../../init/terminal/init.c **** htim2.Init.ClockDivision = TIM_CLOCKDIVISION_DIV1;
 1046              		.loc 1 471 1 is_stmt 1 view .LVU345
 1047              		.loc 1 471 26 is_stmt 0 view .LVU346
 1048 0034 0361     		str	r3, [r0, #16]
 472:../../../init/terminal/init.c **** htim2.Init.AutoReloadPreload = TIM_AUTORELOAD_PRELOAD_DISABLE;
 1049              		.loc 1 472 1 is_stmt 1 view .LVU347
 1050              		.loc 1 472 30 is_stmt 0 view .LVU348
 1051 0036 8361     		str	r3, [r0, #24]
 473:../../../init/terminal/init.c **** 
 474:../../../init/terminal/init.c **** 
 475:../../../init/terminal/init.c **** /*------------------------------------------------------------------------------
 476:../../../init/terminal/init.c ****  Setup PWM Timer
 477:../../../init/terminal/init.c **** ------------------------------------------------------------------------------*/
 478:../../../init/terminal/init.c **** 
 479:../../../init/terminal/init.c **** /* Set configuration settings and initialize */
 480:../../../init/terminal/init.c **** if (HAL_TIM_Base_Init(&htim2) != HAL_OK)
 1052              		.loc 1 480 1 is_stmt 1 view .LVU349
 1053              		.loc 1 480 5 is_stmt 0 view .LVU350
 1054 0038 FFF7FEFF 		bl	HAL_TIM_Base_Init
ARM GAS  /tmp/ccq0cjMd.s 			page 28


 1055              	.LVL44:
 1056              		.loc 1 480 4 view .LVU351
 1057 003c 20BB     		cbnz	r0, .L76
 1058              	.L70:
 481:../../../init/terminal/init.c **** {
 482:../../../init/terminal/init.c **** Error_Handler(ERROR_PWM4_ERROR);
 483:../../../init/terminal/init.c **** }
 484:../../../init/terminal/init.c **** sClockSourceConfig.ClockSource = TIM_CLOCKSOURCE_INTERNAL;
 1059              		.loc 1 484 1 is_stmt 1 view .LVU352
 1060              		.loc 1 484 32 is_stmt 0 view .LVU353
 1061 003e 4FF48053 		mov	r3, #4096
 1062 0042 0A93     		str	r3, [sp, #40]
 485:../../../init/terminal/init.c **** if (HAL_TIM_ConfigClockSource(&htim2, &sClockSourceConfig) != HAL_OK)
 1063              		.loc 1 485 1 is_stmt 1 view .LVU354
 1064              		.loc 1 485 5 is_stmt 0 view .LVU355
 1065 0044 0AA9     		add	r1, sp, #40
 1066 0046 1A48     		ldr	r0, .L81
 1067 0048 FFF7FEFF 		bl	HAL_TIM_ConfigClockSource
 1068              	.LVL45:
 1069              		.loc 1 485 4 view .LVU356
 1070 004c 00BB     		cbnz	r0, .L77
 1071              	.L71:
 486:../../../init/terminal/init.c **** {
 487:../../../init/terminal/init.c **** Error_Handler(ERROR_PWM4_ERROR);
 488:../../../init/terminal/init.c **** }
 489:../../../init/terminal/init.c **** if (HAL_TIM_PWM_Init(&htim2) != HAL_OK)
 1072              		.loc 1 489 1 is_stmt 1 view .LVU357
 1073              		.loc 1 489 5 is_stmt 0 view .LVU358
 1074 004e 1848     		ldr	r0, .L81
 1075 0050 FFF7FEFF 		bl	HAL_TIM_PWM_Init
 1076              	.LVL46:
 1077              		.loc 1 489 4 view .LVU359
 1078 0054 00BB     		cbnz	r0, .L78
 1079              	.L72:
 490:../../../init/terminal/init.c **** {
 491:../../../init/terminal/init.c **** Error_Handler(ERROR_PWM4_ERROR);
 492:../../../init/terminal/init.c **** }
 493:../../../init/terminal/init.c **** sMasterConfig.MasterOutputTrigger = TIM_TRGO_RESET;
 1080              		.loc 1 493 1 is_stmt 1 view .LVU360
 1081              		.loc 1 493 35 is_stmt 0 view .LVU361
 1082 0056 0023     		movs	r3, #0
 1083 0058 0793     		str	r3, [sp, #28]
 494:../../../init/terminal/init.c **** sMasterConfig.MasterSlaveMode = TIM_MASTERSLAVEMODE_DISABLE;
 1084              		.loc 1 494 1 is_stmt 1 view .LVU362
 1085              		.loc 1 494 31 is_stmt 0 view .LVU363
 1086 005a 0993     		str	r3, [sp, #36]
 495:../../../init/terminal/init.c **** if (HAL_TIMEx_MasterConfigSynchronization(&htim2, &sMasterConfig) != HAL_OK)
 1087              		.loc 1 495 1 is_stmt 1 view .LVU364
 1088              		.loc 1 495 5 is_stmt 0 view .LVU365
 1089 005c 07A9     		add	r1, sp, #28
 1090 005e 1448     		ldr	r0, .L81
 1091 0060 FFF7FEFF 		bl	HAL_TIMEx_MasterConfigSynchronization
 1092              	.LVL47:
 1093              		.loc 1 495 4 view .LVU366
 1094 0064 E0B9     		cbnz	r0, .L79
 1095              	.L73:
 496:../../../init/terminal/init.c **** {
ARM GAS  /tmp/ccq0cjMd.s 			page 29


 497:../../../init/terminal/init.c **** Error_Handler(ERROR_PWM4_ERROR);
 498:../../../init/terminal/init.c **** }
 499:../../../init/terminal/init.c **** sConfigOC.OCMode = TIM_OCMODE_PWM1;
 1096              		.loc 1 499 1 is_stmt 1 view .LVU367
 1097              		.loc 1 499 18 is_stmt 0 view .LVU368
 1098 0066 6023     		movs	r3, #96
 1099 0068 0093     		str	r3, [sp]
 500:../../../init/terminal/init.c **** sConfigOC.Pulse = 0;
 1100              		.loc 1 500 1 is_stmt 1 view .LVU369
 1101              		.loc 1 500 17 is_stmt 0 view .LVU370
 1102 006a 0022     		movs	r2, #0
 1103 006c 0192     		str	r2, [sp, #4]
 501:../../../init/terminal/init.c **** sConfigOC.OCPolarity = TIM_OCPOLARITY_HIGH;
 1104              		.loc 1 501 1 is_stmt 1 view .LVU371
 1105              		.loc 1 501 22 is_stmt 0 view .LVU372
 1106 006e 0292     		str	r2, [sp, #8]
 502:../../../init/terminal/init.c **** sConfigOC.OCFastMode = TIM_OCFAST_DISABLE;
 1107              		.loc 1 502 1 is_stmt 1 view .LVU373
 1108              		.loc 1 502 22 is_stmt 0 view .LVU374
 1109 0070 0492     		str	r2, [sp, #16]
 503:../../../init/terminal/init.c **** if (HAL_TIM_PWM_ConfigChannel(&htim2, &sConfigOC, TIM_CHANNEL_1) != HAL_OK)
 1110              		.loc 1 503 1 is_stmt 1 view .LVU375
 1111              		.loc 1 503 5 is_stmt 0 view .LVU376
 1112 0072 6946     		mov	r1, sp
 1113 0074 0E48     		ldr	r0, .L81
 1114 0076 FFF7FEFF 		bl	HAL_TIM_PWM_ConfigChannel
 1115              	.LVL48:
 1116              		.loc 1 503 4 view .LVU377
 1117 007a A8B9     		cbnz	r0, .L80
 1118              	.L74:
 504:../../../init/terminal/init.c **** {
 505:../../../init/terminal/init.c **** Error_Handler(ERROR_PWM4_ERROR);
 506:../../../init/terminal/init.c **** }
 507:../../../init/terminal/init.c **** HAL_TIM_MspPostInit(&htim2);
 1119              		.loc 1 507 1 is_stmt 1 view .LVU378
 1120 007c 0C48     		ldr	r0, .L81
 1121 007e FFF7FEFF 		bl	HAL_TIM_MspPostInit
 1122              	.LVL49:
 508:../../../init/terminal/init.c **** } /* PWM4_TIM_Init */
 1123              		.loc 1 508 1 is_stmt 0 view .LVU379
 1124 0082 0FB0     		add	sp, sp, #60
 1125              	.LCFI18:
 1126              		.cfi_remember_state
 1127              		.cfi_def_cfa_offset 4
 1128              		@ sp needed
 1129 0084 5DF804FB 		ldr	pc, [sp], #4
 1130              	.L76:
 1131              	.LCFI19:
 1132              		.cfi_restore_state
 482:../../../init/terminal/init.c **** }
 1133              		.loc 1 482 1 is_stmt 1 view .LVU380
 1134 0088 3020     		movs	r0, #48
 1135 008a FFF7FEFF 		bl	Error_Handler
 1136              	.LVL50:
 1137 008e D6E7     		b	.L70
 1138              	.L77:
 487:../../../init/terminal/init.c **** }
ARM GAS  /tmp/ccq0cjMd.s 			page 30


 1139              		.loc 1 487 1 view .LVU381
 1140 0090 3020     		movs	r0, #48
 1141 0092 FFF7FEFF 		bl	Error_Handler
 1142              	.LVL51:
 1143 0096 DAE7     		b	.L71
 1144              	.L78:
 491:../../../init/terminal/init.c **** }
 1145              		.loc 1 491 1 view .LVU382
 1146 0098 3020     		movs	r0, #48
 1147 009a FFF7FEFF 		bl	Error_Handler
 1148              	.LVL52:
 1149 009e DAE7     		b	.L72
 1150              	.L79:
 497:../../../init/terminal/init.c **** }
 1151              		.loc 1 497 1 view .LVU383
 1152 00a0 3020     		movs	r0, #48
 1153 00a2 FFF7FEFF 		bl	Error_Handler
 1154              	.LVL53:
 1155 00a6 DEE7     		b	.L73
 1156              	.L80:
 505:../../../init/terminal/init.c **** }
 1157              		.loc 1 505 1 view .LVU384
 1158 00a8 3020     		movs	r0, #48
 1159 00aa FFF7FEFF 		bl	Error_Handler
 1160              	.LVL54:
 1161 00ae E5E7     		b	.L74
 1162              	.L82:
 1163              		.align	2
 1164              	.L81:
 1165 00b0 00000000 		.word	htim2
 1166              		.cfi_endproc
 1167              	.LFE152:
 1169              		.section	.text.PWM123_TIM_Init,"ax",%progbits
 1170              		.align	1
 1171              		.global	PWM123_TIM_Init
 1172              		.syntax unified
 1173              		.thumb
 1174              		.thumb_func
 1176              	PWM123_TIM_Init:
 1177              	.LFB153:
 509:../../../init/terminal/init.c **** 
 510:../../../init/terminal/init.c **** 
 511:../../../init/terminal/init.c **** /*******************************************************************************
 512:../../../init/terminal/init.c **** *                                                                              *
 513:../../../init/terminal/init.c **** * PROCEDURE NAME:                                                              *
 514:../../../init/terminal/init.c **** * 		PWM123_TIM_Init                                                        *
 515:../../../init/terminal/init.c **** *                                                                              *
 516:../../../init/terminal/init.c **** * DESCRIPTION:                                                                 *
 517:../../../init/terminal/init.c **** *       Initializes the PWM TIM 3 for motor 1,2,3                             *
 518:../../../init/terminal/init.c **** *                                                                              *
 519:../../../init/terminal/init.c **** *******************************************************************************/
 520:../../../init/terminal/init.c **** void PWM123_TIM_Init
 521:../../../init/terminal/init.c **** 	(
 522:../../../init/terminal/init.c **** 	void
 523:../../../init/terminal/init.c **** 	)
 524:../../../init/terminal/init.c **** {
 1178              		.loc 1 524 1 view -0
ARM GAS  /tmp/ccq0cjMd.s 			page 31


 1179              		.cfi_startproc
 1180              		@ args = 0, pretend = 0, frame = 56
 1181              		@ frame_needed = 0, uses_anonymous_args = 0
 1182 0000 00B5     		push	{lr}
 1183              	.LCFI20:
 1184              		.cfi_def_cfa_offset 4
 1185              		.cfi_offset 14, -4
 1186 0002 8FB0     		sub	sp, sp, #60
 1187              	.LCFI21:
 1188              		.cfi_def_cfa_offset 64
 525:../../../init/terminal/init.c **** /*------------------------------------------------------------------------------
 526:../../../init/terminal/init.c ****  Local Variables 
 527:../../../init/terminal/init.c **** ------------------------------------------------------------------------------*/
 528:../../../init/terminal/init.c **** TIM_ClockConfigTypeDef sClockSourceConfig = {0};
 1189              		.loc 1 528 1 view .LVU386
 1190              		.loc 1 528 24 is_stmt 0 view .LVU387
 1191 0004 0023     		movs	r3, #0
 1192 0006 0A93     		str	r3, [sp, #40]
 1193 0008 0B93     		str	r3, [sp, #44]
 1194 000a 0C93     		str	r3, [sp, #48]
 1195 000c 0D93     		str	r3, [sp, #52]
 529:../../../init/terminal/init.c **** TIM_MasterConfigTypeDef sMasterConfig = {0};
 1196              		.loc 1 529 1 is_stmt 1 view .LVU388
 1197              		.loc 1 529 25 is_stmt 0 view .LVU389
 1198 000e 0793     		str	r3, [sp, #28]
 1199 0010 0893     		str	r3, [sp, #32]
 1200 0012 0993     		str	r3, [sp, #36]
 530:../../../init/terminal/init.c **** TIM_OC_InitTypeDef sConfigOC = {0};
 1201              		.loc 1 530 1 is_stmt 1 view .LVU390
 1202              		.loc 1 530 20 is_stmt 0 view .LVU391
 1203 0014 0093     		str	r3, [sp]
 1204 0016 0193     		str	r3, [sp, #4]
 1205 0018 0293     		str	r3, [sp, #8]
 1206 001a 0393     		str	r3, [sp, #12]
 1207 001c 0493     		str	r3, [sp, #16]
 1208 001e 0593     		str	r3, [sp, #20]
 1209 0020 0693     		str	r3, [sp, #24]
 531:../../../init/terminal/init.c **** 
 532:../../../init/terminal/init.c **** /*------------------------------------------------------------------------------
 533:../../../init/terminal/init.c ****  Initializations 
 534:../../../init/terminal/init.c **** ------------------------------------------------------------------------------*/
 535:../../../init/terminal/init.c **** htim3.Instance = TIM3;
 1210              		.loc 1 535 1 is_stmt 1 view .LVU392
 1211              		.loc 1 535 16 is_stmt 0 view .LVU393
 1212 0022 2D48     		ldr	r0, .L99
 1213 0024 2D4A     		ldr	r2, .L99+4
 1214 0026 0260     		str	r2, [r0]
 536:../../../init/terminal/init.c **** htim3.Init.Prescaler = 240-1;
 1215              		.loc 1 536 1 is_stmt 1 view .LVU394
 1216              		.loc 1 536 22 is_stmt 0 view .LVU395
 1217 0028 EF22     		movs	r2, #239
 1218 002a 4260     		str	r2, [r0, #4]
 537:../../../init/terminal/init.c **** htim3.Init.CounterMode = TIM_COUNTERMODE_UP;
 1219              		.loc 1 537 1 is_stmt 1 view .LVU396
 1220              		.loc 1 537 24 is_stmt 0 view .LVU397
 1221 002c 8360     		str	r3, [r0, #8]
 538:../../../init/terminal/init.c **** htim3.Init.Period = 100-1;
ARM GAS  /tmp/ccq0cjMd.s 			page 32


 1222              		.loc 1 538 1 is_stmt 1 view .LVU398
 1223              		.loc 1 538 19 is_stmt 0 view .LVU399
 1224 002e 6322     		movs	r2, #99
 1225 0030 C260     		str	r2, [r0, #12]
 539:../../../init/terminal/init.c **** htim3.Init.ClockDivision = TIM_CLOCKDIVISION_DIV1;
 1226              		.loc 1 539 1 is_stmt 1 view .LVU400
 1227              		.loc 1 539 26 is_stmt 0 view .LVU401
 1228 0032 0361     		str	r3, [r0, #16]
 540:../../../init/terminal/init.c **** htim3.Init.AutoReloadPreload = TIM_AUTORELOAD_PRELOAD_DISABLE;
 1229              		.loc 1 540 1 is_stmt 1 view .LVU402
 1230              		.loc 1 540 30 is_stmt 0 view .LVU403
 1231 0034 8361     		str	r3, [r0, #24]
 541:../../../init/terminal/init.c **** 
 542:../../../init/terminal/init.c **** /*------------------------------------------------------------------------------
 543:../../../init/terminal/init.c ****  Setup PWM Timer
 544:../../../init/terminal/init.c **** ------------------------------------------------------------------------------*/
 545:../../../init/terminal/init.c **** if (HAL_TIM_Base_Init(&htim3) != HAL_OK)
 1232              		.loc 1 545 1 is_stmt 1 view .LVU404
 1233              		.loc 1 545 5 is_stmt 0 view .LVU405
 1234 0036 FFF7FEFF 		bl	HAL_TIM_Base_Init
 1235              	.LVL55:
 1236              		.loc 1 545 4 view .LVU406
 1237 003a 0028     		cmp	r0, #0
 1238 003c 30D1     		bne	.L92
 1239              	.L84:
 546:../../../init/terminal/init.c **** {
 547:../../../init/terminal/init.c **** Error_Handler(ERROR_PWM123_ERROR);
 548:../../../init/terminal/init.c **** }
 549:../../../init/terminal/init.c **** sClockSourceConfig.ClockSource = TIM_CLOCKSOURCE_INTERNAL;
 1240              		.loc 1 549 1 is_stmt 1 view .LVU407
 1241              		.loc 1 549 32 is_stmt 0 view .LVU408
 1242 003e 4FF48053 		mov	r3, #4096
 1243 0042 0A93     		str	r3, [sp, #40]
 550:../../../init/terminal/init.c **** if (HAL_TIM_ConfigClockSource(&htim3, &sClockSourceConfig) != HAL_OK)
 1244              		.loc 1 550 1 is_stmt 1 view .LVU409
 1245              		.loc 1 550 5 is_stmt 0 view .LVU410
 1246 0044 0AA9     		add	r1, sp, #40
 1247 0046 2448     		ldr	r0, .L99
 1248 0048 FFF7FEFF 		bl	HAL_TIM_ConfigClockSource
 1249              	.LVL56:
 1250              		.loc 1 550 4 view .LVU411
 1251 004c 60BB     		cbnz	r0, .L93
 1252              	.L85:
 551:../../../init/terminal/init.c **** {
 552:../../../init/terminal/init.c **** Error_Handler(ERROR_PWM123_ERROR);
 553:../../../init/terminal/init.c **** }
 554:../../../init/terminal/init.c **** if (HAL_TIM_PWM_Init(&htim3) != HAL_OK)
 1253              		.loc 1 554 1 is_stmt 1 view .LVU412
 1254              		.loc 1 554 5 is_stmt 0 view .LVU413
 1255 004e 2248     		ldr	r0, .L99
 1256 0050 FFF7FEFF 		bl	HAL_TIM_PWM_Init
 1257              	.LVL57:
 1258              		.loc 1 554 4 view .LVU414
 1259 0054 60BB     		cbnz	r0, .L94
 1260              	.L86:
 555:../../../init/terminal/init.c **** {
 556:../../../init/terminal/init.c **** Error_Handler(ERROR_PWM123_ERROR);
ARM GAS  /tmp/ccq0cjMd.s 			page 33


 557:../../../init/terminal/init.c **** }
 558:../../../init/terminal/init.c **** sMasterConfig.MasterOutputTrigger = TIM_TRGO_RESET;
 1261              		.loc 1 558 1 is_stmt 1 view .LVU415
 1262              		.loc 1 558 35 is_stmt 0 view .LVU416
 1263 0056 0023     		movs	r3, #0
 1264 0058 0793     		str	r3, [sp, #28]
 559:../../../init/terminal/init.c **** sMasterConfig.MasterSlaveMode = TIM_MASTERSLAVEMODE_DISABLE;
 1265              		.loc 1 559 1 is_stmt 1 view .LVU417
 1266              		.loc 1 559 31 is_stmt 0 view .LVU418
 1267 005a 0993     		str	r3, [sp, #36]
 560:../../../init/terminal/init.c **** if (HAL_TIMEx_MasterConfigSynchronization(&htim3, &sMasterConfig) != HAL_OK)
 1268              		.loc 1 560 1 is_stmt 1 view .LVU419
 1269              		.loc 1 560 5 is_stmt 0 view .LVU420
 1270 005c 07A9     		add	r1, sp, #28
 1271 005e 1E48     		ldr	r0, .L99
 1272 0060 FFF7FEFF 		bl	HAL_TIMEx_MasterConfigSynchronization
 1273              	.LVL58:
 1274              		.loc 1 560 4 view .LVU421
 1275 0064 40BB     		cbnz	r0, .L95
 1276              	.L87:
 561:../../../init/terminal/init.c **** {
 562:../../../init/terminal/init.c **** Error_Handler(ERROR_PWM123_ERROR);
 563:../../../init/terminal/init.c **** }
 564:../../../init/terminal/init.c **** sConfigOC.OCMode = TIM_OCMODE_PWM1;
 1277              		.loc 1 564 1 is_stmt 1 view .LVU422
 1278              		.loc 1 564 18 is_stmt 0 view .LVU423
 1279 0066 6023     		movs	r3, #96
 1280 0068 0093     		str	r3, [sp]
 565:../../../init/terminal/init.c **** sConfigOC.Pulse = 0;
 1281              		.loc 1 565 1 is_stmt 1 view .LVU424
 1282              		.loc 1 565 17 is_stmt 0 view .LVU425
 1283 006a 0022     		movs	r2, #0
 1284 006c 0192     		str	r2, [sp, #4]
 566:../../../init/terminal/init.c **** sConfigOC.OCPolarity = TIM_OCPOLARITY_HIGH;
 1285              		.loc 1 566 1 is_stmt 1 view .LVU426
 1286              		.loc 1 566 22 is_stmt 0 view .LVU427
 1287 006e 0292     		str	r2, [sp, #8]
 567:../../../init/terminal/init.c **** sConfigOC.OCFastMode = TIM_OCFAST_DISABLE;
 1288              		.loc 1 567 1 is_stmt 1 view .LVU428
 1289              		.loc 1 567 22 is_stmt 0 view .LVU429
 1290 0070 0492     		str	r2, [sp, #16]
 568:../../../init/terminal/init.c **** if (HAL_TIM_PWM_ConfigChannel(&htim3, &sConfigOC, TIM_CHANNEL_1) != HAL_OK)
 1291              		.loc 1 568 1 is_stmt 1 view .LVU430
 1292              		.loc 1 568 5 is_stmt 0 view .LVU431
 1293 0072 6946     		mov	r1, sp
 1294 0074 1848     		ldr	r0, .L99
 1295 0076 FFF7FEFF 		bl	HAL_TIM_PWM_ConfigChannel
 1296              	.LVL59:
 1297              		.loc 1 568 4 view .LVU432
 1298 007a 08BB     		cbnz	r0, .L96
 1299              	.L88:
 569:../../../init/terminal/init.c **** {
 570:../../../init/terminal/init.c **** Error_Handler(ERROR_PWM123_ERROR);
 571:../../../init/terminal/init.c **** }
 572:../../../init/terminal/init.c **** if (HAL_TIM_PWM_ConfigChannel(&htim3, &sConfigOC, TIM_CHANNEL_3) != HAL_OK)
 1300              		.loc 1 572 1 is_stmt 1 view .LVU433
 1301              		.loc 1 572 5 is_stmt 0 view .LVU434
ARM GAS  /tmp/ccq0cjMd.s 			page 34


 1302 007c 0822     		movs	r2, #8
 1303 007e 6946     		mov	r1, sp
 1304 0080 1548     		ldr	r0, .L99
 1305 0082 FFF7FEFF 		bl	HAL_TIM_PWM_ConfigChannel
 1306              	.LVL60:
 1307              		.loc 1 572 4 view .LVU435
 1308 0086 F8B9     		cbnz	r0, .L97
 1309              	.L89:
 573:../../../init/terminal/init.c **** {
 574:../../../init/terminal/init.c **** Error_Handler(ERROR_PWM123_ERROR);
 575:../../../init/terminal/init.c **** }
 576:../../../init/terminal/init.c **** if (HAL_TIM_PWM_ConfigChannel(&htim3, &sConfigOC, TIM_CHANNEL_4) != HAL_OK)
 1310              		.loc 1 576 1 is_stmt 1 view .LVU436
 1311              		.loc 1 576 5 is_stmt 0 view .LVU437
 1312 0088 0C22     		movs	r2, #12
 1313 008a 6946     		mov	r1, sp
 1314 008c 1248     		ldr	r0, .L99
 1315 008e FFF7FEFF 		bl	HAL_TIM_PWM_ConfigChannel
 1316              	.LVL61:
 1317              		.loc 1 576 4 view .LVU438
 1318 0092 E8B9     		cbnz	r0, .L98
 1319              	.L90:
 577:../../../init/terminal/init.c **** {
 578:../../../init/terminal/init.c **** Error_Handler(ERROR_PWM123_ERROR);
 579:../../../init/terminal/init.c **** }
 580:../../../init/terminal/init.c **** HAL_TIM_MspPostInit(&htim3);
 1320              		.loc 1 580 1 is_stmt 1 view .LVU439
 1321 0094 1048     		ldr	r0, .L99
 1322 0096 FFF7FEFF 		bl	HAL_TIM_MspPostInit
 1323              	.LVL62:
 581:../../../init/terminal/init.c **** 
 582:../../../init/terminal/init.c **** } /* PWM123_TIM_Init */
 1324              		.loc 1 582 1 is_stmt 0 view .LVU440
 1325 009a 0FB0     		add	sp, sp, #60
 1326              	.LCFI22:
 1327              		.cfi_remember_state
 1328              		.cfi_def_cfa_offset 4
 1329              		@ sp needed
 1330 009c 5DF804FB 		ldr	pc, [sp], #4
 1331              	.L92:
 1332              	.LCFI23:
 1333              		.cfi_restore_state
 547:../../../init/terminal/init.c **** }
 1334              		.loc 1 547 1 is_stmt 1 view .LVU441
 1335 00a0 3120     		movs	r0, #49
 1336 00a2 FFF7FEFF 		bl	Error_Handler
 1337              	.LVL63:
 1338 00a6 CAE7     		b	.L84
 1339              	.L93:
 552:../../../init/terminal/init.c **** }
 1340              		.loc 1 552 1 view .LVU442
 1341 00a8 3120     		movs	r0, #49
 1342 00aa FFF7FEFF 		bl	Error_Handler
 1343              	.LVL64:
 1344 00ae CEE7     		b	.L85
 1345              	.L94:
 556:../../../init/terminal/init.c **** }
ARM GAS  /tmp/ccq0cjMd.s 			page 35


 1346              		.loc 1 556 1 view .LVU443
 1347 00b0 3120     		movs	r0, #49
 1348 00b2 FFF7FEFF 		bl	Error_Handler
 1349              	.LVL65:
 1350 00b6 CEE7     		b	.L86
 1351              	.L95:
 562:../../../init/terminal/init.c **** }
 1352              		.loc 1 562 1 view .LVU444
 1353 00b8 3120     		movs	r0, #49
 1354 00ba FFF7FEFF 		bl	Error_Handler
 1355              	.LVL66:
 1356 00be D2E7     		b	.L87
 1357              	.L96:
 570:../../../init/terminal/init.c **** }
 1358              		.loc 1 570 1 view .LVU445
 1359 00c0 3120     		movs	r0, #49
 1360 00c2 FFF7FEFF 		bl	Error_Handler
 1361              	.LVL67:
 1362 00c6 D9E7     		b	.L88
 1363              	.L97:
 574:../../../init/terminal/init.c **** }
 1364              		.loc 1 574 1 view .LVU446
 1365 00c8 3120     		movs	r0, #49
 1366 00ca FFF7FEFF 		bl	Error_Handler
 1367              	.LVL68:
 1368 00ce DBE7     		b	.L89
 1369              	.L98:
 578:../../../init/terminal/init.c **** }
 1370              		.loc 1 578 1 view .LVU447
 1371 00d0 3120     		movs	r0, #49
 1372 00d2 FFF7FEFF 		bl	Error_Handler
 1373              	.LVL69:
 1374 00d6 DDE7     		b	.L90
 1375              	.L100:
 1376              		.align	2
 1377              	.L99:
 1378 00d8 00000000 		.word	htim3
 1379 00dc 00040040 		.word	1073742848
 1380              		.cfi_endproc
 1381              	.LFE153:
 1383              		.section	.text.GPIO_Init,"ax",%progbits
 1384              		.align	1
 1385              		.global	GPIO_Init
 1386              		.syntax unified
 1387              		.thumb
 1388              		.thumb_func
 1390              	GPIO_Init:
 1391              	.LFB154:
 583:../../../init/terminal/init.c **** 
 584:../../../init/terminal/init.c **** /*******************************************************************************
 585:../../../init/terminal/init.c **** *                                                                              *
 586:../../../init/terminal/init.c **** * PROCEDURE:                                                                   *
 587:../../../init/terminal/init.c **** * 		GPIO_Init                                                              * 
 588:../../../init/terminal/init.c **** *                                                                              *
 589:../../../init/terminal/init.c **** * DESCRIPTION:                                                                 * 
 590:../../../init/terminal/init.c **** * 		Initializes all GPIO pins and sets alternate functions                 *
 591:../../../init/terminal/init.c **** *                                                                              *
ARM GAS  /tmp/ccq0cjMd.s 			page 36


 592:../../../init/terminal/init.c **** *******************************************************************************/
 593:../../../init/terminal/init.c **** void GPIO_Init
 594:../../../init/terminal/init.c **** 	(
 595:../../../init/terminal/init.c ****  	void
 596:../../../init/terminal/init.c **** 	)
 597:../../../init/terminal/init.c **** {
 1392              		.loc 1 597 1 view -0
 1393              		.cfi_startproc
 1394              		@ args = 0, pretend = 0, frame = 48
 1395              		@ frame_needed = 0, uses_anonymous_args = 0
 1396 0000 2DE9F047 		push	{r4, r5, r6, r7, r8, r9, r10, lr}
 1397              	.LCFI24:
 1398              		.cfi_def_cfa_offset 32
 1399              		.cfi_offset 4, -32
 1400              		.cfi_offset 5, -28
 1401              		.cfi_offset 6, -24
 1402              		.cfi_offset 7, -20
 1403              		.cfi_offset 8, -16
 1404              		.cfi_offset 9, -12
 1405              		.cfi_offset 10, -8
 1406              		.cfi_offset 14, -4
 1407 0004 8CB0     		sub	sp, sp, #48
 1408              	.LCFI25:
 1409              		.cfi_def_cfa_offset 80
 598:../../../init/terminal/init.c **** /* GPIO Initialization Struct */
 599:../../../init/terminal/init.c **** GPIO_InitTypeDef GPIO_InitStruct = {0};
 1410              		.loc 1 599 1 view .LVU449
 1411              		.loc 1 599 18 is_stmt 0 view .LVU450
 1412 0006 0024     		movs	r4, #0
 1413 0008 0794     		str	r4, [sp, #28]
 1414 000a 0894     		str	r4, [sp, #32]
 1415 000c 0994     		str	r4, [sp, #36]
 1416 000e 0A94     		str	r4, [sp, #40]
 1417 0010 0B94     		str	r4, [sp, #44]
 600:../../../init/terminal/init.c **** 
 601:../../../init/terminal/init.c **** /* GPIO Ports Clock Enable */
 602:../../../init/terminal/init.c **** __HAL_RCC_GPIOA_CLK_ENABLE();
 1418              		.loc 1 602 1 is_stmt 1 view .LVU451
 1419              	.LBB3:
 1420              		.loc 1 602 1 view .LVU452
 1421              		.loc 1 602 1 view .LVU453
 1422 0012 8F4B     		ldr	r3, .L103
 1423 0014 D3F8E020 		ldr	r2, [r3, #224]
 1424 0018 42F00102 		orr	r2, r2, #1
 1425 001c C3F8E020 		str	r2, [r3, #224]
 1426              		.loc 1 602 1 view .LVU454
 1427 0020 D3F8E020 		ldr	r2, [r3, #224]
 1428 0024 02F00102 		and	r2, r2, #1
 1429 0028 0192     		str	r2, [sp, #4]
 1430              		.loc 1 602 1 view .LVU455
 1431 002a 019A     		ldr	r2, [sp, #4]
 1432              	.LBE3:
 1433              		.loc 1 602 1 view .LVU456
 603:../../../init/terminal/init.c **** __HAL_RCC_GPIOB_CLK_ENABLE();
 1434              		.loc 1 603 1 view .LVU457
 1435              	.LBB4:
 1436              		.loc 1 603 1 view .LVU458
ARM GAS  /tmp/ccq0cjMd.s 			page 37


 1437              		.loc 1 603 1 view .LVU459
 1438 002c D3F8E020 		ldr	r2, [r3, #224]
 1439 0030 42F00202 		orr	r2, r2, #2
 1440 0034 C3F8E020 		str	r2, [r3, #224]
 1441              		.loc 1 603 1 view .LVU460
 1442 0038 D3F8E020 		ldr	r2, [r3, #224]
 1443 003c 02F00202 		and	r2, r2, #2
 1444 0040 0292     		str	r2, [sp, #8]
 1445              		.loc 1 603 1 view .LVU461
 1446 0042 029A     		ldr	r2, [sp, #8]
 1447              	.LBE4:
 1448              		.loc 1 603 1 view .LVU462
 604:../../../init/terminal/init.c **** __HAL_RCC_GPIOC_CLK_ENABLE();
 1449              		.loc 1 604 1 view .LVU463
 1450              	.LBB5:
 1451              		.loc 1 604 1 view .LVU464
 1452              		.loc 1 604 1 view .LVU465
 1453 0044 D3F8E020 		ldr	r2, [r3, #224]
 1454 0048 42F00402 		orr	r2, r2, #4
 1455 004c C3F8E020 		str	r2, [r3, #224]
 1456              		.loc 1 604 1 view .LVU466
 1457 0050 D3F8E020 		ldr	r2, [r3, #224]
 1458 0054 02F00402 		and	r2, r2, #4
 1459 0058 0392     		str	r2, [sp, #12]
 1460              		.loc 1 604 1 view .LVU467
 1461 005a 039A     		ldr	r2, [sp, #12]
 1462              	.LBE5:
 1463              		.loc 1 604 1 view .LVU468
 605:../../../init/terminal/init.c **** __HAL_RCC_GPIOD_CLK_ENABLE();
 1464              		.loc 1 605 1 view .LVU469
 1465              	.LBB6:
 1466              		.loc 1 605 1 view .LVU470
 1467              		.loc 1 605 1 view .LVU471
 1468 005c D3F8E020 		ldr	r2, [r3, #224]
 1469 0060 42F00802 		orr	r2, r2, #8
 1470 0064 C3F8E020 		str	r2, [r3, #224]
 1471              		.loc 1 605 1 view .LVU472
 1472 0068 D3F8E020 		ldr	r2, [r3, #224]
 1473 006c 02F00802 		and	r2, r2, #8
 1474 0070 0492     		str	r2, [sp, #16]
 1475              		.loc 1 605 1 view .LVU473
 1476 0072 049A     		ldr	r2, [sp, #16]
 1477              	.LBE6:
 1478              		.loc 1 605 1 view .LVU474
 606:../../../init/terminal/init.c **** __HAL_RCC_GPIOE_CLK_ENABLE();
 1479              		.loc 1 606 1 view .LVU475
 1480              	.LBB7:
 1481              		.loc 1 606 1 view .LVU476
 1482              		.loc 1 606 1 view .LVU477
 1483 0074 D3F8E020 		ldr	r2, [r3, #224]
 1484 0078 42F01002 		orr	r2, r2, #16
 1485 007c C3F8E020 		str	r2, [r3, #224]
 1486              		.loc 1 606 1 view .LVU478
 1487 0080 D3F8E020 		ldr	r2, [r3, #224]
 1488 0084 02F01002 		and	r2, r2, #16
 1489 0088 0592     		str	r2, [sp, #20]
 1490              		.loc 1 606 1 view .LVU479
ARM GAS  /tmp/ccq0cjMd.s 			page 38


 1491 008a 059A     		ldr	r2, [sp, #20]
 1492              	.LBE7:
 1493              		.loc 1 606 1 view .LVU480
 607:../../../init/terminal/init.c **** __HAL_RCC_GPIOH_CLK_ENABLE();
 1494              		.loc 1 607 1 view .LVU481
 1495              	.LBB8:
 1496              		.loc 1 607 1 view .LVU482
 1497              		.loc 1 607 1 view .LVU483
 1498 008c D3F8E020 		ldr	r2, [r3, #224]
 1499 0090 42F08002 		orr	r2, r2, #128
 1500 0094 C3F8E020 		str	r2, [r3, #224]
 1501              		.loc 1 607 1 view .LVU484
 1502 0098 D3F8E030 		ldr	r3, [r3, #224]
 1503 009c 03F08003 		and	r3, r3, #128
 1504 00a0 0693     		str	r3, [sp, #24]
 1505              		.loc 1 607 1 view .LVU485
 1506 00a2 069B     		ldr	r3, [sp, #24]
 1507              	.LBE8:
 1508              		.loc 1 607 1 view .LVU486
 608:../../../init/terminal/init.c **** 
 609:../../../init/terminal/init.c **** 
 610:../../../init/terminal/init.c **** /*--------------------------- LED MCU PINS -----------------------------------*/
 611:../../../init/terminal/init.c **** 
 612:../../../init/terminal/init.c **** /* Configure GPIO pin Output Level */
 613:../../../init/terminal/init.c **** HAL_GPIO_WritePin(
 1509              		.loc 1 613 1 view .LVU487
 1510 00a4 DFF8B481 		ldr	r8, .L103+12
 1511 00a8 0122     		movs	r2, #1
 1512 00aa 4FF46061 		mov	r1, #3584
 1513 00ae 4046     		mov	r0, r8
 1514 00b0 FFF7FEFF 		bl	HAL_GPIO_WritePin
 1515              	.LVL70:
 614:../../../init/terminal/init.c ****                  STATUS_GPIO_PORT, 
 615:../../../init/terminal/init.c ****                  STATUS_R_PIN | 
 616:../../../init/terminal/init.c ****                  STATUS_B_PIN | 
 617:../../../init/terminal/init.c ****                  STATUS_G_PIN    ,
 618:../../../init/terminal/init.c ****                  GPIO_PIN_SET
 619:../../../init/terminal/init.c ****                  );
 620:../../../init/terminal/init.c **** 
 621:../../../init/terminal/init.c **** /* Configure GPIO pin : PE2 --> Status LED pin */
 622:../../../init/terminal/init.c **** GPIO_InitStruct.Pin   = STATUS_R_PIN | 
 1516              		.loc 1 622 1 view .LVU488
 1517              		.loc 1 622 23 is_stmt 0 view .LVU489
 1518 00b4 4FF46063 		mov	r3, #3584
 1519 00b8 0793     		str	r3, [sp, #28]
 623:../../../init/terminal/init.c ****                         STATUS_B_PIN | 
 624:../../../init/terminal/init.c ****                         STATUS_G_PIN;
 625:../../../init/terminal/init.c **** GPIO_InitStruct.Mode  = GPIO_MODE_OUTPUT_OD;          /* open-drain output   */
 1520              		.loc 1 625 1 is_stmt 1 view .LVU490
 1521              		.loc 1 625 23 is_stmt 0 view .LVU491
 1522 00ba 1123     		movs	r3, #17
 1523 00bc 0893     		str	r3, [sp, #32]
 626:../../../init/terminal/init.c **** GPIO_InitStruct.Pull  = GPIO_NOPULL;                  /* no pull up resistor */
 1524              		.loc 1 626 1 is_stmt 1 view .LVU492
 1525              		.loc 1 626 23 is_stmt 0 view .LVU493
 1526 00be 0994     		str	r4, [sp, #36]
 627:../../../init/terminal/init.c **** GPIO_InitStruct.Speed = GPIO_SPEED_FREQ_LOW;          /* Low Frequency       */
ARM GAS  /tmp/ccq0cjMd.s 			page 39


 1527              		.loc 1 627 1 is_stmt 1 view .LVU494
 1528              		.loc 1 627 23 is_stmt 0 view .LVU495
 1529 00c0 0A94     		str	r4, [sp, #40]
 628:../../../init/terminal/init.c **** HAL_GPIO_Init( STATUS_GPIO_PORT, &GPIO_InitStruct );  /* Write to registers  */
 1530              		.loc 1 628 1 is_stmt 1 view .LVU496
 1531 00c2 07A9     		add	r1, sp, #28
 1532 00c4 4046     		mov	r0, r8
 1533 00c6 FFF7FEFF 		bl	HAL_GPIO_Init
 1534              	.LVL71:
 629:../../../init/terminal/init.c **** 
 630:../../../init/terminal/init.c **** /*--------------------------- FLASH MCU Pins----------------------------------*/
 631:../../../init/terminal/init.c **** 
 632:../../../init/terminal/init.c **** /* Chip select Pin */
 633:../../../init/terminal/init.c **** 
 634:../../../init/terminal/init.c **** /* Configure GPIO pin Output Level */
 635:../../../init/terminal/init.c **** HAL_GPIO_WritePin( FLASH_SS_GPIO_PORT, FLASH_SS_PIN, GPIO_PIN_SET );
 1535              		.loc 1 635 1 view .LVU497
 1536 00ca 624D     		ldr	r5, .L103+4
 1537 00cc 0122     		movs	r2, #1
 1538 00ce 4FF48051 		mov	r1, #4096
 1539 00d2 2846     		mov	r0, r5
 1540 00d4 FFF7FEFF 		bl	HAL_GPIO_WritePin
 1541              	.LVL72:
 636:../../../init/terminal/init.c **** 
 637:../../../init/terminal/init.c **** /* Pin configuration */
 638:../../../init/terminal/init.c **** GPIO_InitStruct.Pin   = FLASH_SS_PIN;
 1542              		.loc 1 638 1 view .LVU498
 1543              		.loc 1 638 23 is_stmt 0 view .LVU499
 1544 00d8 4FF48057 		mov	r7, #4096
 1545 00dc 0797     		str	r7, [sp, #28]
 639:../../../init/terminal/init.c **** GPIO_InitStruct.Mode  = GPIO_MODE_OUTPUT_PP;
 1546              		.loc 1 639 1 is_stmt 1 view .LVU500
 1547              		.loc 1 639 23 is_stmt 0 view .LVU501
 1548 00de 0126     		movs	r6, #1
 1549 00e0 0896     		str	r6, [sp, #32]
 640:../../../init/terminal/init.c **** GPIO_InitStruct.Pull  = GPIO_NOPULL;
 1550              		.loc 1 640 1 is_stmt 1 view .LVU502
 1551              		.loc 1 640 23 is_stmt 0 view .LVU503
 1552 00e2 0994     		str	r4, [sp, #36]
 641:../../../init/terminal/init.c **** GPIO_InitStruct.Speed = GPIO_SPEED_FREQ_LOW;
 1553              		.loc 1 641 1 is_stmt 1 view .LVU504
 1554              		.loc 1 641 23 is_stmt 0 view .LVU505
 1555 00e4 0A94     		str	r4, [sp, #40]
 642:../../../init/terminal/init.c **** HAL_GPIO_Init( FLASH_SS_GPIO_PORT, &GPIO_InitStruct );
 1556              		.loc 1 642 1 is_stmt 1 view .LVU506
 1557 00e6 07A9     		add	r1, sp, #28
 1558 00e8 2846     		mov	r0, r5
 1559 00ea FFF7FEFF 		bl	HAL_GPIO_Init
 1560              	.LVL73:
 643:../../../init/terminal/init.c **** 
 644:../../../init/terminal/init.c **** /* Write Protect Pin */
 645:../../../init/terminal/init.c **** 
 646:../../../init/terminal/init.c **** /* Configure GPIO pin Output Level */
 647:../../../init/terminal/init.c **** HAL_GPIO_WritePin( FLASH_WP_GPIO_PORT, FLASH_WP_PIN, GPIO_PIN_RESET );
 1561              		.loc 1 647 1 view .LVU507
 1562 00ee 05F50065 		add	r5, r5, #2048
 1563 00f2 2246     		mov	r2, r4
ARM GAS  /tmp/ccq0cjMd.s 			page 40


 1564 00f4 3946     		mov	r1, r7
 1565 00f6 2846     		mov	r0, r5
 1566 00f8 FFF7FEFF 		bl	HAL_GPIO_WritePin
 1567              	.LVL74:
 648:../../../init/terminal/init.c **** 
 649:../../../init/terminal/init.c **** /* Pin configuration */
 650:../../../init/terminal/init.c **** GPIO_InitStruct.Pin   = FLASH_WP_PIN;
 1568              		.loc 1 650 1 view .LVU508
 1569              		.loc 1 650 23 is_stmt 0 view .LVU509
 1570 00fc 0797     		str	r7, [sp, #28]
 651:../../../init/terminal/init.c **** GPIO_InitStruct.Mode  = GPIO_MODE_OUTPUT_PP;
 1571              		.loc 1 651 1 is_stmt 1 view .LVU510
 1572              		.loc 1 651 23 is_stmt 0 view .LVU511
 1573 00fe 0896     		str	r6, [sp, #32]
 652:../../../init/terminal/init.c **** GPIO_InitStruct.Pull  = GPIO_NOPULL;
 1574              		.loc 1 652 1 is_stmt 1 view .LVU512
 1575              		.loc 1 652 23 is_stmt 0 view .LVU513
 1576 0100 0994     		str	r4, [sp, #36]
 653:../../../init/terminal/init.c **** GPIO_InitStruct.Speed = GPIO_SPEED_FREQ_LOW;
 1577              		.loc 1 653 1 is_stmt 1 view .LVU514
 1578              		.loc 1 653 23 is_stmt 0 view .LVU515
 1579 0102 0A94     		str	r4, [sp, #40]
 654:../../../init/terminal/init.c **** HAL_GPIO_Init( FLASH_WP_GPIO_PORT, &GPIO_InitStruct );
 1580              		.loc 1 654 1 is_stmt 1 view .LVU516
 1581 0104 07A9     		add	r1, sp, #28
 1582 0106 2846     		mov	r0, r5
 1583 0108 FFF7FEFF 		bl	HAL_GPIO_Init
 1584              	.LVL75:
 655:../../../init/terminal/init.c **** 
 656:../../../init/terminal/init.c **** /* Flash hold pin */
 657:../../../init/terminal/init.c **** 
 658:../../../init/terminal/init.c **** /*Configure GPIO pin Output Level */
 659:../../../init/terminal/init.c **** HAL_GPIO_WritePin(FLASH_HOLD_GPIO_PORT, FLASH_HOLD_PIN, GPIO_PIN_SET);
 1585              		.loc 1 659 1 view .LVU517
 1586 010c 3246     		mov	r2, r6
 1587 010e 4FF40051 		mov	r1, #8192
 1588 0112 2846     		mov	r0, r5
 1589 0114 FFF7FEFF 		bl	HAL_GPIO_WritePin
 1590              	.LVL76:
 660:../../../init/terminal/init.c **** 
 661:../../../init/terminal/init.c **** /*Configure GPIO pin : PD13 */
 662:../../../init/terminal/init.c **** GPIO_InitStruct.Pin   = FLASH_HOLD_PIN;
 1591              		.loc 1 662 1 view .LVU518
 1592              		.loc 1 662 23 is_stmt 0 view .LVU519
 1593 0118 4FF40059 		mov	r9, #8192
 1594 011c CDF81C90 		str	r9, [sp, #28]
 663:../../../init/terminal/init.c **** GPIO_InitStruct.Mode  = GPIO_MODE_OUTPUT_PP;
 1595              		.loc 1 663 1 is_stmt 1 view .LVU520
 1596              		.loc 1 663 23 is_stmt 0 view .LVU521
 1597 0120 0896     		str	r6, [sp, #32]
 664:../../../init/terminal/init.c **** GPIO_InitStruct.Pull  = GPIO_NOPULL;
 1598              		.loc 1 664 1 is_stmt 1 view .LVU522
 1599              		.loc 1 664 23 is_stmt 0 view .LVU523
 1600 0122 0994     		str	r4, [sp, #36]
 665:../../../init/terminal/init.c **** GPIO_InitStruct.Speed = GPIO_SPEED_FREQ_LOW;
 1601              		.loc 1 665 1 is_stmt 1 view .LVU524
 1602              		.loc 1 665 23 is_stmt 0 view .LVU525
ARM GAS  /tmp/ccq0cjMd.s 			page 41


 1603 0124 0A94     		str	r4, [sp, #40]
 666:../../../init/terminal/init.c **** HAL_GPIO_Init(FLASH_HOLD_GPIO_PORT, &GPIO_InitStruct);
 1604              		.loc 1 666 1 is_stmt 1 view .LVU526
 1605 0126 07A9     		add	r1, sp, #28
 1606 0128 2846     		mov	r0, r5
 1607 012a FFF7FEFF 		bl	HAL_GPIO_Init
 1608              	.LVL77:
 667:../../../init/terminal/init.c **** 
 668:../../../init/terminal/init.c **** /*------------------------- IGNITION MCU Pins --------------------------------*/
 669:../../../init/terminal/init.c **** 
 670:../../../init/terminal/init.c **** /* Drogue Deployment Pin */
 671:../../../init/terminal/init.c **** HAL_GPIO_WritePin( DROGUE_GPIO_PORT, DROGUE_PIN, GPIO_PIN_RESET );
 1609              		.loc 1 671 1 view .LVU527
 1610 012e 4A4F     		ldr	r7, .L103+8
 1611 0130 2246     		mov	r2, r4
 1612 0132 4946     		mov	r1, r9
 1613 0134 3846     		mov	r0, r7
 1614 0136 FFF7FEFF 		bl	HAL_GPIO_WritePin
 1615              	.LVL78:
 672:../../../init/terminal/init.c **** GPIO_InitStruct.Pin   = DROGUE_PIN;
 1616              		.loc 1 672 1 view .LVU528
 1617              		.loc 1 672 23 is_stmt 0 view .LVU529
 1618 013a CDF81C90 		str	r9, [sp, #28]
 673:../../../init/terminal/init.c **** GPIO_InitStruct.Mode  = GPIO_MODE_OUTPUT_PP;
 1619              		.loc 1 673 1 is_stmt 1 view .LVU530
 1620              		.loc 1 673 23 is_stmt 0 view .LVU531
 1621 013e 0896     		str	r6, [sp, #32]
 674:../../../init/terminal/init.c **** GPIO_InitStruct.Pull  = GPIO_NOPULL;
 1622              		.loc 1 674 1 is_stmt 1 view .LVU532
 1623              		.loc 1 674 23 is_stmt 0 view .LVU533
 1624 0140 0994     		str	r4, [sp, #36]
 675:../../../init/terminal/init.c **** GPIO_InitStruct.Speed = GPIO_SPEED_FREQ_LOW;
 1625              		.loc 1 675 1 is_stmt 1 view .LVU534
 1626              		.loc 1 675 23 is_stmt 0 view .LVU535
 1627 0142 0A94     		str	r4, [sp, #40]
 676:../../../init/terminal/init.c **** HAL_GPIO_Init( DROGUE_GPIO_PORT, &GPIO_InitStruct );
 1628              		.loc 1 676 1 is_stmt 1 view .LVU536
 1629 0144 07A9     		add	r1, sp, #28
 1630 0146 3846     		mov	r0, r7
 1631 0148 FFF7FEFF 		bl	HAL_GPIO_Init
 1632              	.LVL79:
 677:../../../init/terminal/init.c **** 
 678:../../../init/terminal/init.c **** /* Main Deployment Pin */
 679:../../../init/terminal/init.c **** HAL_GPIO_WritePin( MAIN_GPIO_PORT, MAIN_PIN, GPIO_PIN_RESET );
 1633              		.loc 1 679 1 view .LVU537
 1634 014c 2246     		mov	r2, r4
 1635 014e 4021     		movs	r1, #64
 1636 0150 2846     		mov	r0, r5
 1637 0152 FFF7FEFF 		bl	HAL_GPIO_WritePin
 1638              	.LVL80:
 680:../../../init/terminal/init.c **** GPIO_InitStruct.Pin   = MAIN_PIN;
 1639              		.loc 1 680 1 view .LVU538
 1640              		.loc 1 680 23 is_stmt 0 view .LVU539
 1641 0156 4023     		movs	r3, #64
 1642 0158 0793     		str	r3, [sp, #28]
 681:../../../init/terminal/init.c **** GPIO_InitStruct.Mode  = GPIO_MODE_OUTPUT_PP;
 1643              		.loc 1 681 1 is_stmt 1 view .LVU540
ARM GAS  /tmp/ccq0cjMd.s 			page 42


 1644              		.loc 1 681 23 is_stmt 0 view .LVU541
 1645 015a 0896     		str	r6, [sp, #32]
 682:../../../init/terminal/init.c **** GPIO_InitStruct.Pull  = GPIO_NOPULL;
 1646              		.loc 1 682 1 is_stmt 1 view .LVU542
 1647              		.loc 1 682 23 is_stmt 0 view .LVU543
 1648 015c 0994     		str	r4, [sp, #36]
 683:../../../init/terminal/init.c **** GPIO_InitStruct.Speed = GPIO_SPEED_FREQ_LOW;
 1649              		.loc 1 683 1 is_stmt 1 view .LVU544
 1650              		.loc 1 683 23 is_stmt 0 view .LVU545
 1651 015e 0A94     		str	r4, [sp, #40]
 684:../../../init/terminal/init.c **** HAL_GPIO_Init( MAIN_GPIO_PORT, &GPIO_InitStruct );
 1652              		.loc 1 684 1 is_stmt 1 view .LVU546
 1653 0160 07A9     		add	r1, sp, #28
 1654 0162 2846     		mov	r0, r5
 1655 0164 FFF7FEFF 		bl	HAL_GPIO_Init
 1656              	.LVL81:
 685:../../../init/terminal/init.c **** 
 686:../../../init/terminal/init.c **** /* Switch Continuity Pin */
 687:../../../init/terminal/init.c **** GPIO_InitStruct.Pin  = SWITCH_PIN;
 1657              		.loc 1 687 1 view .LVU547
 1658              		.loc 1 687 22 is_stmt 0 view .LVU548
 1659 0168 8023     		movs	r3, #128
 1660 016a 0793     		str	r3, [sp, #28]
 688:../../../init/terminal/init.c **** GPIO_InitStruct.Mode = GPIO_MODE_INPUT;
 1661              		.loc 1 688 1 is_stmt 1 view .LVU549
 1662              		.loc 1 688 22 is_stmt 0 view .LVU550
 1663 016c 0894     		str	r4, [sp, #32]
 689:../../../init/terminal/init.c **** GPIO_InitStruct.Pull = GPIO_NOPULL;
 1664              		.loc 1 689 1 is_stmt 1 view .LVU551
 1665              		.loc 1 689 22 is_stmt 0 view .LVU552
 1666 016e 0994     		str	r4, [sp, #36]
 690:../../../init/terminal/init.c **** HAL_GPIO_Init( SWITCH_GPIO_PORT, &GPIO_InitStruct );
 1667              		.loc 1 690 1 is_stmt 1 view .LVU553
 1668 0170 07A9     		add	r1, sp, #28
 1669 0172 2846     		mov	r0, r5
 1670 0174 FFF7FEFF 		bl	HAL_GPIO_Init
 1671              	.LVL82:
 691:../../../init/terminal/init.c **** 
 692:../../../init/terminal/init.c **** /* Main Continuity Pin */
 693:../../../init/terminal/init.c **** GPIO_InitStruct.Pin  = MAIN_CONT_PIN;
 1672              		.loc 1 693 1 view .LVU554
 1673              		.loc 1 693 22 is_stmt 0 view .LVU555
 1674 0178 4FF01009 		mov	r9, #16
 1675 017c CDF81C90 		str	r9, [sp, #28]
 694:../../../init/terminal/init.c **** GPIO_InitStruct.Mode = GPIO_MODE_INPUT;
 1676              		.loc 1 694 1 is_stmt 1 view .LVU556
 1677              		.loc 1 694 22 is_stmt 0 view .LVU557
 1678 0180 0894     		str	r4, [sp, #32]
 695:../../../init/terminal/init.c **** GPIO_InitStruct.Pull = GPIO_NOPULL;
 1679              		.loc 1 695 1 is_stmt 1 view .LVU558
 1680              		.loc 1 695 22 is_stmt 0 view .LVU559
 1681 0182 0994     		str	r4, [sp, #36]
 696:../../../init/terminal/init.c **** HAL_GPIO_Init( MAIN_CONT_GPIO_PORT, &GPIO_InitStruct );
 1682              		.loc 1 696 1 is_stmt 1 view .LVU560
 1683 0184 DFF8D8A0 		ldr	r10, .L103+16
 1684 0188 07A9     		add	r1, sp, #28
 1685 018a 5046     		mov	r0, r10
ARM GAS  /tmp/ccq0cjMd.s 			page 43


 1686 018c FFF7FEFF 		bl	HAL_GPIO_Init
 1687              	.LVL83:
 697:../../../init/terminal/init.c **** 
 698:../../../init/terminal/init.c **** /* Drogue Continuity Pin */
 699:../../../init/terminal/init.c **** GPIO_InitStruct.Pin  = DROGUE_CONT_PIN;
 1688              		.loc 1 699 1 view .LVU561
 1689              		.loc 1 699 22 is_stmt 0 view .LVU562
 1690 0190 4FF48043 		mov	r3, #16384
 1691 0194 0793     		str	r3, [sp, #28]
 700:../../../init/terminal/init.c **** GPIO_InitStruct.Mode = GPIO_MODE_INPUT;
 1692              		.loc 1 700 1 is_stmt 1 view .LVU563
 1693              		.loc 1 700 22 is_stmt 0 view .LVU564
 1694 0196 0894     		str	r4, [sp, #32]
 701:../../../init/terminal/init.c **** GPIO_InitStruct.Pull = GPIO_NOPULL;
 1695              		.loc 1 701 1 is_stmt 1 view .LVU565
 1696              		.loc 1 701 22 is_stmt 0 view .LVU566
 1697 0198 0994     		str	r4, [sp, #36]
 702:../../../init/terminal/init.c **** HAL_GPIO_Init( DROGUE_CONT_GPIO_PORT, &GPIO_InitStruct );
 1698              		.loc 1 702 1 is_stmt 1 view .LVU567
 1699 019a 07A9     		add	r1, sp, #28
 1700 019c 3846     		mov	r0, r7
 1701 019e FFF7FEFF 		bl	HAL_GPIO_Init
 1702              	.LVL84:
 703:../../../init/terminal/init.c **** 
 704:../../../init/terminal/init.c **** /*------------------------ BARO SENSOR PINS --------------------------------*/
 705:../../../init/terminal/init.c **** 
 706:../../../init/terminal/init.c **** /* Interrupt pin */
 707:../../../init/terminal/init.c **** GPIO_InitStruct.Pin  = BP_INT_PIN;
 1703              		.loc 1 707 1 view .LVU568
 1704              		.loc 1 707 22 is_stmt 0 view .LVU569
 1705 01a2 0823     		movs	r3, #8
 1706 01a4 0793     		str	r3, [sp, #28]
 708:../../../init/terminal/init.c **** GPIO_InitStruct.Mode = GPIO_MODE_INPUT;
 1707              		.loc 1 708 1 is_stmt 1 view .LVU570
 1708              		.loc 1 708 22 is_stmt 0 view .LVU571
 1709 01a6 0894     		str	r4, [sp, #32]
 709:../../../init/terminal/init.c **** GPIO_InitStruct.Pull = GPIO_PULLDOWN;
 1710              		.loc 1 709 1 is_stmt 1 view .LVU572
 1711              		.loc 1 709 22 is_stmt 0 view .LVU573
 1712 01a8 0223     		movs	r3, #2
 1713 01aa 0993     		str	r3, [sp, #36]
 710:../../../init/terminal/init.c **** HAL_GPIO_Init( BP_INT_GPIO_PORT, &GPIO_InitStruct );
 1714              		.loc 1 710 1 is_stmt 1 view .LVU574
 1715 01ac 07A9     		add	r1, sp, #28
 1716 01ae 5046     		mov	r0, r10
 1717 01b0 FFF7FEFF 		bl	HAL_GPIO_Init
 1718              	.LVL85:
 711:../../../init/terminal/init.c **** 
 712:../../../init/terminal/init.c **** /*-------------------------- SD CARD PINS ----------------------------------*/
 713:../../../init/terminal/init.c **** 
 714:../../../init/terminal/init.c **** /* SD card detect pin */
 715:../../../init/terminal/init.c **** GPIO_InitStruct.Pin  = SDR_SD_DETECT_PIN;
 1719              		.loc 1 715 1 view .LVU575
 1720              		.loc 1 715 22 is_stmt 0 view .LVU576
 1721 01b4 4FF40043 		mov	r3, #32768
 1722 01b8 0793     		str	r3, [sp, #28]
 716:../../../init/terminal/init.c **** GPIO_InitStruct.Mode = GPIO_MODE_INPUT;
ARM GAS  /tmp/ccq0cjMd.s 			page 44


 1723              		.loc 1 716 1 is_stmt 1 view .LVU577
 1724              		.loc 1 716 22 is_stmt 0 view .LVU578
 1725 01ba 0894     		str	r4, [sp, #32]
 717:../../../init/terminal/init.c **** GPIO_InitStruct.Pull = GPIO_NOPULL;
 1726              		.loc 1 717 1 is_stmt 1 view .LVU579
 1727              		.loc 1 717 22 is_stmt 0 view .LVU580
 1728 01bc 0994     		str	r4, [sp, #36]
 718:../../../init/terminal/init.c **** HAL_GPIO_Init( SDR_SD_DETECT_GPIO_PORT, &GPIO_InitStruct );
 1729              		.loc 1 718 1 is_stmt 1 view .LVU581
 1730 01be 07A9     		add	r1, sp, #28
 1731 01c0 2846     		mov	r0, r5
 1732 01c2 FFF7FEFF 		bl	HAL_GPIO_Init
 1733              	.LVL86:
 719:../../../init/terminal/init.c **** 
 720:../../../init/terminal/init.c **** /*---------------------------- USB Pins ------------------------------------*/
 721:../../../init/terminal/init.c **** 
 722:../../../init/terminal/init.c **** #if defined( A0002_REV2 )
 723:../../../init/terminal/init.c **** 	/* USB Detect Pin */
 724:../../../init/terminal/init.c **** 	GPIO_InitStruct.Pin  = USB_DETECT_PIN;
 1734              		.loc 1 724 2 view .LVU582
 1735              		.loc 1 724 23 is_stmt 0 view .LVU583
 1736 01c6 4FF40073 		mov	r3, #512
 1737 01ca 0793     		str	r3, [sp, #28]
 725:../../../init/terminal/init.c **** 	GPIO_InitStruct.Mode = GPIO_MODE_INPUT;
 1738              		.loc 1 725 2 is_stmt 1 view .LVU584
 1739              		.loc 1 725 23 is_stmt 0 view .LVU585
 1740 01cc 0894     		str	r4, [sp, #32]
 726:../../../init/terminal/init.c **** 	GPIO_InitStruct.Pull = GPIO_NOPULL;
 1741              		.loc 1 726 2 is_stmt 1 view .LVU586
 1742              		.loc 1 726 23 is_stmt 0 view .LVU587
 1743 01ce 0994     		str	r4, [sp, #36]
 727:../../../init/terminal/init.c **** 	HAL_GPIO_Init( USB_DETECT_GPIO_PORT, &GPIO_InitStruct );
 1744              		.loc 1 727 2 is_stmt 1 view .LVU588
 1745 01d0 07A9     		add	r1, sp, #28
 1746 01d2 2846     		mov	r0, r5
 1747 01d4 FFF7FEFF 		bl	HAL_GPIO_Init
 1748              	.LVL87:
 728:../../../init/terminal/init.c **** #endif /* #if defined( A0002_REV2 ) */
 729:../../../init/terminal/init.c **** 
 730:../../../init/terminal/init.c **** /*---------------------------- MOTOR EN Pins ------------------------------------*/
 731:../../../init/terminal/init.c **** 
 732:../../../init/terminal/init.c **** /* Motor 1 enable pin */
 733:../../../init/terminal/init.c **** HAL_GPIO_WritePin( MOTOR1_EN_PORT, MOTOR1_EN, GPIO_PIN_RESET );
 1749              		.loc 1 733 1 view .LVU589
 1750 01d8 2246     		mov	r2, r4
 1751 01da 4FF40061 		mov	r1, #2048
 1752 01de 2846     		mov	r0, r5
 1753 01e0 FFF7FEFF 		bl	HAL_GPIO_WritePin
 1754              	.LVL88:
 734:../../../init/terminal/init.c **** GPIO_InitStruct.Pin   = MOTOR1_EN;
 1755              		.loc 1 734 1 view .LVU590
 1756              		.loc 1 734 23 is_stmt 0 view .LVU591
 1757 01e4 4FF40063 		mov	r3, #2048
 1758 01e8 0793     		str	r3, [sp, #28]
 735:../../../init/terminal/init.c **** GPIO_InitStruct.Mode  = GPIO_MODE_OUTPUT_PP;          
 1759              		.loc 1 735 1 is_stmt 1 view .LVU592
 1760              		.loc 1 735 23 is_stmt 0 view .LVU593
ARM GAS  /tmp/ccq0cjMd.s 			page 45


 1761 01ea 0896     		str	r6, [sp, #32]
 736:../../../init/terminal/init.c **** GPIO_InitStruct.Pull  = GPIO_NOPULL;                  
 1762              		.loc 1 736 1 is_stmt 1 view .LVU594
 1763              		.loc 1 736 23 is_stmt 0 view .LVU595
 1764 01ec 0994     		str	r4, [sp, #36]
 737:../../../init/terminal/init.c **** HAL_GPIO_Init( MOTOR1_EN_PORT, &GPIO_InitStruct );  
 1765              		.loc 1 737 1 is_stmt 1 view .LVU596
 1766 01ee 07A9     		add	r1, sp, #28
 1767 01f0 2846     		mov	r0, r5
 1768 01f2 FFF7FEFF 		bl	HAL_GPIO_Init
 1769              	.LVL89:
 738:../../../init/terminal/init.c **** 
 739:../../../init/terminal/init.c **** /* Motor 2 enable pin */
 740:../../../init/terminal/init.c **** HAL_GPIO_WritePin( MOTOR2_EN_PORT, MOTOR2_EN, GPIO_PIN_RESET );
 1770              		.loc 1 740 1 view .LVU597
 1771 01f6 2246     		mov	r2, r4
 1772 01f8 2021     		movs	r1, #32
 1773 01fa 3846     		mov	r0, r7
 1774 01fc FFF7FEFF 		bl	HAL_GPIO_WritePin
 1775              	.LVL90:
 741:../../../init/terminal/init.c **** GPIO_InitStruct.Pin   = MOTOR2_EN;
 1776              		.loc 1 741 1 view .LVU598
 1777              		.loc 1 741 23 is_stmt 0 view .LVU599
 1778 0200 2023     		movs	r3, #32
 1779 0202 0793     		str	r3, [sp, #28]
 742:../../../init/terminal/init.c **** GPIO_InitStruct.Mode  = GPIO_MODE_OUTPUT_PP;          
 1780              		.loc 1 742 1 is_stmt 1 view .LVU600
 1781              		.loc 1 742 23 is_stmt 0 view .LVU601
 1782 0204 0896     		str	r6, [sp, #32]
 743:../../../init/terminal/init.c **** GPIO_InitStruct.Pull  = GPIO_NOPULL;                  
 1783              		.loc 1 743 1 is_stmt 1 view .LVU602
 1784              		.loc 1 743 23 is_stmt 0 view .LVU603
 1785 0206 0994     		str	r4, [sp, #36]
 744:../../../init/terminal/init.c **** HAL_GPIO_Init( MOTOR2_EN_PORT, &GPIO_InitStruct );  
 1786              		.loc 1 744 1 is_stmt 1 view .LVU604
 1787 0208 07A9     		add	r1, sp, #28
 1788 020a 3846     		mov	r0, r7
 1789 020c FFF7FEFF 		bl	HAL_GPIO_Init
 1790              	.LVL91:
 745:../../../init/terminal/init.c **** 
 746:../../../init/terminal/init.c **** /* Motor 3 enable pin */
 747:../../../init/terminal/init.c **** HAL_GPIO_WritePin( MOTOR3_EN_PORT, MOTOR3_EN, GPIO_PIN_RESET );
 1791              		.loc 1 747 1 view .LVU605
 1792 0210 2246     		mov	r2, r4
 1793 0212 4FF48061 		mov	r1, #1024
 1794 0216 2846     		mov	r0, r5
 1795 0218 FFF7FEFF 		bl	HAL_GPIO_WritePin
 1796              	.LVL92:
 748:../../../init/terminal/init.c **** GPIO_InitStruct.Pin   = MOTOR3_EN;
 1797              		.loc 1 748 1 view .LVU606
 1798              		.loc 1 748 23 is_stmt 0 view .LVU607
 1799 021c 4FF48063 		mov	r3, #1024
 1800 0220 0793     		str	r3, [sp, #28]
 749:../../../init/terminal/init.c **** GPIO_InitStruct.Mode  = GPIO_MODE_OUTPUT_PP;          
 1801              		.loc 1 749 1 is_stmt 1 view .LVU608
 1802              		.loc 1 749 23 is_stmt 0 view .LVU609
 1803 0222 0896     		str	r6, [sp, #32]
ARM GAS  /tmp/ccq0cjMd.s 			page 46


 750:../../../init/terminal/init.c **** GPIO_InitStruct.Pull  = GPIO_NOPULL;                  
 1804              		.loc 1 750 1 is_stmt 1 view .LVU610
 1805              		.loc 1 750 23 is_stmt 0 view .LVU611
 1806 0224 0994     		str	r4, [sp, #36]
 751:../../../init/terminal/init.c **** HAL_GPIO_Init( MOTOR3_EN_PORT, &GPIO_InitStruct );  
 1807              		.loc 1 751 1 is_stmt 1 view .LVU612
 1808 0226 07A9     		add	r1, sp, #28
 1809 0228 2846     		mov	r0, r5
 1810 022a FFF7FEFF 		bl	HAL_GPIO_Init
 1811              	.LVL93:
 752:../../../init/terminal/init.c **** 
 753:../../../init/terminal/init.c **** /* Motor 4 enable pin */
 754:../../../init/terminal/init.c **** HAL_GPIO_WritePin( MOTOR4_EN_PORT, MOTOR4_EN, GPIO_PIN_RESET );
 1812              		.loc 1 754 1 view .LVU613
 1813 022e 2246     		mov	r2, r4
 1814 0230 4946     		mov	r1, r9
 1815 0232 4046     		mov	r0, r8
 1816 0234 FFF7FEFF 		bl	HAL_GPIO_WritePin
 1817              	.LVL94:
 755:../../../init/terminal/init.c **** GPIO_InitStruct.Pin   = MOTOR4_EN;
 1818              		.loc 1 755 1 view .LVU614
 1819              		.loc 1 755 23 is_stmt 0 view .LVU615
 1820 0238 CDF81C90 		str	r9, [sp, #28]
 756:../../../init/terminal/init.c **** GPIO_InitStruct.Mode  = GPIO_MODE_OUTPUT_PP;          
 1821              		.loc 1 756 1 is_stmt 1 view .LVU616
 1822              		.loc 1 756 23 is_stmt 0 view .LVU617
 1823 023c 0896     		str	r6, [sp, #32]
 757:../../../init/terminal/init.c **** GPIO_InitStruct.Pull  = GPIO_NOPULL;                  
 1824              		.loc 1 757 1 is_stmt 1 view .LVU618
 1825              		.loc 1 757 23 is_stmt 0 view .LVU619
 1826 023e 0994     		str	r4, [sp, #36]
 758:../../../init/terminal/init.c **** HAL_GPIO_Init( MOTOR4_EN_PORT, &GPIO_InitStruct );  
 1827              		.loc 1 758 1 is_stmt 1 view .LVU620
 1828 0240 07A9     		add	r1, sp, #28
 1829 0242 4046     		mov	r0, r8
 1830 0244 FFF7FEFF 		bl	HAL_GPIO_Init
 1831              	.LVL95:
 759:../../../init/terminal/init.c **** 
 760:../../../init/terminal/init.c **** } /* GPIO_Init */
 1832              		.loc 1 760 1 is_stmt 0 view .LVU621
 1833 0248 0CB0     		add	sp, sp, #48
 1834              	.LCFI26:
 1835              		.cfi_def_cfa_offset 32
 1836              		@ sp needed
 1837 024a BDE8F087 		pop	{r4, r5, r6, r7, r8, r9, r10, pc}
 1838              	.L104:
 1839 024e 00BF     		.align	2
 1840              	.L103:
 1841 0250 00440258 		.word	1476543488
 1842 0254 00040258 		.word	1476527104
 1843 0258 00080258 		.word	1476528128
 1844 025c 00000258 		.word	1476526080
 1845 0260 00100258 		.word	1476530176
 1846              		.cfi_endproc
 1847              	.LFE154:
 1849              		.text
 1850              	.Letext0:
ARM GAS  /tmp/ccq0cjMd.s 			page 47


 1851              		.file 2 "/usr/lib/gcc/arm-none-eabi/12.2.1/include/stdint.h"
 1852              		.file 3 "../../../lib/Drivers/CMSIS/Device/ST/STM32H7xx/Include/stm32h750xx.h"
 1853              		.file 4 "../../../lib/Drivers/STM32H7xx_HAL_Driver/Inc/stm32h7xx_hal_def.h"
 1854              		.file 5 "../../../lib/Drivers/STM32H7xx_HAL_Driver/Inc/stm32h7xx_hal_rcc.h"
 1855              		.file 6 "../../../lib/Drivers/STM32H7xx_HAL_Driver/Inc/stm32h7xx_hal_rcc_ex.h"
 1856              		.file 7 "../../../lib/Drivers/STM32H7xx_HAL_Driver/Inc/stm32h7xx_hal_gpio.h"
 1857              		.file 8 "../../../lib/Drivers/STM32H7xx_HAL_Driver/Inc/stm32h7xx_hal_dma.h"
 1858              		.file 9 "../../../lib/Drivers/STM32H7xx_HAL_Driver/Inc/stm32h7xx_hal_i2c.h"
 1859              		.file 10 "../../../lib/Drivers/STM32H7xx_HAL_Driver/Inc/stm32h7xx_ll_sdmmc.h"
 1860              		.file 11 "../../../lib/Drivers/STM32H7xx_HAL_Driver/Inc/stm32h7xx_hal_sd.h"
 1861              		.file 12 "../../../lib/Drivers/STM32H7xx_HAL_Driver/Inc/stm32h7xx_hal_spi.h"
 1862              		.file 13 "../../../lib/Drivers/STM32H7xx_HAL_Driver/Inc/stm32h7xx_hal_tim.h"
 1863              		.file 14 "../../../lib/Drivers/STM32H7xx_HAL_Driver/Inc/stm32h7xx_hal_uart.h"
 1864              		.file 15 "../../../lib/sdr_pin_defines_A0002.h"
 1865              		.file 16 "../../../lib/util/sdr_error.h"
 1866              		.file 17 "./main.h"
 1867              		.file 18 "../../../lib/Drivers/STM32H7xx_HAL_Driver/Inc/stm32h7xx_hal_tim_ex.h"
 1868              		.file 19 "../../../lib/Drivers/STM32H7xx_HAL_Driver/Inc/stm32h7xx_hal_uart_ex.h"
 1869              		.file 20 "../../../lib/Drivers/STM32H7xx_HAL_Driver/Inc/stm32h7xx_hal_i2c_ex.h"
 1870              		.file 21 "../../../lib/Drivers/STM32H7xx_HAL_Driver/Inc/stm32h7xx_hal_pwr_ex.h"
 1871              		.file 22 "<built-in>"
ARM GAS  /tmp/ccq0cjMd.s 			page 48

