ARM GAS  /tmp/ccYU2yCl.s 			page 1


   1              		.cpu cortex-m7
   2              		.arch armv7e-m
   3              		.fpu fpv5-d16
   4              		.eabi_attribute 28, 1
   5              		.eabi_attribute 20, 1
   6              		.eabi_attribute 21, 1
   7              		.eabi_attribute 23, 3
   8              		.eabi_attribute 24, 1
   9              		.eabi_attribute 25, 1
  10              		.eabi_attribute 26, 1
  11              		.eabi_attribute 30, 1
  12              		.eabi_attribute 34, 1
  13              		.eabi_attribute 18, 4
  14              		.file	"stm32h7xx_hal_msp.c"
  15              		.text
  16              	.Ltext0:
  17              		.cfi_sections	.debug_frame
  18              		.file 1 "../../../init/terminal/config/Src/stm32h7xx_hal_msp.c"
  19              		.section	.text.HAL_MspInit,"ax",%progbits
  20              		.align	1
  21              		.global	HAL_MspInit
  22              		.syntax unified
  23              		.thumb
  24              		.thumb_func
  26              	HAL_MspInit:
  27              	.LFB144:
   1:../../../init/terminal/config/Src/stm32h7xx_hal_msp.c **** /*******************************************************************************
   2:../../../init/terminal/config/Src/stm32h7xx_hal_msp.c **** *                                                                              *
   3:../../../init/terminal/config/Src/stm32h7xx_hal_msp.c **** * FILE:                                                                        *
   4:../../../init/terminal/config/Src/stm32h7xx_hal_msp.c **** *       stm32h7xx_hal_msp.c                                                    *
   5:../../../init/terminal/config/Src/stm32h7xx_hal_msp.c **** *                                                                              *
   6:../../../init/terminal/config/Src/stm32h7xx_hal_msp.c **** * DESCRIPTION:                                                                 *
   7:../../../init/terminal/config/Src/stm32h7xx_hal_msp.c **** *       Contains implementation of MSP initialization and de-initialization    *
   8:../../../init/terminal/config/Src/stm32h7xx_hal_msp.c **** *                routines                                                      *
   9:../../../init/terminal/config/Src/stm32h7xx_hal_msp.c **** *                                                                              *
  10:../../../init/terminal/config/Src/stm32h7xx_hal_msp.c **** *******************************************************************************/
  11:../../../init/terminal/config/Src/stm32h7xx_hal_msp.c **** 
  12:../../../init/terminal/config/Src/stm32h7xx_hal_msp.c **** 
  13:../../../init/terminal/config/Src/stm32h7xx_hal_msp.c **** /*------------------------------------------------------------------------------
  14:../../../init/terminal/config/Src/stm32h7xx_hal_msp.c ****  Standard Includes                                                              
  15:../../../init/terminal/config/Src/stm32h7xx_hal_msp.c **** ------------------------------------------------------------------------------*/
  16:../../../init/terminal/config/Src/stm32h7xx_hal_msp.c **** #include "main.h"
  17:../../../init/terminal/config/Src/stm32h7xx_hal_msp.c **** #include "sdr_error.h"
  18:../../../init/terminal/config/Src/stm32h7xx_hal_msp.c **** 
  19:../../../init/terminal/config/Src/stm32h7xx_hal_msp.c **** 
  20:../../../init/terminal/config/Src/stm32h7xx_hal_msp.c **** /*------------------------------------------------------------------------------
  21:../../../init/terminal/config/Src/stm32h7xx_hal_msp.c ****  Function Prototypes 
  22:../../../init/terminal/config/Src/stm32h7xx_hal_msp.c **** ------------------------------------------------------------------------------*/
  23:../../../init/terminal/config/Src/stm32h7xx_hal_msp.c **** void HAL_TIM_MspPostInit( TIM_HandleTypeDef *htim );
  24:../../../init/terminal/config/Src/stm32h7xx_hal_msp.c **** 
  25:../../../init/terminal/config/Src/stm32h7xx_hal_msp.c **** 
  26:../../../init/terminal/config/Src/stm32h7xx_hal_msp.c **** /*------------------------------------------------------------------------------
  27:../../../init/terminal/config/Src/stm32h7xx_hal_msp.c ****  Procedures 
  28:../../../init/terminal/config/Src/stm32h7xx_hal_msp.c **** ------------------------------------------------------------------------------*/
  29:../../../init/terminal/config/Src/stm32h7xx_hal_msp.c **** 
  30:../../../init/terminal/config/Src/stm32h7xx_hal_msp.c **** 
  31:../../../init/terminal/config/Src/stm32h7xx_hal_msp.c **** /*******************************************************************************
ARM GAS  /tmp/ccYU2yCl.s 			page 2


  32:../../../init/terminal/config/Src/stm32h7xx_hal_msp.c **** *                                                                              *
  33:../../../init/terminal/config/Src/stm32h7xx_hal_msp.c **** * PROCEDURE:                                                                   *
  34:../../../init/terminal/config/Src/stm32h7xx_hal_msp.c **** *       HAL_MspInit                                                            *
  35:../../../init/terminal/config/Src/stm32h7xx_hal_msp.c **** *                                                                              *
  36:../../../init/terminal/config/Src/stm32h7xx_hal_msp.c **** * DESCRIPTION:                                                                 *
  37:../../../init/terminal/config/Src/stm32h7xx_hal_msp.c **** *       Initializes the Global MSP                                             *
  38:../../../init/terminal/config/Src/stm32h7xx_hal_msp.c **** *                                                                              *
  39:../../../init/terminal/config/Src/stm32h7xx_hal_msp.c **** *******************************************************************************/
  40:../../../init/terminal/config/Src/stm32h7xx_hal_msp.c **** void HAL_MspInit
  41:../../../init/terminal/config/Src/stm32h7xx_hal_msp.c **** 	(
  42:../../../init/terminal/config/Src/stm32h7xx_hal_msp.c **** 	void
  43:../../../init/terminal/config/Src/stm32h7xx_hal_msp.c **** 	)
  44:../../../init/terminal/config/Src/stm32h7xx_hal_msp.c **** {
  28              		.loc 1 44 1 view -0
  29              		.cfi_startproc
  30              		@ args = 0, pretend = 0, frame = 8
  31              		@ frame_needed = 0, uses_anonymous_args = 0
  32              		@ link register save eliminated.
  33 0000 82B0     		sub	sp, sp, #8
  34              	.LCFI0:
  35              		.cfi_def_cfa_offset 8
  45:../../../init/terminal/config/Src/stm32h7xx_hal_msp.c **** __HAL_RCC_SYSCFG_CLK_ENABLE();
  36              		.loc 1 45 1 view .LVU1
  37              	.LBB2:
  38              		.loc 1 45 1 view .LVU2
  39              		.loc 1 45 1 view .LVU3
  40 0002 074B     		ldr	r3, .L3
  41 0004 D3F8F420 		ldr	r2, [r3, #244]
  42 0008 42F00202 		orr	r2, r2, #2
  43 000c C3F8F420 		str	r2, [r3, #244]
  44              		.loc 1 45 1 view .LVU4
  45 0010 D3F8F430 		ldr	r3, [r3, #244]
  46 0014 03F00203 		and	r3, r3, #2
  47 0018 0193     		str	r3, [sp, #4]
  48              		.loc 1 45 1 view .LVU5
  49 001a 019B     		ldr	r3, [sp, #4]
  50              	.LBE2:
  51              		.loc 1 45 1 view .LVU6
  46:../../../init/terminal/config/Src/stm32h7xx_hal_msp.c **** 
  47:../../../init/terminal/config/Src/stm32h7xx_hal_msp.c **** } /* HAL_MspInit */
  52              		.loc 1 47 1 is_stmt 0 view .LVU7
  53 001c 02B0     		add	sp, sp, #8
  54              	.LCFI1:
  55              		.cfi_def_cfa_offset 0
  56              		@ sp needed
  57 001e 7047     		bx	lr
  58              	.L4:
  59              		.align	2
  60              	.L3:
  61 0020 00440258 		.word	1476543488
  62              		.cfi_endproc
  63              	.LFE144:
  65              		.section	.text.HAL_I2C_MspInit,"ax",%progbits
  66              		.align	1
  67              		.global	HAL_I2C_MspInit
  68              		.syntax unified
  69              		.thumb
ARM GAS  /tmp/ccYU2yCl.s 			page 3


  70              		.thumb_func
  72              	HAL_I2C_MspInit:
  73              	.LVL0:
  74              	.LFB145:
  48:../../../init/terminal/config/Src/stm32h7xx_hal_msp.c **** 
  49:../../../init/terminal/config/Src/stm32h7xx_hal_msp.c **** 
  50:../../../init/terminal/config/Src/stm32h7xx_hal_msp.c **** /*******************************************************************************
  51:../../../init/terminal/config/Src/stm32h7xx_hal_msp.c **** *                                                                              *
  52:../../../init/terminal/config/Src/stm32h7xx_hal_msp.c **** * PROCEDURE:                                                                   *
  53:../../../init/terminal/config/Src/stm32h7xx_hal_msp.c **** *       HAL_I2C_MspInit                                                        *
  54:../../../init/terminal/config/Src/stm32h7xx_hal_msp.c **** *                                                                              *
  55:../../../init/terminal/config/Src/stm32h7xx_hal_msp.c **** * DESCRIPTION:                                                                 *
  56:../../../init/terminal/config/Src/stm32h7xx_hal_msp.c **** *       Initializes the I2C MSP                                                *
  57:../../../init/terminal/config/Src/stm32h7xx_hal_msp.c **** *                                                                              *
  58:../../../init/terminal/config/Src/stm32h7xx_hal_msp.c **** *******************************************************************************/
  59:../../../init/terminal/config/Src/stm32h7xx_hal_msp.c **** void HAL_I2C_MspInit
  60:../../../init/terminal/config/Src/stm32h7xx_hal_msp.c **** 	(
  61:../../../init/terminal/config/Src/stm32h7xx_hal_msp.c **** 	I2C_HandleTypeDef* hi2c
  62:../../../init/terminal/config/Src/stm32h7xx_hal_msp.c **** 	)
  63:../../../init/terminal/config/Src/stm32h7xx_hal_msp.c **** {
  75              		.loc 1 63 1 is_stmt 1 view -0
  76              		.cfi_startproc
  77              		@ args = 0, pretend = 0, frame = 224
  78              		@ frame_needed = 0, uses_anonymous_args = 0
  79              		.loc 1 63 1 is_stmt 0 view .LVU9
  80 0000 10B5     		push	{r4, lr}
  81              	.LCFI2:
  82              		.cfi_def_cfa_offset 8
  83              		.cfi_offset 4, -8
  84              		.cfi_offset 14, -4
  85 0002 B8B0     		sub	sp, sp, #224
  86              	.LCFI3:
  87              		.cfi_def_cfa_offset 232
  88 0004 0446     		mov	r4, r0
  64:../../../init/terminal/config/Src/stm32h7xx_hal_msp.c **** 
  65:../../../init/terminal/config/Src/stm32h7xx_hal_msp.c **** /* Initialization structs */
  66:../../../init/terminal/config/Src/stm32h7xx_hal_msp.c **** GPIO_InitTypeDef         GPIO_InitStruct = {0};
  89              		.loc 1 66 1 is_stmt 1 view .LVU10
  90              		.loc 1 66 26 is_stmt 0 view .LVU11
  91 0006 0021     		movs	r1, #0
  92 0008 3391     		str	r1, [sp, #204]
  93 000a 3491     		str	r1, [sp, #208]
  94 000c 3591     		str	r1, [sp, #212]
  95 000e 3691     		str	r1, [sp, #216]
  96 0010 3791     		str	r1, [sp, #220]
  67:../../../init/terminal/config/Src/stm32h7xx_hal_msp.c **** RCC_PeriphCLKInitTypeDef PeriphClkInitStruct = {0};
  97              		.loc 1 67 1 is_stmt 1 view .LVU12
  98              		.loc 1 67 26 is_stmt 0 view .LVU13
  99 0012 BC22     		movs	r2, #188
 100 0014 04A8     		add	r0, sp, #16
 101              	.LVL1:
 102              		.loc 1 67 26 view .LVU14
 103 0016 FFF7FEFF 		bl	memset
 104              	.LVL2:
  68:../../../init/terminal/config/Src/stm32h7xx_hal_msp.c **** 
  69:../../../init/terminal/config/Src/stm32h7xx_hal_msp.c **** /* Init I2C1 --> Baro pressure sensor */
  70:../../../init/terminal/config/Src/stm32h7xx_hal_msp.c **** if( hi2c->Instance == I2C1 )
ARM GAS  /tmp/ccYU2yCl.s 			page 4


 105              		.loc 1 70 1 is_stmt 1 view .LVU15
 106              		.loc 1 70 9 is_stmt 0 view .LVU16
 107 001a 2368     		ldr	r3, [r4]
 108              		.loc 1 70 3 view .LVU17
 109 001c 354A     		ldr	r2, .L15
 110 001e 9342     		cmp	r3, r2
 111 0020 04D0     		beq	.L11
  71:../../../init/terminal/config/Src/stm32h7xx_hal_msp.c **** 	{
  72:../../../init/terminal/config/Src/stm32h7xx_hal_msp.c **** 	/* Initializes the peripherals clock */
  73:../../../init/terminal/config/Src/stm32h7xx_hal_msp.c **** 	PeriphClkInitStruct.PeriphClockSelection = RCC_PERIPHCLK_I2C1;
  74:../../../init/terminal/config/Src/stm32h7xx_hal_msp.c **** 	PeriphClkInitStruct.I2c123ClockSelection = RCC_I2C123CLKSOURCE_D2PCLK1;
  75:../../../init/terminal/config/Src/stm32h7xx_hal_msp.c **** 	if ( HAL_RCCEx_PeriphCLKConfig(&PeriphClkInitStruct) != HAL_OK )
  76:../../../init/terminal/config/Src/stm32h7xx_hal_msp.c **** 		{
  77:../../../init/terminal/config/Src/stm32h7xx_hal_msp.c **** 		Error_Handler( ERROR_I2C_HAL_MSP_ERROR );
  78:../../../init/terminal/config/Src/stm32h7xx_hal_msp.c **** 		}
  79:../../../init/terminal/config/Src/stm32h7xx_hal_msp.c **** 
  80:../../../init/terminal/config/Src/stm32h7xx_hal_msp.c **** 	__HAL_RCC_GPIOB_CLK_ENABLE();
  81:../../../init/terminal/config/Src/stm32h7xx_hal_msp.c **** 
  82:../../../init/terminal/config/Src/stm32h7xx_hal_msp.c **** 	/* I2C1 GPIO Configuration
  83:../../../init/terminal/config/Src/stm32h7xx_hal_msp.c **** 	PB6     ------> I2C1_SCL
  84:../../../init/terminal/config/Src/stm32h7xx_hal_msp.c **** 	PB7     ------> I2C1_SDA */
  85:../../../init/terminal/config/Src/stm32h7xx_hal_msp.c **** 	GPIO_InitStruct.Pin       = GPIO_PIN_6 |
  86:../../../init/terminal/config/Src/stm32h7xx_hal_msp.c ****                                 GPIO_PIN_7;
  87:../../../init/terminal/config/Src/stm32h7xx_hal_msp.c **** 	GPIO_InitStruct.Mode      = GPIO_MODE_AF_OD;
  88:../../../init/terminal/config/Src/stm32h7xx_hal_msp.c **** 	GPIO_InitStruct.Pull      = GPIO_NOPULL;
  89:../../../init/terminal/config/Src/stm32h7xx_hal_msp.c **** 	GPIO_InitStruct.Speed     = GPIO_SPEED_FREQ_LOW;
  90:../../../init/terminal/config/Src/stm32h7xx_hal_msp.c **** 	GPIO_InitStruct.Alternate = GPIO_AF4_I2C1;
  91:../../../init/terminal/config/Src/stm32h7xx_hal_msp.c **** 	HAL_GPIO_Init( GPIOB, &GPIO_InitStruct );
  92:../../../init/terminal/config/Src/stm32h7xx_hal_msp.c **** 
  93:../../../init/terminal/config/Src/stm32h7xx_hal_msp.c **** 	/* Peripheral clock enable */
  94:../../../init/terminal/config/Src/stm32h7xx_hal_msp.c **** 	__HAL_RCC_I2C1_CLK_ENABLE();
  95:../../../init/terminal/config/Src/stm32h7xx_hal_msp.c **** 	}
  96:../../../init/terminal/config/Src/stm32h7xx_hal_msp.c **** 
  97:../../../init/terminal/config/Src/stm32h7xx_hal_msp.c **** else if( hi2c->Instance == I2C2 )
 112              		.loc 1 97 6 is_stmt 1 view .LVU18
 113              		.loc 1 97 8 is_stmt 0 view .LVU19
 114 0022 354A     		ldr	r2, .L15+4
 115 0024 9342     		cmp	r3, r2
 116 0026 32D0     		beq	.L12
 117              	.LVL3:
 118              	.L5:
  98:../../../init/terminal/config/Src/stm32h7xx_hal_msp.c **** 	{
  99:../../../init/terminal/config/Src/stm32h7xx_hal_msp.c **** 
 100:../../../init/terminal/config/Src/stm32h7xx_hal_msp.c **** 	/* Initializes the peripherals clock */
 101:../../../init/terminal/config/Src/stm32h7xx_hal_msp.c **** 	PeriphClkInitStruct.PeriphClockSelection = RCC_PERIPHCLK_I2C2;
 102:../../../init/terminal/config/Src/stm32h7xx_hal_msp.c **** 	PeriphClkInitStruct.I2c123ClockSelection = RCC_I2C123CLKSOURCE_D2PCLK1;
 103:../../../init/terminal/config/Src/stm32h7xx_hal_msp.c **** 	if ( HAL_RCCEx_PeriphCLKConfig( &PeriphClkInitStruct ) != HAL_OK )
 104:../../../init/terminal/config/Src/stm32h7xx_hal_msp.c **** 		{
 105:../../../init/terminal/config/Src/stm32h7xx_hal_msp.c **** 		Error_Handler( ERROR_I2C_HAL_MSP_ERROR );
 106:../../../init/terminal/config/Src/stm32h7xx_hal_msp.c **** 		}
 107:../../../init/terminal/config/Src/stm32h7xx_hal_msp.c **** 
 108:../../../init/terminal/config/Src/stm32h7xx_hal_msp.c **** 	__HAL_RCC_GPIOB_CLK_ENABLE();
 109:../../../init/terminal/config/Src/stm32h7xx_hal_msp.c **** 
 110:../../../init/terminal/config/Src/stm32h7xx_hal_msp.c **** 	/* I2C2 GPIO Configuration
 111:../../../init/terminal/config/Src/stm32h7xx_hal_msp.c **** 	PB10     ------> I2C2_SCL
 112:../../../init/terminal/config/Src/stm32h7xx_hal_msp.c **** 	PB11     ------> I2C2_SDA */
 113:../../../init/terminal/config/Src/stm32h7xx_hal_msp.c **** 	GPIO_InitStruct.Pin       = GPIO_PIN_10|GPIO_PIN_11;
ARM GAS  /tmp/ccYU2yCl.s 			page 5


 114:../../../init/terminal/config/Src/stm32h7xx_hal_msp.c **** 	GPIO_InitStruct.Mode      = GPIO_MODE_AF_OD;
 115:../../../init/terminal/config/Src/stm32h7xx_hal_msp.c **** 	GPIO_InitStruct.Pull      = GPIO_NOPULL;
 116:../../../init/terminal/config/Src/stm32h7xx_hal_msp.c **** 	GPIO_InitStruct.Speed     = GPIO_SPEED_FREQ_LOW;
 117:../../../init/terminal/config/Src/stm32h7xx_hal_msp.c **** 	GPIO_InitStruct.Alternate = GPIO_AF4_I2C2;
 118:../../../init/terminal/config/Src/stm32h7xx_hal_msp.c **** 	HAL_GPIO_Init( GPIOB, &GPIO_InitStruct );
 119:../../../init/terminal/config/Src/stm32h7xx_hal_msp.c **** 
 120:../../../init/terminal/config/Src/stm32h7xx_hal_msp.c **** 	/* Peripheral clock enable */
 121:../../../init/terminal/config/Src/stm32h7xx_hal_msp.c **** 	__HAL_RCC_I2C2_CLK_ENABLE();
 122:../../../init/terminal/config/Src/stm32h7xx_hal_msp.c **** 	}
 123:../../../init/terminal/config/Src/stm32h7xx_hal_msp.c **** 
 124:../../../init/terminal/config/Src/stm32h7xx_hal_msp.c **** } /* HAL_I2C_MspInit */
 119              		.loc 1 124 1 view .LVU20
 120 0028 38B0     		add	sp, sp, #224
 121              	.LCFI4:
 122              		.cfi_remember_state
 123              		.cfi_def_cfa_offset 8
 124              		@ sp needed
 125 002a 10BD     		pop	{r4, pc}
 126              	.LVL4:
 127              	.L11:
 128              	.LCFI5:
 129              		.cfi_restore_state
  73:../../../init/terminal/config/Src/stm32h7xx_hal_msp.c **** 	PeriphClkInitStruct.I2c123ClockSelection = RCC_I2C123CLKSOURCE_D2PCLK1;
 130              		.loc 1 73 2 is_stmt 1 view .LVU21
  73:../../../init/terminal/config/Src/stm32h7xx_hal_msp.c **** 	PeriphClkInitStruct.I2c123ClockSelection = RCC_I2C123CLKSOURCE_D2PCLK1;
 131              		.loc 1 73 43 is_stmt 0 view .LVU22
 132 002c 0823     		movs	r3, #8
 133 002e 0493     		str	r3, [sp, #16]
  74:../../../init/terminal/config/Src/stm32h7xx_hal_msp.c **** 	if ( HAL_RCCEx_PeriphCLKConfig(&PeriphClkInitStruct) != HAL_OK )
 134              		.loc 1 74 2 is_stmt 1 view .LVU23
  75:../../../init/terminal/config/Src/stm32h7xx_hal_msp.c **** 		{
 135              		.loc 1 75 2 view .LVU24
  75:../../../init/terminal/config/Src/stm32h7xx_hal_msp.c **** 		{
 136              		.loc 1 75 7 is_stmt 0 view .LVU25
 137 0030 04A8     		add	r0, sp, #16
 138 0032 FFF7FEFF 		bl	HAL_RCCEx_PeriphCLKConfig
 139              	.LVL5:
  75:../../../init/terminal/config/Src/stm32h7xx_hal_msp.c **** 		{
 140              		.loc 1 75 5 view .LVU26
 141 0036 30BB     		cbnz	r0, .L13
 142              	.L7:
  80:../../../init/terminal/config/Src/stm32h7xx_hal_msp.c **** 
 143              		.loc 1 80 2 is_stmt 1 view .LVU27
 144              	.LBB3:
  80:../../../init/terminal/config/Src/stm32h7xx_hal_msp.c **** 
 145              		.loc 1 80 2 view .LVU28
  80:../../../init/terminal/config/Src/stm32h7xx_hal_msp.c **** 
 146              		.loc 1 80 2 view .LVU29
 147 0038 304C     		ldr	r4, .L15+8
 148              	.LVL6:
  80:../../../init/terminal/config/Src/stm32h7xx_hal_msp.c **** 
 149              		.loc 1 80 2 is_stmt 0 view .LVU30
 150 003a D4F8E030 		ldr	r3, [r4, #224]
 151 003e 43F00203 		orr	r3, r3, #2
 152 0042 C4F8E030 		str	r3, [r4, #224]
  80:../../../init/terminal/config/Src/stm32h7xx_hal_msp.c **** 
 153              		.loc 1 80 2 is_stmt 1 view .LVU31
ARM GAS  /tmp/ccYU2yCl.s 			page 6


 154 0046 D4F8E030 		ldr	r3, [r4, #224]
 155 004a 03F00203 		and	r3, r3, #2
 156 004e 0093     		str	r3, [sp]
  80:../../../init/terminal/config/Src/stm32h7xx_hal_msp.c **** 
 157              		.loc 1 80 2 view .LVU32
 158 0050 009B     		ldr	r3, [sp]
 159              	.LBE3:
  80:../../../init/terminal/config/Src/stm32h7xx_hal_msp.c **** 
 160              		.loc 1 80 2 view .LVU33
  85:../../../init/terminal/config/Src/stm32h7xx_hal_msp.c ****                                 GPIO_PIN_7;
 161              		.loc 1 85 2 view .LVU34
  85:../../../init/terminal/config/Src/stm32h7xx_hal_msp.c ****                                 GPIO_PIN_7;
 162              		.loc 1 85 28 is_stmt 0 view .LVU35
 163 0052 C023     		movs	r3, #192
 164 0054 3393     		str	r3, [sp, #204]
  87:../../../init/terminal/config/Src/stm32h7xx_hal_msp.c **** 	GPIO_InitStruct.Pull      = GPIO_NOPULL;
 165              		.loc 1 87 2 is_stmt 1 view .LVU36
  87:../../../init/terminal/config/Src/stm32h7xx_hal_msp.c **** 	GPIO_InitStruct.Pull      = GPIO_NOPULL;
 166              		.loc 1 87 28 is_stmt 0 view .LVU37
 167 0056 1223     		movs	r3, #18
 168 0058 3493     		str	r3, [sp, #208]
  88:../../../init/terminal/config/Src/stm32h7xx_hal_msp.c **** 	GPIO_InitStruct.Speed     = GPIO_SPEED_FREQ_LOW;
 169              		.loc 1 88 2 is_stmt 1 view .LVU38
  88:../../../init/terminal/config/Src/stm32h7xx_hal_msp.c **** 	GPIO_InitStruct.Speed     = GPIO_SPEED_FREQ_LOW;
 170              		.loc 1 88 28 is_stmt 0 view .LVU39
 171 005a 0023     		movs	r3, #0
 172 005c 3593     		str	r3, [sp, #212]
  89:../../../init/terminal/config/Src/stm32h7xx_hal_msp.c **** 	GPIO_InitStruct.Alternate = GPIO_AF4_I2C1;
 173              		.loc 1 89 2 is_stmt 1 view .LVU40
  89:../../../init/terminal/config/Src/stm32h7xx_hal_msp.c **** 	GPIO_InitStruct.Alternate = GPIO_AF4_I2C1;
 174              		.loc 1 89 28 is_stmt 0 view .LVU41
 175 005e 3693     		str	r3, [sp, #216]
  90:../../../init/terminal/config/Src/stm32h7xx_hal_msp.c **** 	HAL_GPIO_Init( GPIOB, &GPIO_InitStruct );
 176              		.loc 1 90 2 is_stmt 1 view .LVU42
  90:../../../init/terminal/config/Src/stm32h7xx_hal_msp.c **** 	HAL_GPIO_Init( GPIOB, &GPIO_InitStruct );
 177              		.loc 1 90 28 is_stmt 0 view .LVU43
 178 0060 0423     		movs	r3, #4
 179 0062 3793     		str	r3, [sp, #220]
  91:../../../init/terminal/config/Src/stm32h7xx_hal_msp.c **** 
 180              		.loc 1 91 2 is_stmt 1 view .LVU44
 181 0064 33A9     		add	r1, sp, #204
 182 0066 2648     		ldr	r0, .L15+12
 183 0068 FFF7FEFF 		bl	HAL_GPIO_Init
 184              	.LVL7:
  94:../../../init/terminal/config/Src/stm32h7xx_hal_msp.c **** 	}
 185              		.loc 1 94 2 view .LVU45
 186              	.LBB4:
  94:../../../init/terminal/config/Src/stm32h7xx_hal_msp.c **** 	}
 187              		.loc 1 94 2 view .LVU46
  94:../../../init/terminal/config/Src/stm32h7xx_hal_msp.c **** 	}
 188              		.loc 1 94 2 view .LVU47
 189 006c D4F8E830 		ldr	r3, [r4, #232]
 190 0070 43F40013 		orr	r3, r3, #2097152
 191 0074 C4F8E830 		str	r3, [r4, #232]
  94:../../../init/terminal/config/Src/stm32h7xx_hal_msp.c **** 	}
 192              		.loc 1 94 2 view .LVU48
 193 0078 D4F8E830 		ldr	r3, [r4, #232]
ARM GAS  /tmp/ccYU2yCl.s 			page 7


 194 007c 03F40013 		and	r3, r3, #2097152
 195 0080 0193     		str	r3, [sp, #4]
  94:../../../init/terminal/config/Src/stm32h7xx_hal_msp.c **** 	}
 196              		.loc 1 94 2 view .LVU49
 197 0082 019B     		ldr	r3, [sp, #4]
 198              	.LBE4:
  94:../../../init/terminal/config/Src/stm32h7xx_hal_msp.c **** 	}
 199              		.loc 1 94 2 view .LVU50
 200 0084 D0E7     		b	.L5
 201              	.LVL8:
 202              	.L13:
  77:../../../init/terminal/config/Src/stm32h7xx_hal_msp.c **** 		}
 203              		.loc 1 77 3 view .LVU51
 204 0086 1220     		movs	r0, #18
 205 0088 FFF7FEFF 		bl	Error_Handler
 206              	.LVL9:
 207 008c D4E7     		b	.L7
 208              	.L12:
 101:../../../init/terminal/config/Src/stm32h7xx_hal_msp.c **** 	PeriphClkInitStruct.I2c123ClockSelection = RCC_I2C123CLKSOURCE_D2PCLK1;
 209              		.loc 1 101 2 view .LVU52
 101:../../../init/terminal/config/Src/stm32h7xx_hal_msp.c **** 	PeriphClkInitStruct.I2c123ClockSelection = RCC_I2C123CLKSOURCE_D2PCLK1;
 210              		.loc 1 101 43 is_stmt 0 view .LVU53
 211 008e 0823     		movs	r3, #8
 212 0090 0493     		str	r3, [sp, #16]
 102:../../../init/terminal/config/Src/stm32h7xx_hal_msp.c **** 	if ( HAL_RCCEx_PeriphCLKConfig( &PeriphClkInitStruct ) != HAL_OK )
 213              		.loc 1 102 2 is_stmt 1 view .LVU54
 103:../../../init/terminal/config/Src/stm32h7xx_hal_msp.c **** 		{
 214              		.loc 1 103 2 view .LVU55
 103:../../../init/terminal/config/Src/stm32h7xx_hal_msp.c **** 		{
 215              		.loc 1 103 7 is_stmt 0 view .LVU56
 216 0092 04A8     		add	r0, sp, #16
 217 0094 FFF7FEFF 		bl	HAL_RCCEx_PeriphCLKConfig
 218              	.LVL10:
 103:../../../init/terminal/config/Src/stm32h7xx_hal_msp.c **** 		{
 219              		.loc 1 103 5 view .LVU57
 220 0098 38BB     		cbnz	r0, .L14
 221              	.L9:
 108:../../../init/terminal/config/Src/stm32h7xx_hal_msp.c **** 
 222              		.loc 1 108 2 is_stmt 1 view .LVU58
 223              	.LBB5:
 108:../../../init/terminal/config/Src/stm32h7xx_hal_msp.c **** 
 224              		.loc 1 108 2 view .LVU59
 108:../../../init/terminal/config/Src/stm32h7xx_hal_msp.c **** 
 225              		.loc 1 108 2 view .LVU60
 226 009a 184C     		ldr	r4, .L15+8
 227              	.LVL11:
 108:../../../init/terminal/config/Src/stm32h7xx_hal_msp.c **** 
 228              		.loc 1 108 2 is_stmt 0 view .LVU61
 229 009c D4F8E030 		ldr	r3, [r4, #224]
 230 00a0 43F00203 		orr	r3, r3, #2
 231 00a4 C4F8E030 		str	r3, [r4, #224]
 108:../../../init/terminal/config/Src/stm32h7xx_hal_msp.c **** 
 232              		.loc 1 108 2 is_stmt 1 view .LVU62
 233 00a8 D4F8E030 		ldr	r3, [r4, #224]
 234 00ac 03F00203 		and	r3, r3, #2
 235 00b0 0293     		str	r3, [sp, #8]
 108:../../../init/terminal/config/Src/stm32h7xx_hal_msp.c **** 
ARM GAS  /tmp/ccYU2yCl.s 			page 8


 236              		.loc 1 108 2 view .LVU63
 237 00b2 029B     		ldr	r3, [sp, #8]
 238              	.LBE5:
 108:../../../init/terminal/config/Src/stm32h7xx_hal_msp.c **** 
 239              		.loc 1 108 2 view .LVU64
 113:../../../init/terminal/config/Src/stm32h7xx_hal_msp.c **** 	GPIO_InitStruct.Mode      = GPIO_MODE_AF_OD;
 240              		.loc 1 113 2 view .LVU65
 113:../../../init/terminal/config/Src/stm32h7xx_hal_msp.c **** 	GPIO_InitStruct.Mode      = GPIO_MODE_AF_OD;
 241              		.loc 1 113 28 is_stmt 0 view .LVU66
 242 00b4 4FF44063 		mov	r3, #3072
 243 00b8 3393     		str	r3, [sp, #204]
 114:../../../init/terminal/config/Src/stm32h7xx_hal_msp.c **** 	GPIO_InitStruct.Pull      = GPIO_NOPULL;
 244              		.loc 1 114 2 is_stmt 1 view .LVU67
 114:../../../init/terminal/config/Src/stm32h7xx_hal_msp.c **** 	GPIO_InitStruct.Pull      = GPIO_NOPULL;
 245              		.loc 1 114 28 is_stmt 0 view .LVU68
 246 00ba 1223     		movs	r3, #18
 247 00bc 3493     		str	r3, [sp, #208]
 115:../../../init/terminal/config/Src/stm32h7xx_hal_msp.c **** 	GPIO_InitStruct.Speed     = GPIO_SPEED_FREQ_LOW;
 248              		.loc 1 115 2 is_stmt 1 view .LVU69
 115:../../../init/terminal/config/Src/stm32h7xx_hal_msp.c **** 	GPIO_InitStruct.Speed     = GPIO_SPEED_FREQ_LOW;
 249              		.loc 1 115 28 is_stmt 0 view .LVU70
 250 00be 0023     		movs	r3, #0
 251 00c0 3593     		str	r3, [sp, #212]
 116:../../../init/terminal/config/Src/stm32h7xx_hal_msp.c **** 	GPIO_InitStruct.Alternate = GPIO_AF4_I2C2;
 252              		.loc 1 116 2 is_stmt 1 view .LVU71
 116:../../../init/terminal/config/Src/stm32h7xx_hal_msp.c **** 	GPIO_InitStruct.Alternate = GPIO_AF4_I2C2;
 253              		.loc 1 116 28 is_stmt 0 view .LVU72
 254 00c2 3693     		str	r3, [sp, #216]
 117:../../../init/terminal/config/Src/stm32h7xx_hal_msp.c **** 	HAL_GPIO_Init( GPIOB, &GPIO_InitStruct );
 255              		.loc 1 117 2 is_stmt 1 view .LVU73
 117:../../../init/terminal/config/Src/stm32h7xx_hal_msp.c **** 	HAL_GPIO_Init( GPIOB, &GPIO_InitStruct );
 256              		.loc 1 117 28 is_stmt 0 view .LVU74
 257 00c4 0423     		movs	r3, #4
 258 00c6 3793     		str	r3, [sp, #220]
 118:../../../init/terminal/config/Src/stm32h7xx_hal_msp.c **** 
 259              		.loc 1 118 2 is_stmt 1 view .LVU75
 260 00c8 33A9     		add	r1, sp, #204
 261 00ca 0D48     		ldr	r0, .L15+12
 262 00cc FFF7FEFF 		bl	HAL_GPIO_Init
 263              	.LVL12:
 121:../../../init/terminal/config/Src/stm32h7xx_hal_msp.c **** 	}
 264              		.loc 1 121 2 view .LVU76
 265              	.LBB6:
 121:../../../init/terminal/config/Src/stm32h7xx_hal_msp.c **** 	}
 266              		.loc 1 121 2 view .LVU77
 121:../../../init/terminal/config/Src/stm32h7xx_hal_msp.c **** 	}
 267              		.loc 1 121 2 view .LVU78
 268 00d0 D4F8E830 		ldr	r3, [r4, #232]
 269 00d4 43F48003 		orr	r3, r3, #4194304
 270 00d8 C4F8E830 		str	r3, [r4, #232]
 121:../../../init/terminal/config/Src/stm32h7xx_hal_msp.c **** 	}
 271              		.loc 1 121 2 view .LVU79
 272 00dc D4F8E830 		ldr	r3, [r4, #232]
 273 00e0 03F48003 		and	r3, r3, #4194304
 274 00e4 0393     		str	r3, [sp, #12]
 121:../../../init/terminal/config/Src/stm32h7xx_hal_msp.c **** 	}
 275              		.loc 1 121 2 view .LVU80
ARM GAS  /tmp/ccYU2yCl.s 			page 9


 276 00e6 039B     		ldr	r3, [sp, #12]
 277              	.LBE6:
 121:../../../init/terminal/config/Src/stm32h7xx_hal_msp.c **** 	}
 278              		.loc 1 121 2 view .LVU81
 279              		.loc 1 124 1 is_stmt 0 view .LVU82
 280 00e8 9EE7     		b	.L5
 281              	.LVL13:
 282              	.L14:
 105:../../../init/terminal/config/Src/stm32h7xx_hal_msp.c **** 		}
 283              		.loc 1 105 3 is_stmt 1 view .LVU83
 284 00ea 1220     		movs	r0, #18
 285 00ec FFF7FEFF 		bl	Error_Handler
 286              	.LVL14:
 287 00f0 D3E7     		b	.L9
 288              	.L16:
 289 00f2 00BF     		.align	2
 290              	.L15:
 291 00f4 00540040 		.word	1073763328
 292 00f8 00580040 		.word	1073764352
 293 00fc 00440258 		.word	1476543488
 294 0100 00040258 		.word	1476527104
 295              		.cfi_endproc
 296              	.LFE145:
 298              		.section	.text.HAL_I2C_MspDeInit,"ax",%progbits
 299              		.align	1
 300              		.global	HAL_I2C_MspDeInit
 301              		.syntax unified
 302              		.thumb
 303              		.thumb_func
 305              	HAL_I2C_MspDeInit:
 306              	.LVL15:
 307              	.LFB146:
 125:../../../init/terminal/config/Src/stm32h7xx_hal_msp.c **** 
 126:../../../init/terminal/config/Src/stm32h7xx_hal_msp.c **** 
 127:../../../init/terminal/config/Src/stm32h7xx_hal_msp.c **** /*******************************************************************************
 128:../../../init/terminal/config/Src/stm32h7xx_hal_msp.c **** *                                                                              *
 129:../../../init/terminal/config/Src/stm32h7xx_hal_msp.c **** * PROCEDURE:                                                                   *
 130:../../../init/terminal/config/Src/stm32h7xx_hal_msp.c **** *       HAL_I2C_MspDeInit                                                      *
 131:../../../init/terminal/config/Src/stm32h7xx_hal_msp.c **** *                                                                              *
 132:../../../init/terminal/config/Src/stm32h7xx_hal_msp.c **** * DESCRIPTION:                                                                 *
 133:../../../init/terminal/config/Src/stm32h7xx_hal_msp.c **** *       Deinitializes the I2C MSP                                              *
 134:../../../init/terminal/config/Src/stm32h7xx_hal_msp.c **** *                                                                              *
 135:../../../init/terminal/config/Src/stm32h7xx_hal_msp.c **** *******************************************************************************/
 136:../../../init/terminal/config/Src/stm32h7xx_hal_msp.c **** void HAL_I2C_MspDeInit
 137:../../../init/terminal/config/Src/stm32h7xx_hal_msp.c **** 	( 
 138:../../../init/terminal/config/Src/stm32h7xx_hal_msp.c **** 	I2C_HandleTypeDef* hi2c
 139:../../../init/terminal/config/Src/stm32h7xx_hal_msp.c **** 	)
 140:../../../init/terminal/config/Src/stm32h7xx_hal_msp.c **** {
 308              		.loc 1 140 1 view -0
 309              		.cfi_startproc
 310              		@ args = 0, pretend = 0, frame = 0
 311              		@ frame_needed = 0, uses_anonymous_args = 0
 312              		.loc 1 140 1 is_stmt 0 view .LVU85
 313 0000 10B5     		push	{r4, lr}
 314              	.LCFI6:
 315              		.cfi_def_cfa_offset 8
 316              		.cfi_offset 4, -8
ARM GAS  /tmp/ccYU2yCl.s 			page 10


 317              		.cfi_offset 14, -4
 141:../../../init/terminal/config/Src/stm32h7xx_hal_msp.c **** 
 142:../../../init/terminal/config/Src/stm32h7xx_hal_msp.c **** /* I2C1 --> Barometric pressure sensor */
 143:../../../init/terminal/config/Src/stm32h7xx_hal_msp.c **** if( hi2c->Instance == I2C1 )
 318              		.loc 1 143 1 is_stmt 1 view .LVU86
 319              		.loc 1 143 9 is_stmt 0 view .LVU87
 320 0002 0368     		ldr	r3, [r0]
 321              		.loc 1 143 3 view .LVU88
 322 0004 154A     		ldr	r2, .L23
 323 0006 9342     		cmp	r3, r2
 324 0008 03D0     		beq	.L21
 144:../../../init/terminal/config/Src/stm32h7xx_hal_msp.c **** 	{
 145:../../../init/terminal/config/Src/stm32h7xx_hal_msp.c **** 	/* Peripheral clock disable */
 146:../../../init/terminal/config/Src/stm32h7xx_hal_msp.c **** 	__HAL_RCC_I2C1_CLK_DISABLE();
 147:../../../init/terminal/config/Src/stm32h7xx_hal_msp.c **** 
 148:../../../init/terminal/config/Src/stm32h7xx_hal_msp.c **** 	/* I2C1 GPIO Configuration
 149:../../../init/terminal/config/Src/stm32h7xx_hal_msp.c **** 	PB6     ------> I2C1_SCL
 150:../../../init/terminal/config/Src/stm32h7xx_hal_msp.c **** 	PB7     ------> I2C1_SDA */
 151:../../../init/terminal/config/Src/stm32h7xx_hal_msp.c **** 	HAL_GPIO_DeInit( GPIOB, GPIO_PIN_6 );
 152:../../../init/terminal/config/Src/stm32h7xx_hal_msp.c **** 	HAL_GPIO_DeInit( GPIOB, GPIO_PIN_7 );
 153:../../../init/terminal/config/Src/stm32h7xx_hal_msp.c **** 	}
 154:../../../init/terminal/config/Src/stm32h7xx_hal_msp.c **** else if ( hi2c->Instance == I2C2 )
 325              		.loc 1 154 6 is_stmt 1 view .LVU89
 326              		.loc 1 154 9 is_stmt 0 view .LVU90
 327 000a 154A     		ldr	r2, .L23+4
 328 000c 9342     		cmp	r3, r2
 329 000e 11D0     		beq	.L22
 330              	.LVL16:
 331              	.L17:
 155:../../../init/terminal/config/Src/stm32h7xx_hal_msp.c **** 	{
 156:../../../init/terminal/config/Src/stm32h7xx_hal_msp.c **** 	/* Peripheral clock disable */
 157:../../../init/terminal/config/Src/stm32h7xx_hal_msp.c **** 	__HAL_RCC_I2C2_CLK_DISABLE();
 158:../../../init/terminal/config/Src/stm32h7xx_hal_msp.c **** 
 159:../../../init/terminal/config/Src/stm32h7xx_hal_msp.c **** 	/* I2C2 GPIO Configuration
 160:../../../init/terminal/config/Src/stm32h7xx_hal_msp.c **** 	PB10     ------> I2C2_SCL
 161:../../../init/terminal/config/Src/stm32h7xx_hal_msp.c **** 	PB11     ------> I2C2_SDA */
 162:../../../init/terminal/config/Src/stm32h7xx_hal_msp.c **** 	HAL_GPIO_DeInit( GPIOB, GPIO_PIN_10 );
 163:../../../init/terminal/config/Src/stm32h7xx_hal_msp.c **** 	HAL_GPIO_DeInit( GPIOB, GPIO_PIN_11 );
 164:../../../init/terminal/config/Src/stm32h7xx_hal_msp.c **** 	}
 165:../../../init/terminal/config/Src/stm32h7xx_hal_msp.c **** 
 166:../../../init/terminal/config/Src/stm32h7xx_hal_msp.c **** } /* HAL_I2C_MspDeInit */
 332              		.loc 1 166 1 view .LVU91
 333 0010 10BD     		pop	{r4, pc}
 334              	.LVL17:
 335              	.L21:
 146:../../../init/terminal/config/Src/stm32h7xx_hal_msp.c **** 
 336              		.loc 1 146 2 is_stmt 1 view .LVU92
 337 0012 144A     		ldr	r2, .L23+8
 338 0014 D2F8E830 		ldr	r3, [r2, #232]
 339 0018 23F40013 		bic	r3, r3, #2097152
 340 001c C2F8E830 		str	r3, [r2, #232]
 151:../../../init/terminal/config/Src/stm32h7xx_hal_msp.c **** 	HAL_GPIO_DeInit( GPIOB, GPIO_PIN_7 );
 341              		.loc 1 151 2 view .LVU93
 342 0020 114C     		ldr	r4, .L23+12
 343 0022 4021     		movs	r1, #64
 344 0024 2046     		mov	r0, r4
 345              	.LVL18:
ARM GAS  /tmp/ccYU2yCl.s 			page 11


 151:../../../init/terminal/config/Src/stm32h7xx_hal_msp.c **** 	HAL_GPIO_DeInit( GPIOB, GPIO_PIN_7 );
 346              		.loc 1 151 2 is_stmt 0 view .LVU94
 347 0026 FFF7FEFF 		bl	HAL_GPIO_DeInit
 348              	.LVL19:
 152:../../../init/terminal/config/Src/stm32h7xx_hal_msp.c **** 	}
 349              		.loc 1 152 2 is_stmt 1 view .LVU95
 350 002a 8021     		movs	r1, #128
 351 002c 2046     		mov	r0, r4
 352 002e FFF7FEFF 		bl	HAL_GPIO_DeInit
 353              	.LVL20:
 354 0032 EDE7     		b	.L17
 355              	.LVL21:
 356              	.L22:
 157:../../../init/terminal/config/Src/stm32h7xx_hal_msp.c **** 
 357              		.loc 1 157 2 view .LVU96
 358 0034 0B4A     		ldr	r2, .L23+8
 359 0036 D2F8E830 		ldr	r3, [r2, #232]
 360 003a 23F48003 		bic	r3, r3, #4194304
 361 003e C2F8E830 		str	r3, [r2, #232]
 162:../../../init/terminal/config/Src/stm32h7xx_hal_msp.c **** 	HAL_GPIO_DeInit( GPIOB, GPIO_PIN_11 );
 362              		.loc 1 162 2 view .LVU97
 363 0042 094C     		ldr	r4, .L23+12
 364 0044 4FF48061 		mov	r1, #1024
 365 0048 2046     		mov	r0, r4
 366              	.LVL22:
 162:../../../init/terminal/config/Src/stm32h7xx_hal_msp.c **** 	HAL_GPIO_DeInit( GPIOB, GPIO_PIN_11 );
 367              		.loc 1 162 2 is_stmt 0 view .LVU98
 368 004a FFF7FEFF 		bl	HAL_GPIO_DeInit
 369              	.LVL23:
 163:../../../init/terminal/config/Src/stm32h7xx_hal_msp.c **** 	}
 370              		.loc 1 163 2 is_stmt 1 view .LVU99
 371 004e 4FF40061 		mov	r1, #2048
 372 0052 2046     		mov	r0, r4
 373 0054 FFF7FEFF 		bl	HAL_GPIO_DeInit
 374              	.LVL24:
 375              		.loc 1 166 1 is_stmt 0 view .LVU100
 376 0058 DAE7     		b	.L17
 377              	.L24:
 378 005a 00BF     		.align	2
 379              	.L23:
 380 005c 00540040 		.word	1073763328
 381 0060 00580040 		.word	1073764352
 382 0064 00440258 		.word	1476543488
 383 0068 00040258 		.word	1476527104
 384              		.cfi_endproc
 385              	.LFE146:
 387              		.section	.text.HAL_SD_MspInit,"ax",%progbits
 388              		.align	1
 389              		.global	HAL_SD_MspInit
 390              		.syntax unified
 391              		.thumb
 392              		.thumb_func
 394              	HAL_SD_MspInit:
 395              	.LVL25:
 396              	.LFB147:
 167:../../../init/terminal/config/Src/stm32h7xx_hal_msp.c **** 
 168:../../../init/terminal/config/Src/stm32h7xx_hal_msp.c **** 
ARM GAS  /tmp/ccYU2yCl.s 			page 12


 169:../../../init/terminal/config/Src/stm32h7xx_hal_msp.c **** /*******************************************************************************
 170:../../../init/terminal/config/Src/stm32h7xx_hal_msp.c **** *                                                                              *
 171:../../../init/terminal/config/Src/stm32h7xx_hal_msp.c **** * PROCEDURE:                                                                   *
 172:../../../init/terminal/config/Src/stm32h7xx_hal_msp.c **** *       HAL_SD_MspInit                                                         *
 173:../../../init/terminal/config/Src/stm32h7xx_hal_msp.c **** *                                                                              *
 174:../../../init/terminal/config/Src/stm32h7xx_hal_msp.c **** * DESCRIPTION:                                                                 *
 175:../../../init/terminal/config/Src/stm32h7xx_hal_msp.c **** *       SD Card MSP Initialization                                             *
 176:../../../init/terminal/config/Src/stm32h7xx_hal_msp.c **** *                                                                              *
 177:../../../init/terminal/config/Src/stm32h7xx_hal_msp.c **** *******************************************************************************/
 178:../../../init/terminal/config/Src/stm32h7xx_hal_msp.c **** void HAL_SD_MspInit
 179:../../../init/terminal/config/Src/stm32h7xx_hal_msp.c **** 	(
 180:../../../init/terminal/config/Src/stm32h7xx_hal_msp.c **** 	SD_HandleTypeDef* hsd
 181:../../../init/terminal/config/Src/stm32h7xx_hal_msp.c **** 	)
 182:../../../init/terminal/config/Src/stm32h7xx_hal_msp.c **** {
 397              		.loc 1 182 1 is_stmt 1 view -0
 398              		.cfi_startproc
 399              		@ args = 0, pretend = 0, frame = 32
 400              		@ frame_needed = 0, uses_anonymous_args = 0
 401              		.loc 1 182 1 is_stmt 0 view .LVU102
 402 0000 70B5     		push	{r4, r5, r6, lr}
 403              	.LCFI7:
 404              		.cfi_def_cfa_offset 16
 405              		.cfi_offset 4, -16
 406              		.cfi_offset 5, -12
 407              		.cfi_offset 6, -8
 408              		.cfi_offset 14, -4
 409 0002 88B0     		sub	sp, sp, #32
 410              	.LCFI8:
 411              		.cfi_def_cfa_offset 48
 183:../../../init/terminal/config/Src/stm32h7xx_hal_msp.c **** GPIO_InitTypeDef GPIO_InitStruct = {0};
 412              		.loc 1 183 1 is_stmt 1 view .LVU103
 413              		.loc 1 183 18 is_stmt 0 view .LVU104
 414 0004 0023     		movs	r3, #0
 415 0006 0393     		str	r3, [sp, #12]
 416 0008 0493     		str	r3, [sp, #16]
 417 000a 0593     		str	r3, [sp, #20]
 418 000c 0693     		str	r3, [sp, #24]
 419 000e 0793     		str	r3, [sp, #28]
 184:../../../init/terminal/config/Src/stm32h7xx_hal_msp.c **** if( hsd->Instance == SDMMC1 )
 420              		.loc 1 184 1 is_stmt 1 view .LVU105
 421              		.loc 1 184 8 is_stmt 0 view .LVU106
 422 0010 0268     		ldr	r2, [r0]
 423              		.loc 1 184 3 view .LVU107
 424 0012 224B     		ldr	r3, .L29
 425 0014 9A42     		cmp	r2, r3
 426 0016 01D0     		beq	.L28
 427              	.LVL26:
 428              	.L25:
 185:../../../init/terminal/config/Src/stm32h7xx_hal_msp.c **** 	{
 186:../../../init/terminal/config/Src/stm32h7xx_hal_msp.c **** 	/* Peripheral clock enable */
 187:../../../init/terminal/config/Src/stm32h7xx_hal_msp.c **** 	__HAL_RCC_SDMMC1_CLK_ENABLE();
 188:../../../init/terminal/config/Src/stm32h7xx_hal_msp.c **** 	__HAL_RCC_GPIOC_CLK_ENABLE();
 189:../../../init/terminal/config/Src/stm32h7xx_hal_msp.c **** 	__HAL_RCC_GPIOD_CLK_ENABLE();
 190:../../../init/terminal/config/Src/stm32h7xx_hal_msp.c **** 
 191:../../../init/terminal/config/Src/stm32h7xx_hal_msp.c **** 	/**SDMMC1 GPIO Configuration
 192:../../../init/terminal/config/Src/stm32h7xx_hal_msp.c **** 	PC8     ------> SDMMC1_D0
 193:../../../init/terminal/config/Src/stm32h7xx_hal_msp.c **** 	PC9     ------> SDMMC1_D1
ARM GAS  /tmp/ccYU2yCl.s 			page 13


 194:../../../init/terminal/config/Src/stm32h7xx_hal_msp.c **** 	PC10     ------> SDMMC1_D2
 195:../../../init/terminal/config/Src/stm32h7xx_hal_msp.c **** 	PC11     ------> SDMMC1_D3
 196:../../../init/terminal/config/Src/stm32h7xx_hal_msp.c **** 	PC12     ------> SDMMC1_CK
 197:../../../init/terminal/config/Src/stm32h7xx_hal_msp.c **** 	PD2     ------> SDMMC1_CMD
 198:../../../init/terminal/config/Src/stm32h7xx_hal_msp.c **** 	*/
 199:../../../init/terminal/config/Src/stm32h7xx_hal_msp.c **** 	GPIO_InitStruct.Pin       = GPIO_PIN_8  | GPIO_PIN_9 | GPIO_PIN_10 |
 200:../../../init/terminal/config/Src/stm32h7xx_hal_msp.c **** 	                            GPIO_PIN_11 | GPIO_PIN_12;
 201:../../../init/terminal/config/Src/stm32h7xx_hal_msp.c **** 	GPIO_InitStruct.Mode      = GPIO_MODE_AF_PP;
 202:../../../init/terminal/config/Src/stm32h7xx_hal_msp.c **** 	GPIO_InitStruct.Pull      = GPIO_NOPULL;
 203:../../../init/terminal/config/Src/stm32h7xx_hal_msp.c **** 	GPIO_InitStruct.Speed     = GPIO_SPEED_FREQ_VERY_HIGH;
 204:../../../init/terminal/config/Src/stm32h7xx_hal_msp.c **** 	GPIO_InitStruct.Alternate = GPIO_AF12_SDIO1;
 205:../../../init/terminal/config/Src/stm32h7xx_hal_msp.c **** 	HAL_GPIO_Init(GPIOC, &GPIO_InitStruct);
 206:../../../init/terminal/config/Src/stm32h7xx_hal_msp.c **** 
 207:../../../init/terminal/config/Src/stm32h7xx_hal_msp.c **** 	GPIO_InitStruct.Pin       = GPIO_PIN_2;
 208:../../../init/terminal/config/Src/stm32h7xx_hal_msp.c **** 	GPIO_InitStruct.Mode      = GPIO_MODE_AF_PP;
 209:../../../init/terminal/config/Src/stm32h7xx_hal_msp.c **** 	GPIO_InitStruct.Pull      = GPIO_NOPULL;
 210:../../../init/terminal/config/Src/stm32h7xx_hal_msp.c **** 	GPIO_InitStruct.Speed     = GPIO_SPEED_FREQ_VERY_HIGH;
 211:../../../init/terminal/config/Src/stm32h7xx_hal_msp.c **** 	GPIO_InitStruct.Alternate = GPIO_AF12_SDIO1;
 212:../../../init/terminal/config/Src/stm32h7xx_hal_msp.c **** 	HAL_GPIO_Init(GPIOD, &GPIO_InitStruct);
 213:../../../init/terminal/config/Src/stm32h7xx_hal_msp.c **** 	}
 214:../../../init/terminal/config/Src/stm32h7xx_hal_msp.c **** 
 215:../../../init/terminal/config/Src/stm32h7xx_hal_msp.c **** } /* HAL_SD_MspInit */
 429              		.loc 1 215 1 view .LVU108
 430 0018 08B0     		add	sp, sp, #32
 431              	.LCFI9:
 432              		.cfi_remember_state
 433              		.cfi_def_cfa_offset 16
 434              		@ sp needed
 435 001a 70BD     		pop	{r4, r5, r6, pc}
 436              	.LVL27:
 437              	.L28:
 438              	.LCFI10:
 439              		.cfi_restore_state
 187:../../../init/terminal/config/Src/stm32h7xx_hal_msp.c **** 	__HAL_RCC_GPIOC_CLK_ENABLE();
 440              		.loc 1 187 2 is_stmt 1 view .LVU109
 441              	.LBB7:
 187:../../../init/terminal/config/Src/stm32h7xx_hal_msp.c **** 	__HAL_RCC_GPIOC_CLK_ENABLE();
 442              		.loc 1 187 2 view .LVU110
 187:../../../init/terminal/config/Src/stm32h7xx_hal_msp.c **** 	__HAL_RCC_GPIOC_CLK_ENABLE();
 443              		.loc 1 187 2 view .LVU111
 444 001c 204B     		ldr	r3, .L29+4
 445 001e D3F8D420 		ldr	r2, [r3, #212]
 446 0022 42F48032 		orr	r2, r2, #65536
 447 0026 C3F8D420 		str	r2, [r3, #212]
 187:../../../init/terminal/config/Src/stm32h7xx_hal_msp.c **** 	__HAL_RCC_GPIOC_CLK_ENABLE();
 448              		.loc 1 187 2 view .LVU112
 449 002a D3F8D420 		ldr	r2, [r3, #212]
 450 002e 02F48032 		and	r2, r2, #65536
 451 0032 0092     		str	r2, [sp]
 187:../../../init/terminal/config/Src/stm32h7xx_hal_msp.c **** 	__HAL_RCC_GPIOC_CLK_ENABLE();
 452              		.loc 1 187 2 view .LVU113
 453 0034 009A     		ldr	r2, [sp]
 454              	.LBE7:
 187:../../../init/terminal/config/Src/stm32h7xx_hal_msp.c **** 	__HAL_RCC_GPIOC_CLK_ENABLE();
 455              		.loc 1 187 2 view .LVU114
 188:../../../init/terminal/config/Src/stm32h7xx_hal_msp.c **** 	__HAL_RCC_GPIOD_CLK_ENABLE();
 456              		.loc 1 188 2 view .LVU115
ARM GAS  /tmp/ccYU2yCl.s 			page 14


 457              	.LBB8:
 188:../../../init/terminal/config/Src/stm32h7xx_hal_msp.c **** 	__HAL_RCC_GPIOD_CLK_ENABLE();
 458              		.loc 1 188 2 view .LVU116
 188:../../../init/terminal/config/Src/stm32h7xx_hal_msp.c **** 	__HAL_RCC_GPIOD_CLK_ENABLE();
 459              		.loc 1 188 2 view .LVU117
 460 0036 D3F8E020 		ldr	r2, [r3, #224]
 461 003a 42F00402 		orr	r2, r2, #4
 462 003e C3F8E020 		str	r2, [r3, #224]
 188:../../../init/terminal/config/Src/stm32h7xx_hal_msp.c **** 	__HAL_RCC_GPIOD_CLK_ENABLE();
 463              		.loc 1 188 2 view .LVU118
 464 0042 D3F8E020 		ldr	r2, [r3, #224]
 465 0046 02F00402 		and	r2, r2, #4
 466 004a 0192     		str	r2, [sp, #4]
 188:../../../init/terminal/config/Src/stm32h7xx_hal_msp.c **** 	__HAL_RCC_GPIOD_CLK_ENABLE();
 467              		.loc 1 188 2 view .LVU119
 468 004c 019A     		ldr	r2, [sp, #4]
 469              	.LBE8:
 188:../../../init/terminal/config/Src/stm32h7xx_hal_msp.c **** 	__HAL_RCC_GPIOD_CLK_ENABLE();
 470              		.loc 1 188 2 view .LVU120
 189:../../../init/terminal/config/Src/stm32h7xx_hal_msp.c **** 
 471              		.loc 1 189 2 view .LVU121
 472              	.LBB9:
 189:../../../init/terminal/config/Src/stm32h7xx_hal_msp.c **** 
 473              		.loc 1 189 2 view .LVU122
 189:../../../init/terminal/config/Src/stm32h7xx_hal_msp.c **** 
 474              		.loc 1 189 2 view .LVU123
 475 004e D3F8E020 		ldr	r2, [r3, #224]
 476 0052 42F00802 		orr	r2, r2, #8
 477 0056 C3F8E020 		str	r2, [r3, #224]
 189:../../../init/terminal/config/Src/stm32h7xx_hal_msp.c **** 
 478              		.loc 1 189 2 view .LVU124
 479 005a D3F8E030 		ldr	r3, [r3, #224]
 480 005e 03F00803 		and	r3, r3, #8
 481 0062 0293     		str	r3, [sp, #8]
 189:../../../init/terminal/config/Src/stm32h7xx_hal_msp.c **** 
 482              		.loc 1 189 2 view .LVU125
 483 0064 029B     		ldr	r3, [sp, #8]
 484              	.LBE9:
 189:../../../init/terminal/config/Src/stm32h7xx_hal_msp.c **** 
 485              		.loc 1 189 2 view .LVU126
 199:../../../init/terminal/config/Src/stm32h7xx_hal_msp.c **** 	                            GPIO_PIN_11 | GPIO_PIN_12;
 486              		.loc 1 199 2 view .LVU127
 199:../../../init/terminal/config/Src/stm32h7xx_hal_msp.c **** 	                            GPIO_PIN_11 | GPIO_PIN_12;
 487              		.loc 1 199 28 is_stmt 0 view .LVU128
 488 0066 4FF4F853 		mov	r3, #7936
 489 006a 0393     		str	r3, [sp, #12]
 201:../../../init/terminal/config/Src/stm32h7xx_hal_msp.c **** 	GPIO_InitStruct.Pull      = GPIO_NOPULL;
 490              		.loc 1 201 2 is_stmt 1 view .LVU129
 201:../../../init/terminal/config/Src/stm32h7xx_hal_msp.c **** 	GPIO_InitStruct.Pull      = GPIO_NOPULL;
 491              		.loc 1 201 28 is_stmt 0 view .LVU130
 492 006c 0226     		movs	r6, #2
 493 006e 0496     		str	r6, [sp, #16]
 202:../../../init/terminal/config/Src/stm32h7xx_hal_msp.c **** 	GPIO_InitStruct.Speed     = GPIO_SPEED_FREQ_VERY_HIGH;
 494              		.loc 1 202 2 is_stmt 1 view .LVU131
 203:../../../init/terminal/config/Src/stm32h7xx_hal_msp.c **** 	GPIO_InitStruct.Alternate = GPIO_AF12_SDIO1;
 495              		.loc 1 203 2 view .LVU132
 203:../../../init/terminal/config/Src/stm32h7xx_hal_msp.c **** 	GPIO_InitStruct.Alternate = GPIO_AF12_SDIO1;
ARM GAS  /tmp/ccYU2yCl.s 			page 15


 496              		.loc 1 203 28 is_stmt 0 view .LVU133
 497 0070 0325     		movs	r5, #3
 498 0072 0695     		str	r5, [sp, #24]
 204:../../../init/terminal/config/Src/stm32h7xx_hal_msp.c **** 	HAL_GPIO_Init(GPIOC, &GPIO_InitStruct);
 499              		.loc 1 204 2 is_stmt 1 view .LVU134
 204:../../../init/terminal/config/Src/stm32h7xx_hal_msp.c **** 	HAL_GPIO_Init(GPIOC, &GPIO_InitStruct);
 500              		.loc 1 204 28 is_stmt 0 view .LVU135
 501 0074 0C24     		movs	r4, #12
 502 0076 0794     		str	r4, [sp, #28]
 205:../../../init/terminal/config/Src/stm32h7xx_hal_msp.c **** 
 503              		.loc 1 205 2 is_stmt 1 view .LVU136
 504 0078 0DEB0401 		add	r1, sp, r4
 505 007c 0948     		ldr	r0, .L29+8
 506              	.LVL28:
 205:../../../init/terminal/config/Src/stm32h7xx_hal_msp.c **** 
 507              		.loc 1 205 2 is_stmt 0 view .LVU137
 508 007e FFF7FEFF 		bl	HAL_GPIO_Init
 509              	.LVL29:
 207:../../../init/terminal/config/Src/stm32h7xx_hal_msp.c **** 	GPIO_InitStruct.Mode      = GPIO_MODE_AF_PP;
 510              		.loc 1 207 2 is_stmt 1 view .LVU138
 207:../../../init/terminal/config/Src/stm32h7xx_hal_msp.c **** 	GPIO_InitStruct.Mode      = GPIO_MODE_AF_PP;
 511              		.loc 1 207 28 is_stmt 0 view .LVU139
 512 0082 0423     		movs	r3, #4
 513 0084 0393     		str	r3, [sp, #12]
 208:../../../init/terminal/config/Src/stm32h7xx_hal_msp.c **** 	GPIO_InitStruct.Pull      = GPIO_NOPULL;
 514              		.loc 1 208 2 is_stmt 1 view .LVU140
 208:../../../init/terminal/config/Src/stm32h7xx_hal_msp.c **** 	GPIO_InitStruct.Pull      = GPIO_NOPULL;
 515              		.loc 1 208 28 is_stmt 0 view .LVU141
 516 0086 0496     		str	r6, [sp, #16]
 209:../../../init/terminal/config/Src/stm32h7xx_hal_msp.c **** 	GPIO_InitStruct.Speed     = GPIO_SPEED_FREQ_VERY_HIGH;
 517              		.loc 1 209 2 is_stmt 1 view .LVU142
 209:../../../init/terminal/config/Src/stm32h7xx_hal_msp.c **** 	GPIO_InitStruct.Speed     = GPIO_SPEED_FREQ_VERY_HIGH;
 518              		.loc 1 209 28 is_stmt 0 view .LVU143
 519 0088 0023     		movs	r3, #0
 520 008a 0593     		str	r3, [sp, #20]
 210:../../../init/terminal/config/Src/stm32h7xx_hal_msp.c **** 	GPIO_InitStruct.Alternate = GPIO_AF12_SDIO1;
 521              		.loc 1 210 2 is_stmt 1 view .LVU144
 210:../../../init/terminal/config/Src/stm32h7xx_hal_msp.c **** 	GPIO_InitStruct.Alternate = GPIO_AF12_SDIO1;
 522              		.loc 1 210 28 is_stmt 0 view .LVU145
 523 008c 0695     		str	r5, [sp, #24]
 211:../../../init/terminal/config/Src/stm32h7xx_hal_msp.c **** 	HAL_GPIO_Init(GPIOD, &GPIO_InitStruct);
 524              		.loc 1 211 2 is_stmt 1 view .LVU146
 211:../../../init/terminal/config/Src/stm32h7xx_hal_msp.c **** 	HAL_GPIO_Init(GPIOD, &GPIO_InitStruct);
 525              		.loc 1 211 28 is_stmt 0 view .LVU147
 526 008e 0794     		str	r4, [sp, #28]
 212:../../../init/terminal/config/Src/stm32h7xx_hal_msp.c **** 	}
 527              		.loc 1 212 2 is_stmt 1 view .LVU148
 528 0090 0DEB0401 		add	r1, sp, r4
 529 0094 0448     		ldr	r0, .L29+12
 530 0096 FFF7FEFF 		bl	HAL_GPIO_Init
 531              	.LVL30:
 532              		.loc 1 215 1 is_stmt 0 view .LVU149
 533 009a BDE7     		b	.L25
 534              	.L30:
 535              		.align	2
 536              	.L29:
 537 009c 00700052 		.word	1375760384
ARM GAS  /tmp/ccYU2yCl.s 			page 16


 538 00a0 00440258 		.word	1476543488
 539 00a4 00080258 		.word	1476528128
 540 00a8 000C0258 		.word	1476529152
 541              		.cfi_endproc
 542              	.LFE147:
 544              		.section	.text.HAL_SD_MspDeInit,"ax",%progbits
 545              		.align	1
 546              		.global	HAL_SD_MspDeInit
 547              		.syntax unified
 548              		.thumb
 549              		.thumb_func
 551              	HAL_SD_MspDeInit:
 552              	.LVL31:
 553              	.LFB148:
 216:../../../init/terminal/config/Src/stm32h7xx_hal_msp.c **** 
 217:../../../init/terminal/config/Src/stm32h7xx_hal_msp.c **** 
 218:../../../init/terminal/config/Src/stm32h7xx_hal_msp.c **** /*******************************************************************************
 219:../../../init/terminal/config/Src/stm32h7xx_hal_msp.c **** *                                                                              *
 220:../../../init/terminal/config/Src/stm32h7xx_hal_msp.c **** * PROCEDURE:                                                                   *
 221:../../../init/terminal/config/Src/stm32h7xx_hal_msp.c **** *       HAL_SD_MspInit                                                         *
 222:../../../init/terminal/config/Src/stm32h7xx_hal_msp.c **** *                                                                              *
 223:../../../init/terminal/config/Src/stm32h7xx_hal_msp.c **** * DESCRIPTION:                                                                 *
 224:../../../init/terminal/config/Src/stm32h7xx_hal_msp.c **** *       SD Card MSP De-Initialization                                          *
 225:../../../init/terminal/config/Src/stm32h7xx_hal_msp.c **** *                                                                              *
 226:../../../init/terminal/config/Src/stm32h7xx_hal_msp.c **** *******************************************************************************/
 227:../../../init/terminal/config/Src/stm32h7xx_hal_msp.c **** void HAL_SD_MspDeInit
 228:../../../init/terminal/config/Src/stm32h7xx_hal_msp.c **** 	(
 229:../../../init/terminal/config/Src/stm32h7xx_hal_msp.c **** 	SD_HandleTypeDef* hsd
 230:../../../init/terminal/config/Src/stm32h7xx_hal_msp.c **** 	)
 231:../../../init/terminal/config/Src/stm32h7xx_hal_msp.c **** {
 554              		.loc 1 231 1 is_stmt 1 view -0
 555              		.cfi_startproc
 556              		@ args = 0, pretend = 0, frame = 0
 557              		@ frame_needed = 0, uses_anonymous_args = 0
 558              		.loc 1 231 1 is_stmt 0 view .LVU151
 559 0000 08B5     		push	{r3, lr}
 560              	.LCFI11:
 561              		.cfi_def_cfa_offset 8
 562              		.cfi_offset 3, -8
 563              		.cfi_offset 14, -4
 232:../../../init/terminal/config/Src/stm32h7xx_hal_msp.c **** if( hsd->Instance == SDMMC1 )
 564              		.loc 1 232 1 is_stmt 1 view .LVU152
 565              		.loc 1 232 8 is_stmt 0 view .LVU153
 566 0002 0268     		ldr	r2, [r0]
 567              		.loc 1 232 3 view .LVU154
 568 0004 0A4B     		ldr	r3, .L35
 569 0006 9A42     		cmp	r2, r3
 570 0008 00D0     		beq	.L34
 571              	.LVL32:
 572              	.L31:
 233:../../../init/terminal/config/Src/stm32h7xx_hal_msp.c **** 	{
 234:../../../init/terminal/config/Src/stm32h7xx_hal_msp.c **** 	/* Peripheral clock disable */
 235:../../../init/terminal/config/Src/stm32h7xx_hal_msp.c **** 	__HAL_RCC_SDMMC1_CLK_DISABLE();
 236:../../../init/terminal/config/Src/stm32h7xx_hal_msp.c **** 
 237:../../../init/terminal/config/Src/stm32h7xx_hal_msp.c **** 	/**SDMMC1 GPIO Configuration
 238:../../../init/terminal/config/Src/stm32h7xx_hal_msp.c **** 	PC8     ------> SDMMC1_D0
 239:../../../init/terminal/config/Src/stm32h7xx_hal_msp.c **** 	PC9     ------> SDMMC1_D1
ARM GAS  /tmp/ccYU2yCl.s 			page 17


 240:../../../init/terminal/config/Src/stm32h7xx_hal_msp.c **** 	PC10     ------> SDMMC1_D2
 241:../../../init/terminal/config/Src/stm32h7xx_hal_msp.c **** 	PC11     ------> SDMMC1_D3
 242:../../../init/terminal/config/Src/stm32h7xx_hal_msp.c **** 	PC12     ------> SDMMC1_CK
 243:../../../init/terminal/config/Src/stm32h7xx_hal_msp.c **** 	PD2     ------> SDMMC1_CMD
 244:../../../init/terminal/config/Src/stm32h7xx_hal_msp.c **** 	*/
 245:../../../init/terminal/config/Src/stm32h7xx_hal_msp.c **** 	HAL_GPIO_DeInit(GPIOC, GPIO_PIN_8|GPIO_PIN_9|GPIO_PIN_10|GPIO_PIN_11
 246:../../../init/terminal/config/Src/stm32h7xx_hal_msp.c **** 							|GPIO_PIN_12);
 247:../../../init/terminal/config/Src/stm32h7xx_hal_msp.c **** 
 248:../../../init/terminal/config/Src/stm32h7xx_hal_msp.c **** 	HAL_GPIO_DeInit(GPIOD, GPIO_PIN_2);
 249:../../../init/terminal/config/Src/stm32h7xx_hal_msp.c **** 	}
 250:../../../init/terminal/config/Src/stm32h7xx_hal_msp.c **** 
 251:../../../init/terminal/config/Src/stm32h7xx_hal_msp.c **** } /* HAL_SD_MspInit */
 573              		.loc 1 251 1 view .LVU155
 574 000a 08BD     		pop	{r3, pc}
 575              	.LVL33:
 576              	.L34:
 235:../../../init/terminal/config/Src/stm32h7xx_hal_msp.c **** 
 577              		.loc 1 235 2 is_stmt 1 view .LVU156
 578 000c 094A     		ldr	r2, .L35+4
 579 000e D2F8D430 		ldr	r3, [r2, #212]
 580 0012 23F48033 		bic	r3, r3, #65536
 581 0016 C2F8D430 		str	r3, [r2, #212]
 245:../../../init/terminal/config/Src/stm32h7xx_hal_msp.c **** 							|GPIO_PIN_12);
 582              		.loc 1 245 2 view .LVU157
 583 001a 4FF4F851 		mov	r1, #7936
 584 001e 0648     		ldr	r0, .L35+8
 585              	.LVL34:
 245:../../../init/terminal/config/Src/stm32h7xx_hal_msp.c **** 							|GPIO_PIN_12);
 586              		.loc 1 245 2 is_stmt 0 view .LVU158
 587 0020 FFF7FEFF 		bl	HAL_GPIO_DeInit
 588              	.LVL35:
 248:../../../init/terminal/config/Src/stm32h7xx_hal_msp.c **** 	}
 589              		.loc 1 248 2 is_stmt 1 view .LVU159
 590 0024 0421     		movs	r1, #4
 591 0026 0548     		ldr	r0, .L35+12
 592 0028 FFF7FEFF 		bl	HAL_GPIO_DeInit
 593              	.LVL36:
 594              		.loc 1 251 1 is_stmt 0 view .LVU160
 595 002c EDE7     		b	.L31
 596              	.L36:
 597 002e 00BF     		.align	2
 598              	.L35:
 599 0030 00700052 		.word	1375760384
 600 0034 00440258 		.word	1476543488
 601 0038 00080258 		.word	1476528128
 602 003c 000C0258 		.word	1476529152
 603              		.cfi_endproc
 604              	.LFE148:
 606              		.section	.text.HAL_SPI_MspInit,"ax",%progbits
 607              		.align	1
 608              		.global	HAL_SPI_MspInit
 609              		.syntax unified
 610              		.thumb
 611              		.thumb_func
 613              	HAL_SPI_MspInit:
 614              	.LVL37:
 615              	.LFB149:
ARM GAS  /tmp/ccYU2yCl.s 			page 18


 252:../../../init/terminal/config/Src/stm32h7xx_hal_msp.c **** 
 253:../../../init/terminal/config/Src/stm32h7xx_hal_msp.c **** 
 254:../../../init/terminal/config/Src/stm32h7xx_hal_msp.c **** /*******************************************************************************
 255:../../../init/terminal/config/Src/stm32h7xx_hal_msp.c **** *                                                                              *
 256:../../../init/terminal/config/Src/stm32h7xx_hal_msp.c **** * PROCEDURE:                                                                   *
 257:../../../init/terminal/config/Src/stm32h7xx_hal_msp.c **** *       HAL_SPI_MspInit                                                        *
 258:../../../init/terminal/config/Src/stm32h7xx_hal_msp.c **** *                                                                              *
 259:../../../init/terminal/config/Src/stm32h7xx_hal_msp.c **** * DESCRIPTION:                                                                 *
 260:../../../init/terminal/config/Src/stm32h7xx_hal_msp.c **** *       SPI MSP initialization                                                 *
 261:../../../init/terminal/config/Src/stm32h7xx_hal_msp.c **** *                                                                              *
 262:../../../init/terminal/config/Src/stm32h7xx_hal_msp.c **** *******************************************************************************/
 263:../../../init/terminal/config/Src/stm32h7xx_hal_msp.c **** void HAL_SPI_MspInit
 264:../../../init/terminal/config/Src/stm32h7xx_hal_msp.c **** 	(
 265:../../../init/terminal/config/Src/stm32h7xx_hal_msp.c **** 	SPI_HandleTypeDef* hspi
 266:../../../init/terminal/config/Src/stm32h7xx_hal_msp.c **** 	)
 267:../../../init/terminal/config/Src/stm32h7xx_hal_msp.c **** {
 616              		.loc 1 267 1 is_stmt 1 view -0
 617              		.cfi_startproc
 618              		@ args = 0, pretend = 0, frame = 216
 619              		@ frame_needed = 0, uses_anonymous_args = 0
 620              		.loc 1 267 1 is_stmt 0 view .LVU162
 621 0000 10B5     		push	{r4, lr}
 622              	.LCFI12:
 623              		.cfi_def_cfa_offset 8
 624              		.cfi_offset 4, -8
 625              		.cfi_offset 14, -4
 626 0002 B6B0     		sub	sp, sp, #216
 627              	.LCFI13:
 628              		.cfi_def_cfa_offset 224
 629 0004 0446     		mov	r4, r0
 268:../../../init/terminal/config/Src/stm32h7xx_hal_msp.c **** /* Initialization structs */
 269:../../../init/terminal/config/Src/stm32h7xx_hal_msp.c **** GPIO_InitTypeDef         GPIO_InitStruct     = {0};
 630              		.loc 1 269 1 is_stmt 1 view .LVU163
 631              		.loc 1 269 26 is_stmt 0 view .LVU164
 632 0006 0021     		movs	r1, #0
 633 0008 3191     		str	r1, [sp, #196]
 634 000a 3291     		str	r1, [sp, #200]
 635 000c 3391     		str	r1, [sp, #204]
 636 000e 3491     		str	r1, [sp, #208]
 637 0010 3591     		str	r1, [sp, #212]
 270:../../../init/terminal/config/Src/stm32h7xx_hal_msp.c **** RCC_PeriphCLKInitTypeDef PeriphClkInitStruct = {0};
 638              		.loc 1 270 1 is_stmt 1 view .LVU165
 639              		.loc 1 270 26 is_stmt 0 view .LVU166
 640 0012 BC22     		movs	r2, #188
 641 0014 02A8     		add	r0, sp, #8
 642              	.LVL38:
 643              		.loc 1 270 26 view .LVU167
 644 0016 FFF7FEFF 		bl	memset
 645              	.LVL39:
 271:../../../init/terminal/config/Src/stm32h7xx_hal_msp.c **** 
 272:../../../init/terminal/config/Src/stm32h7xx_hal_msp.c **** /* Flash SPI */
 273:../../../init/terminal/config/Src/stm32h7xx_hal_msp.c **** if( hspi->Instance == SPI2 )
 646              		.loc 1 273 1 is_stmt 1 view .LVU168
 647              		.loc 1 273 9 is_stmt 0 view .LVU169
 648 001a 2268     		ldr	r2, [r4]
 649              		.loc 1 273 3 view .LVU170
 650 001c 214B     		ldr	r3, .L43
ARM GAS  /tmp/ccYU2yCl.s 			page 19


 651 001e 9A42     		cmp	r2, r3
 652 0020 01D0     		beq	.L41
 653              	.L37:
 274:../../../init/terminal/config/Src/stm32h7xx_hal_msp.c **** 	{
 275:../../../init/terminal/config/Src/stm32h7xx_hal_msp.c **** 	/* Initializes the peripherals clock */
 276:../../../init/terminal/config/Src/stm32h7xx_hal_msp.c **** 	PeriphClkInitStruct.PeriphClockSelection = RCC_PERIPHCLK_SPI2;
 277:../../../init/terminal/config/Src/stm32h7xx_hal_msp.c **** 	PeriphClkInitStruct.PLL2.PLL2M           = 2;
 278:../../../init/terminal/config/Src/stm32h7xx_hal_msp.c **** 	PeriphClkInitStruct.PLL2.PLL2N           = 16;
 279:../../../init/terminal/config/Src/stm32h7xx_hal_msp.c **** 	PeriphClkInitStruct.PLL2.PLL2P           = 4;
 280:../../../init/terminal/config/Src/stm32h7xx_hal_msp.c **** 	PeriphClkInitStruct.PLL2.PLL2Q           = 2;
 281:../../../init/terminal/config/Src/stm32h7xx_hal_msp.c **** 	PeriphClkInitStruct.PLL2.PLL2R           = 2;
 282:../../../init/terminal/config/Src/stm32h7xx_hal_msp.c **** 	PeriphClkInitStruct.PLL2.PLL2RGE         = RCC_PLL2VCIRANGE_3;
 283:../../../init/terminal/config/Src/stm32h7xx_hal_msp.c **** 	PeriphClkInitStruct.PLL2.PLL2VCOSEL      = RCC_PLL2VCOWIDE;
 284:../../../init/terminal/config/Src/stm32h7xx_hal_msp.c **** 	PeriphClkInitStruct.PLL2.PLL2FRACN       = 0;
 285:../../../init/terminal/config/Src/stm32h7xx_hal_msp.c **** 	PeriphClkInitStruct.Spi123ClockSelection = RCC_SPI123CLKSOURCE_PLL2;
 286:../../../init/terminal/config/Src/stm32h7xx_hal_msp.c **** 	if ( HAL_RCCEx_PeriphCLKConfig( &PeriphClkInitStruct ) != HAL_OK )
 287:../../../init/terminal/config/Src/stm32h7xx_hal_msp.c **** 		{
 288:../../../init/terminal/config/Src/stm32h7xx_hal_msp.c **** 		Error_Handler( ERROR_SPI_HAL_MSP_ERROR );
 289:../../../init/terminal/config/Src/stm32h7xx_hal_msp.c **** 		}
 290:../../../init/terminal/config/Src/stm32h7xx_hal_msp.c **** 
 291:../../../init/terminal/config/Src/stm32h7xx_hal_msp.c **** 	/* Peripheral clock enable */
 292:../../../init/terminal/config/Src/stm32h7xx_hal_msp.c **** 	__HAL_RCC_SPI2_CLK_ENABLE();
 293:../../../init/terminal/config/Src/stm32h7xx_hal_msp.c **** 	__HAL_RCC_GPIOB_CLK_ENABLE();
 294:../../../init/terminal/config/Src/stm32h7xx_hal_msp.c **** 
 295:../../../init/terminal/config/Src/stm32h7xx_hal_msp.c **** 	/* SPI2 GPIO Configuration
 296:../../../init/terminal/config/Src/stm32h7xx_hal_msp.c **** 	PB13     ------> SPI2_SCK
 297:../../../init/terminal/config/Src/stm32h7xx_hal_msp.c **** 	PB14     ------> SPI2_MISO
 298:../../../init/terminal/config/Src/stm32h7xx_hal_msp.c **** 	PB15     ------> SPI2_MOSI */
 299:../../../init/terminal/config/Src/stm32h7xx_hal_msp.c **** 	GPIO_InitStruct.Pin       = GPIO_PIN_13|GPIO_PIN_14|GPIO_PIN_15;
 300:../../../init/terminal/config/Src/stm32h7xx_hal_msp.c **** 	GPIO_InitStruct.Mode      = GPIO_MODE_AF_PP;
 301:../../../init/terminal/config/Src/stm32h7xx_hal_msp.c **** 	GPIO_InitStruct.Pull      = GPIO_NOPULL;
 302:../../../init/terminal/config/Src/stm32h7xx_hal_msp.c **** 	GPIO_InitStruct.Speed     = GPIO_SPEED_FREQ_LOW;
 303:../../../init/terminal/config/Src/stm32h7xx_hal_msp.c **** 	GPIO_InitStruct.Alternate = GPIO_AF5_SPI2;
 304:../../../init/terminal/config/Src/stm32h7xx_hal_msp.c **** 	HAL_GPIO_Init( GPIOB, &GPIO_InitStruct );
 305:../../../init/terminal/config/Src/stm32h7xx_hal_msp.c **** 	}
 306:../../../init/terminal/config/Src/stm32h7xx_hal_msp.c **** 
 307:../../../init/terminal/config/Src/stm32h7xx_hal_msp.c **** } /* HAL_SPI_MspInit */
 654              		.loc 1 307 1 view .LVU171
 655 0022 36B0     		add	sp, sp, #216
 656              	.LCFI14:
 657              		.cfi_remember_state
 658              		.cfi_def_cfa_offset 8
 659              		@ sp needed
 660 0024 10BD     		pop	{r4, pc}
 661              	.LVL40:
 662              	.L41:
 663              	.LCFI15:
 664              		.cfi_restore_state
 276:../../../init/terminal/config/Src/stm32h7xx_hal_msp.c **** 	PeriphClkInitStruct.PLL2.PLL2M           = 2;
 665              		.loc 1 276 2 is_stmt 1 view .LVU172
 276:../../../init/terminal/config/Src/stm32h7xx_hal_msp.c **** 	PeriphClkInitStruct.PLL2.PLL2M           = 2;
 666              		.loc 1 276 43 is_stmt 0 view .LVU173
 667 0026 4FF48052 		mov	r2, #4096
 668 002a 0292     		str	r2, [sp, #8]
 277:../../../init/terminal/config/Src/stm32h7xx_hal_msp.c **** 	PeriphClkInitStruct.PLL2.PLL2N           = 16;
 669              		.loc 1 277 2 is_stmt 1 view .LVU174
 277:../../../init/terminal/config/Src/stm32h7xx_hal_msp.c **** 	PeriphClkInitStruct.PLL2.PLL2N           = 16;
ARM GAS  /tmp/ccYU2yCl.s 			page 20


 670              		.loc 1 277 43 is_stmt 0 view .LVU175
 671 002c 0223     		movs	r3, #2
 672 002e 0393     		str	r3, [sp, #12]
 278:../../../init/terminal/config/Src/stm32h7xx_hal_msp.c **** 	PeriphClkInitStruct.PLL2.PLL2P           = 4;
 673              		.loc 1 278 2 is_stmt 1 view .LVU176
 278:../../../init/terminal/config/Src/stm32h7xx_hal_msp.c **** 	PeriphClkInitStruct.PLL2.PLL2P           = 4;
 674              		.loc 1 278 43 is_stmt 0 view .LVU177
 675 0030 1021     		movs	r1, #16
 676 0032 0491     		str	r1, [sp, #16]
 279:../../../init/terminal/config/Src/stm32h7xx_hal_msp.c **** 	PeriphClkInitStruct.PLL2.PLL2Q           = 2;
 677              		.loc 1 279 2 is_stmt 1 view .LVU178
 279:../../../init/terminal/config/Src/stm32h7xx_hal_msp.c **** 	PeriphClkInitStruct.PLL2.PLL2Q           = 2;
 678              		.loc 1 279 43 is_stmt 0 view .LVU179
 679 0034 0421     		movs	r1, #4
 680 0036 0591     		str	r1, [sp, #20]
 280:../../../init/terminal/config/Src/stm32h7xx_hal_msp.c **** 	PeriphClkInitStruct.PLL2.PLL2R           = 2;
 681              		.loc 1 280 2 is_stmt 1 view .LVU180
 280:../../../init/terminal/config/Src/stm32h7xx_hal_msp.c **** 	PeriphClkInitStruct.PLL2.PLL2R           = 2;
 682              		.loc 1 280 43 is_stmt 0 view .LVU181
 683 0038 0693     		str	r3, [sp, #24]
 281:../../../init/terminal/config/Src/stm32h7xx_hal_msp.c **** 	PeriphClkInitStruct.PLL2.PLL2RGE         = RCC_PLL2VCIRANGE_3;
 684              		.loc 1 281 2 is_stmt 1 view .LVU182
 281:../../../init/terminal/config/Src/stm32h7xx_hal_msp.c **** 	PeriphClkInitStruct.PLL2.PLL2RGE         = RCC_PLL2VCIRANGE_3;
 685              		.loc 1 281 43 is_stmt 0 view .LVU183
 686 003a 0793     		str	r3, [sp, #28]
 282:../../../init/terminal/config/Src/stm32h7xx_hal_msp.c **** 	PeriphClkInitStruct.PLL2.PLL2VCOSEL      = RCC_PLL2VCOWIDE;
 687              		.loc 1 282 2 is_stmt 1 view .LVU184
 282:../../../init/terminal/config/Src/stm32h7xx_hal_msp.c **** 	PeriphClkInitStruct.PLL2.PLL2VCOSEL      = RCC_PLL2VCOWIDE;
 688              		.loc 1 282 43 is_stmt 0 view .LVU185
 689 003c C023     		movs	r3, #192
 690 003e 0893     		str	r3, [sp, #32]
 283:../../../init/terminal/config/Src/stm32h7xx_hal_msp.c **** 	PeriphClkInitStruct.PLL2.PLL2FRACN       = 0;
 691              		.loc 1 283 2 is_stmt 1 view .LVU186
 284:../../../init/terminal/config/Src/stm32h7xx_hal_msp.c **** 	PeriphClkInitStruct.Spi123ClockSelection = RCC_SPI123CLKSOURCE_PLL2;
 692              		.loc 1 284 2 view .LVU187
 285:../../../init/terminal/config/Src/stm32h7xx_hal_msp.c **** 	if ( HAL_RCCEx_PeriphCLKConfig( &PeriphClkInitStruct ) != HAL_OK )
 693              		.loc 1 285 2 view .LVU188
 285:../../../init/terminal/config/Src/stm32h7xx_hal_msp.c **** 	if ( HAL_RCCEx_PeriphCLKConfig( &PeriphClkInitStruct ) != HAL_OK )
 694              		.loc 1 285 43 is_stmt 0 view .LVU189
 695 0040 1992     		str	r2, [sp, #100]
 286:../../../init/terminal/config/Src/stm32h7xx_hal_msp.c **** 		{
 696              		.loc 1 286 2 is_stmt 1 view .LVU190
 286:../../../init/terminal/config/Src/stm32h7xx_hal_msp.c **** 		{
 697              		.loc 1 286 7 is_stmt 0 view .LVU191
 698 0042 02A8     		add	r0, sp, #8
 699 0044 FFF7FEFF 		bl	HAL_RCCEx_PeriphCLKConfig
 700              	.LVL41:
 286:../../../init/terminal/config/Src/stm32h7xx_hal_msp.c **** 		{
 701              		.loc 1 286 5 view .LVU192
 702 0048 38BB     		cbnz	r0, .L42
 703              	.L39:
 292:../../../init/terminal/config/Src/stm32h7xx_hal_msp.c **** 	__HAL_RCC_GPIOB_CLK_ENABLE();
 704              		.loc 1 292 2 is_stmt 1 view .LVU193
 705              	.LBB10:
 292:../../../init/terminal/config/Src/stm32h7xx_hal_msp.c **** 	__HAL_RCC_GPIOB_CLK_ENABLE();
 706              		.loc 1 292 2 view .LVU194
 292:../../../init/terminal/config/Src/stm32h7xx_hal_msp.c **** 	__HAL_RCC_GPIOB_CLK_ENABLE();
ARM GAS  /tmp/ccYU2yCl.s 			page 21


 707              		.loc 1 292 2 view .LVU195
 708 004a 174B     		ldr	r3, .L43+4
 709 004c D3F8E820 		ldr	r2, [r3, #232]
 710 0050 42F48042 		orr	r2, r2, #16384
 711 0054 C3F8E820 		str	r2, [r3, #232]
 292:../../../init/terminal/config/Src/stm32h7xx_hal_msp.c **** 	__HAL_RCC_GPIOB_CLK_ENABLE();
 712              		.loc 1 292 2 view .LVU196
 713 0058 D3F8E820 		ldr	r2, [r3, #232]
 714 005c 02F48042 		and	r2, r2, #16384
 715 0060 0092     		str	r2, [sp]
 292:../../../init/terminal/config/Src/stm32h7xx_hal_msp.c **** 	__HAL_RCC_GPIOB_CLK_ENABLE();
 716              		.loc 1 292 2 view .LVU197
 717 0062 009A     		ldr	r2, [sp]
 718              	.LBE10:
 292:../../../init/terminal/config/Src/stm32h7xx_hal_msp.c **** 	__HAL_RCC_GPIOB_CLK_ENABLE();
 719              		.loc 1 292 2 view .LVU198
 293:../../../init/terminal/config/Src/stm32h7xx_hal_msp.c **** 
 720              		.loc 1 293 2 view .LVU199
 721              	.LBB11:
 293:../../../init/terminal/config/Src/stm32h7xx_hal_msp.c **** 
 722              		.loc 1 293 2 view .LVU200
 293:../../../init/terminal/config/Src/stm32h7xx_hal_msp.c **** 
 723              		.loc 1 293 2 view .LVU201
 724 0064 D3F8E020 		ldr	r2, [r3, #224]
 725 0068 42F00202 		orr	r2, r2, #2
 726 006c C3F8E020 		str	r2, [r3, #224]
 293:../../../init/terminal/config/Src/stm32h7xx_hal_msp.c **** 
 727              		.loc 1 293 2 view .LVU202
 728 0070 D3F8E030 		ldr	r3, [r3, #224]
 729 0074 03F00203 		and	r3, r3, #2
 730 0078 0193     		str	r3, [sp, #4]
 293:../../../init/terminal/config/Src/stm32h7xx_hal_msp.c **** 
 731              		.loc 1 293 2 view .LVU203
 732 007a 019B     		ldr	r3, [sp, #4]
 733              	.LBE11:
 293:../../../init/terminal/config/Src/stm32h7xx_hal_msp.c **** 
 734              		.loc 1 293 2 view .LVU204
 299:../../../init/terminal/config/Src/stm32h7xx_hal_msp.c **** 	GPIO_InitStruct.Mode      = GPIO_MODE_AF_PP;
 735              		.loc 1 299 2 view .LVU205
 299:../../../init/terminal/config/Src/stm32h7xx_hal_msp.c **** 	GPIO_InitStruct.Mode      = GPIO_MODE_AF_PP;
 736              		.loc 1 299 28 is_stmt 0 view .LVU206
 737 007c 4FF46043 		mov	r3, #57344
 738 0080 3193     		str	r3, [sp, #196]
 300:../../../init/terminal/config/Src/stm32h7xx_hal_msp.c **** 	GPIO_InitStruct.Pull      = GPIO_NOPULL;
 739              		.loc 1 300 2 is_stmt 1 view .LVU207
 300:../../../init/terminal/config/Src/stm32h7xx_hal_msp.c **** 	GPIO_InitStruct.Pull      = GPIO_NOPULL;
 740              		.loc 1 300 28 is_stmt 0 view .LVU208
 741 0082 0223     		movs	r3, #2
 742 0084 3293     		str	r3, [sp, #200]
 301:../../../init/terminal/config/Src/stm32h7xx_hal_msp.c **** 	GPIO_InitStruct.Speed     = GPIO_SPEED_FREQ_LOW;
 743              		.loc 1 301 2 is_stmt 1 view .LVU209
 301:../../../init/terminal/config/Src/stm32h7xx_hal_msp.c **** 	GPIO_InitStruct.Speed     = GPIO_SPEED_FREQ_LOW;
 744              		.loc 1 301 28 is_stmt 0 view .LVU210
 745 0086 0023     		movs	r3, #0
 746 0088 3393     		str	r3, [sp, #204]
 302:../../../init/terminal/config/Src/stm32h7xx_hal_msp.c **** 	GPIO_InitStruct.Alternate = GPIO_AF5_SPI2;
 747              		.loc 1 302 2 is_stmt 1 view .LVU211
ARM GAS  /tmp/ccYU2yCl.s 			page 22


 302:../../../init/terminal/config/Src/stm32h7xx_hal_msp.c **** 	GPIO_InitStruct.Alternate = GPIO_AF5_SPI2;
 748              		.loc 1 302 28 is_stmt 0 view .LVU212
 749 008a 3493     		str	r3, [sp, #208]
 303:../../../init/terminal/config/Src/stm32h7xx_hal_msp.c **** 	HAL_GPIO_Init( GPIOB, &GPIO_InitStruct );
 750              		.loc 1 303 2 is_stmt 1 view .LVU213
 303:../../../init/terminal/config/Src/stm32h7xx_hal_msp.c **** 	HAL_GPIO_Init( GPIOB, &GPIO_InitStruct );
 751              		.loc 1 303 28 is_stmt 0 view .LVU214
 752 008c 0523     		movs	r3, #5
 753 008e 3593     		str	r3, [sp, #212]
 304:../../../init/terminal/config/Src/stm32h7xx_hal_msp.c **** 	}
 754              		.loc 1 304 2 is_stmt 1 view .LVU215
 755 0090 31A9     		add	r1, sp, #196
 756 0092 0648     		ldr	r0, .L43+8
 757 0094 FFF7FEFF 		bl	HAL_GPIO_Init
 758              	.LVL42:
 759              		.loc 1 307 1 is_stmt 0 view .LVU216
 760 0098 C3E7     		b	.L37
 761              	.L42:
 288:../../../init/terminal/config/Src/stm32h7xx_hal_msp.c **** 		}
 762              		.loc 1 288 3 is_stmt 1 view .LVU217
 763 009a 1320     		movs	r0, #19
 764 009c FFF7FEFF 		bl	Error_Handler
 765              	.LVL43:
 766 00a0 D3E7     		b	.L39
 767              	.L44:
 768 00a2 00BF     		.align	2
 769              	.L43:
 770 00a4 00380040 		.word	1073756160
 771 00a8 00440258 		.word	1476543488
 772 00ac 00040258 		.word	1476527104
 773              		.cfi_endproc
 774              	.LFE149:
 776              		.section	.text.HAL_SPI_MspDeInit,"ax",%progbits
 777              		.align	1
 778              		.global	HAL_SPI_MspDeInit
 779              		.syntax unified
 780              		.thumb
 781              		.thumb_func
 783              	HAL_SPI_MspDeInit:
 784              	.LVL44:
 785              	.LFB150:
 308:../../../init/terminal/config/Src/stm32h7xx_hal_msp.c **** 
 309:../../../init/terminal/config/Src/stm32h7xx_hal_msp.c **** 
 310:../../../init/terminal/config/Src/stm32h7xx_hal_msp.c **** /*******************************************************************************
 311:../../../init/terminal/config/Src/stm32h7xx_hal_msp.c **** *                                                                              *
 312:../../../init/terminal/config/Src/stm32h7xx_hal_msp.c **** * PROCEDURE:                                                                   *
 313:../../../init/terminal/config/Src/stm32h7xx_hal_msp.c **** *       HAL_SPI_MspDeInit                                                      *
 314:../../../init/terminal/config/Src/stm32h7xx_hal_msp.c **** *                                                                              *
 315:../../../init/terminal/config/Src/stm32h7xx_hal_msp.c **** * DESCRIPTION:                                                                 *
 316:../../../init/terminal/config/Src/stm32h7xx_hal_msp.c **** *       SPI MSP de-initialization                                              *
 317:../../../init/terminal/config/Src/stm32h7xx_hal_msp.c **** *                                                                              *
 318:../../../init/terminal/config/Src/stm32h7xx_hal_msp.c **** *******************************************************************************/
 319:../../../init/terminal/config/Src/stm32h7xx_hal_msp.c **** void HAL_SPI_MspDeInit
 320:../../../init/terminal/config/Src/stm32h7xx_hal_msp.c **** 	(
 321:../../../init/terminal/config/Src/stm32h7xx_hal_msp.c **** 	SPI_HandleTypeDef* hspi
 322:../../../init/terminal/config/Src/stm32h7xx_hal_msp.c **** 	)
 323:../../../init/terminal/config/Src/stm32h7xx_hal_msp.c **** {
ARM GAS  /tmp/ccYU2yCl.s 			page 23


 786              		.loc 1 323 1 view -0
 787              		.cfi_startproc
 788              		@ args = 0, pretend = 0, frame = 0
 789              		@ frame_needed = 0, uses_anonymous_args = 0
 790              		.loc 1 323 1 is_stmt 0 view .LVU219
 791 0000 08B5     		push	{r3, lr}
 792              	.LCFI16:
 793              		.cfi_def_cfa_offset 8
 794              		.cfi_offset 3, -8
 795              		.cfi_offset 14, -4
 324:../../../init/terminal/config/Src/stm32h7xx_hal_msp.c **** /* Flash SPI */
 325:../../../init/terminal/config/Src/stm32h7xx_hal_msp.c **** if( hspi->Instance == SPI2 )
 796              		.loc 1 325 1 is_stmt 1 view .LVU220
 797              		.loc 1 325 9 is_stmt 0 view .LVU221
 798 0002 0268     		ldr	r2, [r0]
 799              		.loc 1 325 3 view .LVU222
 800 0004 084B     		ldr	r3, .L49
 801 0006 9A42     		cmp	r2, r3
 802 0008 00D0     		beq	.L48
 803              	.LVL45:
 804              	.L45:
 326:../../../init/terminal/config/Src/stm32h7xx_hal_msp.c **** 	{
 327:../../../init/terminal/config/Src/stm32h7xx_hal_msp.c **** 	/* Peripheral clock disable */
 328:../../../init/terminal/config/Src/stm32h7xx_hal_msp.c **** 	__HAL_RCC_SPI2_CLK_DISABLE();
 329:../../../init/terminal/config/Src/stm32h7xx_hal_msp.c **** 
 330:../../../init/terminal/config/Src/stm32h7xx_hal_msp.c **** 	/* SPI2 GPIO Configuration
 331:../../../init/terminal/config/Src/stm32h7xx_hal_msp.c **** 	PB13     ------> SPI2_SCK
 332:../../../init/terminal/config/Src/stm32h7xx_hal_msp.c **** 	PB14     ------> SPI2_MISO
 333:../../../init/terminal/config/Src/stm32h7xx_hal_msp.c **** 	PB15     ------> SPI2_MOSI */
 334:../../../init/terminal/config/Src/stm32h7xx_hal_msp.c **** 	HAL_GPIO_DeInit( GPIOB, GPIO_PIN_13|GPIO_PIN_14|GPIO_PIN_15 );
 335:../../../init/terminal/config/Src/stm32h7xx_hal_msp.c **** 	}
 336:../../../init/terminal/config/Src/stm32h7xx_hal_msp.c **** } /* HAL_SPI_MspDeInit */
 805              		.loc 1 336 1 view .LVU223
 806 000a 08BD     		pop	{r3, pc}
 807              	.LVL46:
 808              	.L48:
 328:../../../init/terminal/config/Src/stm32h7xx_hal_msp.c **** 
 809              		.loc 1 328 2 is_stmt 1 view .LVU224
 810 000c 074A     		ldr	r2, .L49+4
 811 000e D2F8E830 		ldr	r3, [r2, #232]
 812 0012 23F48043 		bic	r3, r3, #16384
 813 0016 C2F8E830 		str	r3, [r2, #232]
 334:../../../init/terminal/config/Src/stm32h7xx_hal_msp.c **** 	}
 814              		.loc 1 334 2 view .LVU225
 815 001a 4FF46041 		mov	r1, #57344
 816 001e 0448     		ldr	r0, .L49+8
 817              	.LVL47:
 334:../../../init/terminal/config/Src/stm32h7xx_hal_msp.c **** 	}
 818              		.loc 1 334 2 is_stmt 0 view .LVU226
 819 0020 FFF7FEFF 		bl	HAL_GPIO_DeInit
 820              	.LVL48:
 821              		.loc 1 336 1 view .LVU227
 822 0024 F1E7     		b	.L45
 823              	.L50:
 824 0026 00BF     		.align	2
 825              	.L49:
 826 0028 00380040 		.word	1073756160
ARM GAS  /tmp/ccYU2yCl.s 			page 24


 827 002c 00440258 		.word	1476543488
 828 0030 00040258 		.word	1476527104
 829              		.cfi_endproc
 830              	.LFE150:
 832              		.section	.text.HAL_TIM_Base_MspInit,"ax",%progbits
 833              		.align	1
 834              		.global	HAL_TIM_Base_MspInit
 835              		.syntax unified
 836              		.thumb
 837              		.thumb_func
 839              	HAL_TIM_Base_MspInit:
 840              	.LVL49:
 841              	.LFB151:
 337:../../../init/terminal/config/Src/stm32h7xx_hal_msp.c **** 
 338:../../../init/terminal/config/Src/stm32h7xx_hal_msp.c **** 
 339:../../../init/terminal/config/Src/stm32h7xx_hal_msp.c **** /*******************************************************************************
 340:../../../init/terminal/config/Src/stm32h7xx_hal_msp.c **** *                                                                              *
 341:../../../init/terminal/config/Src/stm32h7xx_hal_msp.c **** * PROCEDURE:                                                                   *
 342:../../../init/terminal/config/Src/stm32h7xx_hal_msp.c **** *       HAL_TIM_Base_MspInit                                                   *
 343:../../../init/terminal/config/Src/stm32h7xx_hal_msp.c **** *                                                                              *
 344:../../../init/terminal/config/Src/stm32h7xx_hal_msp.c **** * DESCRIPTION:                                                                 *
 345:../../../init/terminal/config/Src/stm32h7xx_hal_msp.c **** *       Base Timer MSP initialization                                          *
 346:../../../init/terminal/config/Src/stm32h7xx_hal_msp.c **** *                                                                              *
 347:../../../init/terminal/config/Src/stm32h7xx_hal_msp.c **** *******************************************************************************/
 348:../../../init/terminal/config/Src/stm32h7xx_hal_msp.c **** void HAL_TIM_Base_MspInit
 349:../../../init/terminal/config/Src/stm32h7xx_hal_msp.c **** 	(
 350:../../../init/terminal/config/Src/stm32h7xx_hal_msp.c **** 	TIM_HandleTypeDef* htim_base
 351:../../../init/terminal/config/Src/stm32h7xx_hal_msp.c **** 	)
 352:../../../init/terminal/config/Src/stm32h7xx_hal_msp.c **** {
 842              		.loc 1 352 1 is_stmt 1 view -0
 843              		.cfi_startproc
 844              		@ args = 0, pretend = 0, frame = 16
 845              		@ frame_needed = 0, uses_anonymous_args = 0
 846              		.loc 1 352 1 is_stmt 0 view .LVU229
 847 0000 00B5     		push	{lr}
 848              	.LCFI17:
 849              		.cfi_def_cfa_offset 4
 850              		.cfi_offset 14, -4
 851 0002 85B0     		sub	sp, sp, #20
 852              	.LCFI18:
 853              		.cfi_def_cfa_offset 24
 353:../../../init/terminal/config/Src/stm32h7xx_hal_msp.c **** 	if(htim_base->Instance==TIM2)
 854              		.loc 1 353 2 is_stmt 1 view .LVU230
 855              		.loc 1 353 14 is_stmt 0 view .LVU231
 856 0004 0368     		ldr	r3, [r0]
 857              		.loc 1 353 4 view .LVU232
 858 0006 B3F1804F 		cmp	r3, #1073741824
 859 000a 08D0     		beq	.L56
 354:../../../init/terminal/config/Src/stm32h7xx_hal_msp.c **** 	{
 355:../../../init/terminal/config/Src/stm32h7xx_hal_msp.c **** 	/* Peripheral clock enable */
 356:../../../init/terminal/config/Src/stm32h7xx_hal_msp.c **** 	__HAL_RCC_TIM2_CLK_ENABLE();
 357:../../../init/terminal/config/Src/stm32h7xx_hal_msp.c **** 	/* TIM2 interrupt Init */
 358:../../../init/terminal/config/Src/stm32h7xx_hal_msp.c **** 	HAL_NVIC_SetPriority(TIM2_IRQn, 0, 0);
 359:../../../init/terminal/config/Src/stm32h7xx_hal_msp.c **** 	HAL_NVIC_EnableIRQ(TIM2_IRQn);
 360:../../../init/terminal/config/Src/stm32h7xx_hal_msp.c **** 	}
 361:../../../init/terminal/config/Src/stm32h7xx_hal_msp.c **** 	else if(htim_base->Instance==TIM3)
 860              		.loc 1 361 7 is_stmt 1 view .LVU233
ARM GAS  /tmp/ccYU2yCl.s 			page 25


 861              		.loc 1 361 9 is_stmt 0 view .LVU234
 862 000c 214A     		ldr	r2, .L59
 863 000e 9342     		cmp	r3, r2
 864 0010 1BD0     		beq	.L57
 362:../../../init/terminal/config/Src/stm32h7xx_hal_msp.c **** 	{
 363:../../../init/terminal/config/Src/stm32h7xx_hal_msp.c **** 	/* Peripheral clock enable */
 364:../../../init/terminal/config/Src/stm32h7xx_hal_msp.c **** 	__HAL_RCC_TIM3_CLK_ENABLE();
 365:../../../init/terminal/config/Src/stm32h7xx_hal_msp.c **** 	/* TIM3 interrupt Init */
 366:../../../init/terminal/config/Src/stm32h7xx_hal_msp.c **** 	HAL_NVIC_SetPriority(TIM3_IRQn, 0, 0);
 367:../../../init/terminal/config/Src/stm32h7xx_hal_msp.c **** 	HAL_NVIC_EnableIRQ(TIM3_IRQn);
 368:../../../init/terminal/config/Src/stm32h7xx_hal_msp.c **** 	}
 369:../../../init/terminal/config/Src/stm32h7xx_hal_msp.c **** 	else if(htim_base->Instance==TIM4)
 865              		.loc 1 369 7 is_stmt 1 view .LVU235
 866              		.loc 1 369 9 is_stmt 0 view .LVU236
 867 0012 214A     		ldr	r2, .L59+4
 868 0014 9342     		cmp	r3, r2
 869 0016 2ED0     		beq	.L58
 870              	.LVL50:
 871              	.L51:
 370:../../../init/terminal/config/Src/stm32h7xx_hal_msp.c **** 	{
 371:../../../init/terminal/config/Src/stm32h7xx_hal_msp.c **** 	/* Peripheral clock enable */
 372:../../../init/terminal/config/Src/stm32h7xx_hal_msp.c **** 	__HAL_RCC_TIM4_CLK_ENABLE();
 373:../../../init/terminal/config/Src/stm32h7xx_hal_msp.c **** 	}
 374:../../../init/terminal/config/Src/stm32h7xx_hal_msp.c **** 
 375:../../../init/terminal/config/Src/stm32h7xx_hal_msp.c **** } /* HAL_TIM_Base_MspInit */
 872              		.loc 1 375 1 view .LVU237
 873 0018 05B0     		add	sp, sp, #20
 874              	.LCFI19:
 875              		.cfi_remember_state
 876              		.cfi_def_cfa_offset 4
 877              		@ sp needed
 878 001a 5DF804FB 		ldr	pc, [sp], #4
 879              	.LVL51:
 880              	.L56:
 881              	.LCFI20:
 882              		.cfi_restore_state
 356:../../../init/terminal/config/Src/stm32h7xx_hal_msp.c **** 	/* TIM2 interrupt Init */
 883              		.loc 1 356 2 is_stmt 1 view .LVU238
 884              	.LBB12:
 356:../../../init/terminal/config/Src/stm32h7xx_hal_msp.c **** 	/* TIM2 interrupt Init */
 885              		.loc 1 356 2 view .LVU239
 356:../../../init/terminal/config/Src/stm32h7xx_hal_msp.c **** 	/* TIM2 interrupt Init */
 886              		.loc 1 356 2 view .LVU240
 887 001e 1F4B     		ldr	r3, .L59+8
 888 0020 D3F8E820 		ldr	r2, [r3, #232]
 889 0024 42F00102 		orr	r2, r2, #1
 890 0028 C3F8E820 		str	r2, [r3, #232]
 356:../../../init/terminal/config/Src/stm32h7xx_hal_msp.c **** 	/* TIM2 interrupt Init */
 891              		.loc 1 356 2 view .LVU241
 892 002c D3F8E830 		ldr	r3, [r3, #232]
 893 0030 03F00103 		and	r3, r3, #1
 894 0034 0193     		str	r3, [sp, #4]
 356:../../../init/terminal/config/Src/stm32h7xx_hal_msp.c **** 	/* TIM2 interrupt Init */
 895              		.loc 1 356 2 view .LVU242
 896 0036 019B     		ldr	r3, [sp, #4]
 897              	.LBE12:
 356:../../../init/terminal/config/Src/stm32h7xx_hal_msp.c **** 	/* TIM2 interrupt Init */
ARM GAS  /tmp/ccYU2yCl.s 			page 26


 898              		.loc 1 356 2 view .LVU243
 358:../../../init/terminal/config/Src/stm32h7xx_hal_msp.c **** 	HAL_NVIC_EnableIRQ(TIM2_IRQn);
 899              		.loc 1 358 2 view .LVU244
 900 0038 0022     		movs	r2, #0
 901 003a 1146     		mov	r1, r2
 902 003c 1C20     		movs	r0, #28
 903              	.LVL52:
 358:../../../init/terminal/config/Src/stm32h7xx_hal_msp.c **** 	HAL_NVIC_EnableIRQ(TIM2_IRQn);
 904              		.loc 1 358 2 is_stmt 0 view .LVU245
 905 003e FFF7FEFF 		bl	HAL_NVIC_SetPriority
 906              	.LVL53:
 359:../../../init/terminal/config/Src/stm32h7xx_hal_msp.c **** 	}
 907              		.loc 1 359 2 is_stmt 1 view .LVU246
 908 0042 1C20     		movs	r0, #28
 909 0044 FFF7FEFF 		bl	HAL_NVIC_EnableIRQ
 910              	.LVL54:
 911 0048 E6E7     		b	.L51
 912              	.LVL55:
 913              	.L57:
 364:../../../init/terminal/config/Src/stm32h7xx_hal_msp.c **** 	/* TIM3 interrupt Init */
 914              		.loc 1 364 2 view .LVU247
 915              	.LBB13:
 364:../../../init/terminal/config/Src/stm32h7xx_hal_msp.c **** 	/* TIM3 interrupt Init */
 916              		.loc 1 364 2 view .LVU248
 364:../../../init/terminal/config/Src/stm32h7xx_hal_msp.c **** 	/* TIM3 interrupt Init */
 917              		.loc 1 364 2 view .LVU249
 918 004a 144B     		ldr	r3, .L59+8
 919 004c D3F8E820 		ldr	r2, [r3, #232]
 920 0050 42F00202 		orr	r2, r2, #2
 921 0054 C3F8E820 		str	r2, [r3, #232]
 364:../../../init/terminal/config/Src/stm32h7xx_hal_msp.c **** 	/* TIM3 interrupt Init */
 922              		.loc 1 364 2 view .LVU250
 923 0058 D3F8E830 		ldr	r3, [r3, #232]
 924 005c 03F00203 		and	r3, r3, #2
 925 0060 0293     		str	r3, [sp, #8]
 364:../../../init/terminal/config/Src/stm32h7xx_hal_msp.c **** 	/* TIM3 interrupt Init */
 926              		.loc 1 364 2 view .LVU251
 927 0062 029B     		ldr	r3, [sp, #8]
 928              	.LBE13:
 364:../../../init/terminal/config/Src/stm32h7xx_hal_msp.c **** 	/* TIM3 interrupt Init */
 929              		.loc 1 364 2 view .LVU252
 366:../../../init/terminal/config/Src/stm32h7xx_hal_msp.c **** 	HAL_NVIC_EnableIRQ(TIM3_IRQn);
 930              		.loc 1 366 2 view .LVU253
 931 0064 0022     		movs	r2, #0
 932 0066 1146     		mov	r1, r2
 933 0068 1D20     		movs	r0, #29
 934              	.LVL56:
 366:../../../init/terminal/config/Src/stm32h7xx_hal_msp.c **** 	HAL_NVIC_EnableIRQ(TIM3_IRQn);
 935              		.loc 1 366 2 is_stmt 0 view .LVU254
 936 006a FFF7FEFF 		bl	HAL_NVIC_SetPriority
 937              	.LVL57:
 367:../../../init/terminal/config/Src/stm32h7xx_hal_msp.c **** 	}
 938              		.loc 1 367 2 is_stmt 1 view .LVU255
 939 006e 1D20     		movs	r0, #29
 940 0070 FFF7FEFF 		bl	HAL_NVIC_EnableIRQ
 941              	.LVL58:
 942 0074 D0E7     		b	.L51
ARM GAS  /tmp/ccYU2yCl.s 			page 27


 943              	.LVL59:
 944              	.L58:
 372:../../../init/terminal/config/Src/stm32h7xx_hal_msp.c **** 	}
 945              		.loc 1 372 2 view .LVU256
 946              	.LBB14:
 372:../../../init/terminal/config/Src/stm32h7xx_hal_msp.c **** 	}
 947              		.loc 1 372 2 view .LVU257
 372:../../../init/terminal/config/Src/stm32h7xx_hal_msp.c **** 	}
 948              		.loc 1 372 2 view .LVU258
 949 0076 094B     		ldr	r3, .L59+8
 950 0078 D3F8E820 		ldr	r2, [r3, #232]
 951 007c 42F00402 		orr	r2, r2, #4
 952 0080 C3F8E820 		str	r2, [r3, #232]
 372:../../../init/terminal/config/Src/stm32h7xx_hal_msp.c **** 	}
 953              		.loc 1 372 2 view .LVU259
 954 0084 D3F8E830 		ldr	r3, [r3, #232]
 955 0088 03F00403 		and	r3, r3, #4
 956 008c 0393     		str	r3, [sp, #12]
 372:../../../init/terminal/config/Src/stm32h7xx_hal_msp.c **** 	}
 957              		.loc 1 372 2 view .LVU260
 958 008e 039B     		ldr	r3, [sp, #12]
 959              	.LBE14:
 372:../../../init/terminal/config/Src/stm32h7xx_hal_msp.c **** 	}
 960              		.loc 1 372 2 view .LVU261
 961              		.loc 1 375 1 is_stmt 0 view .LVU262
 962 0090 C2E7     		b	.L51
 963              	.L60:
 964 0092 00BF     		.align	2
 965              	.L59:
 966 0094 00040040 		.word	1073742848
 967 0098 00080040 		.word	1073743872
 968 009c 00440258 		.word	1476543488
 969              		.cfi_endproc
 970              	.LFE151:
 972              		.section	.text.HAL_TIM_MspPostInit,"ax",%progbits
 973              		.align	1
 974              		.global	HAL_TIM_MspPostInit
 975              		.syntax unified
 976              		.thumb
 977              		.thumb_func
 979              	HAL_TIM_MspPostInit:
 980              	.LVL60:
 981              	.LFB152:
 376:../../../init/terminal/config/Src/stm32h7xx_hal_msp.c **** 
 377:../../../init/terminal/config/Src/stm32h7xx_hal_msp.c **** 
 378:../../../init/terminal/config/Src/stm32h7xx_hal_msp.c **** /*******************************************************************************
 379:../../../init/terminal/config/Src/stm32h7xx_hal_msp.c **** *                                                                              *
 380:../../../init/terminal/config/Src/stm32h7xx_hal_msp.c **** * PROCEDURE:                                                                   *
 381:../../../init/terminal/config/Src/stm32h7xx_hal_msp.c **** *       HAL_TIM_MspPostInit                                                    *
 382:../../../init/terminal/config/Src/stm32h7xx_hal_msp.c **** *                                                                              *
 383:../../../init/terminal/config/Src/stm32h7xx_hal_msp.c **** * DESCRIPTION:                                                                 *
 384:../../../init/terminal/config/Src/stm32h7xx_hal_msp.c **** *       Timer PWM MSP Post Initialization setup                                *
 385:../../../init/terminal/config/Src/stm32h7xx_hal_msp.c **** *                                                                              *
 386:../../../init/terminal/config/Src/stm32h7xx_hal_msp.c **** *******************************************************************************/
 387:../../../init/terminal/config/Src/stm32h7xx_hal_msp.c **** void HAL_TIM_MspPostInit
 388:../../../init/terminal/config/Src/stm32h7xx_hal_msp.c **** 	(
 389:../../../init/terminal/config/Src/stm32h7xx_hal_msp.c **** 	TIM_HandleTypeDef* htim
ARM GAS  /tmp/ccYU2yCl.s 			page 28


 390:../../../init/terminal/config/Src/stm32h7xx_hal_msp.c **** 	)
 391:../../../init/terminal/config/Src/stm32h7xx_hal_msp.c **** {
 982              		.loc 1 391 1 is_stmt 1 view -0
 983              		.cfi_startproc
 984              		@ args = 0, pretend = 0, frame = 40
 985              		@ frame_needed = 0, uses_anonymous_args = 0
 986              		.loc 1 391 1 is_stmt 0 view .LVU264
 987 0000 10B5     		push	{r4, lr}
 988              	.LCFI21:
 989              		.cfi_def_cfa_offset 8
 990              		.cfi_offset 4, -8
 991              		.cfi_offset 14, -4
 992 0002 8AB0     		sub	sp, sp, #40
 993              	.LCFI22:
 994              		.cfi_def_cfa_offset 48
 392:../../../init/terminal/config/Src/stm32h7xx_hal_msp.c **** GPIO_InitTypeDef GPIO_InitStruct = {0};
 995              		.loc 1 392 1 is_stmt 1 view .LVU265
 996              		.loc 1 392 18 is_stmt 0 view .LVU266
 997 0004 0023     		movs	r3, #0
 998 0006 0593     		str	r3, [sp, #20]
 999 0008 0693     		str	r3, [sp, #24]
 1000 000a 0793     		str	r3, [sp, #28]
 1001 000c 0893     		str	r3, [sp, #32]
 1002 000e 0993     		str	r3, [sp, #36]
 393:../../../init/terminal/config/Src/stm32h7xx_hal_msp.c **** if(htim->Instance==TIM2)
 1003              		.loc 1 393 1 is_stmt 1 view .LVU267
 1004              		.loc 1 393 8 is_stmt 0 view .LVU268
 1005 0010 0368     		ldr	r3, [r0]
 1006              		.loc 1 393 3 view .LVU269
 1007 0012 B3F1804F 		cmp	r3, #1073741824
 1008 0016 07D0     		beq	.L66
 394:../../../init/terminal/config/Src/stm32h7xx_hal_msp.c **** 	{
 395:../../../init/terminal/config/Src/stm32h7xx_hal_msp.c **** 	__HAL_RCC_GPIOA_CLK_ENABLE();
 396:../../../init/terminal/config/Src/stm32h7xx_hal_msp.c **** 	/**TIM2 GPIO Configuration
 397:../../../init/terminal/config/Src/stm32h7xx_hal_msp.c **** 	PA5     ------> TIM2_CH1
 398:../../../init/terminal/config/Src/stm32h7xx_hal_msp.c **** 	*/
 399:../../../init/terminal/config/Src/stm32h7xx_hal_msp.c **** 	GPIO_InitStruct.Pin = GPIO_PIN_5;
 400:../../../init/terminal/config/Src/stm32h7xx_hal_msp.c **** 	GPIO_InitStruct.Mode = GPIO_MODE_AF_PP;
 401:../../../init/terminal/config/Src/stm32h7xx_hal_msp.c **** 	GPIO_InitStruct.Pull = GPIO_NOPULL;
 402:../../../init/terminal/config/Src/stm32h7xx_hal_msp.c **** 	GPIO_InitStruct.Speed = GPIO_SPEED_FREQ_LOW;
 403:../../../init/terminal/config/Src/stm32h7xx_hal_msp.c **** 	GPIO_InitStruct.Alternate = GPIO_AF1_TIM2;
 404:../../../init/terminal/config/Src/stm32h7xx_hal_msp.c **** 	HAL_GPIO_Init(GPIOA, &GPIO_InitStruct);
 405:../../../init/terminal/config/Src/stm32h7xx_hal_msp.c **** 
 406:../../../init/terminal/config/Src/stm32h7xx_hal_msp.c **** 	}
 407:../../../init/terminal/config/Src/stm32h7xx_hal_msp.c **** else if(htim->Instance==TIM3)
 1009              		.loc 1 407 6 is_stmt 1 view .LVU270
 1010              		.loc 1 407 8 is_stmt 0 view .LVU271
 1011 0018 324A     		ldr	r2, .L69
 1012 001a 9342     		cmp	r3, r2
 1013 001c 1CD0     		beq	.L67
 408:../../../init/terminal/config/Src/stm32h7xx_hal_msp.c **** 	{
 409:../../../init/terminal/config/Src/stm32h7xx_hal_msp.c **** 	__HAL_RCC_GPIOA_CLK_ENABLE();
 410:../../../init/terminal/config/Src/stm32h7xx_hal_msp.c **** 	__HAL_RCC_GPIOB_CLK_ENABLE();
 411:../../../init/terminal/config/Src/stm32h7xx_hal_msp.c **** 	/**TIM3 GPIO Configuration
 412:../../../init/terminal/config/Src/stm32h7xx_hal_msp.c **** 	PA6     ------> TIM3_CH1
 413:../../../init/terminal/config/Src/stm32h7xx_hal_msp.c **** 	PB0     ------> TIM3_CH3
 414:../../../init/terminal/config/Src/stm32h7xx_hal_msp.c **** 	PB1     ------> TIM3_CH4
ARM GAS  /tmp/ccYU2yCl.s 			page 29


 415:../../../init/terminal/config/Src/stm32h7xx_hal_msp.c **** 	*/
 416:../../../init/terminal/config/Src/stm32h7xx_hal_msp.c **** 	GPIO_InitStruct.Pin = GPIO_PIN_6;
 417:../../../init/terminal/config/Src/stm32h7xx_hal_msp.c **** 	GPIO_InitStruct.Mode = GPIO_MODE_AF_PP;
 418:../../../init/terminal/config/Src/stm32h7xx_hal_msp.c **** 	GPIO_InitStruct.Pull = GPIO_NOPULL;
 419:../../../init/terminal/config/Src/stm32h7xx_hal_msp.c **** 	GPIO_InitStruct.Speed = GPIO_SPEED_FREQ_LOW;
 420:../../../init/terminal/config/Src/stm32h7xx_hal_msp.c **** 	GPIO_InitStruct.Alternate = GPIO_AF2_TIM3;
 421:../../../init/terminal/config/Src/stm32h7xx_hal_msp.c **** 	HAL_GPIO_Init(GPIOA, &GPIO_InitStruct);
 422:../../../init/terminal/config/Src/stm32h7xx_hal_msp.c **** 
 423:../../../init/terminal/config/Src/stm32h7xx_hal_msp.c **** 	GPIO_InitStruct.Pin = GPIO_PIN_0|GPIO_PIN_1;
 424:../../../init/terminal/config/Src/stm32h7xx_hal_msp.c **** 	GPIO_InitStruct.Mode = GPIO_MODE_AF_PP;
 425:../../../init/terminal/config/Src/stm32h7xx_hal_msp.c **** 	GPIO_InitStruct.Pull = GPIO_NOPULL;
 426:../../../init/terminal/config/Src/stm32h7xx_hal_msp.c **** 	GPIO_InitStruct.Speed = GPIO_SPEED_FREQ_LOW;
 427:../../../init/terminal/config/Src/stm32h7xx_hal_msp.c **** 	GPIO_InitStruct.Alternate = GPIO_AF2_TIM3;
 428:../../../init/terminal/config/Src/stm32h7xx_hal_msp.c **** 	HAL_GPIO_Init(GPIOB, &GPIO_InitStruct);
 429:../../../init/terminal/config/Src/stm32h7xx_hal_msp.c **** 	}
 430:../../../init/terminal/config/Src/stm32h7xx_hal_msp.c **** else if(htim->Instance==TIM4)
 1014              		.loc 1 430 6 is_stmt 1 view .LVU272
 1015              		.loc 1 430 8 is_stmt 0 view .LVU273
 1016 001e 324A     		ldr	r2, .L69+4
 1017 0020 9342     		cmp	r3, r2
 1018 0022 47D0     		beq	.L68
 1019              	.LVL61:
 1020              	.L61:
 431:../../../init/terminal/config/Src/stm32h7xx_hal_msp.c **** 	{
 432:../../../init/terminal/config/Src/stm32h7xx_hal_msp.c **** 	__HAL_RCC_GPIOD_CLK_ENABLE();
 433:../../../init/terminal/config/Src/stm32h7xx_hal_msp.c **** 	/**TIM4 GPIO Configuration
 434:../../../init/terminal/config/Src/stm32h7xx_hal_msp.c **** 	PD14     ------> TIM4_CH3
 435:../../../init/terminal/config/Src/stm32h7xx_hal_msp.c **** 	*/
 436:../../../init/terminal/config/Src/stm32h7xx_hal_msp.c **** 	GPIO_InitStruct.Pin = GPIO_PIN_14;
 437:../../../init/terminal/config/Src/stm32h7xx_hal_msp.c **** 	GPIO_InitStruct.Mode = GPIO_MODE_AF_PP;
 438:../../../init/terminal/config/Src/stm32h7xx_hal_msp.c **** 	GPIO_InitStruct.Pull = GPIO_NOPULL;
 439:../../../init/terminal/config/Src/stm32h7xx_hal_msp.c **** 	GPIO_InitStruct.Speed = GPIO_SPEED_FREQ_LOW;
 440:../../../init/terminal/config/Src/stm32h7xx_hal_msp.c **** 	GPIO_InitStruct.Alternate = GPIO_AF2_TIM4;
 441:../../../init/terminal/config/Src/stm32h7xx_hal_msp.c **** 	HAL_GPIO_Init(GPIOD, &GPIO_InitStruct);
 442:../../../init/terminal/config/Src/stm32h7xx_hal_msp.c **** 	}
 443:../../../init/terminal/config/Src/stm32h7xx_hal_msp.c **** } /* HAL_TIM_MspPostInit */
 1021              		.loc 1 443 1 view .LVU274
 1022 0024 0AB0     		add	sp, sp, #40
 1023              	.LCFI23:
 1024              		.cfi_remember_state
 1025              		.cfi_def_cfa_offset 8
 1026              		@ sp needed
 1027 0026 10BD     		pop	{r4, pc}
 1028              	.LVL62:
 1029              	.L66:
 1030              	.LCFI24:
 1031              		.cfi_restore_state
 395:../../../init/terminal/config/Src/stm32h7xx_hal_msp.c **** 	/**TIM2 GPIO Configuration
 1032              		.loc 1 395 2 is_stmt 1 view .LVU275
 1033              	.LBB15:
 395:../../../init/terminal/config/Src/stm32h7xx_hal_msp.c **** 	/**TIM2 GPIO Configuration
 1034              		.loc 1 395 2 view .LVU276
 395:../../../init/terminal/config/Src/stm32h7xx_hal_msp.c **** 	/**TIM2 GPIO Configuration
 1035              		.loc 1 395 2 view .LVU277
 1036 0028 304B     		ldr	r3, .L69+8
 1037 002a D3F8E020 		ldr	r2, [r3, #224]
 1038 002e 42F00102 		orr	r2, r2, #1
ARM GAS  /tmp/ccYU2yCl.s 			page 30


 1039 0032 C3F8E020 		str	r2, [r3, #224]
 395:../../../init/terminal/config/Src/stm32h7xx_hal_msp.c **** 	/**TIM2 GPIO Configuration
 1040              		.loc 1 395 2 view .LVU278
 1041 0036 D3F8E030 		ldr	r3, [r3, #224]
 1042 003a 03F00103 		and	r3, r3, #1
 1043 003e 0193     		str	r3, [sp, #4]
 395:../../../init/terminal/config/Src/stm32h7xx_hal_msp.c **** 	/**TIM2 GPIO Configuration
 1044              		.loc 1 395 2 view .LVU279
 1045 0040 019B     		ldr	r3, [sp, #4]
 1046              	.LBE15:
 395:../../../init/terminal/config/Src/stm32h7xx_hal_msp.c **** 	/**TIM2 GPIO Configuration
 1047              		.loc 1 395 2 view .LVU280
 399:../../../init/terminal/config/Src/stm32h7xx_hal_msp.c **** 	GPIO_InitStruct.Mode = GPIO_MODE_AF_PP;
 1048              		.loc 1 399 2 view .LVU281
 399:../../../init/terminal/config/Src/stm32h7xx_hal_msp.c **** 	GPIO_InitStruct.Mode = GPIO_MODE_AF_PP;
 1049              		.loc 1 399 22 is_stmt 0 view .LVU282
 1050 0042 2023     		movs	r3, #32
 1051 0044 0593     		str	r3, [sp, #20]
 400:../../../init/terminal/config/Src/stm32h7xx_hal_msp.c **** 	GPIO_InitStruct.Pull = GPIO_NOPULL;
 1052              		.loc 1 400 2 is_stmt 1 view .LVU283
 400:../../../init/terminal/config/Src/stm32h7xx_hal_msp.c **** 	GPIO_InitStruct.Pull = GPIO_NOPULL;
 1053              		.loc 1 400 23 is_stmt 0 view .LVU284
 1054 0046 0223     		movs	r3, #2
 1055 0048 0693     		str	r3, [sp, #24]
 401:../../../init/terminal/config/Src/stm32h7xx_hal_msp.c **** 	GPIO_InitStruct.Speed = GPIO_SPEED_FREQ_LOW;
 1056              		.loc 1 401 2 is_stmt 1 view .LVU285
 402:../../../init/terminal/config/Src/stm32h7xx_hal_msp.c **** 	GPIO_InitStruct.Alternate = GPIO_AF1_TIM2;
 1057              		.loc 1 402 2 view .LVU286
 403:../../../init/terminal/config/Src/stm32h7xx_hal_msp.c **** 	HAL_GPIO_Init(GPIOA, &GPIO_InitStruct);
 1058              		.loc 1 403 2 view .LVU287
 403:../../../init/terminal/config/Src/stm32h7xx_hal_msp.c **** 	HAL_GPIO_Init(GPIOA, &GPIO_InitStruct);
 1059              		.loc 1 403 28 is_stmt 0 view .LVU288
 1060 004a 0123     		movs	r3, #1
 1061 004c 0993     		str	r3, [sp, #36]
 404:../../../init/terminal/config/Src/stm32h7xx_hal_msp.c **** 
 1062              		.loc 1 404 2 is_stmt 1 view .LVU289
 1063 004e 05A9     		add	r1, sp, #20
 1064 0050 2748     		ldr	r0, .L69+12
 1065              	.LVL63:
 404:../../../init/terminal/config/Src/stm32h7xx_hal_msp.c **** 
 1066              		.loc 1 404 2 is_stmt 0 view .LVU290
 1067 0052 FFF7FEFF 		bl	HAL_GPIO_Init
 1068              	.LVL64:
 1069 0056 E5E7     		b	.L61
 1070              	.LVL65:
 1071              	.L67:
 409:../../../init/terminal/config/Src/stm32h7xx_hal_msp.c **** 	__HAL_RCC_GPIOB_CLK_ENABLE();
 1072              		.loc 1 409 2 is_stmt 1 view .LVU291
 1073              	.LBB16:
 409:../../../init/terminal/config/Src/stm32h7xx_hal_msp.c **** 	__HAL_RCC_GPIOB_CLK_ENABLE();
 1074              		.loc 1 409 2 view .LVU292
 409:../../../init/terminal/config/Src/stm32h7xx_hal_msp.c **** 	__HAL_RCC_GPIOB_CLK_ENABLE();
 1075              		.loc 1 409 2 view .LVU293
 1076 0058 244B     		ldr	r3, .L69+8
 1077 005a D3F8E020 		ldr	r2, [r3, #224]
 1078 005e 42F00102 		orr	r2, r2, #1
 1079 0062 C3F8E020 		str	r2, [r3, #224]
ARM GAS  /tmp/ccYU2yCl.s 			page 31


 409:../../../init/terminal/config/Src/stm32h7xx_hal_msp.c **** 	__HAL_RCC_GPIOB_CLK_ENABLE();
 1080              		.loc 1 409 2 view .LVU294
 1081 0066 D3F8E020 		ldr	r2, [r3, #224]
 1082 006a 02F00102 		and	r2, r2, #1
 1083 006e 0292     		str	r2, [sp, #8]
 409:../../../init/terminal/config/Src/stm32h7xx_hal_msp.c **** 	__HAL_RCC_GPIOB_CLK_ENABLE();
 1084              		.loc 1 409 2 view .LVU295
 1085 0070 029A     		ldr	r2, [sp, #8]
 1086              	.LBE16:
 409:../../../init/terminal/config/Src/stm32h7xx_hal_msp.c **** 	__HAL_RCC_GPIOB_CLK_ENABLE();
 1087              		.loc 1 409 2 view .LVU296
 410:../../../init/terminal/config/Src/stm32h7xx_hal_msp.c **** 	/**TIM3 GPIO Configuration
 1088              		.loc 1 410 2 view .LVU297
 1089              	.LBB17:
 410:../../../init/terminal/config/Src/stm32h7xx_hal_msp.c **** 	/**TIM3 GPIO Configuration
 1090              		.loc 1 410 2 view .LVU298
 410:../../../init/terminal/config/Src/stm32h7xx_hal_msp.c **** 	/**TIM3 GPIO Configuration
 1091              		.loc 1 410 2 view .LVU299
 1092 0072 D3F8E020 		ldr	r2, [r3, #224]
 1093 0076 42F00202 		orr	r2, r2, #2
 1094 007a C3F8E020 		str	r2, [r3, #224]
 410:../../../init/terminal/config/Src/stm32h7xx_hal_msp.c **** 	/**TIM3 GPIO Configuration
 1095              		.loc 1 410 2 view .LVU300
 1096 007e D3F8E030 		ldr	r3, [r3, #224]
 1097 0082 03F00203 		and	r3, r3, #2
 1098 0086 0393     		str	r3, [sp, #12]
 410:../../../init/terminal/config/Src/stm32h7xx_hal_msp.c **** 	/**TIM3 GPIO Configuration
 1099              		.loc 1 410 2 view .LVU301
 1100 0088 039B     		ldr	r3, [sp, #12]
 1101              	.LBE17:
 410:../../../init/terminal/config/Src/stm32h7xx_hal_msp.c **** 	/**TIM3 GPIO Configuration
 1102              		.loc 1 410 2 view .LVU302
 416:../../../init/terminal/config/Src/stm32h7xx_hal_msp.c **** 	GPIO_InitStruct.Mode = GPIO_MODE_AF_PP;
 1103              		.loc 1 416 2 view .LVU303
 416:../../../init/terminal/config/Src/stm32h7xx_hal_msp.c **** 	GPIO_InitStruct.Mode = GPIO_MODE_AF_PP;
 1104              		.loc 1 416 22 is_stmt 0 view .LVU304
 1105 008a 4023     		movs	r3, #64
 1106 008c 0593     		str	r3, [sp, #20]
 417:../../../init/terminal/config/Src/stm32h7xx_hal_msp.c **** 	GPIO_InitStruct.Pull = GPIO_NOPULL;
 1107              		.loc 1 417 2 is_stmt 1 view .LVU305
 417:../../../init/terminal/config/Src/stm32h7xx_hal_msp.c **** 	GPIO_InitStruct.Pull = GPIO_NOPULL;
 1108              		.loc 1 417 23 is_stmt 0 view .LVU306
 1109 008e 0224     		movs	r4, #2
 1110 0090 0694     		str	r4, [sp, #24]
 418:../../../init/terminal/config/Src/stm32h7xx_hal_msp.c **** 	GPIO_InitStruct.Speed = GPIO_SPEED_FREQ_LOW;
 1111              		.loc 1 418 2 is_stmt 1 view .LVU307
 419:../../../init/terminal/config/Src/stm32h7xx_hal_msp.c **** 	GPIO_InitStruct.Alternate = GPIO_AF2_TIM3;
 1112              		.loc 1 419 2 view .LVU308
 420:../../../init/terminal/config/Src/stm32h7xx_hal_msp.c **** 	HAL_GPIO_Init(GPIOA, &GPIO_InitStruct);
 1113              		.loc 1 420 2 view .LVU309
 420:../../../init/terminal/config/Src/stm32h7xx_hal_msp.c **** 	HAL_GPIO_Init(GPIOA, &GPIO_InitStruct);
 1114              		.loc 1 420 28 is_stmt 0 view .LVU310
 1115 0092 0994     		str	r4, [sp, #36]
 421:../../../init/terminal/config/Src/stm32h7xx_hal_msp.c **** 
 1116              		.loc 1 421 2 is_stmt 1 view .LVU311
 1117 0094 05A9     		add	r1, sp, #20
 1118 0096 1648     		ldr	r0, .L69+12
ARM GAS  /tmp/ccYU2yCl.s 			page 32


 1119              	.LVL66:
 421:../../../init/terminal/config/Src/stm32h7xx_hal_msp.c **** 
 1120              		.loc 1 421 2 is_stmt 0 view .LVU312
 1121 0098 FFF7FEFF 		bl	HAL_GPIO_Init
 1122              	.LVL67:
 423:../../../init/terminal/config/Src/stm32h7xx_hal_msp.c **** 	GPIO_InitStruct.Mode = GPIO_MODE_AF_PP;
 1123              		.loc 1 423 2 is_stmt 1 view .LVU313
 423:../../../init/terminal/config/Src/stm32h7xx_hal_msp.c **** 	GPIO_InitStruct.Mode = GPIO_MODE_AF_PP;
 1124              		.loc 1 423 22 is_stmt 0 view .LVU314
 1125 009c 0323     		movs	r3, #3
 1126 009e 0593     		str	r3, [sp, #20]
 424:../../../init/terminal/config/Src/stm32h7xx_hal_msp.c **** 	GPIO_InitStruct.Pull = GPIO_NOPULL;
 1127              		.loc 1 424 2 is_stmt 1 view .LVU315
 424:../../../init/terminal/config/Src/stm32h7xx_hal_msp.c **** 	GPIO_InitStruct.Pull = GPIO_NOPULL;
 1128              		.loc 1 424 23 is_stmt 0 view .LVU316
 1129 00a0 0694     		str	r4, [sp, #24]
 425:../../../init/terminal/config/Src/stm32h7xx_hal_msp.c **** 	GPIO_InitStruct.Speed = GPIO_SPEED_FREQ_LOW;
 1130              		.loc 1 425 2 is_stmt 1 view .LVU317
 425:../../../init/terminal/config/Src/stm32h7xx_hal_msp.c **** 	GPIO_InitStruct.Speed = GPIO_SPEED_FREQ_LOW;
 1131              		.loc 1 425 23 is_stmt 0 view .LVU318
 1132 00a2 0023     		movs	r3, #0
 1133 00a4 0793     		str	r3, [sp, #28]
 426:../../../init/terminal/config/Src/stm32h7xx_hal_msp.c **** 	GPIO_InitStruct.Alternate = GPIO_AF2_TIM3;
 1134              		.loc 1 426 2 is_stmt 1 view .LVU319
 426:../../../init/terminal/config/Src/stm32h7xx_hal_msp.c **** 	GPIO_InitStruct.Alternate = GPIO_AF2_TIM3;
 1135              		.loc 1 426 24 is_stmt 0 view .LVU320
 1136 00a6 0893     		str	r3, [sp, #32]
 427:../../../init/terminal/config/Src/stm32h7xx_hal_msp.c **** 	HAL_GPIO_Init(GPIOB, &GPIO_InitStruct);
 1137              		.loc 1 427 2 is_stmt 1 view .LVU321
 427:../../../init/terminal/config/Src/stm32h7xx_hal_msp.c **** 	HAL_GPIO_Init(GPIOB, &GPIO_InitStruct);
 1138              		.loc 1 427 28 is_stmt 0 view .LVU322
 1139 00a8 0994     		str	r4, [sp, #36]
 428:../../../init/terminal/config/Src/stm32h7xx_hal_msp.c **** 	}
 1140              		.loc 1 428 2 is_stmt 1 view .LVU323
 1141 00aa 05A9     		add	r1, sp, #20
 1142 00ac 1148     		ldr	r0, .L69+16
 1143 00ae FFF7FEFF 		bl	HAL_GPIO_Init
 1144              	.LVL68:
 1145 00b2 B7E7     		b	.L61
 1146              	.LVL69:
 1147              	.L68:
 432:../../../init/terminal/config/Src/stm32h7xx_hal_msp.c **** 	/**TIM4 GPIO Configuration
 1148              		.loc 1 432 2 view .LVU324
 1149              	.LBB18:
 432:../../../init/terminal/config/Src/stm32h7xx_hal_msp.c **** 	/**TIM4 GPIO Configuration
 1150              		.loc 1 432 2 view .LVU325
 432:../../../init/terminal/config/Src/stm32h7xx_hal_msp.c **** 	/**TIM4 GPIO Configuration
 1151              		.loc 1 432 2 view .LVU326
 1152 00b4 0D4B     		ldr	r3, .L69+8
 1153 00b6 D3F8E020 		ldr	r2, [r3, #224]
 1154 00ba 42F00802 		orr	r2, r2, #8
 1155 00be C3F8E020 		str	r2, [r3, #224]
 432:../../../init/terminal/config/Src/stm32h7xx_hal_msp.c **** 	/**TIM4 GPIO Configuration
 1156              		.loc 1 432 2 view .LVU327
 1157 00c2 D3F8E030 		ldr	r3, [r3, #224]
 1158 00c6 03F00803 		and	r3, r3, #8
 1159 00ca 0493     		str	r3, [sp, #16]
ARM GAS  /tmp/ccYU2yCl.s 			page 33


 432:../../../init/terminal/config/Src/stm32h7xx_hal_msp.c **** 	/**TIM4 GPIO Configuration
 1160              		.loc 1 432 2 view .LVU328
 1161 00cc 049B     		ldr	r3, [sp, #16]
 1162              	.LBE18:
 432:../../../init/terminal/config/Src/stm32h7xx_hal_msp.c **** 	/**TIM4 GPIO Configuration
 1163              		.loc 1 432 2 view .LVU329
 436:../../../init/terminal/config/Src/stm32h7xx_hal_msp.c **** 	GPIO_InitStruct.Mode = GPIO_MODE_AF_PP;
 1164              		.loc 1 436 2 view .LVU330
 436:../../../init/terminal/config/Src/stm32h7xx_hal_msp.c **** 	GPIO_InitStruct.Mode = GPIO_MODE_AF_PP;
 1165              		.loc 1 436 22 is_stmt 0 view .LVU331
 1166 00ce 4FF48043 		mov	r3, #16384
 1167 00d2 0593     		str	r3, [sp, #20]
 437:../../../init/terminal/config/Src/stm32h7xx_hal_msp.c **** 	GPIO_InitStruct.Pull = GPIO_NOPULL;
 1168              		.loc 1 437 2 is_stmt 1 view .LVU332
 437:../../../init/terminal/config/Src/stm32h7xx_hal_msp.c **** 	GPIO_InitStruct.Pull = GPIO_NOPULL;
 1169              		.loc 1 437 23 is_stmt 0 view .LVU333
 1170 00d4 0223     		movs	r3, #2
 1171 00d6 0693     		str	r3, [sp, #24]
 438:../../../init/terminal/config/Src/stm32h7xx_hal_msp.c **** 	GPIO_InitStruct.Speed = GPIO_SPEED_FREQ_LOW;
 1172              		.loc 1 438 2 is_stmt 1 view .LVU334
 439:../../../init/terminal/config/Src/stm32h7xx_hal_msp.c **** 	GPIO_InitStruct.Alternate = GPIO_AF2_TIM4;
 1173              		.loc 1 439 2 view .LVU335
 440:../../../init/terminal/config/Src/stm32h7xx_hal_msp.c **** 	HAL_GPIO_Init(GPIOD, &GPIO_InitStruct);
 1174              		.loc 1 440 2 view .LVU336
 440:../../../init/terminal/config/Src/stm32h7xx_hal_msp.c **** 	HAL_GPIO_Init(GPIOD, &GPIO_InitStruct);
 1175              		.loc 1 440 28 is_stmt 0 view .LVU337
 1176 00d8 0993     		str	r3, [sp, #36]
 441:../../../init/terminal/config/Src/stm32h7xx_hal_msp.c **** 	}
 1177              		.loc 1 441 2 is_stmt 1 view .LVU338
 1178 00da 05A9     		add	r1, sp, #20
 1179 00dc 0648     		ldr	r0, .L69+20
 1180              	.LVL70:
 441:../../../init/terminal/config/Src/stm32h7xx_hal_msp.c **** 	}
 1181              		.loc 1 441 2 is_stmt 0 view .LVU339
 1182 00de FFF7FEFF 		bl	HAL_GPIO_Init
 1183              	.LVL71:
 1184              		.loc 1 443 1 view .LVU340
 1185 00e2 9FE7     		b	.L61
 1186              	.L70:
 1187              		.align	2
 1188              	.L69:
 1189 00e4 00040040 		.word	1073742848
 1190 00e8 00080040 		.word	1073743872
 1191 00ec 00440258 		.word	1476543488
 1192 00f0 00000258 		.word	1476526080
 1193 00f4 00040258 		.word	1476527104
 1194 00f8 000C0258 		.word	1476529152
 1195              		.cfi_endproc
 1196              	.LFE152:
 1198              		.section	.text.HAL_TIM_Base_MspDeInit,"ax",%progbits
 1199              		.align	1
 1200              		.global	HAL_TIM_Base_MspDeInit
 1201              		.syntax unified
 1202              		.thumb
 1203              		.thumb_func
 1205              	HAL_TIM_Base_MspDeInit:
 1206              	.LVL72:
ARM GAS  /tmp/ccYU2yCl.s 			page 34


 1207              	.LFB153:
 444:../../../init/terminal/config/Src/stm32h7xx_hal_msp.c **** 
 445:../../../init/terminal/config/Src/stm32h7xx_hal_msp.c **** 
 446:../../../init/terminal/config/Src/stm32h7xx_hal_msp.c **** /*******************************************************************************
 447:../../../init/terminal/config/Src/stm32h7xx_hal_msp.c **** *                                                                              *
 448:../../../init/terminal/config/Src/stm32h7xx_hal_msp.c **** * PROCEDURE:                                                                   *
 449:../../../init/terminal/config/Src/stm32h7xx_hal_msp.c **** *       HAL_TIM_Base_MspDeInit                                                 *
 450:../../../init/terminal/config/Src/stm32h7xx_hal_msp.c **** *                                                                              *
 451:../../../init/terminal/config/Src/stm32h7xx_hal_msp.c **** * DESCRIPTION:                                                                 *
 452:../../../init/terminal/config/Src/stm32h7xx_hal_msp.c **** *       brief TIM_Base MSP De-Initialization                                   *
 453:../../../init/terminal/config/Src/stm32h7xx_hal_msp.c **** *                                                                              *
 454:../../../init/terminal/config/Src/stm32h7xx_hal_msp.c **** *******************************************************************************/
 455:../../../init/terminal/config/Src/stm32h7xx_hal_msp.c **** void HAL_TIM_Base_MspDeInit
 456:../../../init/terminal/config/Src/stm32h7xx_hal_msp.c **** 	(
 457:../../../init/terminal/config/Src/stm32h7xx_hal_msp.c **** 	TIM_HandleTypeDef* htim_base
 458:../../../init/terminal/config/Src/stm32h7xx_hal_msp.c **** 	)
 459:../../../init/terminal/config/Src/stm32h7xx_hal_msp.c **** {
 1208              		.loc 1 459 1 is_stmt 1 view -0
 1209              		.cfi_startproc
 1210              		@ args = 0, pretend = 0, frame = 0
 1211              		@ frame_needed = 0, uses_anonymous_args = 0
 1212              		.loc 1 459 1 is_stmt 0 view .LVU342
 1213 0000 08B5     		push	{r3, lr}
 1214              	.LCFI25:
 1215              		.cfi_def_cfa_offset 8
 1216              		.cfi_offset 3, -8
 1217              		.cfi_offset 14, -4
 460:../../../init/terminal/config/Src/stm32h7xx_hal_msp.c **** if(htim_base->Instance==TIM2)
 1218              		.loc 1 460 1 is_stmt 1 view .LVU343
 1219              		.loc 1 460 13 is_stmt 0 view .LVU344
 1220 0002 0368     		ldr	r3, [r0]
 1221              		.loc 1 460 3 view .LVU345
 1222 0004 B3F1804F 		cmp	r3, #1073741824
 1223 0008 06D0     		beq	.L76
 461:../../../init/terminal/config/Src/stm32h7xx_hal_msp.c **** 	{
 462:../../../init/terminal/config/Src/stm32h7xx_hal_msp.c **** 	/* Peripheral clock disable */
 463:../../../init/terminal/config/Src/stm32h7xx_hal_msp.c **** 	__HAL_RCC_TIM2_CLK_DISABLE();
 464:../../../init/terminal/config/Src/stm32h7xx_hal_msp.c **** 
 465:../../../init/terminal/config/Src/stm32h7xx_hal_msp.c **** 	/* TIM2 interrupt DeInit */
 466:../../../init/terminal/config/Src/stm32h7xx_hal_msp.c **** 	HAL_NVIC_DisableIRQ(TIM2_IRQn);
 467:../../../init/terminal/config/Src/stm32h7xx_hal_msp.c **** 	}
 468:../../../init/terminal/config/Src/stm32h7xx_hal_msp.c **** else if(htim_base->Instance==TIM3)
 1224              		.loc 1 468 6 is_stmt 1 view .LVU346
 1225              		.loc 1 468 8 is_stmt 0 view .LVU347
 1226 000a 124A     		ldr	r2, .L79
 1227 000c 9342     		cmp	r3, r2
 1228 000e 0ED0     		beq	.L77
 469:../../../init/terminal/config/Src/stm32h7xx_hal_msp.c **** 	{
 470:../../../init/terminal/config/Src/stm32h7xx_hal_msp.c **** 	/* Peripheral clock disable */
 471:../../../init/terminal/config/Src/stm32h7xx_hal_msp.c **** 	__HAL_RCC_TIM3_CLK_DISABLE();
 472:../../../init/terminal/config/Src/stm32h7xx_hal_msp.c **** 
 473:../../../init/terminal/config/Src/stm32h7xx_hal_msp.c **** 	/* TIM3 interrupt DeInit */
 474:../../../init/terminal/config/Src/stm32h7xx_hal_msp.c **** 	HAL_NVIC_DisableIRQ(TIM3_IRQn);
 475:../../../init/terminal/config/Src/stm32h7xx_hal_msp.c **** 	}
 476:../../../init/terminal/config/Src/stm32h7xx_hal_msp.c **** else if(htim_base->Instance==TIM4)
 1229              		.loc 1 476 6 is_stmt 1 view .LVU348
 1230              		.loc 1 476 8 is_stmt 0 view .LVU349
ARM GAS  /tmp/ccYU2yCl.s 			page 35


 1231 0010 114A     		ldr	r2, .L79+4
 1232 0012 9342     		cmp	r3, r2
 1233 0014 16D0     		beq	.L78
 1234              	.LVL73:
 1235              	.L71:
 477:../../../init/terminal/config/Src/stm32h7xx_hal_msp.c **** 	{
 478:../../../init/terminal/config/Src/stm32h7xx_hal_msp.c **** 	/* Peripheral clock disable */
 479:../../../init/terminal/config/Src/stm32h7xx_hal_msp.c **** 	__HAL_RCC_TIM4_CLK_DISABLE();
 480:../../../init/terminal/config/Src/stm32h7xx_hal_msp.c **** 	}
 481:../../../init/terminal/config/Src/stm32h7xx_hal_msp.c **** 
 482:../../../init/terminal/config/Src/stm32h7xx_hal_msp.c **** } /* HAL_TIM_Base_MspDeInit */
 1236              		.loc 1 482 1 view .LVU350
 1237 0016 08BD     		pop	{r3, pc}
 1238              	.LVL74:
 1239              	.L76:
 463:../../../init/terminal/config/Src/stm32h7xx_hal_msp.c **** 
 1240              		.loc 1 463 2 is_stmt 1 view .LVU351
 1241 0018 104A     		ldr	r2, .L79+8
 1242 001a D2F8E830 		ldr	r3, [r2, #232]
 1243 001e 23F00103 		bic	r3, r3, #1
 1244 0022 C2F8E830 		str	r3, [r2, #232]
 466:../../../init/terminal/config/Src/stm32h7xx_hal_msp.c **** 	}
 1245              		.loc 1 466 2 view .LVU352
 1246 0026 1C20     		movs	r0, #28
 1247              	.LVL75:
 466:../../../init/terminal/config/Src/stm32h7xx_hal_msp.c **** 	}
 1248              		.loc 1 466 2 is_stmt 0 view .LVU353
 1249 0028 FFF7FEFF 		bl	HAL_NVIC_DisableIRQ
 1250              	.LVL76:
 1251 002c F3E7     		b	.L71
 1252              	.LVL77:
 1253              	.L77:
 471:../../../init/terminal/config/Src/stm32h7xx_hal_msp.c **** 
 1254              		.loc 1 471 2 is_stmt 1 view .LVU354
 1255 002e 0B4A     		ldr	r2, .L79+8
 1256 0030 D2F8E830 		ldr	r3, [r2, #232]
 1257 0034 23F00203 		bic	r3, r3, #2
 1258 0038 C2F8E830 		str	r3, [r2, #232]
 474:../../../init/terminal/config/Src/stm32h7xx_hal_msp.c **** 	}
 1259              		.loc 1 474 2 view .LVU355
 1260 003c 1D20     		movs	r0, #29
 1261              	.LVL78:
 474:../../../init/terminal/config/Src/stm32h7xx_hal_msp.c **** 	}
 1262              		.loc 1 474 2 is_stmt 0 view .LVU356
 1263 003e FFF7FEFF 		bl	HAL_NVIC_DisableIRQ
 1264              	.LVL79:
 1265 0042 E8E7     		b	.L71
 1266              	.LVL80:
 1267              	.L78:
 479:../../../init/terminal/config/Src/stm32h7xx_hal_msp.c **** 	}
 1268              		.loc 1 479 2 is_stmt 1 view .LVU357
 1269 0044 054A     		ldr	r2, .L79+8
 1270 0046 D2F8E830 		ldr	r3, [r2, #232]
 1271 004a 23F00403 		bic	r3, r3, #4
 1272 004e C2F8E830 		str	r3, [r2, #232]
 1273              		.loc 1 482 1 is_stmt 0 view .LVU358
 1274 0052 E0E7     		b	.L71
ARM GAS  /tmp/ccYU2yCl.s 			page 36


 1275              	.L80:
 1276              		.align	2
 1277              	.L79:
 1278 0054 00040040 		.word	1073742848
 1279 0058 00080040 		.word	1073743872
 1280 005c 00440258 		.word	1476543488
 1281              		.cfi_endproc
 1282              	.LFE153:
 1284              		.section	.text.HAL_UART_MspInit,"ax",%progbits
 1285              		.align	1
 1286              		.global	HAL_UART_MspInit
 1287              		.syntax unified
 1288              		.thumb
 1289              		.thumb_func
 1291              	HAL_UART_MspInit:
 1292              	.LVL81:
 1293              	.LFB154:
 483:../../../init/terminal/config/Src/stm32h7xx_hal_msp.c **** 
 484:../../../init/terminal/config/Src/stm32h7xx_hal_msp.c **** 
 485:../../../init/terminal/config/Src/stm32h7xx_hal_msp.c **** /*******************************************************************************
 486:../../../init/terminal/config/Src/stm32h7xx_hal_msp.c **** *                                                                              *
 487:../../../init/terminal/config/Src/stm32h7xx_hal_msp.c **** * PROCEDURE:                                                                   *
 488:../../../init/terminal/config/Src/stm32h7xx_hal_msp.c **** *       HAL_UART_MspInit                                                       *
 489:../../../init/terminal/config/Src/stm32h7xx_hal_msp.c **** *                                                                              *
 490:../../../init/terminal/config/Src/stm32h7xx_hal_msp.c **** * DESCRIPTION:                                                                 *
 491:../../../init/terminal/config/Src/stm32h7xx_hal_msp.c **** *       SPI MSP initialization                                                 *
 492:../../../init/terminal/config/Src/stm32h7xx_hal_msp.c **** *                                                                              *
 493:../../../init/terminal/config/Src/stm32h7xx_hal_msp.c **** *******************************************************************************/
 494:../../../init/terminal/config/Src/stm32h7xx_hal_msp.c **** void HAL_UART_MspInit
 495:../../../init/terminal/config/Src/stm32h7xx_hal_msp.c **** 	(
 496:../../../init/terminal/config/Src/stm32h7xx_hal_msp.c **** 	UART_HandleTypeDef* huart
 497:../../../init/terminal/config/Src/stm32h7xx_hal_msp.c **** 	)
 498:../../../init/terminal/config/Src/stm32h7xx_hal_msp.c **** {
 1294              		.loc 1 498 1 is_stmt 1 view -0
 1295              		.cfi_startproc
 1296              		@ args = 0, pretend = 0, frame = 216
 1297              		@ frame_needed = 0, uses_anonymous_args = 0
 1298              		.loc 1 498 1 is_stmt 0 view .LVU360
 1299 0000 10B5     		push	{r4, lr}
 1300              	.LCFI26:
 1301              		.cfi_def_cfa_offset 8
 1302              		.cfi_offset 4, -8
 1303              		.cfi_offset 14, -4
 1304 0002 B6B0     		sub	sp, sp, #216
 1305              	.LCFI27:
 1306              		.cfi_def_cfa_offset 224
 1307 0004 0446     		mov	r4, r0
 499:../../../init/terminal/config/Src/stm32h7xx_hal_msp.c **** GPIO_InitTypeDef GPIO_InitStruct             = {0};
 1308              		.loc 1 499 1 is_stmt 1 view .LVU361
 1309              		.loc 1 499 18 is_stmt 0 view .LVU362
 1310 0006 0021     		movs	r1, #0
 1311 0008 3191     		str	r1, [sp, #196]
 1312 000a 3291     		str	r1, [sp, #200]
 1313 000c 3391     		str	r1, [sp, #204]
 1314 000e 3491     		str	r1, [sp, #208]
 1315 0010 3591     		str	r1, [sp, #212]
 500:../../../init/terminal/config/Src/stm32h7xx_hal_msp.c **** RCC_PeriphCLKInitTypeDef PeriphClkInitStruct = {0};
ARM GAS  /tmp/ccYU2yCl.s 			page 37


 1316              		.loc 1 500 1 is_stmt 1 view .LVU363
 1317              		.loc 1 500 26 is_stmt 0 view .LVU364
 1318 0012 BC22     		movs	r2, #188
 1319 0014 02A8     		add	r0, sp, #8
 1320              	.LVL82:
 1321              		.loc 1 500 26 view .LVU365
 1322 0016 FFF7FEFF 		bl	memset
 1323              	.LVL83:
 501:../../../init/terminal/config/Src/stm32h7xx_hal_msp.c **** if( huart->Instance == USART6 )
 1324              		.loc 1 501 1 is_stmt 1 view .LVU366
 1325              		.loc 1 501 10 is_stmt 0 view .LVU367
 1326 001a 2268     		ldr	r2, [r4]
 1327              		.loc 1 501 3 view .LVU368
 1328 001c 1A4B     		ldr	r3, .L87
 1329 001e 9A42     		cmp	r2, r3
 1330 0020 01D0     		beq	.L85
 1331              	.L81:
 502:../../../init/terminal/config/Src/stm32h7xx_hal_msp.c **** 	{
 503:../../../init/terminal/config/Src/stm32h7xx_hal_msp.c **** 	/* Initializes the peripherals clock */
 504:../../../init/terminal/config/Src/stm32h7xx_hal_msp.c **** 	PeriphClkInitStruct.PeriphClockSelection  = RCC_PERIPHCLK_USART6;
 505:../../../init/terminal/config/Src/stm32h7xx_hal_msp.c **** 	PeriphClkInitStruct.Usart16ClockSelection = RCC_USART16CLKSOURCE_D2PCLK2;
 506:../../../init/terminal/config/Src/stm32h7xx_hal_msp.c **** 	if ( HAL_RCCEx_PeriphCLKConfig( &PeriphClkInitStruct ) != HAL_OK )
 507:../../../init/terminal/config/Src/stm32h7xx_hal_msp.c **** 		{
 508:../../../init/terminal/config/Src/stm32h7xx_hal_msp.c **** 		Error_Handler( ERROR_UART_HAL_MSP_ERROR );
 509:../../../init/terminal/config/Src/stm32h7xx_hal_msp.c **** 		}
 510:../../../init/terminal/config/Src/stm32h7xx_hal_msp.c **** 
 511:../../../init/terminal/config/Src/stm32h7xx_hal_msp.c **** 	/* Peripheral clock enable */
 512:../../../init/terminal/config/Src/stm32h7xx_hal_msp.c **** 	__HAL_RCC_USART6_CLK_ENABLE();
 513:../../../init/terminal/config/Src/stm32h7xx_hal_msp.c **** 	__HAL_RCC_GPIOC_CLK_ENABLE();
 514:../../../init/terminal/config/Src/stm32h7xx_hal_msp.c **** 
 515:../../../init/terminal/config/Src/stm32h7xx_hal_msp.c **** 	/* USART6 GPIO Configuration
 516:../../../init/terminal/config/Src/stm32h7xx_hal_msp.c **** 	PC6     ------> USART6_TX
 517:../../../init/terminal/config/Src/stm32h7xx_hal_msp.c **** 	PC7     ------> USART6_RX */
 518:../../../init/terminal/config/Src/stm32h7xx_hal_msp.c **** 	GPIO_InitStruct.Pin       = GPIO_PIN_6|GPIO_PIN_7;
 519:../../../init/terminal/config/Src/stm32h7xx_hal_msp.c **** 	GPIO_InitStruct.Mode      = GPIO_MODE_AF_PP;
 520:../../../init/terminal/config/Src/stm32h7xx_hal_msp.c **** 	GPIO_InitStruct.Pull      = GPIO_NOPULL;
 521:../../../init/terminal/config/Src/stm32h7xx_hal_msp.c **** 	GPIO_InitStruct.Speed     = GPIO_SPEED_FREQ_LOW;
 522:../../../init/terminal/config/Src/stm32h7xx_hal_msp.c **** 	GPIO_InitStruct.Alternate = GPIO_AF7_USART6;
 523:../../../init/terminal/config/Src/stm32h7xx_hal_msp.c **** 	HAL_GPIO_Init( GPIOC, &GPIO_InitStruct );
 524:../../../init/terminal/config/Src/stm32h7xx_hal_msp.c **** 	}
 525:../../../init/terminal/config/Src/stm32h7xx_hal_msp.c **** 
 526:../../../init/terminal/config/Src/stm32h7xx_hal_msp.c **** } /* HAL_UART_MspInit */
 1332              		.loc 1 526 1 view .LVU369
 1333 0022 36B0     		add	sp, sp, #216
 1334              	.LCFI28:
 1335              		.cfi_remember_state
 1336              		.cfi_def_cfa_offset 8
 1337              		@ sp needed
 1338 0024 10BD     		pop	{r4, pc}
 1339              	.LVL84:
 1340              	.L85:
 1341              	.LCFI29:
 1342              		.cfi_restore_state
 504:../../../init/terminal/config/Src/stm32h7xx_hal_msp.c **** 	PeriphClkInitStruct.Usart16ClockSelection = RCC_USART16CLKSOURCE_D2PCLK2;
 1343              		.loc 1 504 2 is_stmt 1 view .LVU370
 504:../../../init/terminal/config/Src/stm32h7xx_hal_msp.c **** 	PeriphClkInitStruct.Usart16ClockSelection = RCC_USART16CLKSOURCE_D2PCLK2;
 1344              		.loc 1 504 44 is_stmt 0 view .LVU371
ARM GAS  /tmp/ccYU2yCl.s 			page 38


 1345 0026 0123     		movs	r3, #1
 1346 0028 0293     		str	r3, [sp, #8]
 505:../../../init/terminal/config/Src/stm32h7xx_hal_msp.c **** 	if ( HAL_RCCEx_PeriphCLKConfig( &PeriphClkInitStruct ) != HAL_OK )
 1347              		.loc 1 505 2 is_stmt 1 view .LVU372
 506:../../../init/terminal/config/Src/stm32h7xx_hal_msp.c **** 		{
 1348              		.loc 1 506 2 view .LVU373
 506:../../../init/terminal/config/Src/stm32h7xx_hal_msp.c **** 		{
 1349              		.loc 1 506 7 is_stmt 0 view .LVU374
 1350 002a 02A8     		add	r0, sp, #8
 1351 002c FFF7FEFF 		bl	HAL_RCCEx_PeriphCLKConfig
 1352              	.LVL85:
 506:../../../init/terminal/config/Src/stm32h7xx_hal_msp.c **** 		{
 1353              		.loc 1 506 5 view .LVU375
 1354 0030 30BB     		cbnz	r0, .L86
 1355              	.L83:
 512:../../../init/terminal/config/Src/stm32h7xx_hal_msp.c **** 	__HAL_RCC_GPIOC_CLK_ENABLE();
 1356              		.loc 1 512 2 is_stmt 1 view .LVU376
 1357              	.LBB19:
 512:../../../init/terminal/config/Src/stm32h7xx_hal_msp.c **** 	__HAL_RCC_GPIOC_CLK_ENABLE();
 1358              		.loc 1 512 2 view .LVU377
 512:../../../init/terminal/config/Src/stm32h7xx_hal_msp.c **** 	__HAL_RCC_GPIOC_CLK_ENABLE();
 1359              		.loc 1 512 2 view .LVU378
 1360 0032 164B     		ldr	r3, .L87+4
 1361 0034 D3F8F020 		ldr	r2, [r3, #240]
 1362 0038 42F02002 		orr	r2, r2, #32
 1363 003c C3F8F020 		str	r2, [r3, #240]
 512:../../../init/terminal/config/Src/stm32h7xx_hal_msp.c **** 	__HAL_RCC_GPIOC_CLK_ENABLE();
 1364              		.loc 1 512 2 view .LVU379
 1365 0040 D3F8F020 		ldr	r2, [r3, #240]
 1366 0044 02F02002 		and	r2, r2, #32
 1367 0048 0092     		str	r2, [sp]
 512:../../../init/terminal/config/Src/stm32h7xx_hal_msp.c **** 	__HAL_RCC_GPIOC_CLK_ENABLE();
 1368              		.loc 1 512 2 view .LVU380
 1369 004a 009A     		ldr	r2, [sp]
 1370              	.LBE19:
 512:../../../init/terminal/config/Src/stm32h7xx_hal_msp.c **** 	__HAL_RCC_GPIOC_CLK_ENABLE();
 1371              		.loc 1 512 2 view .LVU381
 513:../../../init/terminal/config/Src/stm32h7xx_hal_msp.c **** 
 1372              		.loc 1 513 2 view .LVU382
 1373              	.LBB20:
 513:../../../init/terminal/config/Src/stm32h7xx_hal_msp.c **** 
 1374              		.loc 1 513 2 view .LVU383
 513:../../../init/terminal/config/Src/stm32h7xx_hal_msp.c **** 
 1375              		.loc 1 513 2 view .LVU384
 1376 004c D3F8E020 		ldr	r2, [r3, #224]
 1377 0050 42F00402 		orr	r2, r2, #4
 1378 0054 C3F8E020 		str	r2, [r3, #224]
 513:../../../init/terminal/config/Src/stm32h7xx_hal_msp.c **** 
 1379              		.loc 1 513 2 view .LVU385
 1380 0058 D3F8E030 		ldr	r3, [r3, #224]
 1381 005c 03F00403 		and	r3, r3, #4
 1382 0060 0193     		str	r3, [sp, #4]
 513:../../../init/terminal/config/Src/stm32h7xx_hal_msp.c **** 
 1383              		.loc 1 513 2 view .LVU386
 1384 0062 019B     		ldr	r3, [sp, #4]
 1385              	.LBE20:
 513:../../../init/terminal/config/Src/stm32h7xx_hal_msp.c **** 
ARM GAS  /tmp/ccYU2yCl.s 			page 39


 1386              		.loc 1 513 2 view .LVU387
 518:../../../init/terminal/config/Src/stm32h7xx_hal_msp.c **** 	GPIO_InitStruct.Mode      = GPIO_MODE_AF_PP;
 1387              		.loc 1 518 2 view .LVU388
 518:../../../init/terminal/config/Src/stm32h7xx_hal_msp.c **** 	GPIO_InitStruct.Mode      = GPIO_MODE_AF_PP;
 1388              		.loc 1 518 28 is_stmt 0 view .LVU389
 1389 0064 C023     		movs	r3, #192
 1390 0066 3193     		str	r3, [sp, #196]
 519:../../../init/terminal/config/Src/stm32h7xx_hal_msp.c **** 	GPIO_InitStruct.Pull      = GPIO_NOPULL;
 1391              		.loc 1 519 2 is_stmt 1 view .LVU390
 519:../../../init/terminal/config/Src/stm32h7xx_hal_msp.c **** 	GPIO_InitStruct.Pull      = GPIO_NOPULL;
 1392              		.loc 1 519 28 is_stmt 0 view .LVU391
 1393 0068 0223     		movs	r3, #2
 1394 006a 3293     		str	r3, [sp, #200]
 520:../../../init/terminal/config/Src/stm32h7xx_hal_msp.c **** 	GPIO_InitStruct.Speed     = GPIO_SPEED_FREQ_LOW;
 1395              		.loc 1 520 2 is_stmt 1 view .LVU392
 520:../../../init/terminal/config/Src/stm32h7xx_hal_msp.c **** 	GPIO_InitStruct.Speed     = GPIO_SPEED_FREQ_LOW;
 1396              		.loc 1 520 28 is_stmt 0 view .LVU393
 1397 006c 0023     		movs	r3, #0
 1398 006e 3393     		str	r3, [sp, #204]
 521:../../../init/terminal/config/Src/stm32h7xx_hal_msp.c **** 	GPIO_InitStruct.Alternate = GPIO_AF7_USART6;
 1399              		.loc 1 521 2 is_stmt 1 view .LVU394
 521:../../../init/terminal/config/Src/stm32h7xx_hal_msp.c **** 	GPIO_InitStruct.Alternate = GPIO_AF7_USART6;
 1400              		.loc 1 521 28 is_stmt 0 view .LVU395
 1401 0070 3493     		str	r3, [sp, #208]
 522:../../../init/terminal/config/Src/stm32h7xx_hal_msp.c **** 	HAL_GPIO_Init( GPIOC, &GPIO_InitStruct );
 1402              		.loc 1 522 2 is_stmt 1 view .LVU396
 522:../../../init/terminal/config/Src/stm32h7xx_hal_msp.c **** 	HAL_GPIO_Init( GPIOC, &GPIO_InitStruct );
 1403              		.loc 1 522 28 is_stmt 0 view .LVU397
 1404 0072 0723     		movs	r3, #7
 1405 0074 3593     		str	r3, [sp, #212]
 523:../../../init/terminal/config/Src/stm32h7xx_hal_msp.c **** 	}
 1406              		.loc 1 523 2 is_stmt 1 view .LVU398
 1407 0076 31A9     		add	r1, sp, #196
 1408 0078 0548     		ldr	r0, .L87+8
 1409 007a FFF7FEFF 		bl	HAL_GPIO_Init
 1410              	.LVL86:
 1411              		.loc 1 526 1 is_stmt 0 view .LVU399
 1412 007e D0E7     		b	.L81
 1413              	.L86:
 508:../../../init/terminal/config/Src/stm32h7xx_hal_msp.c **** 		}
 1414              		.loc 1 508 3 is_stmt 1 view .LVU400
 1415 0080 1420     		movs	r0, #20
 1416 0082 FFF7FEFF 		bl	Error_Handler
 1417              	.LVL87:
 1418 0086 D4E7     		b	.L83
 1419              	.L88:
 1420              		.align	2
 1421              	.L87:
 1422 0088 00140140 		.word	1073812480
 1423 008c 00440258 		.word	1476543488
 1424 0090 00080258 		.word	1476528128
 1425              		.cfi_endproc
 1426              	.LFE154:
 1428              		.section	.text.HAL_UART_MspDeInit,"ax",%progbits
 1429              		.align	1
 1430              		.global	HAL_UART_MspDeInit
 1431              		.syntax unified
ARM GAS  /tmp/ccYU2yCl.s 			page 40


 1432              		.thumb
 1433              		.thumb_func
 1435              	HAL_UART_MspDeInit:
 1436              	.LVL88:
 1437              	.LFB155:
 527:../../../init/terminal/config/Src/stm32h7xx_hal_msp.c **** 
 528:../../../init/terminal/config/Src/stm32h7xx_hal_msp.c **** 
 529:../../../init/terminal/config/Src/stm32h7xx_hal_msp.c **** /*******************************************************************************
 530:../../../init/terminal/config/Src/stm32h7xx_hal_msp.c **** *                                                                              *
 531:../../../init/terminal/config/Src/stm32h7xx_hal_msp.c **** * PROCEDURE:                                                                   *
 532:../../../init/terminal/config/Src/stm32h7xx_hal_msp.c **** *       HAL_UART_DeMspInit                                                     *
 533:../../../init/terminal/config/Src/stm32h7xx_hal_msp.c **** *                                                                              *
 534:../../../init/terminal/config/Src/stm32h7xx_hal_msp.c **** * DESCRIPTION:                                                                 *
 535:../../../init/terminal/config/Src/stm32h7xx_hal_msp.c **** *       SPI MSP De-initialization                                              *
 536:../../../init/terminal/config/Src/stm32h7xx_hal_msp.c **** *                                                                              *
 537:../../../init/terminal/config/Src/stm32h7xx_hal_msp.c **** *******************************************************************************/
 538:../../../init/terminal/config/Src/stm32h7xx_hal_msp.c **** void HAL_UART_MspDeInit
 539:../../../init/terminal/config/Src/stm32h7xx_hal_msp.c **** 	(
 540:../../../init/terminal/config/Src/stm32h7xx_hal_msp.c **** 	UART_HandleTypeDef* huart
 541:../../../init/terminal/config/Src/stm32h7xx_hal_msp.c **** 	)
 542:../../../init/terminal/config/Src/stm32h7xx_hal_msp.c **** {
 1438              		.loc 1 542 1 view -0
 1439              		.cfi_startproc
 1440              		@ args = 0, pretend = 0, frame = 0
 1441              		@ frame_needed = 0, uses_anonymous_args = 0
 1442              		.loc 1 542 1 is_stmt 0 view .LVU402
 1443 0000 08B5     		push	{r3, lr}
 1444              	.LCFI30:
 1445              		.cfi_def_cfa_offset 8
 1446              		.cfi_offset 3, -8
 1447              		.cfi_offset 14, -4
 543:../../../init/terminal/config/Src/stm32h7xx_hal_msp.c **** if( huart->Instance == USART6 )
 1448              		.loc 1 543 1 is_stmt 1 view .LVU403
 1449              		.loc 1 543 10 is_stmt 0 view .LVU404
 1450 0002 0268     		ldr	r2, [r0]
 1451              		.loc 1 543 3 view .LVU405
 1452 0004 074B     		ldr	r3, .L93
 1453 0006 9A42     		cmp	r2, r3
 1454 0008 00D0     		beq	.L92
 1455              	.LVL89:
 1456              	.L89:
 544:../../../init/terminal/config/Src/stm32h7xx_hal_msp.c **** 	{
 545:../../../init/terminal/config/Src/stm32h7xx_hal_msp.c **** 	/* Peripheral clock disable */
 546:../../../init/terminal/config/Src/stm32h7xx_hal_msp.c **** 	__HAL_RCC_USART6_CLK_DISABLE();
 547:../../../init/terminal/config/Src/stm32h7xx_hal_msp.c **** 
 548:../../../init/terminal/config/Src/stm32h7xx_hal_msp.c **** 	/* USART1 GPIO Configuration
 549:../../../init/terminal/config/Src/stm32h7xx_hal_msp.c **** 	PA9     ------> USART1_TX
 550:../../../init/terminal/config/Src/stm32h7xx_hal_msp.c **** 	PA10     ------> USART1_RX */
 551:../../../init/terminal/config/Src/stm32h7xx_hal_msp.c **** 	HAL_GPIO_DeInit( GPIOC, GPIO_PIN_6|GPIO_PIN_7 );
 552:../../../init/terminal/config/Src/stm32h7xx_hal_msp.c **** 	}
 553:../../../init/terminal/config/Src/stm32h7xx_hal_msp.c **** } /* HAL_UART_DeMspInit */
 1457              		.loc 1 553 1 view .LVU406
 1458 000a 08BD     		pop	{r3, pc}
 1459              	.LVL90:
 1460              	.L92:
 546:../../../init/terminal/config/Src/stm32h7xx_hal_msp.c **** 
 1461              		.loc 1 546 2 is_stmt 1 view .LVU407
ARM GAS  /tmp/ccYU2yCl.s 			page 41


 1462 000c 064A     		ldr	r2, .L93+4
 1463 000e D2F8F030 		ldr	r3, [r2, #240]
 1464 0012 23F02003 		bic	r3, r3, #32
 1465 0016 C2F8F030 		str	r3, [r2, #240]
 551:../../../init/terminal/config/Src/stm32h7xx_hal_msp.c **** 	}
 1466              		.loc 1 551 2 view .LVU408
 1467 001a C021     		movs	r1, #192
 1468 001c 0348     		ldr	r0, .L93+8
 1469              	.LVL91:
 551:../../../init/terminal/config/Src/stm32h7xx_hal_msp.c **** 	}
 1470              		.loc 1 551 2 is_stmt 0 view .LVU409
 1471 001e FFF7FEFF 		bl	HAL_GPIO_DeInit
 1472              	.LVL92:
 1473              		.loc 1 553 1 view .LVU410
 1474 0022 F2E7     		b	.L89
 1475              	.L94:
 1476              		.align	2
 1477              	.L93:
 1478 0024 00140140 		.word	1073812480
 1479 0028 00440258 		.word	1476543488
 1480 002c 00080258 		.word	1476528128
 1481              		.cfi_endproc
 1482              	.LFE155:
 1484              		.text
 1485              	.Letext0:
 1486              		.file 2 "../../../lib/Drivers/CMSIS/Device/ST/STM32H7xx/Include/stm32h750xx.h"
 1487              		.file 3 "/usr/lib/gcc/arm-none-eabi/12.2.1/include/stdint.h"
 1488              		.file 4 "../../../lib/Drivers/STM32H7xx_HAL_Driver/Inc/stm32h7xx_hal_def.h"
 1489              		.file 5 "../../../lib/Drivers/STM32H7xx_HAL_Driver/Inc/stm32h7xx_hal_rcc_ex.h"
 1490              		.file 6 "../../../lib/Drivers/STM32H7xx_HAL_Driver/Inc/stm32h7xx_hal_gpio.h"
 1491              		.file 7 "../../../lib/Drivers/STM32H7xx_HAL_Driver/Inc/stm32h7xx_hal_dma.h"
 1492              		.file 8 "../../../lib/Drivers/STM32H7xx_HAL_Driver/Inc/stm32h7xx_hal_i2c.h"
 1493              		.file 9 "../../../lib/Drivers/STM32H7xx_HAL_Driver/Inc/stm32h7xx_ll_sdmmc.h"
 1494              		.file 10 "../../../lib/Drivers/STM32H7xx_HAL_Driver/Inc/stm32h7xx_hal_sd.h"
 1495              		.file 11 "../../../lib/Drivers/STM32H7xx_HAL_Driver/Inc/stm32h7xx_hal_spi.h"
 1496              		.file 12 "../../../lib/Drivers/STM32H7xx_HAL_Driver/Inc/stm32h7xx_hal_tim.h"
 1497              		.file 13 "../../../lib/Drivers/STM32H7xx_HAL_Driver/Inc/stm32h7xx_hal_uart.h"
 1498              		.file 14 "../../../lib/util/sdr_error.h"
 1499              		.file 15 "../../../lib/Drivers/STM32H7xx_HAL_Driver/Inc/stm32h7xx_hal_cortex.h"
 1500              		.file 16 "<built-in>"
ARM GAS  /tmp/ccYU2yCl.s 			page 42

