ARM GAS  /tmp/ccFpJLHW.s 			page 1


   1              		.cpu cortex-m7
   2              		.arch armv7e-m
   3              		.fpu fpv5-d16
   4              		.eabi_attribute 28, 1
   5              		.eabi_attribute 20, 1
   6              		.eabi_attribute 21, 1
   7              		.eabi_attribute 23, 3
   8              		.eabi_attribute 24, 1
   9              		.eabi_attribute 25, 1
  10              		.eabi_attribute 26, 1
  11              		.eabi_attribute 30, 1
  12              		.eabi_attribute 34, 1
  13              		.eabi_attribute 18, 4
  14              		.file	"stm32h7xx_hal_spi_ex.c"
  15              		.text
  16              	.Ltext0:
  17              		.cfi_sections	.debug_frame
  18              		.file 1 "../../../lib/Drivers/STM32H7xx_HAL_Driver/Src/stm32h7xx_hal_spi_ex.c"
  19              		.section	.text.HAL_SPIEx_FlushRxFifo,"ax",%progbits
  20              		.align	1
  21              		.global	HAL_SPIEx_FlushRxFifo
  22              		.syntax unified
  23              		.thumb
  24              		.thumb_func
  26              	HAL_SPIEx_FlushRxFifo:
  27              	.LVL0:
  28              	.LFB144:
   1:../../../lib/Drivers/STM32H7xx_HAL_Driver/Src/stm32h7xx_hal_spi_ex.c **** /**
   2:../../../lib/Drivers/STM32H7xx_HAL_Driver/Src/stm32h7xx_hal_spi_ex.c ****   ******************************************************************************
   3:../../../lib/Drivers/STM32H7xx_HAL_Driver/Src/stm32h7xx_hal_spi_ex.c ****   * @file    stm32h7xx_hal_spi_ex.c
   4:../../../lib/Drivers/STM32H7xx_HAL_Driver/Src/stm32h7xx_hal_spi_ex.c ****   * @author  MCD Application Team
   5:../../../lib/Drivers/STM32H7xx_HAL_Driver/Src/stm32h7xx_hal_spi_ex.c ****   * @brief   Extended SPI HAL module driver.
   6:../../../lib/Drivers/STM32H7xx_HAL_Driver/Src/stm32h7xx_hal_spi_ex.c ****   *          This file provides firmware functions to manage the following
   7:../../../lib/Drivers/STM32H7xx_HAL_Driver/Src/stm32h7xx_hal_spi_ex.c ****   *          SPI peripheral extended functionalities :
   8:../../../lib/Drivers/STM32H7xx_HAL_Driver/Src/stm32h7xx_hal_spi_ex.c ****   *           + IO operation functions
   9:../../../lib/Drivers/STM32H7xx_HAL_Driver/Src/stm32h7xx_hal_spi_ex.c ****   *           + Peripheral Control functions
  10:../../../lib/Drivers/STM32H7xx_HAL_Driver/Src/stm32h7xx_hal_spi_ex.c ****   *
  11:../../../lib/Drivers/STM32H7xx_HAL_Driver/Src/stm32h7xx_hal_spi_ex.c ****   ******************************************************************************
  12:../../../lib/Drivers/STM32H7xx_HAL_Driver/Src/stm32h7xx_hal_spi_ex.c ****   * @attention
  13:../../../lib/Drivers/STM32H7xx_HAL_Driver/Src/stm32h7xx_hal_spi_ex.c ****   *
  14:../../../lib/Drivers/STM32H7xx_HAL_Driver/Src/stm32h7xx_hal_spi_ex.c ****   * Copyright (c) 2017 STMicroelectronics.
  15:../../../lib/Drivers/STM32H7xx_HAL_Driver/Src/stm32h7xx_hal_spi_ex.c ****   * All rights reserved.
  16:../../../lib/Drivers/STM32H7xx_HAL_Driver/Src/stm32h7xx_hal_spi_ex.c ****   *
  17:../../../lib/Drivers/STM32H7xx_HAL_Driver/Src/stm32h7xx_hal_spi_ex.c ****   * This software is licensed under terms that can be found in the LICENSE file
  18:../../../lib/Drivers/STM32H7xx_HAL_Driver/Src/stm32h7xx_hal_spi_ex.c ****   * in the root directory of this software component.
  19:../../../lib/Drivers/STM32H7xx_HAL_Driver/Src/stm32h7xx_hal_spi_ex.c ****   * If no LICENSE file comes with this software, it is provided AS-IS.
  20:../../../lib/Drivers/STM32H7xx_HAL_Driver/Src/stm32h7xx_hal_spi_ex.c ****   *
  21:../../../lib/Drivers/STM32H7xx_HAL_Driver/Src/stm32h7xx_hal_spi_ex.c ****   ******************************************************************************
  22:../../../lib/Drivers/STM32H7xx_HAL_Driver/Src/stm32h7xx_hal_spi_ex.c ****   */
  23:../../../lib/Drivers/STM32H7xx_HAL_Driver/Src/stm32h7xx_hal_spi_ex.c **** 
  24:../../../lib/Drivers/STM32H7xx_HAL_Driver/Src/stm32h7xx_hal_spi_ex.c **** /* Includes ------------------------------------------------------------------*/
  25:../../../lib/Drivers/STM32H7xx_HAL_Driver/Src/stm32h7xx_hal_spi_ex.c **** #include "stm32h7xx_hal.h"
  26:../../../lib/Drivers/STM32H7xx_HAL_Driver/Src/stm32h7xx_hal_spi_ex.c **** 
  27:../../../lib/Drivers/STM32H7xx_HAL_Driver/Src/stm32h7xx_hal_spi_ex.c **** /** @addtogroup STM32H7xx_HAL_Driver
  28:../../../lib/Drivers/STM32H7xx_HAL_Driver/Src/stm32h7xx_hal_spi_ex.c ****   * @{
  29:../../../lib/Drivers/STM32H7xx_HAL_Driver/Src/stm32h7xx_hal_spi_ex.c ****   */
  30:../../../lib/Drivers/STM32H7xx_HAL_Driver/Src/stm32h7xx_hal_spi_ex.c **** 
ARM GAS  /tmp/ccFpJLHW.s 			page 2


  31:../../../lib/Drivers/STM32H7xx_HAL_Driver/Src/stm32h7xx_hal_spi_ex.c **** /** @defgroup SPIEx SPIEx
  32:../../../lib/Drivers/STM32H7xx_HAL_Driver/Src/stm32h7xx_hal_spi_ex.c ****   * @brief SPI Extended HAL module driver
  33:../../../lib/Drivers/STM32H7xx_HAL_Driver/Src/stm32h7xx_hal_spi_ex.c ****   * @{
  34:../../../lib/Drivers/STM32H7xx_HAL_Driver/Src/stm32h7xx_hal_spi_ex.c ****   */
  35:../../../lib/Drivers/STM32H7xx_HAL_Driver/Src/stm32h7xx_hal_spi_ex.c **** #ifdef HAL_SPI_MODULE_ENABLED
  36:../../../lib/Drivers/STM32H7xx_HAL_Driver/Src/stm32h7xx_hal_spi_ex.c **** 
  37:../../../lib/Drivers/STM32H7xx_HAL_Driver/Src/stm32h7xx_hal_spi_ex.c **** /* Private typedef -----------------------------------------------------------*/
  38:../../../lib/Drivers/STM32H7xx_HAL_Driver/Src/stm32h7xx_hal_spi_ex.c **** /* Private defines -----------------------------------------------------------*/
  39:../../../lib/Drivers/STM32H7xx_HAL_Driver/Src/stm32h7xx_hal_spi_ex.c **** /* Private macros ------------------------------------------------------------*/
  40:../../../lib/Drivers/STM32H7xx_HAL_Driver/Src/stm32h7xx_hal_spi_ex.c **** /* Private variables ---------------------------------------------------------*/
  41:../../../lib/Drivers/STM32H7xx_HAL_Driver/Src/stm32h7xx_hal_spi_ex.c **** /* Private function prototypes -----------------------------------------------*/
  42:../../../lib/Drivers/STM32H7xx_HAL_Driver/Src/stm32h7xx_hal_spi_ex.c **** /* Exported functions --------------------------------------------------------*/
  43:../../../lib/Drivers/STM32H7xx_HAL_Driver/Src/stm32h7xx_hal_spi_ex.c **** 
  44:../../../lib/Drivers/STM32H7xx_HAL_Driver/Src/stm32h7xx_hal_spi_ex.c **** /** @defgroup SPIEx_Exported_Functions SPIEx Exported Functions
  45:../../../lib/Drivers/STM32H7xx_HAL_Driver/Src/stm32h7xx_hal_spi_ex.c ****   * @{
  46:../../../lib/Drivers/STM32H7xx_HAL_Driver/Src/stm32h7xx_hal_spi_ex.c ****   */
  47:../../../lib/Drivers/STM32H7xx_HAL_Driver/Src/stm32h7xx_hal_spi_ex.c **** 
  48:../../../lib/Drivers/STM32H7xx_HAL_Driver/Src/stm32h7xx_hal_spi_ex.c **** /** @defgroup SPIEx_Exported_Functions_Group1 IO operation functions
  49:../../../lib/Drivers/STM32H7xx_HAL_Driver/Src/stm32h7xx_hal_spi_ex.c ****   *  @brief   Data transfers functions
  50:../../../lib/Drivers/STM32H7xx_HAL_Driver/Src/stm32h7xx_hal_spi_ex.c ****   *
  51:../../../lib/Drivers/STM32H7xx_HAL_Driver/Src/stm32h7xx_hal_spi_ex.c **** @verbatim
  52:../../../lib/Drivers/STM32H7xx_HAL_Driver/Src/stm32h7xx_hal_spi_ex.c ****   ==============================================================================
  53:../../../lib/Drivers/STM32H7xx_HAL_Driver/Src/stm32h7xx_hal_spi_ex.c ****                       ##### IO operation functions #####
  54:../../../lib/Drivers/STM32H7xx_HAL_Driver/Src/stm32h7xx_hal_spi_ex.c ****  ===============================================================================
  55:../../../lib/Drivers/STM32H7xx_HAL_Driver/Src/stm32h7xx_hal_spi_ex.c ****  [..]
  56:../../../lib/Drivers/STM32H7xx_HAL_Driver/Src/stm32h7xx_hal_spi_ex.c ****     This subsection provides a set of extended functions to manage the SPI
  57:../../../lib/Drivers/STM32H7xx_HAL_Driver/Src/stm32h7xx_hal_spi_ex.c ****     data transfers.
  58:../../../lib/Drivers/STM32H7xx_HAL_Driver/Src/stm32h7xx_hal_spi_ex.c **** 
  59:../../../lib/Drivers/STM32H7xx_HAL_Driver/Src/stm32h7xx_hal_spi_ex.c ****     (#) SPIEx function:
  60:../../../lib/Drivers/STM32H7xx_HAL_Driver/Src/stm32h7xx_hal_spi_ex.c ****         (++) HAL_SPIEx_FlushRxFifo()
  61:../../../lib/Drivers/STM32H7xx_HAL_Driver/Src/stm32h7xx_hal_spi_ex.c ****         (++) HAL_SPIEx_FlushRxFifo()
  62:../../../lib/Drivers/STM32H7xx_HAL_Driver/Src/stm32h7xx_hal_spi_ex.c ****         (++) HAL_SPIEx_EnableLockConfiguration()
  63:../../../lib/Drivers/STM32H7xx_HAL_Driver/Src/stm32h7xx_hal_spi_ex.c ****         (++) HAL_SPIEx_ConfigureUnderrun()
  64:../../../lib/Drivers/STM32H7xx_HAL_Driver/Src/stm32h7xx_hal_spi_ex.c **** 
  65:../../../lib/Drivers/STM32H7xx_HAL_Driver/Src/stm32h7xx_hal_spi_ex.c **** @endverbatim
  66:../../../lib/Drivers/STM32H7xx_HAL_Driver/Src/stm32h7xx_hal_spi_ex.c ****   * @{
  67:../../../lib/Drivers/STM32H7xx_HAL_Driver/Src/stm32h7xx_hal_spi_ex.c ****   */
  68:../../../lib/Drivers/STM32H7xx_HAL_Driver/Src/stm32h7xx_hal_spi_ex.c **** 
  69:../../../lib/Drivers/STM32H7xx_HAL_Driver/Src/stm32h7xx_hal_spi_ex.c **** /**
  70:../../../lib/Drivers/STM32H7xx_HAL_Driver/Src/stm32h7xx_hal_spi_ex.c ****   * @brief Flush the RX fifo.
  71:../../../lib/Drivers/STM32H7xx_HAL_Driver/Src/stm32h7xx_hal_spi_ex.c ****   * @param  hspi: pointer to a SPI_HandleTypeDef structure that contains
  72:../../../lib/Drivers/STM32H7xx_HAL_Driver/Src/stm32h7xx_hal_spi_ex.c ****   *               the configuration information for the specified SPI module.
  73:../../../lib/Drivers/STM32H7xx_HAL_Driver/Src/stm32h7xx_hal_spi_ex.c ****   * @retval HAL status
  74:../../../lib/Drivers/STM32H7xx_HAL_Driver/Src/stm32h7xx_hal_spi_ex.c ****   */
  75:../../../lib/Drivers/STM32H7xx_HAL_Driver/Src/stm32h7xx_hal_spi_ex.c **** HAL_StatusTypeDef HAL_SPIEx_FlushRxFifo(SPI_HandleTypeDef *hspi)
  76:../../../lib/Drivers/STM32H7xx_HAL_Driver/Src/stm32h7xx_hal_spi_ex.c **** {
  29              		.loc 1 76 1 view -0
  30              		.cfi_startproc
  31              		@ args = 0, pretend = 0, frame = 8
  32              		@ frame_needed = 0, uses_anonymous_args = 0
  33              		@ link register save eliminated.
  34              		.loc 1 76 1 is_stmt 0 view .LVU1
  35 0000 10B4     		push	{r4}
  36              	.LCFI0:
  37              		.cfi_def_cfa_offset 4
  38              		.cfi_offset 4, -4
  39 0002 83B0     		sub	sp, sp, #12
ARM GAS  /tmp/ccFpJLHW.s 			page 3


  40              	.LCFI1:
  41              		.cfi_def_cfa_offset 16
  77:../../../lib/Drivers/STM32H7xx_HAL_Driver/Src/stm32h7xx_hal_spi_ex.c ****   uint8_t  count  = 0;
  42              		.loc 1 77 3 is_stmt 1 view .LVU2
  43              	.LVL1:
  78:../../../lib/Drivers/STM32H7xx_HAL_Driver/Src/stm32h7xx_hal_spi_ex.c ****   uint32_t itflag = hspi->Instance->SR;
  44              		.loc 1 78 3 view .LVU3
  45              		.loc 1 78 25 is_stmt 0 view .LVU4
  46 0004 0268     		ldr	r2, [r0]
  47              		.loc 1 78 12 view .LVU5
  48 0006 5469     		ldr	r4, [r2, #20]
  49              	.LVL2:
  79:../../../lib/Drivers/STM32H7xx_HAL_Driver/Src/stm32h7xx_hal_spi_ex.c ****   __IO uint32_t tmpreg;
  50              		.loc 1 79 3 is_stmt 1 view .LVU6
  80:../../../lib/Drivers/STM32H7xx_HAL_Driver/Src/stm32h7xx_hal_spi_ex.c **** 
  81:../../../lib/Drivers/STM32H7xx_HAL_Driver/Src/stm32h7xx_hal_spi_ex.c ****   while (((hspi->Instance->SR & SPI_FLAG_FRLVL) !=  SPI_RX_FIFO_0PACKET) || ((itflag & SPI_FLAG_RXW
  51              		.loc 1 81 3 view .LVU7
  77:../../../lib/Drivers/STM32H7xx_HAL_Driver/Src/stm32h7xx_hal_spi_ex.c ****   uint32_t itflag = hspi->Instance->SR;
  52              		.loc 1 77 12 is_stmt 0 view .LVU8
  53 0008 0023     		movs	r3, #0
  54              		.loc 1 81 9 view .LVU9
  55 000a 01E0     		b	.L2
  56              	.LVL3:
  57              	.L3:
  82:../../../lib/Drivers/STM32H7xx_HAL_Driver/Src/stm32h7xx_hal_spi_ex.c ****   {
  83:../../../lib/Drivers/STM32H7xx_HAL_Driver/Src/stm32h7xx_hal_spi_ex.c ****     count += (uint8_t)4UL;
  84:../../../lib/Drivers/STM32H7xx_HAL_Driver/Src/stm32h7xx_hal_spi_ex.c ****     tmpreg = hspi->Instance->RXDR;
  85:../../../lib/Drivers/STM32H7xx_HAL_Driver/Src/stm32h7xx_hal_spi_ex.c ****     UNUSED(tmpreg); /* To avoid GCC warning */
  86:../../../lib/Drivers/STM32H7xx_HAL_Driver/Src/stm32h7xx_hal_spi_ex.c **** 
  87:../../../lib/Drivers/STM32H7xx_HAL_Driver/Src/stm32h7xx_hal_spi_ex.c ****     if (IS_SPI_HIGHEND_INSTANCE(hspi->Instance))
  88:../../../lib/Drivers/STM32H7xx_HAL_Driver/Src/stm32h7xx_hal_spi_ex.c ****     {
  89:../../../lib/Drivers/STM32H7xx_HAL_Driver/Src/stm32h7xx_hal_spi_ex.c ****       if (count > SPI_HIGHEND_FIFO_SIZE)
  58              		.loc 1 89 7 is_stmt 1 view .LVU10
  59              		.loc 1 89 10 is_stmt 0 view .LVU11
  60 000c 102B     		cmp	r3, #16
  61 000e 1BD8     		bhi	.L10
  62              	.LVL4:
  63              	.L2:
  81:../../../lib/Drivers/STM32H7xx_HAL_Driver/Src/stm32h7xx_hal_spi_ex.c ****   {
  64              		.loc 1 81 74 is_stmt 1 view .LVU12
  81:../../../lib/Drivers/STM32H7xx_HAL_Driver/Src/stm32h7xx_hal_spi_ex.c ****   {
  65              		.loc 1 81 26 is_stmt 0 view .LVU13
  66 0010 5169     		ldr	r1, [r2, #20]
  81:../../../lib/Drivers/STM32H7xx_HAL_Driver/Src/stm32h7xx_hal_spi_ex.c ****   {
  67              		.loc 1 81 74 view .LVU14
  68 0012 11F4C04F 		tst	r1, #24576
  69 0016 02D1     		bne	.L6
  81:../../../lib/Drivers/STM32H7xx_HAL_Driver/Src/stm32h7xx_hal_spi_ex.c ****   {
  70              		.loc 1 81 74 discriminator 1 view .LVU15
  71 0018 14F4004F 		tst	r4, #32768
  72 001c 12D0     		beq	.L11
  73              	.L6:
  83:../../../lib/Drivers/STM32H7xx_HAL_Driver/Src/stm32h7xx_hal_spi_ex.c ****     tmpreg = hspi->Instance->RXDR;
  74              		.loc 1 83 5 is_stmt 1 view .LVU16
  83:../../../lib/Drivers/STM32H7xx_HAL_Driver/Src/stm32h7xx_hal_spi_ex.c ****     tmpreg = hspi->Instance->RXDR;
  75              		.loc 1 83 11 is_stmt 0 view .LVU17
  76 001e 0433     		adds	r3, r3, #4
ARM GAS  /tmp/ccFpJLHW.s 			page 4


  77              	.LVL5:
  83:../../../lib/Drivers/STM32H7xx_HAL_Driver/Src/stm32h7xx_hal_spi_ex.c ****     tmpreg = hspi->Instance->RXDR;
  78              		.loc 1 83 11 view .LVU18
  79 0020 DBB2     		uxtb	r3, r3
  80              	.LVL6:
  84:../../../lib/Drivers/STM32H7xx_HAL_Driver/Src/stm32h7xx_hal_spi_ex.c ****     UNUSED(tmpreg); /* To avoid GCC warning */
  81              		.loc 1 84 5 is_stmt 1 view .LVU19
  84:../../../lib/Drivers/STM32H7xx_HAL_Driver/Src/stm32h7xx_hal_spi_ex.c ****     UNUSED(tmpreg); /* To avoid GCC warning */
  82              		.loc 1 84 28 is_stmt 0 view .LVU20
  83 0022 116B     		ldr	r1, [r2, #48]
  84:../../../lib/Drivers/STM32H7xx_HAL_Driver/Src/stm32h7xx_hal_spi_ex.c ****     UNUSED(tmpreg); /* To avoid GCC warning */
  84              		.loc 1 84 12 view .LVU21
  85 0024 0191     		str	r1, [sp, #4]
  85:../../../lib/Drivers/STM32H7xx_HAL_Driver/Src/stm32h7xx_hal_spi_ex.c **** 
  86              		.loc 1 85 5 is_stmt 1 view .LVU22
  87 0026 0199     		ldr	r1, [sp, #4]
  87:../../../lib/Drivers/STM32H7xx_HAL_Driver/Src/stm32h7xx_hal_spi_ex.c ****     {
  88              		.loc 1 87 5 view .LVU23
  87:../../../lib/Drivers/STM32H7xx_HAL_Driver/Src/stm32h7xx_hal_spi_ex.c ****     {
  89              		.loc 1 87 8 is_stmt 0 view .LVU24
  90 0028 0A48     		ldr	r0, .L12
  91 002a 0B49     		ldr	r1, .L12+4
  92 002c 8A42     		cmp	r2, r1
  93 002e 18BF     		it	ne
  94 0030 8242     		cmpne	r2, r0
  95 0032 EBD0     		beq	.L3
  87:../../../lib/Drivers/STM32H7xx_HAL_Driver/Src/stm32h7xx_hal_spi_ex.c ****     {
  96              		.loc 1 87 9 discriminator 1 view .LVU25
  97 0034 01F58061 		add	r1, r1, #1024
  98 0038 8A42     		cmp	r2, r1
  99 003a E7D0     		beq	.L3
  90:../../../lib/Drivers/STM32H7xx_HAL_Driver/Src/stm32h7xx_hal_spi_ex.c ****       {
  91:../../../lib/Drivers/STM32H7xx_HAL_Driver/Src/stm32h7xx_hal_spi_ex.c ****         return HAL_TIMEOUT;
  92:../../../lib/Drivers/STM32H7xx_HAL_Driver/Src/stm32h7xx_hal_spi_ex.c ****       }
  93:../../../lib/Drivers/STM32H7xx_HAL_Driver/Src/stm32h7xx_hal_spi_ex.c ****     }
  94:../../../lib/Drivers/STM32H7xx_HAL_Driver/Src/stm32h7xx_hal_spi_ex.c ****     else
  95:../../../lib/Drivers/STM32H7xx_HAL_Driver/Src/stm32h7xx_hal_spi_ex.c ****     {
  96:../../../lib/Drivers/STM32H7xx_HAL_Driver/Src/stm32h7xx_hal_spi_ex.c ****       if (count > SPI_LOWEND_FIFO_SIZE)
 100              		.loc 1 96 7 is_stmt 1 view .LVU26
 101              		.loc 1 96 10 is_stmt 0 view .LVU27
 102 003c 082B     		cmp	r3, #8
 103 003e E7D9     		bls	.L2
  97:../../../lib/Drivers/STM32H7xx_HAL_Driver/Src/stm32h7xx_hal_spi_ex.c ****       {
  98:../../../lib/Drivers/STM32H7xx_HAL_Driver/Src/stm32h7xx_hal_spi_ex.c ****         return HAL_TIMEOUT;
 104              		.loc 1 98 16 view .LVU28
 105 0040 0320     		movs	r0, #3
 106 0042 02E0     		b	.L5
 107              	.L11:
  99:../../../lib/Drivers/STM32H7xx_HAL_Driver/Src/stm32h7xx_hal_spi_ex.c ****       }
 100:../../../lib/Drivers/STM32H7xx_HAL_Driver/Src/stm32h7xx_hal_spi_ex.c ****     }
 101:../../../lib/Drivers/STM32H7xx_HAL_Driver/Src/stm32h7xx_hal_spi_ex.c ****   }
 102:../../../lib/Drivers/STM32H7xx_HAL_Driver/Src/stm32h7xx_hal_spi_ex.c ****   return HAL_OK;
 108              		.loc 1 102 10 view .LVU29
 109 0044 0020     		movs	r0, #0
 110 0046 00E0     		b	.L5
 111              	.L10:
  91:../../../lib/Drivers/STM32H7xx_HAL_Driver/Src/stm32h7xx_hal_spi_ex.c ****       }
ARM GAS  /tmp/ccFpJLHW.s 			page 5


 112              		.loc 1 91 16 view .LVU30
 113 0048 0320     		movs	r0, #3
 114              	.L5:
 103:../../../lib/Drivers/STM32H7xx_HAL_Driver/Src/stm32h7xx_hal_spi_ex.c **** }
 115              		.loc 1 103 1 view .LVU31
 116 004a 03B0     		add	sp, sp, #12
 117              	.LCFI2:
 118              		.cfi_def_cfa_offset 4
 119              		@ sp needed
 120 004c 5DF8044B 		ldr	r4, [sp], #4
 121              	.LCFI3:
 122              		.cfi_restore 4
 123              		.cfi_def_cfa_offset 0
 124              	.LVL7:
 125              		.loc 1 103 1 view .LVU32
 126 0050 7047     		bx	lr
 127              	.L13:
 128 0052 00BF     		.align	2
 129              	.L12:
 130 0054 00300140 		.word	1073819648
 131 0058 00380040 		.word	1073756160
 132              		.cfi_endproc
 133              	.LFE144:
 135              		.section	.text.HAL_SPIEx_EnableLockConfiguration,"ax",%progbits
 136              		.align	1
 137              		.global	HAL_SPIEx_EnableLockConfiguration
 138              		.syntax unified
 139              		.thumb
 140              		.thumb_func
 142              	HAL_SPIEx_EnableLockConfiguration:
 143              	.LVL8:
 144              	.LFB145:
 104:../../../lib/Drivers/STM32H7xx_HAL_Driver/Src/stm32h7xx_hal_spi_ex.c **** 
 105:../../../lib/Drivers/STM32H7xx_HAL_Driver/Src/stm32h7xx_hal_spi_ex.c **** 
 106:../../../lib/Drivers/STM32H7xx_HAL_Driver/Src/stm32h7xx_hal_spi_ex.c **** /**
 107:../../../lib/Drivers/STM32H7xx_HAL_Driver/Src/stm32h7xx_hal_spi_ex.c ****   * @brief  Enable the Lock for the AF configuration of associated IOs
 108:../../../lib/Drivers/STM32H7xx_HAL_Driver/Src/stm32h7xx_hal_spi_ex.c ****   *         and write protect the Content of Configuration register 2
 109:../../../lib/Drivers/STM32H7xx_HAL_Driver/Src/stm32h7xx_hal_spi_ex.c ****   *         when SPI is enabled
 110:../../../lib/Drivers/STM32H7xx_HAL_Driver/Src/stm32h7xx_hal_spi_ex.c ****   * @param  hspi: pointer to a SPI_HandleTypeDef structure that contains
 111:../../../lib/Drivers/STM32H7xx_HAL_Driver/Src/stm32h7xx_hal_spi_ex.c ****   *               the configuration information for SPI module.
 112:../../../lib/Drivers/STM32H7xx_HAL_Driver/Src/stm32h7xx_hal_spi_ex.c ****   * @retval None
 113:../../../lib/Drivers/STM32H7xx_HAL_Driver/Src/stm32h7xx_hal_spi_ex.c ****   */
 114:../../../lib/Drivers/STM32H7xx_HAL_Driver/Src/stm32h7xx_hal_spi_ex.c **** HAL_StatusTypeDef HAL_SPIEx_EnableLockConfiguration(SPI_HandleTypeDef *hspi)
 115:../../../lib/Drivers/STM32H7xx_HAL_Driver/Src/stm32h7xx_hal_spi_ex.c **** {
 145              		.loc 1 115 1 is_stmt 1 view -0
 146              		.cfi_startproc
 147              		@ args = 0, pretend = 0, frame = 0
 148              		@ frame_needed = 0, uses_anonymous_args = 0
 149              		@ link register save eliminated.
 150              		.loc 1 115 1 is_stmt 0 view .LVU34
 151 0000 0346     		mov	r3, r0
 116:../../../lib/Drivers/STM32H7xx_HAL_Driver/Src/stm32h7xx_hal_spi_ex.c ****   HAL_StatusTypeDef errorcode = HAL_OK;
 152              		.loc 1 116 3 is_stmt 1 view .LVU35
 153              	.LVL9:
 117:../../../lib/Drivers/STM32H7xx_HAL_Driver/Src/stm32h7xx_hal_spi_ex.c **** 
 118:../../../lib/Drivers/STM32H7xx_HAL_Driver/Src/stm32h7xx_hal_spi_ex.c ****   /* Process Locked */
 119:../../../lib/Drivers/STM32H7xx_HAL_Driver/Src/stm32h7xx_hal_spi_ex.c ****   __HAL_LOCK(hspi);
ARM GAS  /tmp/ccFpJLHW.s 			page 6


 154              		.loc 1 119 3 view .LVU36
 155              		.loc 1 119 3 view .LVU37
 156 0002 90F88020 		ldrb	r2, [r0, #128]	@ zero_extendqisi2
 157 0006 012A     		cmp	r2, #1
 158 0008 2ED0     		beq	.L19
 159              		.loc 1 119 3 discriminator 2 view .LVU38
 160 000a 0122     		movs	r2, #1
 161 000c 80F88020 		strb	r2, [r0, #128]
 162              		.loc 1 119 3 discriminator 2 view .LVU39
 120:../../../lib/Drivers/STM32H7xx_HAL_Driver/Src/stm32h7xx_hal_spi_ex.c **** 
 121:../../../lib/Drivers/STM32H7xx_HAL_Driver/Src/stm32h7xx_hal_spi_ex.c ****   if (hspi->State != HAL_SPI_STATE_READY)
 163              		.loc 1 121 3 discriminator 2 view .LVU40
 164              		.loc 1 121 11 is_stmt 0 discriminator 2 view .LVU41
 165 0010 90F88120 		ldrb	r2, [r0, #129]	@ zero_extendqisi2
 166 0014 D2B2     		uxtb	r2, r2
 167              		.loc 1 121 6 discriminator 2 view .LVU42
 168 0016 012A     		cmp	r2, #1
 169 0018 0FD1     		bne	.L20
 122:../../../lib/Drivers/STM32H7xx_HAL_Driver/Src/stm32h7xx_hal_spi_ex.c ****   {
 123:../../../lib/Drivers/STM32H7xx_HAL_Driver/Src/stm32h7xx_hal_spi_ex.c ****     errorcode = HAL_BUSY;
 124:../../../lib/Drivers/STM32H7xx_HAL_Driver/Src/stm32h7xx_hal_spi_ex.c ****     hspi->State = HAL_SPI_STATE_READY;
 125:../../../lib/Drivers/STM32H7xx_HAL_Driver/Src/stm32h7xx_hal_spi_ex.c ****     /* Process Unlocked */
 126:../../../lib/Drivers/STM32H7xx_HAL_Driver/Src/stm32h7xx_hal_spi_ex.c ****     __HAL_UNLOCK(hspi);
 127:../../../lib/Drivers/STM32H7xx_HAL_Driver/Src/stm32h7xx_hal_spi_ex.c ****     return errorcode;
 128:../../../lib/Drivers/STM32H7xx_HAL_Driver/Src/stm32h7xx_hal_spi_ex.c ****   }
 129:../../../lib/Drivers/STM32H7xx_HAL_Driver/Src/stm32h7xx_hal_spi_ex.c **** 
 130:../../../lib/Drivers/STM32H7xx_HAL_Driver/Src/stm32h7xx_hal_spi_ex.c ****   /* Check if the SPI is disabled to edit IOLOCK bit */
 131:../../../lib/Drivers/STM32H7xx_HAL_Driver/Src/stm32h7xx_hal_spi_ex.c ****   if ((hspi->Instance->CR1 & SPI_CR1_SPE) != SPI_CR1_SPE)
 170              		.loc 1 131 3 is_stmt 1 view .LVU43
 171              		.loc 1 131 12 is_stmt 0 view .LVU44
 172 001a 0268     		ldr	r2, [r0]
 173              		.loc 1 131 22 view .LVU45
 174 001c 1168     		ldr	r1, [r2]
 175              		.loc 1 131 6 view .LVU46
 176 001e 11F0010F 		tst	r1, #1
 177 0022 12D1     		bne	.L17
 132:../../../lib/Drivers/STM32H7xx_HAL_Driver/Src/stm32h7xx_hal_spi_ex.c ****   {
 133:../../../lib/Drivers/STM32H7xx_HAL_Driver/Src/stm32h7xx_hal_spi_ex.c ****     SET_BIT(hspi->Instance->CR1, SPI_CR1_IOLOCK);
 178              		.loc 1 133 5 is_stmt 1 view .LVU47
 179 0024 1168     		ldr	r1, [r2]
 180 0026 41F48031 		orr	r1, r1, #65536
 181 002a 1160     		str	r1, [r2]
 182              	.L18:
 134:../../../lib/Drivers/STM32H7xx_HAL_Driver/Src/stm32h7xx_hal_spi_ex.c ****   }
 135:../../../lib/Drivers/STM32H7xx_HAL_Driver/Src/stm32h7xx_hal_spi_ex.c ****   else
 136:../../../lib/Drivers/STM32H7xx_HAL_Driver/Src/stm32h7xx_hal_spi_ex.c ****   {
 137:../../../lib/Drivers/STM32H7xx_HAL_Driver/Src/stm32h7xx_hal_spi_ex.c ****     /* Disable SPI peripheral */
 138:../../../lib/Drivers/STM32H7xx_HAL_Driver/Src/stm32h7xx_hal_spi_ex.c ****     __HAL_SPI_DISABLE(hspi);
 139:../../../lib/Drivers/STM32H7xx_HAL_Driver/Src/stm32h7xx_hal_spi_ex.c **** 
 140:../../../lib/Drivers/STM32H7xx_HAL_Driver/Src/stm32h7xx_hal_spi_ex.c ****     SET_BIT(hspi->Instance->CR1, SPI_CR1_IOLOCK);
 141:../../../lib/Drivers/STM32H7xx_HAL_Driver/Src/stm32h7xx_hal_spi_ex.c **** 
 142:../../../lib/Drivers/STM32H7xx_HAL_Driver/Src/stm32h7xx_hal_spi_ex.c ****     /* Enable SPI peripheral */
 143:../../../lib/Drivers/STM32H7xx_HAL_Driver/Src/stm32h7xx_hal_spi_ex.c ****     __HAL_SPI_ENABLE(hspi);
 144:../../../lib/Drivers/STM32H7xx_HAL_Driver/Src/stm32h7xx_hal_spi_ex.c ****   }
 145:../../../lib/Drivers/STM32H7xx_HAL_Driver/Src/stm32h7xx_hal_spi_ex.c **** 
 146:../../../lib/Drivers/STM32H7xx_HAL_Driver/Src/stm32h7xx_hal_spi_ex.c ****   hspi->State = HAL_SPI_STATE_READY;
 183              		.loc 1 146 3 view .LVU48
ARM GAS  /tmp/ccFpJLHW.s 			page 7


 184              		.loc 1 146 15 is_stmt 0 view .LVU49
 185 002c 0122     		movs	r2, #1
 186 002e 83F88120 		strb	r2, [r3, #129]
 147:../../../lib/Drivers/STM32H7xx_HAL_Driver/Src/stm32h7xx_hal_spi_ex.c ****   /* Process Unlocked */
 148:../../../lib/Drivers/STM32H7xx_HAL_Driver/Src/stm32h7xx_hal_spi_ex.c ****   __HAL_UNLOCK(hspi);
 187              		.loc 1 148 3 is_stmt 1 view .LVU50
 188              		.loc 1 148 3 view .LVU51
 189 0032 0020     		movs	r0, #0
 190              	.LVL10:
 191              		.loc 1 148 3 is_stmt 0 view .LVU52
 192 0034 83F88000 		strb	r0, [r3, #128]
 193              		.loc 1 148 3 is_stmt 1 view .LVU53
 149:../../../lib/Drivers/STM32H7xx_HAL_Driver/Src/stm32h7xx_hal_spi_ex.c ****   return errorcode;
 194              		.loc 1 149 3 view .LVU54
 195              		.loc 1 149 10 is_stmt 0 view .LVU55
 196 0038 7047     		bx	lr
 197              	.LVL11:
 198              	.L20:
 123:../../../lib/Drivers/STM32H7xx_HAL_Driver/Src/stm32h7xx_hal_spi_ex.c ****     hspi->State = HAL_SPI_STATE_READY;
 199              		.loc 1 123 5 is_stmt 1 view .LVU56
 124:../../../lib/Drivers/STM32H7xx_HAL_Driver/Src/stm32h7xx_hal_spi_ex.c ****     /* Process Unlocked */
 200              		.loc 1 124 5 view .LVU57
 124:../../../lib/Drivers/STM32H7xx_HAL_Driver/Src/stm32h7xx_hal_spi_ex.c ****     /* Process Unlocked */
 201              		.loc 1 124 17 is_stmt 0 view .LVU58
 202 003a 0122     		movs	r2, #1
 203 003c 80F88120 		strb	r2, [r0, #129]
 126:../../../lib/Drivers/STM32H7xx_HAL_Driver/Src/stm32h7xx_hal_spi_ex.c ****     return errorcode;
 204              		.loc 1 126 5 is_stmt 1 view .LVU59
 126:../../../lib/Drivers/STM32H7xx_HAL_Driver/Src/stm32h7xx_hal_spi_ex.c ****     return errorcode;
 205              		.loc 1 126 5 view .LVU60
 206 0040 0022     		movs	r2, #0
 207 0042 80F88020 		strb	r2, [r0, #128]
 126:../../../lib/Drivers/STM32H7xx_HAL_Driver/Src/stm32h7xx_hal_spi_ex.c ****     return errorcode;
 208              		.loc 1 126 5 view .LVU61
 127:../../../lib/Drivers/STM32H7xx_HAL_Driver/Src/stm32h7xx_hal_spi_ex.c ****   }
 209              		.loc 1 127 5 view .LVU62
 127:../../../lib/Drivers/STM32H7xx_HAL_Driver/Src/stm32h7xx_hal_spi_ex.c ****   }
 210              		.loc 1 127 12 is_stmt 0 view .LVU63
 211 0046 0220     		movs	r0, #2
 212              	.LVL12:
 127:../../../lib/Drivers/STM32H7xx_HAL_Driver/Src/stm32h7xx_hal_spi_ex.c ****   }
 213              		.loc 1 127 12 view .LVU64
 214 0048 7047     		bx	lr
 215              	.LVL13:
 216              	.L17:
 138:../../../lib/Drivers/STM32H7xx_HAL_Driver/Src/stm32h7xx_hal_spi_ex.c **** 
 217              		.loc 1 138 5 is_stmt 1 view .LVU65
 218 004a 1168     		ldr	r1, [r2]
 219 004c 21F00101 		bic	r1, r1, #1
 220 0050 1160     		str	r1, [r2]
 140:../../../lib/Drivers/STM32H7xx_HAL_Driver/Src/stm32h7xx_hal_spi_ex.c **** 
 221              		.loc 1 140 5 view .LVU66
 222 0052 0168     		ldr	r1, [r0]
 223 0054 0A68     		ldr	r2, [r1]
 224 0056 42F48032 		orr	r2, r2, #65536
 225 005a 0A60     		str	r2, [r1]
 143:../../../lib/Drivers/STM32H7xx_HAL_Driver/Src/stm32h7xx_hal_spi_ex.c ****   }
ARM GAS  /tmp/ccFpJLHW.s 			page 8


 226              		.loc 1 143 5 view .LVU67
 227 005c 0168     		ldr	r1, [r0]
 228 005e 0A68     		ldr	r2, [r1]
 229 0060 42F00102 		orr	r2, r2, #1
 230 0064 0A60     		str	r2, [r1]
 231 0066 E1E7     		b	.L18
 232              	.L19:
 119:../../../lib/Drivers/STM32H7xx_HAL_Driver/Src/stm32h7xx_hal_spi_ex.c **** 
 233              		.loc 1 119 3 is_stmt 0 view .LVU68
 234 0068 0220     		movs	r0, #2
 235              	.LVL14:
 150:../../../lib/Drivers/STM32H7xx_HAL_Driver/Src/stm32h7xx_hal_spi_ex.c **** }
 236              		.loc 1 150 1 view .LVU69
 237 006a 7047     		bx	lr
 238              		.cfi_endproc
 239              	.LFE145:
 241              		.section	.text.HAL_SPIEx_ConfigureUnderrun,"ax",%progbits
 242              		.align	1
 243              		.global	HAL_SPIEx_ConfigureUnderrun
 244              		.syntax unified
 245              		.thumb
 246              		.thumb_func
 248              	HAL_SPIEx_ConfigureUnderrun:
 249              	.LVL15:
 250              	.LFB146:
 151:../../../lib/Drivers/STM32H7xx_HAL_Driver/Src/stm32h7xx_hal_spi_ex.c **** 
 152:../../../lib/Drivers/STM32H7xx_HAL_Driver/Src/stm32h7xx_hal_spi_ex.c **** /**
 153:../../../lib/Drivers/STM32H7xx_HAL_Driver/Src/stm32h7xx_hal_spi_ex.c ****   * @brief  Configure the UNDERRUN condition and behavior of slave transmitter.
 154:../../../lib/Drivers/STM32H7xx_HAL_Driver/Src/stm32h7xx_hal_spi_ex.c ****   * @param  hspi: pointer to a SPI_HandleTypeDef structure that contains
 155:../../../lib/Drivers/STM32H7xx_HAL_Driver/Src/stm32h7xx_hal_spi_ex.c ****   *               the configuration information for SPI module.
 156:../../../lib/Drivers/STM32H7xx_HAL_Driver/Src/stm32h7xx_hal_spi_ex.c ****   * @param  UnderrunDetection : Detection of underrun condition at slave transmitter
 157:../../../lib/Drivers/STM32H7xx_HAL_Driver/Src/stm32h7xx_hal_spi_ex.c ****   *                             This parameter can be a value of @ref SPI_Underrun_Detection.
 158:../../../lib/Drivers/STM32H7xx_HAL_Driver/Src/stm32h7xx_hal_spi_ex.c ****   * @param  UnderrunBehaviour : Behavior of slave transmitter at underrun condition
 159:../../../lib/Drivers/STM32H7xx_HAL_Driver/Src/stm32h7xx_hal_spi_ex.c ****   *                             This parameter can be a value of @ref SPI_Underrun_Behaviour.
 160:../../../lib/Drivers/STM32H7xx_HAL_Driver/Src/stm32h7xx_hal_spi_ex.c ****   * @retval None
 161:../../../lib/Drivers/STM32H7xx_HAL_Driver/Src/stm32h7xx_hal_spi_ex.c ****   */
 162:../../../lib/Drivers/STM32H7xx_HAL_Driver/Src/stm32h7xx_hal_spi_ex.c **** HAL_StatusTypeDef HAL_SPIEx_ConfigureUnderrun(SPI_HandleTypeDef *hspi, uint32_t UnderrunDetection,
 163:../../../lib/Drivers/STM32H7xx_HAL_Driver/Src/stm32h7xx_hal_spi_ex.c ****                                               uint32_t UnderrunBehaviour)
 164:../../../lib/Drivers/STM32H7xx_HAL_Driver/Src/stm32h7xx_hal_spi_ex.c **** {
 251              		.loc 1 164 1 is_stmt 1 view -0
 252              		.cfi_startproc
 253              		@ args = 0, pretend = 0, frame = 0
 254              		@ frame_needed = 0, uses_anonymous_args = 0
 255              		@ link register save eliminated.
 165:../../../lib/Drivers/STM32H7xx_HAL_Driver/Src/stm32h7xx_hal_spi_ex.c ****   HAL_StatusTypeDef errorcode = HAL_OK;
 256              		.loc 1 165 3 view .LVU71
 166:../../../lib/Drivers/STM32H7xx_HAL_Driver/Src/stm32h7xx_hal_spi_ex.c **** 
 167:../../../lib/Drivers/STM32H7xx_HAL_Driver/Src/stm32h7xx_hal_spi_ex.c ****   /* Process Locked */
 168:../../../lib/Drivers/STM32H7xx_HAL_Driver/Src/stm32h7xx_hal_spi_ex.c ****   __HAL_LOCK(hspi);
 257              		.loc 1 168 3 view .LVU72
 258              		.loc 1 168 3 view .LVU73
 259 0000 90F88030 		ldrb	r3, [r0, #128]	@ zero_extendqisi2
 260 0004 012B     		cmp	r3, #1
 261 0006 43D0     		beq	.L27
 262              		.loc 1 168 3 discriminator 2 view .LVU74
 263 0008 0123     		movs	r3, #1
 264 000a 80F88030 		strb	r3, [r0, #128]
ARM GAS  /tmp/ccFpJLHW.s 			page 9


 265              		.loc 1 168 3 discriminator 2 view .LVU75
 169:../../../lib/Drivers/STM32H7xx_HAL_Driver/Src/stm32h7xx_hal_spi_ex.c **** 
 170:../../../lib/Drivers/STM32H7xx_HAL_Driver/Src/stm32h7xx_hal_spi_ex.c ****   /* Check State and Insure that Underrun configuration is managed only by Salve */
 171:../../../lib/Drivers/STM32H7xx_HAL_Driver/Src/stm32h7xx_hal_spi_ex.c ****   if ((hspi->State != HAL_SPI_STATE_READY) || (hspi->Init.Mode != SPI_MODE_SLAVE))
 266              		.loc 1 171 3 discriminator 2 view .LVU76
 267              		.loc 1 171 12 is_stmt 0 discriminator 2 view .LVU77
 268 000e 90F88130 		ldrb	r3, [r0, #129]	@ zero_extendqisi2
 269 0012 DBB2     		uxtb	r3, r3
 270              		.loc 1 171 6 discriminator 2 view .LVU78
 271 0014 012B     		cmp	r3, #1
 272 0016 1DD1     		bne	.L23
 273              		.loc 1 171 58 discriminator 1 view .LVU79
 274 0018 4368     		ldr	r3, [r0, #4]
 275              		.loc 1 171 44 discriminator 1 view .LVU80
 276 001a DBB9     		cbnz	r3, .L23
 164:../../../lib/Drivers/STM32H7xx_HAL_Driver/Src/stm32h7xx_hal_spi_ex.c ****   HAL_StatusTypeDef errorcode = HAL_OK;
 277              		.loc 1 164 1 view .LVU81
 278 001c 10B4     		push	{r4}
 279              	.LCFI4:
 280              		.cfi_def_cfa_offset 4
 281              		.cfi_offset 4, -4
 172:../../../lib/Drivers/STM32H7xx_HAL_Driver/Src/stm32h7xx_hal_spi_ex.c ****   {
 173:../../../lib/Drivers/STM32H7xx_HAL_Driver/Src/stm32h7xx_hal_spi_ex.c ****     errorcode = HAL_BUSY;
 174:../../../lib/Drivers/STM32H7xx_HAL_Driver/Src/stm32h7xx_hal_spi_ex.c ****     hspi->State = HAL_SPI_STATE_READY;
 175:../../../lib/Drivers/STM32H7xx_HAL_Driver/Src/stm32h7xx_hal_spi_ex.c ****     /* Process Unlocked */
 176:../../../lib/Drivers/STM32H7xx_HAL_Driver/Src/stm32h7xx_hal_spi_ex.c ****     __HAL_UNLOCK(hspi);
 177:../../../lib/Drivers/STM32H7xx_HAL_Driver/Src/stm32h7xx_hal_spi_ex.c ****     return errorcode;
 178:../../../lib/Drivers/STM32H7xx_HAL_Driver/Src/stm32h7xx_hal_spi_ex.c ****   }
 179:../../../lib/Drivers/STM32H7xx_HAL_Driver/Src/stm32h7xx_hal_spi_ex.c **** 
 180:../../../lib/Drivers/STM32H7xx_HAL_Driver/Src/stm32h7xx_hal_spi_ex.c ****   /* Check the parameters */
 181:../../../lib/Drivers/STM32H7xx_HAL_Driver/Src/stm32h7xx_hal_spi_ex.c ****   assert_param(IS_SPI_UNDERRUN_DETECTION(UnderrunDetection));
 282              		.loc 1 181 3 is_stmt 1 view .LVU82
 182:../../../lib/Drivers/STM32H7xx_HAL_Driver/Src/stm32h7xx_hal_spi_ex.c ****   assert_param(IS_SPI_UNDERRUN_BEHAVIOUR(UnderrunBehaviour));
 283              		.loc 1 182 3 view .LVU83
 183:../../../lib/Drivers/STM32H7xx_HAL_Driver/Src/stm32h7xx_hal_spi_ex.c **** 
 184:../../../lib/Drivers/STM32H7xx_HAL_Driver/Src/stm32h7xx_hal_spi_ex.c ****   /* Check if the SPI is disabled to edit CFG1 register */
 185:../../../lib/Drivers/STM32H7xx_HAL_Driver/Src/stm32h7xx_hal_spi_ex.c ****   if ((hspi->Instance->CR1 & SPI_CR1_SPE) != SPI_CR1_SPE)
 284              		.loc 1 185 3 view .LVU84
 285              		.loc 1 185 12 is_stmt 0 view .LVU85
 286 001e 0368     		ldr	r3, [r0]
 287              		.loc 1 185 22 view .LVU86
 288 0020 1C68     		ldr	r4, [r3]
 289              		.loc 1 185 6 view .LVU87
 290 0022 14F0010F 		tst	r4, #1
 291 0026 1DD1     		bne	.L25
 186:../../../lib/Drivers/STM32H7xx_HAL_Driver/Src/stm32h7xx_hal_spi_ex.c ****   {
 187:../../../lib/Drivers/STM32H7xx_HAL_Driver/Src/stm32h7xx_hal_spi_ex.c ****     /* Configure Underrun fields */
 188:../../../lib/Drivers/STM32H7xx_HAL_Driver/Src/stm32h7xx_hal_spi_ex.c ****     MODIFY_REG(hspi->Instance->CFG1, SPI_CFG1_UDRDET, UnderrunDetection);
 292              		.loc 1 188 5 is_stmt 1 view .LVU88
 293 0028 9C68     		ldr	r4, [r3, #8]
 294 002a 24F4C05C 		bic	ip, r4, #6144
 295 002e 4CEA0101 		orr	r1, ip, r1
 296              	.LVL16:
 297              		.loc 1 188 5 is_stmt 0 view .LVU89
 298 0032 9960     		str	r1, [r3, #8]
 189:../../../lib/Drivers/STM32H7xx_HAL_Driver/Src/stm32h7xx_hal_spi_ex.c ****     MODIFY_REG(hspi->Instance->CFG1, SPI_CFG1_UDRCFG, UnderrunBehaviour);
 299              		.loc 1 189 5 is_stmt 1 view .LVU90
ARM GAS  /tmp/ccFpJLHW.s 			page 10


 300 0034 0168     		ldr	r1, [r0]
 301 0036 8B68     		ldr	r3, [r1, #8]
 302 0038 23F4C063 		bic	r3, r3, #1536
 303 003c 1343     		orrs	r3, r3, r2
 304 003e 8B60     		str	r3, [r1, #8]
 305              	.LVL17:
 306              	.L26:
 190:../../../lib/Drivers/STM32H7xx_HAL_Driver/Src/stm32h7xx_hal_spi_ex.c ****   }
 191:../../../lib/Drivers/STM32H7xx_HAL_Driver/Src/stm32h7xx_hal_spi_ex.c ****   else
 192:../../../lib/Drivers/STM32H7xx_HAL_Driver/Src/stm32h7xx_hal_spi_ex.c ****   {
 193:../../../lib/Drivers/STM32H7xx_HAL_Driver/Src/stm32h7xx_hal_spi_ex.c ****     /* Disable SPI peripheral */
 194:../../../lib/Drivers/STM32H7xx_HAL_Driver/Src/stm32h7xx_hal_spi_ex.c ****     __HAL_SPI_DISABLE(hspi);
 195:../../../lib/Drivers/STM32H7xx_HAL_Driver/Src/stm32h7xx_hal_spi_ex.c **** 
 196:../../../lib/Drivers/STM32H7xx_HAL_Driver/Src/stm32h7xx_hal_spi_ex.c ****     /* Configure Underrun fields */
 197:../../../lib/Drivers/STM32H7xx_HAL_Driver/Src/stm32h7xx_hal_spi_ex.c ****     MODIFY_REG(hspi->Instance->CFG1, SPI_CFG1_UDRDET, UnderrunDetection);
 198:../../../lib/Drivers/STM32H7xx_HAL_Driver/Src/stm32h7xx_hal_spi_ex.c ****     MODIFY_REG(hspi->Instance->CFG1, SPI_CFG1_UDRCFG, UnderrunBehaviour);
 199:../../../lib/Drivers/STM32H7xx_HAL_Driver/Src/stm32h7xx_hal_spi_ex.c **** 
 200:../../../lib/Drivers/STM32H7xx_HAL_Driver/Src/stm32h7xx_hal_spi_ex.c ****     /* Enable SPI peripheral */
 201:../../../lib/Drivers/STM32H7xx_HAL_Driver/Src/stm32h7xx_hal_spi_ex.c ****     __HAL_SPI_ENABLE(hspi);
 202:../../../lib/Drivers/STM32H7xx_HAL_Driver/Src/stm32h7xx_hal_spi_ex.c ****   }
 203:../../../lib/Drivers/STM32H7xx_HAL_Driver/Src/stm32h7xx_hal_spi_ex.c **** 
 204:../../../lib/Drivers/STM32H7xx_HAL_Driver/Src/stm32h7xx_hal_spi_ex.c **** 
 205:../../../lib/Drivers/STM32H7xx_HAL_Driver/Src/stm32h7xx_hal_spi_ex.c ****   hspi->State = HAL_SPI_STATE_READY;
 307              		.loc 1 205 3 view .LVU91
 308              		.loc 1 205 15 is_stmt 0 view .LVU92
 309 0040 0123     		movs	r3, #1
 310 0042 80F88130 		strb	r3, [r0, #129]
 206:../../../lib/Drivers/STM32H7xx_HAL_Driver/Src/stm32h7xx_hal_spi_ex.c ****   /* Process Unlocked */
 207:../../../lib/Drivers/STM32H7xx_HAL_Driver/Src/stm32h7xx_hal_spi_ex.c ****   __HAL_UNLOCK(hspi);
 311              		.loc 1 207 3 is_stmt 1 view .LVU93
 312              		.loc 1 207 3 view .LVU94
 313 0046 0023     		movs	r3, #0
 314 0048 80F88030 		strb	r3, [r0, #128]
 315              		.loc 1 207 3 view .LVU95
 208:../../../lib/Drivers/STM32H7xx_HAL_Driver/Src/stm32h7xx_hal_spi_ex.c ****   return errorcode;
 316              		.loc 1 208 3 view .LVU96
 317              		.loc 1 208 10 is_stmt 0 view .LVU97
 318 004c 1846     		mov	r0, r3
 319              	.LVL18:
 209:../../../lib/Drivers/STM32H7xx_HAL_Driver/Src/stm32h7xx_hal_spi_ex.c **** }
 320              		.loc 1 209 1 view .LVU98
 321 004e 5DF8044B 		ldr	r4, [sp], #4
 322              	.LCFI5:
 323              		.cfi_restore 4
 324              		.cfi_def_cfa_offset 0
 325 0052 7047     		bx	lr
 326              	.LVL19:
 327              	.L23:
 173:../../../lib/Drivers/STM32H7xx_HAL_Driver/Src/stm32h7xx_hal_spi_ex.c ****     hspi->State = HAL_SPI_STATE_READY;
 328              		.loc 1 173 5 is_stmt 1 view .LVU99
 174:../../../lib/Drivers/STM32H7xx_HAL_Driver/Src/stm32h7xx_hal_spi_ex.c ****     /* Process Unlocked */
 329              		.loc 1 174 5 view .LVU100
 174:../../../lib/Drivers/STM32H7xx_HAL_Driver/Src/stm32h7xx_hal_spi_ex.c ****     /* Process Unlocked */
 330              		.loc 1 174 17 is_stmt 0 view .LVU101
 331 0054 0123     		movs	r3, #1
 332 0056 80F88130 		strb	r3, [r0, #129]
 176:../../../lib/Drivers/STM32H7xx_HAL_Driver/Src/stm32h7xx_hal_spi_ex.c ****     return errorcode;
ARM GAS  /tmp/ccFpJLHW.s 			page 11


 333              		.loc 1 176 5 is_stmt 1 view .LVU102
 176:../../../lib/Drivers/STM32H7xx_HAL_Driver/Src/stm32h7xx_hal_spi_ex.c ****     return errorcode;
 334              		.loc 1 176 5 view .LVU103
 335 005a 0023     		movs	r3, #0
 336 005c 80F88030 		strb	r3, [r0, #128]
 176:../../../lib/Drivers/STM32H7xx_HAL_Driver/Src/stm32h7xx_hal_spi_ex.c ****     return errorcode;
 337              		.loc 1 176 5 view .LVU104
 177:../../../lib/Drivers/STM32H7xx_HAL_Driver/Src/stm32h7xx_hal_spi_ex.c ****   }
 338              		.loc 1 177 5 view .LVU105
 177:../../../lib/Drivers/STM32H7xx_HAL_Driver/Src/stm32h7xx_hal_spi_ex.c ****   }
 339              		.loc 1 177 12 is_stmt 0 view .LVU106
 340 0060 0220     		movs	r0, #2
 341              	.LVL20:
 177:../../../lib/Drivers/STM32H7xx_HAL_Driver/Src/stm32h7xx_hal_spi_ex.c ****   }
 342              		.loc 1 177 12 view .LVU107
 343 0062 7047     		bx	lr
 344              	.LVL21:
 345              	.L25:
 346              	.LCFI6:
 347              		.cfi_def_cfa_offset 4
 348              		.cfi_offset 4, -4
 194:../../../lib/Drivers/STM32H7xx_HAL_Driver/Src/stm32h7xx_hal_spi_ex.c **** 
 349              		.loc 1 194 5 is_stmt 1 view .LVU108
 350 0064 1C68     		ldr	r4, [r3]
 351 0066 24F00104 		bic	r4, r4, #1
 352 006a 1C60     		str	r4, [r3]
 197:../../../lib/Drivers/STM32H7xx_HAL_Driver/Src/stm32h7xx_hal_spi_ex.c ****     MODIFY_REG(hspi->Instance->CFG1, SPI_CFG1_UDRCFG, UnderrunBehaviour);
 353              		.loc 1 197 5 view .LVU109
 354 006c 0468     		ldr	r4, [r0]
 355 006e A368     		ldr	r3, [r4, #8]
 356 0070 23F4C053 		bic	r3, r3, #6144
 357 0074 0B43     		orrs	r3, r3, r1
 358 0076 A360     		str	r3, [r4, #8]
 198:../../../lib/Drivers/STM32H7xx_HAL_Driver/Src/stm32h7xx_hal_spi_ex.c **** 
 359              		.loc 1 198 5 view .LVU110
 360 0078 0168     		ldr	r1, [r0]
 361              	.LVL22:
 198:../../../lib/Drivers/STM32H7xx_HAL_Driver/Src/stm32h7xx_hal_spi_ex.c **** 
 362              		.loc 1 198 5 is_stmt 0 view .LVU111
 363 007a 8B68     		ldr	r3, [r1, #8]
 364 007c 23F4C063 		bic	r3, r3, #1536
 365 0080 1343     		orrs	r3, r3, r2
 366 0082 8B60     		str	r3, [r1, #8]
 201:../../../lib/Drivers/STM32H7xx_HAL_Driver/Src/stm32h7xx_hal_spi_ex.c ****   }
 367              		.loc 1 201 5 is_stmt 1 view .LVU112
 368 0084 0268     		ldr	r2, [r0]
 369              	.LVL23:
 201:../../../lib/Drivers/STM32H7xx_HAL_Driver/Src/stm32h7xx_hal_spi_ex.c ****   }
 370              		.loc 1 201 5 is_stmt 0 view .LVU113
 371 0086 1368     		ldr	r3, [r2]
 372 0088 43F00103 		orr	r3, r3, #1
 373 008c 1360     		str	r3, [r2]
 374 008e D7E7     		b	.L26
 375              	.LVL24:
 376              	.L27:
 377              	.LCFI7:
 378              		.cfi_def_cfa_offset 0
ARM GAS  /tmp/ccFpJLHW.s 			page 12


 379              		.cfi_restore 4
 168:../../../lib/Drivers/STM32H7xx_HAL_Driver/Src/stm32h7xx_hal_spi_ex.c **** 
 380              		.loc 1 168 3 view .LVU114
 381 0090 0220     		movs	r0, #2
 382              	.LVL25:
 383              		.loc 1 209 1 view .LVU115
 384 0092 7047     		bx	lr
 385              		.cfi_endproc
 386              	.LFE146:
 388              		.text
 389              	.Letext0:
 390              		.file 2 "/usr/lib/gcc/arm-none-eabi/12.2.1/include/stdint.h"
 391              		.file 3 "../../../lib/Drivers/CMSIS/Device/ST/STM32H7xx/Include/stm32h750xx.h"
 392              		.file 4 "../../../lib/Drivers/STM32H7xx_HAL_Driver/Inc/stm32h7xx_hal_def.h"
 393              		.file 5 "../../../lib/Drivers/STM32H7xx_HAL_Driver/Inc/stm32h7xx_hal_dma.h"
 394              		.file 6 "../../../lib/Drivers/STM32H7xx_HAL_Driver/Inc/stm32h7xx_hal_spi.h"
ARM GAS  /tmp/ccFpJLHW.s 			page 13

