ARM GAS  C:\Users\tnguy\AppData\Local\Temp\ccM44fZH.s 			page 1


   1              		.cpu cortex-m7
   2              		.arch armv7e-m
   3              		.fpu fpv5-d16
   4              		.eabi_attribute 28, 1
   5              		.eabi_attribute 20, 1
   6              		.eabi_attribute 21, 1
   7              		.eabi_attribute 23, 3
   8              		.eabi_attribute 24, 1
   9              		.eabi_attribute 25, 1
  10              		.eabi_attribute 26, 1
  11              		.eabi_attribute 30, 1
  12              		.eabi_attribute 34, 1
  13              		.eabi_attribute 18, 4
  14              		.file	"buzzer.c"
  15              		.text
  16              	.Ltext0:
  17              		.cfi_sections	.debug_frame
  18              		.section	.text.buzzer_beep,"ax",%progbits
  19              		.align	1
  20              		.global	buzzer_beep
  21              		.syntax unified
  22              		.thumb
  23              		.thumb_func
  25              	buzzer_beep:
  26              	.LVL0:
  27              	.LFB144:
  28              		.file 1 "../../../mod/buzzer/buzzer.c"
   1:../../../mod/buzzer/buzzer.c **** /*******************************************************************************
   2:../../../mod/buzzer/buzzer.c **** *
   3:../../../mod/buzzer/buzzer.c **** * FILE: 
   4:../../../mod/buzzer/buzzer.c **** * 		buzzer.c
   5:../../../mod/buzzer/buzzer.c **** *
   6:../../../mod/buzzer/buzzer.c **** * DESCRIPTION: 
   7:../../../mod/buzzer/buzzer.c **** * 		Contains API functions for the flight computer buzzer 
   8:../../../mod/buzzer/buzzer.c **** *
   9:../../../mod/buzzer/buzzer.c **** *******************************************************************************/
  10:../../../mod/buzzer/buzzer.c **** 
  11:../../../mod/buzzer/buzzer.c **** 
  12:../../../mod/buzzer/buzzer.c **** /*------------------------------------------------------------------------------
  13:../../../mod/buzzer/buzzer.c ****  Standard Includes                                                                     
  14:../../../mod/buzzer/buzzer.c **** ------------------------------------------------------------------------------*/
  15:../../../mod/buzzer/buzzer.c **** #include <stdbool.h>
  16:../../../mod/buzzer/buzzer.c **** #include <string.h>
  17:../../../mod/buzzer/buzzer.c **** #include <math.h>
  18:../../../mod/buzzer/buzzer.c **** 
  19:../../../mod/buzzer/buzzer.c **** 
  20:../../../mod/buzzer/buzzer.c **** /*------------------------------------------------------------------------------
  21:../../../mod/buzzer/buzzer.c ****  Project Includes                                                                     
  22:../../../mod/buzzer/buzzer.c **** ------------------------------------------------------------------------------*/
  23:../../../mod/buzzer/buzzer.c **** #include "main.h"
  24:../../../mod/buzzer/buzzer.c **** #if defined( FLIGHT_COMPUTER )
  25:../../../mod/buzzer/buzzer.c **** 	#include "sdr_pin_defines_A0002.h"
  26:../../../mod/buzzer/buzzer.c **** #elif defined( FLIGHT_COMPUTER_LITE )
  27:../../../mod/buzzer/buzzer.c **** 	#include "sdr_pin_defines_A0007.h"
  28:../../../mod/buzzer/buzzer.c **** #else
  29:../../../mod/buzzer/buzzer.c **** 	#error No buzzer compatible device specified
  30:../../../mod/buzzer/buzzer.c **** #endif
ARM GAS  C:\Users\tnguy\AppData\Local\Temp\ccM44fZH.s 			page 2


  31:../../../mod/buzzer/buzzer.c **** #include "buzzer.h"
  32:../../../mod/buzzer/buzzer.c **** 
  33:../../../mod/buzzer/buzzer.c **** 
  34:../../../mod/buzzer/buzzer.c **** /*------------------------------------------------------------------------------
  35:../../../mod/buzzer/buzzer.c **** Global Variables  
  36:../../../mod/buzzer/buzzer.c **** ------------------------------------------------------------------------------*/
  37:../../../mod/buzzer/buzzer.c **** 
  38:../../../mod/buzzer/buzzer.c **** 
  39:../../../mod/buzzer/buzzer.c **** /*------------------------------------------------------------------------------
  40:../../../mod/buzzer/buzzer.c ****  Internal function prototypes 
  41:../../../mod/buzzer/buzzer.c **** ------------------------------------------------------------------------------*/
  42:../../../mod/buzzer/buzzer.c **** 
  43:../../../mod/buzzer/buzzer.c **** 
  44:../../../mod/buzzer/buzzer.c **** /*------------------------------------------------------------------------------
  45:../../../mod/buzzer/buzzer.c ****  API Functions 
  46:../../../mod/buzzer/buzzer.c **** ------------------------------------------------------------------------------*/
  47:../../../mod/buzzer/buzzer.c **** 
  48:../../../mod/buzzer/buzzer.c **** 
  49:../../../mod/buzzer/buzzer.c **** /*******************************************************************************
  50:../../../mod/buzzer/buzzer.c **** *                                                                              *
  51:../../../mod/buzzer/buzzer.c **** * PROCEDURE:                                                                   * 
  52:../../../mod/buzzer/buzzer.c **** *       buzzer_beep                                                            *
  53:../../../mod/buzzer/buzzer.c **** *                                                                              *
  54:../../../mod/buzzer/buzzer.c **** * DESCRIPTION:                                                                 * 
  55:../../../mod/buzzer/buzzer.c **** * 		Beep the flight computer buzzer                                        *
  56:../../../mod/buzzer/buzzer.c **** *                                                                              *
  57:../../../mod/buzzer/buzzer.c **** *******************************************************************************/
  58:../../../mod/buzzer/buzzer.c **** BUZZ_STATUS buzzer_beep 
  59:../../../mod/buzzer/buzzer.c **** 	(
  60:../../../mod/buzzer/buzzer.c **** 	uint32_t duration /* Length of beep in milliseconds */
  61:../../../mod/buzzer/buzzer.c **** 	)
  62:../../../mod/buzzer/buzzer.c **** {
  29              		.loc 1 62 1 view -0
  30              		.cfi_startproc
  31              		@ args = 0, pretend = 0, frame = 0
  32              		@ frame_needed = 0, uses_anonymous_args = 0
  33              		.loc 1 62 1 is_stmt 0 view .LVU1
  34 0000 10B5     		push	{r4, lr}
  35              	.LCFI0:
  36              		.cfi_def_cfa_offset 8
  37              		.cfi_offset 4, -8
  38              		.cfi_offset 14, -4
  39 0002 0446     		mov	r4, r0
  63:../../../mod/buzzer/buzzer.c **** /*------------------------------------------------------------------------------
  64:../../../mod/buzzer/buzzer.c ****  Local variables  
  65:../../../mod/buzzer/buzzer.c **** ------------------------------------------------------------------------------*/
  66:../../../mod/buzzer/buzzer.c **** HAL_StatusTypeDef hal_status; /* Return codes from HAL API */
  40              		.loc 1 66 1 is_stmt 1 view .LVU2
  67:../../../mod/buzzer/buzzer.c **** 
  68:../../../mod/buzzer/buzzer.c **** /*------------------------------------------------------------------------------
  69:../../../mod/buzzer/buzzer.c ****  Initializations 
  70:../../../mod/buzzer/buzzer.c **** ------------------------------------------------------------------------------*/
  71:../../../mod/buzzer/buzzer.c **** hal_status = HAL_OK;
  41              		.loc 1 71 1 view .LVU3
  42              	.LVL1:
  72:../../../mod/buzzer/buzzer.c **** 
  73:../../../mod/buzzer/buzzer.c **** 
ARM GAS  C:\Users\tnguy\AppData\Local\Temp\ccM44fZH.s 			page 3


  74:../../../mod/buzzer/buzzer.c **** /*------------------------------------------------------------------------------
  75:../../../mod/buzzer/buzzer.c ****  API Function Implementation 
  76:../../../mod/buzzer/buzzer.c **** ------------------------------------------------------------------------------*/
  77:../../../mod/buzzer/buzzer.c **** 
  78:../../../mod/buzzer/buzzer.c **** /* Start generating PWM pulses */
  79:../../../mod/buzzer/buzzer.c **** hal_status = HAL_TIM_PWM_Start( &(BUZZ_TIM), BUZZ_TIM_CHANNEL );
  43              		.loc 1 79 1 view .LVU4
  44              		.loc 1 79 14 is_stmt 0 view .LVU5
  45 0004 0821     		movs	r1, #8
  46 0006 0848     		ldr	r0, .L6
  47              	.LVL2:
  48              		.loc 1 79 14 view .LVU6
  49 0008 FFF7FEFF 		bl	HAL_TIM_PWM_Start
  50              	.LVL3:
  80:../../../mod/buzzer/buzzer.c **** if ( hal_status != HAL_OK )
  51              		.loc 1 80 1 is_stmt 1 view .LVU7
  52              		.loc 1 80 4 is_stmt 0 view .LVU8
  53 000c 08B1     		cbz	r0, .L5
  81:../../../mod/buzzer/buzzer.c **** 	{
  82:../../../mod/buzzer/buzzer.c **** 	return BUZZ_HAL_ERROR;
  54              		.loc 1 82 9 view .LVU9
  55 000e 0120     		movs	r0, #1
  56              	.LVL4:
  57              	.L2:
  83:../../../mod/buzzer/buzzer.c **** 	}
  84:../../../mod/buzzer/buzzer.c **** 
  85:../../../mod/buzzer/buzzer.c **** /* Wait for beep duration */
  86:../../../mod/buzzer/buzzer.c **** HAL_Delay( duration );
  87:../../../mod/buzzer/buzzer.c **** 
  88:../../../mod/buzzer/buzzer.c **** /* Stop the PWM pulses */
  89:../../../mod/buzzer/buzzer.c **** hal_status = HAL_TIM_PWM_Stop( &( BUZZ_TIM ), BUZZ_TIM_CHANNEL );
  90:../../../mod/buzzer/buzzer.c **** if ( hal_status != HAL_OK )
  91:../../../mod/buzzer/buzzer.c **** 	{
  92:../../../mod/buzzer/buzzer.c **** 	return BUZZ_HAL_ERROR;
  93:../../../mod/buzzer/buzzer.c **** 	}
  94:../../../mod/buzzer/buzzer.c **** else
  95:../../../mod/buzzer/buzzer.c **** 	{
  96:../../../mod/buzzer/buzzer.c **** 	return BUZZ_OK;
  97:../../../mod/buzzer/buzzer.c **** 	}
  98:../../../mod/buzzer/buzzer.c **** 
  99:../../../mod/buzzer/buzzer.c **** } /* buzzer_beep */
  58              		.loc 1 99 1 view .LVU10
  59 0010 10BD     		pop	{r4, pc}
  60              	.LVL5:
  61              	.L5:
  86:../../../mod/buzzer/buzzer.c **** 
  62              		.loc 1 86 1 is_stmt 1 view .LVU11
  63 0012 2046     		mov	r0, r4
  64              	.LVL6:
  86:../../../mod/buzzer/buzzer.c **** 
  65              		.loc 1 86 1 is_stmt 0 view .LVU12
  66 0014 FFF7FEFF 		bl	HAL_Delay
  67              	.LVL7:
  89:../../../mod/buzzer/buzzer.c **** if ( hal_status != HAL_OK )
  68              		.loc 1 89 1 is_stmt 1 view .LVU13
  89:../../../mod/buzzer/buzzer.c **** if ( hal_status != HAL_OK )
  69              		.loc 1 89 14 is_stmt 0 view .LVU14
ARM GAS  C:\Users\tnguy\AppData\Local\Temp\ccM44fZH.s 			page 4


  70 0018 0821     		movs	r1, #8
  71 001a 0348     		ldr	r0, .L6
  72 001c FFF7FEFF 		bl	HAL_TIM_PWM_Stop
  73              	.LVL8:
  90:../../../mod/buzzer/buzzer.c **** 	{
  74              		.loc 1 90 1 is_stmt 1 view .LVU15
  90:../../../mod/buzzer/buzzer.c **** 	{
  75              		.loc 1 90 4 is_stmt 0 view .LVU16
  76 0020 0028     		cmp	r0, #0
  77 0022 F5D0     		beq	.L2
  92:../../../mod/buzzer/buzzer.c **** 	}
  78              		.loc 1 92 9 view .LVU17
  79 0024 0120     		movs	r0, #1
  80              	.LVL9:
  92:../../../mod/buzzer/buzzer.c **** 	}
  81              		.loc 1 92 9 view .LVU18
  82 0026 F3E7     		b	.L2
  83              	.L7:
  84              		.align	2
  85              	.L6:
  86 0028 00000000 		.word	htim4
  87              		.cfi_endproc
  88              	.LFE144:
  90              		.section	.text.buzzer_num_beeps,"ax",%progbits
  91              		.align	1
  92              		.global	buzzer_num_beeps
  93              		.syntax unified
  94              		.thumb
  95              		.thumb_func
  97              	buzzer_num_beeps:
  98              	.LVL10:
  99              	.LFB145:
 100:../../../mod/buzzer/buzzer.c **** 
 101:../../../mod/buzzer/buzzer.c **** 
 102:../../../mod/buzzer/buzzer.c **** /*******************************************************************************
 103:../../../mod/buzzer/buzzer.c **** *                                                                              *
 104:../../../mod/buzzer/buzzer.c **** * PROCEDURE:                                                                   *
 105:../../../mod/buzzer/buzzer.c **** *       buzzer_num_beeps                                                       *
 106:../../../mod/buzzer/buzzer.c **** *                                                                              *
 107:../../../mod/buzzer/buzzer.c **** * DESCRIPTION:                                                                 *
 108:../../../mod/buzzer/buzzer.c **** * 		Beep the flight computer buzzer specified number of times              *
 109:../../../mod/buzzer/buzzer.c **** *                                                                              *
 110:../../../mod/buzzer/buzzer.c **** *******************************************************************************/
 111:../../../mod/buzzer/buzzer.c **** BUZZ_STATUS buzzer_num_beeps
 112:../../../mod/buzzer/buzzer.c **** 	(
 113:../../../mod/buzzer/buzzer.c **** 	uint8_t num_beeps /* Number of beeps */
 114:../../../mod/buzzer/buzzer.c **** 	)
 115:../../../mod/buzzer/buzzer.c **** {
 100              		.loc 1 115 1 is_stmt 1 view -0
 101              		.cfi_startproc
 102              		@ args = 0, pretend = 0, frame = 0
 103              		@ frame_needed = 0, uses_anonymous_args = 0
 104              		.loc 1 115 1 is_stmt 0 view .LVU20
 105 0000 F8B5     		push	{r3, r4, r5, r6, r7, lr}
 106              	.LCFI1:
 107              		.cfi_def_cfa_offset 24
 108              		.cfi_offset 3, -24
ARM GAS  C:\Users\tnguy\AppData\Local\Temp\ccM44fZH.s 			page 5


 109              		.cfi_offset 4, -20
 110              		.cfi_offset 5, -16
 111              		.cfi_offset 6, -12
 112              		.cfi_offset 7, -8
 113              		.cfi_offset 14, -4
 114 0002 0546     		mov	r5, r0
 116:../../../mod/buzzer/buzzer.c **** /* This function is implemented as a non-blocking function that uses the 
 117:../../../mod/buzzer/buzzer.c ****    sysClock to detemine when to take an action. The function is meant to be 
 118:../../../mod/buzzer/buzzer.c ****    used to loops with processing times less than the beep and intermittent 
 119:../../../mod/buzzer/buzzer.c ****    durations. The static variable num_calls is used to maintain memory of 
 120:../../../mod/buzzer/buzzer.c ****    how many times the function has been called. The static variables 
 121:../../../mod/buzzer/buzzer.c ****    init_beep_time and stop_beep_time are used to keep track of the time of 
 122:../../../mod/buzzer/buzzer.c ****    starting and stopping a beep between subsequenct function calls. The static 
 123:../../../mod/buzzer/buzzer.c ****    variable last_end_time is used to add a delay between subsequent sequences 
 124:../../../mod/buzzer/buzzer.c ****    of beeps so the beep count can be discerned */
 125:../../../mod/buzzer/buzzer.c **** static uint8_t   num_calls      = 0;
 115              		.loc 1 125 1 is_stmt 1 view .LVU21
 126:../../../mod/buzzer/buzzer.c **** static uint32_t  init_beep_time = 0;
 116              		.loc 1 126 1 view .LVU22
 127:../../../mod/buzzer/buzzer.c **** static uint32_t  stop_beep_time = 0;
 117              		.loc 1 127 1 view .LVU23
 128:../../../mod/buzzer/buzzer.c **** static uint32_t  last_end_time  = 0;
 118              		.loc 1 128 1 view .LVU24
 129:../../../mod/buzzer/buzzer.c **** 
 130:../../../mod/buzzer/buzzer.c **** /*------------------------------------------------------------------------------
 131:../../../mod/buzzer/buzzer.c ****  Local variables  
 132:../../../mod/buzzer/buzzer.c **** ------------------------------------------------------------------------------*/
 133:../../../mod/buzzer/buzzer.c **** HAL_StatusTypeDef hal_status;      /* Return codes from HAL API      */
 119              		.loc 1 133 1 view .LVU25
 134:../../../mod/buzzer/buzzer.c **** uint8_t           total_num_calls; /* Number of times the function must be 
 120              		.loc 1 134 1 view .LVU26
 135:../../../mod/buzzer/buzzer.c ****                                       called to beep num_beeps times */
 136:../../../mod/buzzer/buzzer.c **** uint8_t           is_odd;          /* 1 when num_calls is odd        */
 121              		.loc 1 136 1 view .LVU27
 137:../../../mod/buzzer/buzzer.c **** uint32_t          current_tick;    /* Current Sys tick               */
 122              		.loc 1 137 1 view .LVU28
 138:../../../mod/buzzer/buzzer.c **** 
 139:../../../mod/buzzer/buzzer.c **** 
 140:../../../mod/buzzer/buzzer.c **** /*------------------------------------------------------------------------------
 141:../../../mod/buzzer/buzzer.c ****  Initializations 
 142:../../../mod/buzzer/buzzer.c **** ------------------------------------------------------------------------------*/
 143:../../../mod/buzzer/buzzer.c **** hal_status      = HAL_OK;
 123              		.loc 1 143 1 view .LVU29
 124              	.LVL11:
 144:../../../mod/buzzer/buzzer.c **** total_num_calls = 2*num_beeps;
 125              		.loc 1 144 1 view .LVU30
 126              		.loc 1 144 17 is_stmt 0 view .LVU31
 127 0004 4700     		lsls	r7, r0, #1
 128              	.LVL12:
 145:../../../mod/buzzer/buzzer.c **** is_odd          = num_calls%2;
 129              		.loc 1 145 1 is_stmt 1 view .LVU32
 130              		.loc 1 145 28 is_stmt 0 view .LVU33
 131 0006 244B     		ldr	r3, .L19
 132 0008 1C78     		ldrb	r4, [r3]	@ zero_extendqisi2
 133              	.LVL13:
 146:../../../mod/buzzer/buzzer.c **** current_tick    = HAL_GetTick();
 134              		.loc 1 146 1 is_stmt 1 view .LVU34
ARM GAS  C:\Users\tnguy\AppData\Local\Temp\ccM44fZH.s 			page 6


 135              		.loc 1 146 19 is_stmt 0 view .LVU35
 136 000a FFF7FEFF 		bl	HAL_GetTick
 137              	.LVL14:
 147:../../../mod/buzzer/buzzer.c **** 
 148:../../../mod/buzzer/buzzer.c **** 
 149:../../../mod/buzzer/buzzer.c **** /*------------------------------------------------------------------------------
 150:../../../mod/buzzer/buzzer.c ****  API Function Implementation 
 151:../../../mod/buzzer/buzzer.c **** ------------------------------------------------------------------------------*/
 152:../../../mod/buzzer/buzzer.c **** 
 153:../../../mod/buzzer/buzzer.c **** /* Check that enough time has elapsed since last beep sequence */
 154:../../../mod/buzzer/buzzer.c **** if ( ( current_tick - last_end_time ) <= BUZZ_SEQUENCE_DELAY )
 138              		.loc 1 154 1 is_stmt 1 view .LVU36
 139              		.loc 1 154 21 is_stmt 0 view .LVU37
 140 000e 234B     		ldr	r3, .L19+4
 141 0010 1B68     		ldr	r3, [r3]
 142 0012 C31A     		subs	r3, r0, r3
 143              		.loc 1 154 4 view .LVU38
 144 0014 40F6B832 		movw	r2, #3000
 145 0018 9342     		cmp	r3, r2
 146 001a 34D9     		bls	.L12
 147 001c FFB2     		uxtb	r7, r7
 148              		.loc 1 154 4 view .LVU39
 149 001e 04F00104 		and	r4, r4, #1
 150              	.LVL15:
 151              		.loc 1 154 4 view .LVU40
 152 0022 0646     		mov	r6, r0
 155:../../../mod/buzzer/buzzer.c **** 	{
 156:../../../mod/buzzer/buzzer.c **** 	return BUZZ_OK;
 157:../../../mod/buzzer/buzzer.c **** 	}
 158:../../../mod/buzzer/buzzer.c **** 
 159:../../../mod/buzzer/buzzer.c **** /* Check for 0 beeps */
 160:../../../mod/buzzer/buzzer.c **** if ( num_beeps == 0 )
 153              		.loc 1 160 1 is_stmt 1 view .LVU41
 154              		.loc 1 160 4 is_stmt 0 view .LVU42
 155 0024 002D     		cmp	r5, #0
 156 0026 31D0     		beq	.L13
 161:../../../mod/buzzer/buzzer.c **** 	{
 162:../../../mod/buzzer/buzzer.c **** 	return BUZZ_OK;
 163:../../../mod/buzzer/buzzer.c **** 	}
 164:../../../mod/buzzer/buzzer.c **** 
 165:../../../mod/buzzer/buzzer.c **** /* Remaining beeps */
 166:../../../mod/buzzer/buzzer.c **** if ( is_odd )
 157              		.loc 1 166 1 is_stmt 1 view .LVU43
 158              		.loc 1 166 4 is_stmt 0 view .LVU44
 159 0028 DCB1     		cbz	r4, .L10
 167:../../../mod/buzzer/buzzer.c **** 	{
 168:../../../mod/buzzer/buzzer.c **** 	/* Stop Beep */
 169:../../../mod/buzzer/buzzer.c **** 	if ( ( ( current_tick - init_beep_time ) >=  BUZZ_BEEP_DURATION ) )
 160              		.loc 1 169 2 is_stmt 1 view .LVU45
 161              		.loc 1 169 24 is_stmt 0 view .LVU46
 162 002a 1D4B     		ldr	r3, .L19+8
 163 002c 1B68     		ldr	r3, [r3]
 164 002e C31A     		subs	r3, r0, r3
 165              		.loc 1 169 5 view .LVU47
 166 0030 312B     		cmp	r3, #49
 167 0032 01D8     		bhi	.L18
 170:../../../mod/buzzer/buzzer.c **** 		{
ARM GAS  C:\Users\tnguy\AppData\Local\Temp\ccM44fZH.s 			page 7


 171:../../../mod/buzzer/buzzer.c **** 		hal_status = HAL_TIM_PWM_Stop( &( BUZZ_TIM ), BUZZ_TIM_CHANNEL );
 172:../../../mod/buzzer/buzzer.c **** 		if ( hal_status != HAL_OK )
 173:../../../mod/buzzer/buzzer.c **** 			{
 174:../../../mod/buzzer/buzzer.c **** 			return BUZZ_HAL_ERROR;
 175:../../../mod/buzzer/buzzer.c **** 			}
 176:../../../mod/buzzer/buzzer.c **** 		else
 177:../../../mod/buzzer/buzzer.c **** 			{
 178:../../../mod/buzzer/buzzer.c **** 			stop_beep_time = current_tick;
 179:../../../mod/buzzer/buzzer.c **** 			num_calls++;
 180:../../../mod/buzzer/buzzer.c **** 			/* Termination condition */
 181:../../../mod/buzzer/buzzer.c **** 			if ( num_calls == total_num_calls )
 182:../../../mod/buzzer/buzzer.c **** 				{
 183:../../../mod/buzzer/buzzer.c **** 				num_calls = 0;
 184:../../../mod/buzzer/buzzer.c **** 				last_end_time = current_tick;
 185:../../../mod/buzzer/buzzer.c **** 				}
 186:../../../mod/buzzer/buzzer.c **** 			return BUZZ_OK;
 187:../../../mod/buzzer/buzzer.c **** 			}
 188:../../../mod/buzzer/buzzer.c **** 		}
 189:../../../mod/buzzer/buzzer.c **** 	else
 190:../../../mod/buzzer/buzzer.c **** 		{
 191:../../../mod/buzzer/buzzer.c **** 		return BUZZ_OK;
 168              		.loc 1 191 10 view .LVU48
 169 0034 0024     		movs	r4, #0
 170 0036 27E0     		b	.L9
 171              	.L18:
 171:../../../mod/buzzer/buzzer.c **** 		if ( hal_status != HAL_OK )
 172              		.loc 1 171 3 is_stmt 1 view .LVU49
 171:../../../mod/buzzer/buzzer.c **** 		if ( hal_status != HAL_OK )
 173              		.loc 1 171 16 is_stmt 0 view .LVU50
 174 0038 0821     		movs	r1, #8
 175 003a 1A48     		ldr	r0, .L19+12
 176              	.LVL16:
 171:../../../mod/buzzer/buzzer.c **** 		if ( hal_status != HAL_OK )
 177              		.loc 1 171 16 view .LVU51
 178 003c FFF7FEFF 		bl	HAL_TIM_PWM_Stop
 179              	.LVL17:
 172:../../../mod/buzzer/buzzer.c **** 			{
 180              		.loc 1 172 3 is_stmt 1 view .LVU52
 172:../../../mod/buzzer/buzzer.c **** 			{
 181              		.loc 1 172 6 is_stmt 0 view .LVU53
 182 0040 0446     		mov	r4, r0
 183 0042 28BB     		cbnz	r0, .L15
 178:../../../mod/buzzer/buzzer.c **** 			num_calls++;
 184              		.loc 1 178 4 is_stmt 1 view .LVU54
 178:../../../mod/buzzer/buzzer.c **** 			num_calls++;
 185              		.loc 1 178 19 is_stmt 0 view .LVU55
 186 0044 184B     		ldr	r3, .L19+16
 187 0046 1E60     		str	r6, [r3]
 179:../../../mod/buzzer/buzzer.c **** 			/* Termination condition */
 188              		.loc 1 179 4 is_stmt 1 view .LVU56
 179:../../../mod/buzzer/buzzer.c **** 			/* Termination condition */
 189              		.loc 1 179 13 is_stmt 0 view .LVU57
 190 0048 134A     		ldr	r2, .L19
 191 004a 1378     		ldrb	r3, [r2]	@ zero_extendqisi2
 192 004c 0133     		adds	r3, r3, #1
 193 004e DBB2     		uxtb	r3, r3
 194 0050 1370     		strb	r3, [r2]
ARM GAS  C:\Users\tnguy\AppData\Local\Temp\ccM44fZH.s 			page 8


 181:../../../mod/buzzer/buzzer.c **** 				{
 195              		.loc 1 181 4 is_stmt 1 view .LVU58
 181:../../../mod/buzzer/buzzer.c **** 				{
 196              		.loc 1 181 7 is_stmt 0 view .LVU59
 197 0052 BB42     		cmp	r3, r7
 198 0054 18D1     		bne	.L9
 183:../../../mod/buzzer/buzzer.c **** 				last_end_time = current_tick;
 199              		.loc 1 183 5 is_stmt 1 view .LVU60
 183:../../../mod/buzzer/buzzer.c **** 				last_end_time = current_tick;
 200              		.loc 1 183 15 is_stmt 0 view .LVU61
 201 0056 1346     		mov	r3, r2
 202 0058 0022     		movs	r2, #0
 203 005a 1A70     		strb	r2, [r3]
 184:../../../mod/buzzer/buzzer.c **** 				}
 204              		.loc 1 184 5 is_stmt 1 view .LVU62
 184:../../../mod/buzzer/buzzer.c **** 				}
 205              		.loc 1 184 19 is_stmt 0 view .LVU63
 206 005c 0F4B     		ldr	r3, .L19+4
 207 005e 1E60     		str	r6, [r3]
 186:../../../mod/buzzer/buzzer.c **** 			}
 208              		.loc 1 186 4 is_stmt 1 view .LVU64
 186:../../../mod/buzzer/buzzer.c **** 			}
 209              		.loc 1 186 11 is_stmt 0 view .LVU65
 210 0060 12E0     		b	.L9
 211              	.LVL18:
 212              	.L10:
 192:../../../mod/buzzer/buzzer.c **** 		}
 193:../../../mod/buzzer/buzzer.c **** 	
 194:../../../mod/buzzer/buzzer.c **** 	}
 195:../../../mod/buzzer/buzzer.c **** else
 196:../../../mod/buzzer/buzzer.c **** 	{
 197:../../../mod/buzzer/buzzer.c **** 	/* Start beep */
 198:../../../mod/buzzer/buzzer.c **** 	if ( ( ( current_tick - stop_beep_time ) >= BUZZ_STOP_DURATION ) )
 213              		.loc 1 198 2 is_stmt 1 view .LVU66
 214              		.loc 1 198 24 is_stmt 0 view .LVU67
 215 0062 114B     		ldr	r3, .L19+16
 216 0064 1B68     		ldr	r3, [r3]
 217 0066 C31A     		subs	r3, r0, r3
 218              		.loc 1 198 5 view .LVU68
 219 0068 4A2B     		cmp	r3, #74
 220 006a 0DD9     		bls	.L9
 199:../../../mod/buzzer/buzzer.c **** 		{
 200:../../../mod/buzzer/buzzer.c **** 		hal_status = HAL_TIM_PWM_Start( &(BUZZ_TIM), BUZZ_TIM_CHANNEL );
 221              		.loc 1 200 3 is_stmt 1 view .LVU69
 222              		.loc 1 200 16 is_stmt 0 view .LVU70
 223 006c 0821     		movs	r1, #8
 224 006e 0D48     		ldr	r0, .L19+12
 225              	.LVL19:
 226              		.loc 1 200 16 view .LVU71
 227 0070 FFF7FEFF 		bl	HAL_TIM_PWM_Start
 228              	.LVL20:
 201:../../../mod/buzzer/buzzer.c **** 		if ( hal_status != HAL_OK )
 229              		.loc 1 201 3 is_stmt 1 view .LVU72
 230              		.loc 1 201 6 is_stmt 0 view .LVU73
 231 0074 0446     		mov	r4, r0
 232 0076 68B9     		cbnz	r0, .L16
 202:../../../mod/buzzer/buzzer.c **** 			{
ARM GAS  C:\Users\tnguy\AppData\Local\Temp\ccM44fZH.s 			page 9


 203:../../../mod/buzzer/buzzer.c **** 			return BUZZ_HAL_ERROR;
 204:../../../mod/buzzer/buzzer.c **** 			}
 205:../../../mod/buzzer/buzzer.c **** 		else
 206:../../../mod/buzzer/buzzer.c **** 			{
 207:../../../mod/buzzer/buzzer.c **** 			init_beep_time = current_tick;
 233              		.loc 1 207 4 is_stmt 1 view .LVU74
 234              		.loc 1 207 19 is_stmt 0 view .LVU75
 235 0078 094B     		ldr	r3, .L19+8
 236 007a 1E60     		str	r6, [r3]
 208:../../../mod/buzzer/buzzer.c **** 			num_calls++;
 237              		.loc 1 208 4 is_stmt 1 view .LVU76
 238              		.loc 1 208 13 is_stmt 0 view .LVU77
 239 007c 064A     		ldr	r2, .L19
 240 007e 1378     		ldrb	r3, [r2]	@ zero_extendqisi2
 241 0080 0133     		adds	r3, r3, #1
 242 0082 1370     		strb	r3, [r2]
 209:../../../mod/buzzer/buzzer.c **** 			return BUZZ_OK;
 243              		.loc 1 209 4 is_stmt 1 view .LVU78
 244              		.loc 1 209 11 is_stmt 0 view .LVU79
 245 0084 00E0     		b	.L9
 246              	.LVL21:
 247              	.L12:
 156:../../../mod/buzzer/buzzer.c **** 	}
 248              		.loc 1 156 9 view .LVU80
 249 0086 0024     		movs	r4, #0
 250              	.LVL22:
 251              	.L9:
 210:../../../mod/buzzer/buzzer.c **** 			}
 211:../../../mod/buzzer/buzzer.c **** 		}
 212:../../../mod/buzzer/buzzer.c **** 	else
 213:../../../mod/buzzer/buzzer.c **** 		{
 214:../../../mod/buzzer/buzzer.c **** 		return BUZZ_OK;
 215:../../../mod/buzzer/buzzer.c **** 		}
 216:../../../mod/buzzer/buzzer.c **** 	}
 217:../../../mod/buzzer/buzzer.c **** } /* buzzer_num_beeps */
 252              		.loc 1 217 1 view .LVU81
 253 0088 2046     		mov	r0, r4
 254 008a F8BD     		pop	{r3, r4, r5, r6, r7, pc}
 255              	.LVL23:
 256              	.L13:
 162:../../../mod/buzzer/buzzer.c **** 	}
 257              		.loc 1 162 9 view .LVU82
 258 008c 2C46     		mov	r4, r5
 259 008e FBE7     		b	.L9
 260              	.LVL24:
 261              	.L15:
 174:../../../mod/buzzer/buzzer.c **** 			}
 262              		.loc 1 174 11 view .LVU83
 263 0090 0124     		movs	r4, #1
 264 0092 F9E7     		b	.L9
 265              	.L16:
 203:../../../mod/buzzer/buzzer.c **** 			}
 266              		.loc 1 203 11 view .LVU84
 267 0094 0124     		movs	r4, #1
 268 0096 F7E7     		b	.L9
 269              	.L20:
 270              		.align	2
ARM GAS  C:\Users\tnguy\AppData\Local\Temp\ccM44fZH.s 			page 10


 271              	.L19:
 272 0098 00000000 		.word	.LANCHOR0
 273 009c 00000000 		.word	.LANCHOR1
 274 00a0 00000000 		.word	.LANCHOR2
 275 00a4 00000000 		.word	htim4
 276 00a8 00000000 		.word	.LANCHOR3
 277              		.cfi_endproc
 278              	.LFE145:
 280              		.section	.bss.init_beep_time.1,"aw",%nobits
 281              		.align	2
 282              		.set	.LANCHOR2,. + 0
 285              	init_beep_time.1:
 286 0000 00000000 		.space	4
 287              		.section	.bss.last_end_time.2,"aw",%nobits
 288              		.align	2
 289              		.set	.LANCHOR1,. + 0
 292              	last_end_time.2:
 293 0000 00000000 		.space	4
 294              		.section	.bss.num_calls.3,"aw",%nobits
 295              		.set	.LANCHOR0,. + 0
 298              	num_calls.3:
 299 0000 00       		.space	1
 300              		.section	.bss.stop_beep_time.0,"aw",%nobits
 301              		.align	2
 302              		.set	.LANCHOR3,. + 0
 305              	stop_beep_time.0:
 306 0000 00000000 		.space	4
 307              		.text
 308              	.Letext0:
 309              		.file 2 "c:\\program files (x86)\\gnu arm embedded toolchain\\10 2021.10\\arm-none-eabi\\include\\
 310              		.file 3 "c:\\program files (x86)\\gnu arm embedded toolchain\\10 2021.10\\arm-none-eabi\\include\\
 311              		.file 4 "../../../lib/Drivers/CMSIS/Device/ST/STM32H7xx/Include/stm32h750xx.h"
 312              		.file 5 "../../../lib/Drivers/STM32H7xx_HAL_Driver/Inc/stm32h7xx_hal_def.h"
 313              		.file 6 "../../../lib/Drivers/STM32H7xx_HAL_Driver/Inc/stm32h7xx_hal_dma.h"
 314              		.file 7 "../../../lib/Drivers/STM32H7xx_HAL_Driver/Inc/stm32h7xx_hal_tim.h"
 315              		.file 8 "../../../mod/buzzer/buzzer.h"
 316              		.file 9 "../../../lib/sdr_pin_defines_A0002.h"
 317              		.file 10 "../../../lib/Drivers/STM32H7xx_HAL_Driver/Inc/stm32h7xx_hal.h"
ARM GAS  C:\Users\tnguy\AppData\Local\Temp\ccM44fZH.s 			page 11


DEFINED SYMBOLS
                            *ABS*:00000000 buzzer.c
C:\Users\tnguy\AppData\Local\Temp\ccM44fZH.s:19     .text.buzzer_beep:00000000 $t
C:\Users\tnguy\AppData\Local\Temp\ccM44fZH.s:25     .text.buzzer_beep:00000000 buzzer_beep
C:\Users\tnguy\AppData\Local\Temp\ccM44fZH.s:86     .text.buzzer_beep:00000028 $d
C:\Users\tnguy\AppData\Local\Temp\ccM44fZH.s:91     .text.buzzer_num_beeps:00000000 $t
C:\Users\tnguy\AppData\Local\Temp\ccM44fZH.s:97     .text.buzzer_num_beeps:00000000 buzzer_num_beeps
C:\Users\tnguy\AppData\Local\Temp\ccM44fZH.s:272    .text.buzzer_num_beeps:00000098 $d
C:\Users\tnguy\AppData\Local\Temp\ccM44fZH.s:281    .bss.init_beep_time.1:00000000 $d
C:\Users\tnguy\AppData\Local\Temp\ccM44fZH.s:285    .bss.init_beep_time.1:00000000 init_beep_time.1
C:\Users\tnguy\AppData\Local\Temp\ccM44fZH.s:288    .bss.last_end_time.2:00000000 $d
C:\Users\tnguy\AppData\Local\Temp\ccM44fZH.s:292    .bss.last_end_time.2:00000000 last_end_time.2
C:\Users\tnguy\AppData\Local\Temp\ccM44fZH.s:298    .bss.num_calls.3:00000000 num_calls.3
C:\Users\tnguy\AppData\Local\Temp\ccM44fZH.s:299    .bss.num_calls.3:00000000 $d
C:\Users\tnguy\AppData\Local\Temp\ccM44fZH.s:301    .bss.stop_beep_time.0:00000000 $d
C:\Users\tnguy\AppData\Local\Temp\ccM44fZH.s:305    .bss.stop_beep_time.0:00000000 stop_beep_time.0

UNDEFINED SYMBOLS
HAL_TIM_PWM_Start
HAL_Delay
HAL_TIM_PWM_Stop
htim4
HAL_GetTick
