ARM GAS  /tmp/cco2ePoA.s 			page 1


   1              		.cpu cortex-m7
   2              		.arch armv7e-m
   3              		.fpu fpv5-d16
   4              		.eabi_attribute 28, 1
   5              		.eabi_attribute 20, 1
   6              		.eabi_attribute 21, 1
   7              		.eabi_attribute 23, 3
   8              		.eabi_attribute 24, 1
   9              		.eabi_attribute 25, 1
  10              		.eabi_attribute 26, 1
  11              		.eabi_attribute 30, 1
  12              		.eabi_attribute 34, 1
  13              		.eabi_attribute 18, 4
  14              		.file	"ff.c"
  15              		.text
  16              	.Ltext0:
  17              		.cfi_sections	.debug_frame
  18              		.file 1 "../../../lib/Middlewares/Third_Party/FatFs/src/ff.c"
  19              		.section	.text.ld_word,"ax",%progbits
  20              		.align	1
  21              		.syntax unified
  22              		.thumb
  23              		.thumb_func
  25              	ld_word:
  26              	.LVL0:
  27              	.LFB144:
   1:../../../lib/Middlewares/Third_Party/FatFs/src/ff.c **** /*----------------------------------------------------------------------------/
   2:../../../lib/Middlewares/Third_Party/FatFs/src/ff.c **** /  FatFs - Generic FAT file system module  R0.12c                             /
   3:../../../lib/Middlewares/Third_Party/FatFs/src/ff.c **** /-----------------------------------------------------------------------------/
   4:../../../lib/Middlewares/Third_Party/FatFs/src/ff.c **** /
   5:../../../lib/Middlewares/Third_Party/FatFs/src/ff.c **** / Copyright (C) 2017, ChaN, all right reserved.
   6:../../../lib/Middlewares/Third_Party/FatFs/src/ff.c **** /
   7:../../../lib/Middlewares/Third_Party/FatFs/src/ff.c **** / FatFs module is an open source software. Redistribution and use of FatFs in
   8:../../../lib/Middlewares/Third_Party/FatFs/src/ff.c **** / source and binary forms, with or without modification, are permitted provided
   9:../../../lib/Middlewares/Third_Party/FatFs/src/ff.c **** / that the following condition is met:
  10:../../../lib/Middlewares/Third_Party/FatFs/src/ff.c **** /
  11:../../../lib/Middlewares/Third_Party/FatFs/src/ff.c **** / 1. Redistributions of source code must retain the above copyright notice,
  12:../../../lib/Middlewares/Third_Party/FatFs/src/ff.c **** /    this condition and the following disclaimer.
  13:../../../lib/Middlewares/Third_Party/FatFs/src/ff.c **** /
  14:../../../lib/Middlewares/Third_Party/FatFs/src/ff.c **** / This software is provided by the copyright holder and contributors "AS IS"
  15:../../../lib/Middlewares/Third_Party/FatFs/src/ff.c **** / and any warranties related to this software are DISCLAIMED.
  16:../../../lib/Middlewares/Third_Party/FatFs/src/ff.c **** / The copyright owner or contributors be NOT LIABLE for any damages caused
  17:../../../lib/Middlewares/Third_Party/FatFs/src/ff.c **** / by use of this software.
  18:../../../lib/Middlewares/Third_Party/FatFs/src/ff.c **** /----------------------------------------------------------------------------*/
  19:../../../lib/Middlewares/Third_Party/FatFs/src/ff.c **** 
  20:../../../lib/Middlewares/Third_Party/FatFs/src/ff.c **** 
  21:../../../lib/Middlewares/Third_Party/FatFs/src/ff.c **** #include "ff.h"			/* Declarations of FatFs API */
  22:../../../lib/Middlewares/Third_Party/FatFs/src/ff.c **** #include "diskio.h"		/* Declarations of device I/O functions */
  23:../../../lib/Middlewares/Third_Party/FatFs/src/ff.c **** 
  24:../../../lib/Middlewares/Third_Party/FatFs/src/ff.c **** 
  25:../../../lib/Middlewares/Third_Party/FatFs/src/ff.c **** /*--------------------------------------------------------------------------
  26:../../../lib/Middlewares/Third_Party/FatFs/src/ff.c **** 
  27:../../../lib/Middlewares/Third_Party/FatFs/src/ff.c ****    Module Private Definitions
  28:../../../lib/Middlewares/Third_Party/FatFs/src/ff.c **** 
  29:../../../lib/Middlewares/Third_Party/FatFs/src/ff.c **** ---------------------------------------------------------------------------*/
  30:../../../lib/Middlewares/Third_Party/FatFs/src/ff.c **** 
  31:../../../lib/Middlewares/Third_Party/FatFs/src/ff.c **** #if _FATFS != 68300	/* Revision ID */
ARM GAS  /tmp/cco2ePoA.s 			page 2


  32:../../../lib/Middlewares/Third_Party/FatFs/src/ff.c **** #error Wrong include file (ff.h).
  33:../../../lib/Middlewares/Third_Party/FatFs/src/ff.c **** #endif
  34:../../../lib/Middlewares/Third_Party/FatFs/src/ff.c **** 
  35:../../../lib/Middlewares/Third_Party/FatFs/src/ff.c **** 
  36:../../../lib/Middlewares/Third_Party/FatFs/src/ff.c **** /* DBCS code ranges and SBCS upper conversion tables */
  37:../../../lib/Middlewares/Third_Party/FatFs/src/ff.c **** 
  38:../../../lib/Middlewares/Third_Party/FatFs/src/ff.c **** #if _CODE_PAGE == 932	/* Japanese Shift-JIS */
  39:../../../lib/Middlewares/Third_Party/FatFs/src/ff.c **** #define _DF1S	0x81	/* DBC 1st byte range 1 start */
  40:../../../lib/Middlewares/Third_Party/FatFs/src/ff.c **** #define _DF1E	0x9F	/* DBC 1st byte range 1 end */
  41:../../../lib/Middlewares/Third_Party/FatFs/src/ff.c **** #define _DF2S	0xE0	/* DBC 1st byte range 2 start */
  42:../../../lib/Middlewares/Third_Party/FatFs/src/ff.c **** #define _DF2E	0xFC	/* DBC 1st byte range 2 end */
  43:../../../lib/Middlewares/Third_Party/FatFs/src/ff.c **** #define _DS1S	0x40	/* DBC 2nd byte range 1 start */
  44:../../../lib/Middlewares/Third_Party/FatFs/src/ff.c **** #define _DS1E	0x7E	/* DBC 2nd byte range 1 end */
  45:../../../lib/Middlewares/Third_Party/FatFs/src/ff.c **** #define _DS2S	0x80	/* DBC 2nd byte range 2 start */
  46:../../../lib/Middlewares/Third_Party/FatFs/src/ff.c **** #define _DS2E	0xFC	/* DBC 2nd byte range 2 end */
  47:../../../lib/Middlewares/Third_Party/FatFs/src/ff.c **** 
  48:../../../lib/Middlewares/Third_Party/FatFs/src/ff.c **** #elif _CODE_PAGE == 936	/* Simplified Chinese GBK */
  49:../../../lib/Middlewares/Third_Party/FatFs/src/ff.c **** #define _DF1S	0x81
  50:../../../lib/Middlewares/Third_Party/FatFs/src/ff.c **** #define _DF1E	0xFE
  51:../../../lib/Middlewares/Third_Party/FatFs/src/ff.c **** #define _DS1S	0x40
  52:../../../lib/Middlewares/Third_Party/FatFs/src/ff.c **** #define _DS1E	0x7E
  53:../../../lib/Middlewares/Third_Party/FatFs/src/ff.c **** #define _DS2S	0x80
  54:../../../lib/Middlewares/Third_Party/FatFs/src/ff.c **** #define _DS2E	0xFE
  55:../../../lib/Middlewares/Third_Party/FatFs/src/ff.c **** 
  56:../../../lib/Middlewares/Third_Party/FatFs/src/ff.c **** #elif _CODE_PAGE == 949	/* Korean */
  57:../../../lib/Middlewares/Third_Party/FatFs/src/ff.c **** #define _DF1S	0x81
  58:../../../lib/Middlewares/Third_Party/FatFs/src/ff.c **** #define _DF1E	0xFE
  59:../../../lib/Middlewares/Third_Party/FatFs/src/ff.c **** #define _DS1S	0x41
  60:../../../lib/Middlewares/Third_Party/FatFs/src/ff.c **** #define _DS1E	0x5A
  61:../../../lib/Middlewares/Third_Party/FatFs/src/ff.c **** #define _DS2S	0x61
  62:../../../lib/Middlewares/Third_Party/FatFs/src/ff.c **** #define _DS2E	0x7A
  63:../../../lib/Middlewares/Third_Party/FatFs/src/ff.c **** #define _DS3S	0x81
  64:../../../lib/Middlewares/Third_Party/FatFs/src/ff.c **** #define _DS3E	0xFE
  65:../../../lib/Middlewares/Third_Party/FatFs/src/ff.c **** 
  66:../../../lib/Middlewares/Third_Party/FatFs/src/ff.c **** #elif _CODE_PAGE == 950	/* Traditional Chinese Big5 */
  67:../../../lib/Middlewares/Third_Party/FatFs/src/ff.c **** #define _DF1S	0x81
  68:../../../lib/Middlewares/Third_Party/FatFs/src/ff.c **** #define _DF1E	0xFE
  69:../../../lib/Middlewares/Third_Party/FatFs/src/ff.c **** #define _DS1S	0x40
  70:../../../lib/Middlewares/Third_Party/FatFs/src/ff.c **** #define _DS1E	0x7E
  71:../../../lib/Middlewares/Third_Party/FatFs/src/ff.c **** #define _DS2S	0xA1
  72:../../../lib/Middlewares/Third_Party/FatFs/src/ff.c **** #define _DS2E	0xFE
  73:../../../lib/Middlewares/Third_Party/FatFs/src/ff.c **** 
  74:../../../lib/Middlewares/Third_Party/FatFs/src/ff.c **** #elif _CODE_PAGE == 437	/* U.S. */
  75:../../../lib/Middlewares/Third_Party/FatFs/src/ff.c **** #define _DF1S	0
  76:../../../lib/Middlewares/Third_Party/FatFs/src/ff.c **** #define _EXCVT {0x80,0x9A,0x45,0x41,0x8E,0x41,0x8F,0x80,0x45,0x45,0x45,0x49,0x49,0x49,0x8E,0x8F, \
  77:../../../lib/Middlewares/Third_Party/FatFs/src/ff.c **** 				0x90,0x92,0x92,0x4F,0x99,0x4F,0x55,0x55,0x59,0x99,0x9A,0x9B,0x9C,0x9D,0x9E,0x9F, \
  78:../../../lib/Middlewares/Third_Party/FatFs/src/ff.c **** 				0x41,0x49,0x4F,0x55,0xA5,0xA5,0xA6,0xA7,0xA8,0xA9,0xAA,0xAB,0xAC,0xAD,0xAE,0xAF, \
  79:../../../lib/Middlewares/Third_Party/FatFs/src/ff.c **** 				0xB0,0xB1,0xB2,0xB3,0xB4,0xB5,0xB6,0xB7,0xB8,0xB9,0xBA,0xBB,0xBC,0xBD,0xBE,0xBF, \
  80:../../../lib/Middlewares/Third_Party/FatFs/src/ff.c **** 				0xC0,0xC1,0xC2,0xC3,0xC4,0xC5,0xC6,0xC7,0xC8,0xC9,0xCA,0xCB,0xCC,0xCD,0xCE,0xCF, \
  81:../../../lib/Middlewares/Third_Party/FatFs/src/ff.c **** 				0xD0,0xD1,0xD2,0xD3,0xD4,0xD5,0xD6,0xD7,0xD8,0xD9,0xDA,0xDB,0xDC,0xDD,0xDE,0xDF, \
  82:../../../lib/Middlewares/Third_Party/FatFs/src/ff.c **** 				0xE0,0xE1,0xE2,0xE3,0xE4,0xE5,0xE6,0xE7,0xE8,0xE9,0xEA,0xEB,0xEC,0xED,0xEE,0xEF, \
  83:../../../lib/Middlewares/Third_Party/FatFs/src/ff.c **** 				0xF0,0xF1,0xF2,0xF3,0xF4,0xF5,0xF6,0xF7,0xF8,0xF9,0xFA,0xFB,0xFC,0xFD,0xFE,0xFF}
  84:../../../lib/Middlewares/Third_Party/FatFs/src/ff.c **** 
  85:../../../lib/Middlewares/Third_Party/FatFs/src/ff.c **** #elif _CODE_PAGE == 720	/* Arabic */
  86:../../../lib/Middlewares/Third_Party/FatFs/src/ff.c **** #define _DF1S	0
  87:../../../lib/Middlewares/Third_Party/FatFs/src/ff.c **** #define _EXCVT {0x80,0x81,0x82,0x83,0x84,0x85,0x86,0x87,0x88,0x89,0x8A,0x8B,0x8C,0x8D,0x8E,0x8F, \
  88:../../../lib/Middlewares/Third_Party/FatFs/src/ff.c **** 				0x90,0x91,0x92,0x93,0x94,0x95,0x96,0x97,0x98,0x99,0x9A,0x9B,0x9C,0x9D,0x9E,0x9F, \
ARM GAS  /tmp/cco2ePoA.s 			page 3


  89:../../../lib/Middlewares/Third_Party/FatFs/src/ff.c **** 				0xA0,0xA1,0xA2,0xA3,0xA4,0xA5,0xA6,0xA7,0xA8,0xA9,0xAA,0xAB,0xAC,0xAD,0xAE,0xAF, \
  90:../../../lib/Middlewares/Third_Party/FatFs/src/ff.c **** 				0xB0,0xB1,0xB2,0xB3,0xB4,0xB5,0xB6,0xB7,0xB8,0xB9,0xBA,0xBB,0xBC,0xBD,0xBE,0xBF, \
  91:../../../lib/Middlewares/Third_Party/FatFs/src/ff.c **** 				0xC0,0xC1,0xC2,0xC3,0xC4,0xC5,0xC6,0xC7,0xC8,0xC9,0xCA,0xCB,0xCC,0xCD,0xCE,0xCF, \
  92:../../../lib/Middlewares/Third_Party/FatFs/src/ff.c **** 				0xD0,0xD1,0xD2,0xD3,0xD4,0xD5,0xD6,0xD7,0xD8,0xD9,0xDA,0xDB,0xDC,0xDD,0xDE,0xDF, \
  93:../../../lib/Middlewares/Third_Party/FatFs/src/ff.c **** 				0xE0,0xE1,0xE2,0xE3,0xE4,0xE5,0xE6,0xE7,0xE8,0xE9,0xEA,0xEB,0xEC,0xED,0xEE,0xEF, \
  94:../../../lib/Middlewares/Third_Party/FatFs/src/ff.c **** 				0xF0,0xF1,0xF2,0xF3,0xF4,0xF5,0xF6,0xF7,0xF8,0xF9,0xFA,0xFB,0xFC,0xFD,0xFE,0xFF}
  95:../../../lib/Middlewares/Third_Party/FatFs/src/ff.c **** 
  96:../../../lib/Middlewares/Third_Party/FatFs/src/ff.c **** #elif _CODE_PAGE == 737	/* Greek */
  97:../../../lib/Middlewares/Third_Party/FatFs/src/ff.c **** #define _DF1S	0
  98:../../../lib/Middlewares/Third_Party/FatFs/src/ff.c **** #define _EXCVT {0x80,0x81,0x82,0x83,0x84,0x85,0x86,0x87,0x88,0x89,0x8A,0x8B,0x8C,0x8D,0x8E,0x8F, \
  99:../../../lib/Middlewares/Third_Party/FatFs/src/ff.c **** 				0x90,0x92,0x92,0x93,0x94,0x95,0x96,0x97,0x80,0x81,0x82,0x83,0x84,0x85,0x86,0x87, \
 100:../../../lib/Middlewares/Third_Party/FatFs/src/ff.c **** 				0x88,0x89,0x8A,0x8B,0x8C,0x8D,0x8E,0x8F,0x90,0x91,0xAA,0x92,0x93,0x94,0x95,0x96, \
 101:../../../lib/Middlewares/Third_Party/FatFs/src/ff.c **** 				0xB0,0xB1,0xB2,0xB3,0xB4,0xB5,0xB6,0xB7,0xB8,0xB9,0xBA,0xBB,0xBC,0xBD,0xBE,0xBF, \
 102:../../../lib/Middlewares/Third_Party/FatFs/src/ff.c **** 				0xC0,0xC1,0xC2,0xC3,0xC4,0xC5,0xC6,0xC7,0xC8,0xC9,0xCA,0xCB,0xCC,0xCD,0xCE,0xCF, \
 103:../../../lib/Middlewares/Third_Party/FatFs/src/ff.c **** 				0xD0,0xD1,0xD2,0xD3,0xD4,0xD5,0xD6,0xD7,0xD8,0xD9,0xDA,0xDB,0xDC,0xDD,0xDE,0xDF, \
 104:../../../lib/Middlewares/Third_Party/FatFs/src/ff.c **** 				0x97,0xEA,0xEB,0xEC,0xE4,0xED,0xEE,0xEF,0xF5,0xF0,0xEA,0xEB,0xEC,0xED,0xEE,0xEF, \
 105:../../../lib/Middlewares/Third_Party/FatFs/src/ff.c **** 				0xF0,0xF1,0xF2,0xF3,0xF4,0xF5,0xF6,0xF7,0xF8,0xF9,0xFA,0xFB,0xFC,0xFD,0xFE,0xFF}
 106:../../../lib/Middlewares/Third_Party/FatFs/src/ff.c **** 
 107:../../../lib/Middlewares/Third_Party/FatFs/src/ff.c **** #elif _CODE_PAGE == 771	/* KBL */
 108:../../../lib/Middlewares/Third_Party/FatFs/src/ff.c **** #define _DF1S	0
 109:../../../lib/Middlewares/Third_Party/FatFs/src/ff.c **** #define _EXCVT {0x80,0x81,0x82,0x83,0x84,0x85,0x86,0x87,0x88,0x89,0x8A,0x8B,0x8C,0x8D,0x8E,0x8F, \
 110:../../../lib/Middlewares/Third_Party/FatFs/src/ff.c **** 				0x90,0x91,0x92,0x93,0x94,0x95,0x96,0x97,0x98,0x99,0x9A,0x9B,0x9C,0x9D,0x9E,0x9F, \
 111:../../../lib/Middlewares/Third_Party/FatFs/src/ff.c **** 				0x80,0x81,0x82,0x83,0x84,0x85,0x86,0x87,0x88,0x89,0x8A,0x8B,0x8C,0x8D,0x8E,0x8F, \
 112:../../../lib/Middlewares/Third_Party/FatFs/src/ff.c **** 				0xB0,0xB1,0xB2,0xB3,0xB4,0xB5,0xB6,0xB7,0xB8,0xB9,0xBA,0xBB,0xBC,0xBD,0xBE,0xBF, \
 113:../../../lib/Middlewares/Third_Party/FatFs/src/ff.c **** 				0xC0,0xC1,0xC2,0xC3,0xC4,0xC5,0xC6,0xC7,0xC8,0xC9,0xCA,0xCB,0xCC,0xCD,0xCE,0xCF, \
 114:../../../lib/Middlewares/Third_Party/FatFs/src/ff.c **** 				0xD0,0xD1,0xD2,0xD3,0xD4,0xD5,0xD6,0xD7,0xD8,0xD9,0xDA,0xDB,0xDC,0xDC,0xDE,0xDE, \
 115:../../../lib/Middlewares/Third_Party/FatFs/src/ff.c **** 				0x90,0x91,0x92,0x93,0x94,0x95,0x96,0x97,0x98,0x99,0x9A,0x9B,0x9C,0x9D,0x9E,0x9F, \
 116:../../../lib/Middlewares/Third_Party/FatFs/src/ff.c **** 				0xF0,0xF0,0xF2,0xF2,0xF4,0xF4,0xF6,0xF6,0xF8,0xF8,0xFA,0xFA,0xFC,0xFC,0xFE,0xFF}
 117:../../../lib/Middlewares/Third_Party/FatFs/src/ff.c **** 
 118:../../../lib/Middlewares/Third_Party/FatFs/src/ff.c **** #elif _CODE_PAGE == 775	/* Baltic */
 119:../../../lib/Middlewares/Third_Party/FatFs/src/ff.c **** #define _DF1S	0
 120:../../../lib/Middlewares/Third_Party/FatFs/src/ff.c **** #define _EXCVT {0x80,0x9A,0x91,0xA0,0x8E,0x95,0x8F,0x80,0xAD,0xED,0x8A,0x8A,0xA1,0x8D,0x8E,0x8F, \
 121:../../../lib/Middlewares/Third_Party/FatFs/src/ff.c **** 				0x90,0x92,0x92,0xE2,0x99,0x95,0x96,0x97,0x97,0x99,0x9A,0x9D,0x9C,0x9D,0x9E,0x9F, \
 122:../../../lib/Middlewares/Third_Party/FatFs/src/ff.c **** 				0xA0,0xA1,0xE0,0xA3,0xA3,0xA5,0xA6,0xA7,0xA8,0xA9,0xAA,0xAB,0xAC,0xAD,0xAE,0xAF, \
 123:../../../lib/Middlewares/Third_Party/FatFs/src/ff.c **** 				0xB0,0xB1,0xB2,0xB3,0xB4,0xB5,0xB6,0xB7,0xB8,0xB9,0xBA,0xBB,0xBC,0xBD,0xBE,0xBF, \
 124:../../../lib/Middlewares/Third_Party/FatFs/src/ff.c **** 				0xC0,0xC1,0xC2,0xC3,0xC4,0xC5,0xC6,0xC7,0xC8,0xC9,0xCA,0xCB,0xCC,0xCD,0xCE,0xCF, \
 125:../../../lib/Middlewares/Third_Party/FatFs/src/ff.c **** 				0xB5,0xB6,0xB7,0xB8,0xBD,0xBE,0xC6,0xC7,0xA5,0xD9,0xDA,0xDB,0xDC,0xDD,0xDE,0xDF, \
 126:../../../lib/Middlewares/Third_Party/FatFs/src/ff.c **** 				0xE0,0xE1,0xE2,0xE3,0xE5,0xE5,0xE6,0xE3,0xE8,0xE8,0xEA,0xEA,0xEE,0xED,0xEE,0xEF, \
 127:../../../lib/Middlewares/Third_Party/FatFs/src/ff.c **** 				0xF0,0xF1,0xF2,0xF3,0xF4,0xF5,0xF6,0xF7,0xF8,0xF9,0xFA,0xFB,0xFC,0xFD,0xFE,0xFF}
 128:../../../lib/Middlewares/Third_Party/FatFs/src/ff.c **** 
 129:../../../lib/Middlewares/Third_Party/FatFs/src/ff.c **** #elif _CODE_PAGE == 850	/* Latin 1 */
 130:../../../lib/Middlewares/Third_Party/FatFs/src/ff.c **** #define _DF1S	0
 131:../../../lib/Middlewares/Third_Party/FatFs/src/ff.c **** #define _EXCVT {0x43,0x55,0x45,0x41,0x41,0x41,0x41,0x43,0x45,0x45,0x45,0x49,0x49,0x49,0x41,0x41, \
 132:../../../lib/Middlewares/Third_Party/FatFs/src/ff.c **** 				0x45,0x92,0x92,0x4F,0x4F,0x4F,0x55,0x55,0x59,0x4F,0x55,0x4F,0x9C,0x4F,0x9E,0x9F, \
 133:../../../lib/Middlewares/Third_Party/FatFs/src/ff.c **** 				0x41,0x49,0x4F,0x55,0xA5,0xA5,0xA6,0xA7,0xA8,0xA9,0xAA,0xAB,0xAC,0xAD,0xAE,0xAF, \
 134:../../../lib/Middlewares/Third_Party/FatFs/src/ff.c **** 				0xB0,0xB1,0xB2,0xB3,0xB4,0x41,0x41,0x41,0xB8,0xB9,0xBA,0xBB,0xBC,0xBD,0xBE,0xBF, \
 135:../../../lib/Middlewares/Third_Party/FatFs/src/ff.c **** 				0xC0,0xC1,0xC2,0xC3,0xC4,0xC5,0x41,0x41,0xC8,0xC9,0xCA,0xCB,0xCC,0xCD,0xCE,0xCF, \
 136:../../../lib/Middlewares/Third_Party/FatFs/src/ff.c **** 				0xD1,0xD1,0x45,0x45,0x45,0x49,0x49,0x49,0x49,0xD9,0xDA,0xDB,0xDC,0xDD,0x49,0xDF, \
 137:../../../lib/Middlewares/Third_Party/FatFs/src/ff.c **** 				0x4F,0xE1,0x4F,0x4F,0x4F,0x4F,0xE6,0xE8,0xE8,0x55,0x55,0x55,0x59,0x59,0xEE,0xEF, \
 138:../../../lib/Middlewares/Third_Party/FatFs/src/ff.c **** 				0xF0,0xF1,0xF2,0xF3,0xF4,0xF5,0xF6,0xF7,0xF8,0xF9,0xFA,0xFB,0xFC,0xFD,0xFE,0xFF}
 139:../../../lib/Middlewares/Third_Party/FatFs/src/ff.c **** 
 140:../../../lib/Middlewares/Third_Party/FatFs/src/ff.c **** #elif _CODE_PAGE == 852	/* Latin 2 */
 141:../../../lib/Middlewares/Third_Party/FatFs/src/ff.c **** #define _DF1S	0
 142:../../../lib/Middlewares/Third_Party/FatFs/src/ff.c **** #define _EXCVT {0x80,0x9A,0x90,0xB6,0x8E,0xDE,0x8F,0x80,0x9D,0xD3,0x8A,0x8A,0xD7,0x8D,0x8E,0x8F, \
 143:../../../lib/Middlewares/Third_Party/FatFs/src/ff.c **** 				0x90,0x91,0x91,0xE2,0x99,0x95,0x95,0x97,0x97,0x99,0x9A,0x9B,0x9B,0x9D,0x9E,0xAC, \
 144:../../../lib/Middlewares/Third_Party/FatFs/src/ff.c **** 				0xB5,0xD6,0xE0,0xE9,0xA4,0xA4,0xA6,0xA6,0xA8,0xA8,0xAA,0x8D,0xAC,0xB8,0xAE,0xAF, \
 145:../../../lib/Middlewares/Third_Party/FatFs/src/ff.c **** 				0xB0,0xB1,0xB2,0xB3,0xB4,0xB5,0xB6,0xB7,0xB8,0xB9,0xBA,0xBB,0xBC,0xBD,0xBD,0xBF, \
ARM GAS  /tmp/cco2ePoA.s 			page 4


 146:../../../lib/Middlewares/Third_Party/FatFs/src/ff.c **** 				0xC0,0xC1,0xC2,0xC3,0xC4,0xC5,0xC6,0xC6,0xC8,0xC9,0xCA,0xCB,0xCC,0xCD,0xCE,0xCF, \
 147:../../../lib/Middlewares/Third_Party/FatFs/src/ff.c **** 				0xD1,0xD1,0xD2,0xD3,0xD2,0xD5,0xD6,0xD7,0xB7,0xD9,0xDA,0xDB,0xDC,0xDD,0xDE,0xDF, \
 148:../../../lib/Middlewares/Third_Party/FatFs/src/ff.c **** 				0xE0,0xE1,0xE2,0xE3,0xE3,0xD5,0xE6,0xE6,0xE8,0xE9,0xE8,0xEB,0xED,0xED,0xDD,0xEF, \
 149:../../../lib/Middlewares/Third_Party/FatFs/src/ff.c **** 				0xF0,0xF1,0xF2,0xF3,0xF4,0xF5,0xF6,0xF7,0xF8,0xF9,0xFA,0xEB,0xFC,0xFC,0xFE,0xFF}
 150:../../../lib/Middlewares/Third_Party/FatFs/src/ff.c **** 
 151:../../../lib/Middlewares/Third_Party/FatFs/src/ff.c **** #elif _CODE_PAGE == 855	/* Cyrillic */
 152:../../../lib/Middlewares/Third_Party/FatFs/src/ff.c **** #define _DF1S	0
 153:../../../lib/Middlewares/Third_Party/FatFs/src/ff.c **** #define _EXCVT {0x81,0x81,0x83,0x83,0x85,0x85,0x87,0x87,0x89,0x89,0x8B,0x8B,0x8D,0x8D,0x8F,0x8F, \
 154:../../../lib/Middlewares/Third_Party/FatFs/src/ff.c **** 				0x91,0x91,0x93,0x93,0x95,0x95,0x97,0x97,0x99,0x99,0x9B,0x9B,0x9D,0x9D,0x9F,0x9F, \
 155:../../../lib/Middlewares/Third_Party/FatFs/src/ff.c **** 				0xA1,0xA1,0xA3,0xA3,0xA5,0xA5,0xA7,0xA7,0xA9,0xA9,0xAB,0xAB,0xAD,0xAD,0xAE,0xAF, \
 156:../../../lib/Middlewares/Third_Party/FatFs/src/ff.c **** 				0xB0,0xB1,0xB2,0xB3,0xB4,0xB6,0xB6,0xB8,0xB8,0xB9,0xBA,0xBB,0xBC,0xBE,0xBE,0xBF, \
 157:../../../lib/Middlewares/Third_Party/FatFs/src/ff.c **** 				0xC0,0xC1,0xC2,0xC3,0xC4,0xC5,0xC7,0xC7,0xC8,0xC9,0xCA,0xCB,0xCC,0xCD,0xCE,0xCF, \
 158:../../../lib/Middlewares/Third_Party/FatFs/src/ff.c **** 				0xD1,0xD1,0xD3,0xD3,0xD5,0xD5,0xD7,0xD7,0xDD,0xD9,0xDA,0xDB,0xDC,0xDD,0xE0,0xDF, \
 159:../../../lib/Middlewares/Third_Party/FatFs/src/ff.c **** 				0xE0,0xE2,0xE2,0xE4,0xE4,0xE6,0xE6,0xE8,0xE8,0xEA,0xEA,0xEC,0xEC,0xEE,0xEE,0xEF, \
 160:../../../lib/Middlewares/Third_Party/FatFs/src/ff.c **** 				0xF0,0xF2,0xF2,0xF4,0xF4,0xF6,0xF6,0xF8,0xF8,0xFA,0xFA,0xFC,0xFC,0xFD,0xFE,0xFF}
 161:../../../lib/Middlewares/Third_Party/FatFs/src/ff.c **** 
 162:../../../lib/Middlewares/Third_Party/FatFs/src/ff.c **** #elif _CODE_PAGE == 857	/* Turkish */
 163:../../../lib/Middlewares/Third_Party/FatFs/src/ff.c **** #define _DF1S	0
 164:../../../lib/Middlewares/Third_Party/FatFs/src/ff.c **** #define _EXCVT {0x80,0x9A,0x90,0xB6,0x8E,0xB7,0x8F,0x80,0xD2,0xD3,0xD4,0xD8,0xD7,0x49,0x8E,0x8F, \
 165:../../../lib/Middlewares/Third_Party/FatFs/src/ff.c **** 				0x90,0x92,0x92,0xE2,0x99,0xE3,0xEA,0xEB,0x98,0x99,0x9A,0x9D,0x9C,0x9D,0x9E,0x9E, \
 166:../../../lib/Middlewares/Third_Party/FatFs/src/ff.c **** 				0xB5,0xD6,0xE0,0xE9,0xA5,0xA5,0xA6,0xA6,0xA8,0xA9,0xAA,0xAB,0xAC,0xAD,0xAE,0xAF, \
 167:../../../lib/Middlewares/Third_Party/FatFs/src/ff.c **** 				0xB0,0xB1,0xB2,0xB3,0xB4,0xB5,0xB6,0xB7,0xB8,0xB9,0xBA,0xBB,0xBC,0xBD,0xBE,0xBF, \
 168:../../../lib/Middlewares/Third_Party/FatFs/src/ff.c **** 				0xC0,0xC1,0xC2,0xC3,0xC4,0xC5,0xC7,0xC7,0xC8,0xC9,0xCA,0xCB,0xCC,0xCD,0xCE,0xCF, \
 169:../../../lib/Middlewares/Third_Party/FatFs/src/ff.c **** 				0xD0,0xD1,0xD2,0xD3,0xD4,0x49,0xD6,0xD7,0xD8,0xD9,0xDA,0xDB,0xDC,0xDD,0xDE,0xDF, \
 170:../../../lib/Middlewares/Third_Party/FatFs/src/ff.c **** 				0xE0,0xE1,0xE2,0xE3,0xE5,0xE5,0xE6,0xE7,0xE8,0xE9,0xEA,0xEB,0xDE,0xED,0xEE,0xEF, \
 171:../../../lib/Middlewares/Third_Party/FatFs/src/ff.c **** 				0xF0,0xF1,0xF2,0xF3,0xF4,0xF5,0xF6,0xF7,0xF8,0xF9,0xFA,0xFB,0xFC,0xFD,0xFE,0xFF}
 172:../../../lib/Middlewares/Third_Party/FatFs/src/ff.c **** 
 173:../../../lib/Middlewares/Third_Party/FatFs/src/ff.c **** #elif _CODE_PAGE == 860	/* Portuguese */
 174:../../../lib/Middlewares/Third_Party/FatFs/src/ff.c **** #define _DF1S	0
 175:../../../lib/Middlewares/Third_Party/FatFs/src/ff.c **** #define _EXCVT {0x80,0x9A,0x90,0x8F,0x8E,0x91,0x86,0x80,0x89,0x89,0x92,0x8B,0x8C,0x98,0x8E,0x8F, \
 176:../../../lib/Middlewares/Third_Party/FatFs/src/ff.c **** 				0x90,0x91,0x92,0x8C,0x99,0xA9,0x96,0x9D,0x98,0x99,0x9A,0x9B,0x9C,0x9D,0x9E,0x9F, \
 177:../../../lib/Middlewares/Third_Party/FatFs/src/ff.c **** 				0x86,0x8B,0x9F,0x96,0xA5,0xA5,0xA6,0xA7,0xA8,0xA9,0xAA,0xAB,0xAC,0xAD,0xAE,0xAF, \
 178:../../../lib/Middlewares/Third_Party/FatFs/src/ff.c **** 				0xB0,0xB1,0xB2,0xB3,0xB4,0xB5,0xB6,0xB7,0xB8,0xB9,0xBA,0xBB,0xBC,0xBD,0xBE,0xBF, \
 179:../../../lib/Middlewares/Third_Party/FatFs/src/ff.c **** 				0xC0,0xC1,0xC2,0xC3,0xC4,0xC5,0xC6,0xC7,0xC8,0xC9,0xCA,0xCB,0xCC,0xCD,0xCE,0xCF, \
 180:../../../lib/Middlewares/Third_Party/FatFs/src/ff.c **** 				0xD0,0xD1,0xD2,0xD3,0xD4,0xD5,0xD6,0xD7,0xD8,0xD9,0xDA,0xDB,0xDC,0xDD,0xDE,0xDF, \
 181:../../../lib/Middlewares/Third_Party/FatFs/src/ff.c **** 				0xE0,0xE1,0xE2,0xE3,0xE4,0xE5,0xE6,0xE7,0xE8,0xE9,0xEA,0xEB,0xEC,0xED,0xEE,0xEF, \
 182:../../../lib/Middlewares/Third_Party/FatFs/src/ff.c **** 				0xF0,0xF1,0xF2,0xF3,0xF4,0xF5,0xF6,0xF7,0xF8,0xF9,0xFA,0xFB,0xFC,0xFD,0xFE,0xFF}
 183:../../../lib/Middlewares/Third_Party/FatFs/src/ff.c **** 
 184:../../../lib/Middlewares/Third_Party/FatFs/src/ff.c **** #elif _CODE_PAGE == 861	/* Icelandic */
 185:../../../lib/Middlewares/Third_Party/FatFs/src/ff.c **** #define _DF1S	0
 186:../../../lib/Middlewares/Third_Party/FatFs/src/ff.c **** #define _EXCVT {0x80,0x9A,0x90,0x41,0x8E,0x41,0x8F,0x80,0x45,0x45,0x45,0x8B,0x8B,0x8D,0x8E,0x8F, \
 187:../../../lib/Middlewares/Third_Party/FatFs/src/ff.c **** 				0x90,0x92,0x92,0x4F,0x99,0x8D,0x55,0x97,0x97,0x99,0x9A,0x9D,0x9C,0x9D,0x9E,0x9F, \
 188:../../../lib/Middlewares/Third_Party/FatFs/src/ff.c **** 				0xA4,0xA5,0xA6,0xA7,0xA4,0xA5,0xA6,0xA7,0xA8,0xA9,0xAA,0xAB,0xAC,0xAD,0xAE,0xAF, \
 189:../../../lib/Middlewares/Third_Party/FatFs/src/ff.c **** 				0xB0,0xB1,0xB2,0xB3,0xB4,0xB5,0xB6,0xB7,0xB8,0xB9,0xBA,0xBB,0xBC,0xBD,0xBE,0xBF, \
 190:../../../lib/Middlewares/Third_Party/FatFs/src/ff.c **** 				0xC0,0xC1,0xC2,0xC3,0xC4,0xC5,0xC6,0xC7,0xC8,0xC9,0xCA,0xCB,0xCC,0xCD,0xCE,0xCF, \
 191:../../../lib/Middlewares/Third_Party/FatFs/src/ff.c **** 				0xD0,0xD1,0xD2,0xD3,0xD4,0xD5,0xD6,0xD7,0xD8,0xD9,0xDA,0xDB,0xDC,0xDD,0xDE,0xDF, \
 192:../../../lib/Middlewares/Third_Party/FatFs/src/ff.c **** 				0xE0,0xE1,0xE2,0xE3,0xE4,0xE5,0xE6,0xE7,0xE8,0xE9,0xEA,0xEB,0xEC,0xED,0xEE,0xEF, \
 193:../../../lib/Middlewares/Third_Party/FatFs/src/ff.c **** 				0xF0,0xF1,0xF2,0xF3,0xF4,0xF5,0xF6,0xF7,0xF8,0xF9,0xFA,0xFB,0xFC,0xFD,0xFE,0xFF}
 194:../../../lib/Middlewares/Third_Party/FatFs/src/ff.c **** 
 195:../../../lib/Middlewares/Third_Party/FatFs/src/ff.c **** #elif _CODE_PAGE == 862	/* Hebrew */
 196:../../../lib/Middlewares/Third_Party/FatFs/src/ff.c **** #define _DF1S	0
 197:../../../lib/Middlewares/Third_Party/FatFs/src/ff.c **** #define _EXCVT {0x80,0x81,0x82,0x83,0x84,0x85,0x86,0x87,0x88,0x89,0x8A,0x8B,0x8C,0x8D,0x8E,0x8F, \
 198:../../../lib/Middlewares/Third_Party/FatFs/src/ff.c **** 				0x90,0x91,0x92,0x93,0x94,0x95,0x96,0x97,0x98,0x99,0x9A,0x9B,0x9C,0x9D,0x9E,0x9F, \
 199:../../../lib/Middlewares/Third_Party/FatFs/src/ff.c **** 				0x41,0x49,0x4F,0x55,0xA5,0xA5,0xA6,0xA7,0xA8,0xA9,0xAA,0xAB,0xAC,0xAD,0xAE,0xAF, \
 200:../../../lib/Middlewares/Third_Party/FatFs/src/ff.c **** 				0xB0,0xB1,0xB2,0xB3,0xB4,0xB5,0xB6,0xB7,0xB8,0xB9,0xBA,0xBB,0xBC,0xBD,0xBE,0xBF, \
 201:../../../lib/Middlewares/Third_Party/FatFs/src/ff.c **** 				0xC0,0xC1,0xC2,0xC3,0xC4,0xC5,0xC6,0xC7,0xC8,0xC9,0xCA,0xCB,0xCC,0xCD,0xCE,0xCF, \
 202:../../../lib/Middlewares/Third_Party/FatFs/src/ff.c **** 				0xD0,0xD1,0xD2,0xD3,0xD4,0xD5,0xD6,0xD7,0xD8,0xD9,0xDA,0xDB,0xDC,0xDD,0xDE,0xDF, \
ARM GAS  /tmp/cco2ePoA.s 			page 5


 203:../../../lib/Middlewares/Third_Party/FatFs/src/ff.c **** 				0xE0,0xE1,0xE2,0xE3,0xE4,0xE5,0xE6,0xE7,0xE8,0xE9,0xEA,0xEB,0xEC,0xED,0xEE,0xEF, \
 204:../../../lib/Middlewares/Third_Party/FatFs/src/ff.c **** 				0xF0,0xF1,0xF2,0xF3,0xF4,0xF5,0xF6,0xF7,0xF8,0xF9,0xFA,0xFB,0xFC,0xFD,0xFE,0xFF}
 205:../../../lib/Middlewares/Third_Party/FatFs/src/ff.c **** 
 206:../../../lib/Middlewares/Third_Party/FatFs/src/ff.c **** #elif _CODE_PAGE == 863	/* Canadian-French */
 207:../../../lib/Middlewares/Third_Party/FatFs/src/ff.c **** #define _DF1S	0
 208:../../../lib/Middlewares/Third_Party/FatFs/src/ff.c **** #define _EXCVT {0x43,0x55,0x45,0x41,0x41,0x41,0x86,0x43,0x45,0x45,0x45,0x49,0x49,0x8D,0x41,0x8F, \
 209:../../../lib/Middlewares/Third_Party/FatFs/src/ff.c **** 				0x45,0x45,0x45,0x4F,0x45,0x49,0x55,0x55,0x98,0x4F,0x55,0x9B,0x9C,0x55,0x55,0x9F, \
 210:../../../lib/Middlewares/Third_Party/FatFs/src/ff.c **** 				0xA0,0xA1,0x4F,0x55,0xA4,0xA5,0xA6,0xA7,0x49,0xA9,0xAA,0xAB,0xAC,0xAD,0xAE,0xAF, \
 211:../../../lib/Middlewares/Third_Party/FatFs/src/ff.c **** 				0xB0,0xB1,0xB2,0xB3,0xB4,0xB5,0xB6,0xB7,0xB8,0xB9,0xBA,0xBB,0xBC,0xBD,0xBE,0xBF, \
 212:../../../lib/Middlewares/Third_Party/FatFs/src/ff.c **** 				0xC0,0xC1,0xC2,0xC3,0xC4,0xC5,0xC6,0xC7,0xC8,0xC9,0xCA,0xCB,0xCC,0xCD,0xCE,0xCF, \
 213:../../../lib/Middlewares/Third_Party/FatFs/src/ff.c **** 				0xD0,0xD1,0xD2,0xD3,0xD4,0xD5,0xD6,0xD7,0xD8,0xD9,0xDA,0xDB,0xDC,0xDD,0xDE,0xDF, \
 214:../../../lib/Middlewares/Third_Party/FatFs/src/ff.c **** 				0xE0,0xE1,0xE2,0xE3,0xE4,0xE5,0xE6,0xE7,0xE8,0xE9,0xEA,0xEB,0xEC,0xED,0xEE,0xEF, \
 215:../../../lib/Middlewares/Third_Party/FatFs/src/ff.c **** 				0xF0,0xF1,0xF2,0xF3,0xF4,0xF5,0xF6,0xF7,0xF8,0xF9,0xFA,0xFB,0xFC,0xFD,0xFE,0xFF}
 216:../../../lib/Middlewares/Third_Party/FatFs/src/ff.c **** 
 217:../../../lib/Middlewares/Third_Party/FatFs/src/ff.c **** #elif _CODE_PAGE == 864	/* Arabic */
 218:../../../lib/Middlewares/Third_Party/FatFs/src/ff.c **** #define _DF1S	0
 219:../../../lib/Middlewares/Third_Party/FatFs/src/ff.c **** #define _EXCVT {0x80,0x9A,0x45,0x41,0x8E,0x41,0x8F,0x80,0x45,0x45,0x45,0x49,0x49,0x49,0x8E,0x8F, \
 220:../../../lib/Middlewares/Third_Party/FatFs/src/ff.c **** 				0x90,0x92,0x92,0x4F,0x99,0x4F,0x55,0x55,0x59,0x99,0x9A,0x9B,0x9C,0x9D,0x9E,0x9F, \
 221:../../../lib/Middlewares/Third_Party/FatFs/src/ff.c **** 				0x41,0x49,0x4F,0x55,0xA5,0xA5,0xA6,0xA7,0xA8,0xA9,0xAA,0xAB,0xAC,0xAD,0xAE,0xAF, \
 222:../../../lib/Middlewares/Third_Party/FatFs/src/ff.c **** 				0xB0,0xB1,0xB2,0xB3,0xB4,0xB5,0xB6,0xB7,0xB8,0xB9,0xBA,0xBB,0xBC,0xBD,0xBE,0xBF, \
 223:../../../lib/Middlewares/Third_Party/FatFs/src/ff.c **** 				0xC0,0xC1,0xC2,0xC3,0xC4,0xC5,0xC6,0xC7,0xC8,0xC9,0xCA,0xCB,0xCC,0xCD,0xCE,0xCF, \
 224:../../../lib/Middlewares/Third_Party/FatFs/src/ff.c **** 				0xD0,0xD1,0xD2,0xD3,0xD4,0xD5,0xD6,0xD7,0xD8,0xD9,0xDA,0xDB,0xDC,0xDD,0xDE,0xDF, \
 225:../../../lib/Middlewares/Third_Party/FatFs/src/ff.c **** 				0xE0,0xE1,0xE2,0xE3,0xE4,0xE5,0xE6,0xE7,0xE8,0xE9,0xEA,0xEB,0xEC,0xED,0xEE,0xEF, \
 226:../../../lib/Middlewares/Third_Party/FatFs/src/ff.c **** 				0xF0,0xF1,0xF2,0xF3,0xF4,0xF5,0xF6,0xF7,0xF8,0xF9,0xFA,0xFB,0xFC,0xFD,0xFE,0xFF}
 227:../../../lib/Middlewares/Third_Party/FatFs/src/ff.c **** 
 228:../../../lib/Middlewares/Third_Party/FatFs/src/ff.c **** #elif _CODE_PAGE == 865	/* Nordic */
 229:../../../lib/Middlewares/Third_Party/FatFs/src/ff.c **** #define _DF1S	0
 230:../../../lib/Middlewares/Third_Party/FatFs/src/ff.c **** #define _EXCVT {0x80,0x9A,0x90,0x41,0x8E,0x41,0x8F,0x80,0x45,0x45,0x45,0x49,0x49,0x49,0x8E,0x8F, \
 231:../../../lib/Middlewares/Third_Party/FatFs/src/ff.c **** 				0x90,0x92,0x92,0x4F,0x99,0x4F,0x55,0x55,0x59,0x99,0x9A,0x9B,0x9C,0x9D,0x9E,0x9F, \
 232:../../../lib/Middlewares/Third_Party/FatFs/src/ff.c **** 				0x41,0x49,0x4F,0x55,0xA5,0xA5,0xA6,0xA7,0xA8,0xA9,0xAA,0xAB,0xAC,0xAD,0xAE,0xAF, \
 233:../../../lib/Middlewares/Third_Party/FatFs/src/ff.c **** 				0xB0,0xB1,0xB2,0xB3,0xB4,0xB5,0xB6,0xB7,0xB8,0xB9,0xBA,0xBB,0xBC,0xBD,0xBE,0xBF, \
 234:../../../lib/Middlewares/Third_Party/FatFs/src/ff.c **** 				0xC0,0xC1,0xC2,0xC3,0xC4,0xC5,0xC6,0xC7,0xC8,0xC9,0xCA,0xCB,0xCC,0xCD,0xCE,0xCF, \
 235:../../../lib/Middlewares/Third_Party/FatFs/src/ff.c **** 				0xD0,0xD1,0xD2,0xD3,0xD4,0xD5,0xD6,0xD7,0xD8,0xD9,0xDA,0xDB,0xDC,0xDD,0xDE,0xDF, \
 236:../../../lib/Middlewares/Third_Party/FatFs/src/ff.c **** 				0xE0,0xE1,0xE2,0xE3,0xE4,0xE5,0xE6,0xE7,0xE8,0xE9,0xEA,0xEB,0xEC,0xED,0xEE,0xEF, \
 237:../../../lib/Middlewares/Third_Party/FatFs/src/ff.c **** 				0xF0,0xF1,0xF2,0xF3,0xF4,0xF5,0xF6,0xF7,0xF8,0xF9,0xFA,0xFB,0xFC,0xFD,0xFE,0xFF}
 238:../../../lib/Middlewares/Third_Party/FatFs/src/ff.c **** 
 239:../../../lib/Middlewares/Third_Party/FatFs/src/ff.c **** #elif _CODE_PAGE == 866	/* Russian */
 240:../../../lib/Middlewares/Third_Party/FatFs/src/ff.c **** #define _DF1S	0
 241:../../../lib/Middlewares/Third_Party/FatFs/src/ff.c **** #define _EXCVT {0x80,0x81,0x82,0x83,0x84,0x85,0x86,0x87,0x88,0x89,0x8A,0x8B,0x8C,0x8D,0x8E,0x8F, \
 242:../../../lib/Middlewares/Third_Party/FatFs/src/ff.c **** 				0x90,0x91,0x92,0x93,0x94,0x95,0x96,0x97,0x98,0x99,0x9A,0x9B,0x9C,0x9D,0x9E,0x9F, \
 243:../../../lib/Middlewares/Third_Party/FatFs/src/ff.c **** 				0x80,0x81,0x82,0x83,0x84,0x85,0x86,0x87,0x88,0x89,0x8A,0x8B,0x8C,0x8D,0x8E,0x8F, \
 244:../../../lib/Middlewares/Third_Party/FatFs/src/ff.c **** 				0xB0,0xB1,0xB2,0xB3,0xB4,0xB5,0xB6,0xB7,0xB8,0xB9,0xBA,0xBB,0xBC,0xBD,0xBE,0xBF, \
 245:../../../lib/Middlewares/Third_Party/FatFs/src/ff.c **** 				0xC0,0xC1,0xC2,0xC3,0xC4,0xC5,0xC6,0xC7,0xC8,0xC9,0xCA,0xCB,0xCC,0xCD,0xCE,0xCF, \
 246:../../../lib/Middlewares/Third_Party/FatFs/src/ff.c **** 				0xD0,0xD1,0xD2,0xD3,0xD4,0xD5,0xD6,0xD7,0xD8,0xD9,0xDA,0xDB,0xDC,0xDD,0xDE,0xDF, \
 247:../../../lib/Middlewares/Third_Party/FatFs/src/ff.c **** 				0x90,0x91,0x92,0x93,0x94,0x95,0x96,0x97,0x98,0x99,0x9A,0x9B,0x9C,0x9D,0x9E,0x9F, \
 248:../../../lib/Middlewares/Third_Party/FatFs/src/ff.c **** 				0xF0,0xF0,0xF2,0xF2,0xF4,0xF4,0xF6,0xF6,0xF8,0xF9,0xFA,0xFB,0xFC,0xFD,0xFE,0xFF}
 249:../../../lib/Middlewares/Third_Party/FatFs/src/ff.c **** 
 250:../../../lib/Middlewares/Third_Party/FatFs/src/ff.c **** #elif _CODE_PAGE == 869	/* Greek 2 */
 251:../../../lib/Middlewares/Third_Party/FatFs/src/ff.c **** #define _DF1S	0
 252:../../../lib/Middlewares/Third_Party/FatFs/src/ff.c **** #define _EXCVT {0x80,0x81,0x82,0x83,0x84,0x85,0x86,0x87,0x88,0x89,0x8A,0x8B,0x8C,0x8D,0x8E,0x8F, \
 253:../../../lib/Middlewares/Third_Party/FatFs/src/ff.c **** 				0x90,0x91,0x92,0x93,0x94,0x95,0x96,0x97,0x98,0x99,0x9A,0x86,0x9C,0x8D,0x8F,0x90, \
 254:../../../lib/Middlewares/Third_Party/FatFs/src/ff.c **** 				0x91,0x90,0x92,0x95,0xA4,0xA5,0xA6,0xA7,0xA8,0xA9,0xAA,0xAB,0xAC,0xAD,0xAE,0xAF, \
 255:../../../lib/Middlewares/Third_Party/FatFs/src/ff.c **** 				0xB0,0xB1,0xB2,0xB3,0xB4,0xB5,0xB6,0xB7,0xB8,0xB9,0xBA,0xBB,0xBC,0xBD,0xBE,0xBF, \
 256:../../../lib/Middlewares/Third_Party/FatFs/src/ff.c **** 				0xC0,0xC1,0xC2,0xC3,0xC4,0xC5,0xC6,0xC7,0xC8,0xC9,0xCA,0xCB,0xCC,0xCD,0xCE,0xCF, \
 257:../../../lib/Middlewares/Third_Party/FatFs/src/ff.c **** 				0xD0,0xD1,0xD2,0xD3,0xD4,0xD5,0xA4,0xA5,0xA6,0xD9,0xDA,0xDB,0xDC,0xA7,0xA8,0xDF, \
 258:../../../lib/Middlewares/Third_Party/FatFs/src/ff.c **** 				0xA9,0xAA,0xAC,0xAD,0xB5,0xB6,0xB7,0xB8,0xBD,0xBE,0xC6,0xC7,0xCF,0xCF,0xD0,0xEF, \
 259:../../../lib/Middlewares/Third_Party/FatFs/src/ff.c **** 				0xF0,0xF1,0xD1,0xD2,0xD3,0xF5,0xD4,0xF7,0xF8,0xF9,0xD5,0x96,0x95,0x98,0xFE,0xFF}
ARM GAS  /tmp/cco2ePoA.s 			page 6


 260:../../../lib/Middlewares/Third_Party/FatFs/src/ff.c **** 
 261:../../../lib/Middlewares/Third_Party/FatFs/src/ff.c **** #elif _CODE_PAGE == 1	/* ASCII (for only non-LFN cfg) */
 262:../../../lib/Middlewares/Third_Party/FatFs/src/ff.c **** #if _USE_LFN != 0
 263:../../../lib/Middlewares/Third_Party/FatFs/src/ff.c **** #error Cannot enable LFN without valid code page.
 264:../../../lib/Middlewares/Third_Party/FatFs/src/ff.c **** #endif
 265:../../../lib/Middlewares/Third_Party/FatFs/src/ff.c **** #define _DF1S	0
 266:../../../lib/Middlewares/Third_Party/FatFs/src/ff.c **** 
 267:../../../lib/Middlewares/Third_Party/FatFs/src/ff.c **** #else
 268:../../../lib/Middlewares/Third_Party/FatFs/src/ff.c **** #error Unknown code page
 269:../../../lib/Middlewares/Third_Party/FatFs/src/ff.c **** 
 270:../../../lib/Middlewares/Third_Party/FatFs/src/ff.c **** #endif
 271:../../../lib/Middlewares/Third_Party/FatFs/src/ff.c **** 
 272:../../../lib/Middlewares/Third_Party/FatFs/src/ff.c **** 
 273:../../../lib/Middlewares/Third_Party/FatFs/src/ff.c **** /* Character code support macros */
 274:../../../lib/Middlewares/Third_Party/FatFs/src/ff.c **** #define IsUpper(c)	(((c)>='A')&&((c)<='Z'))
 275:../../../lib/Middlewares/Third_Party/FatFs/src/ff.c **** #define IsLower(c)	(((c)>='a')&&((c)<='z'))
 276:../../../lib/Middlewares/Third_Party/FatFs/src/ff.c **** #define IsDigit(c)	(((c)>='0')&&((c)<='9'))
 277:../../../lib/Middlewares/Third_Party/FatFs/src/ff.c **** 
 278:../../../lib/Middlewares/Third_Party/FatFs/src/ff.c **** #if _DF1S != 0	/* Code page is DBCS */
 279:../../../lib/Middlewares/Third_Party/FatFs/src/ff.c **** 
 280:../../../lib/Middlewares/Third_Party/FatFs/src/ff.c **** #ifdef _DF2S	/* Two 1st byte areas */
 281:../../../lib/Middlewares/Third_Party/FatFs/src/ff.c **** #define IsDBCS1(c)	(((BYTE)(c) >= _DF1S && (BYTE)(c) <= _DF1E) || ((BYTE)(c) >= _DF2S && (BYTE)(c) 
 282:../../../lib/Middlewares/Third_Party/FatFs/src/ff.c **** #else			/* One 1st byte area */
 283:../../../lib/Middlewares/Third_Party/FatFs/src/ff.c **** #define IsDBCS1(c)	((BYTE)(c) >= _DF1S && (BYTE)(c) <= _DF1E)
 284:../../../lib/Middlewares/Third_Party/FatFs/src/ff.c **** #endif
 285:../../../lib/Middlewares/Third_Party/FatFs/src/ff.c **** 
 286:../../../lib/Middlewares/Third_Party/FatFs/src/ff.c **** #ifdef _DS3S	/* Three 2nd byte areas */
 287:../../../lib/Middlewares/Third_Party/FatFs/src/ff.c **** #define IsDBCS2(c)	(((BYTE)(c) >= _DS1S && (BYTE)(c) <= _DS1E) || ((BYTE)(c) >= _DS2S && (BYTE)(c) 
 288:../../../lib/Middlewares/Third_Party/FatFs/src/ff.c **** #else			/* Two 2nd byte areas */
 289:../../../lib/Middlewares/Third_Party/FatFs/src/ff.c **** #define IsDBCS2(c)	(((BYTE)(c) >= _DS1S && (BYTE)(c) <= _DS1E) || ((BYTE)(c) >= _DS2S && (BYTE)(c) 
 290:../../../lib/Middlewares/Third_Party/FatFs/src/ff.c **** #endif
 291:../../../lib/Middlewares/Third_Party/FatFs/src/ff.c **** 
 292:../../../lib/Middlewares/Third_Party/FatFs/src/ff.c **** #else			/* Code page is SBCS */
 293:../../../lib/Middlewares/Third_Party/FatFs/src/ff.c **** 
 294:../../../lib/Middlewares/Third_Party/FatFs/src/ff.c **** #define IsDBCS1(c)	0
 295:../../../lib/Middlewares/Third_Party/FatFs/src/ff.c **** #define IsDBCS2(c)	0
 296:../../../lib/Middlewares/Third_Party/FatFs/src/ff.c **** 
 297:../../../lib/Middlewares/Third_Party/FatFs/src/ff.c **** #endif /* _DF1S */
 298:../../../lib/Middlewares/Third_Party/FatFs/src/ff.c **** 
 299:../../../lib/Middlewares/Third_Party/FatFs/src/ff.c **** 
 300:../../../lib/Middlewares/Third_Party/FatFs/src/ff.c **** /* Additional file attribute bits for internal use */
 301:../../../lib/Middlewares/Third_Party/FatFs/src/ff.c **** #define	AM_VOL		0x08	/* Volume label */
 302:../../../lib/Middlewares/Third_Party/FatFs/src/ff.c **** #define AM_LFN		0x0F	/* LFN entry */
 303:../../../lib/Middlewares/Third_Party/FatFs/src/ff.c **** #define AM_MASK		0x3F	/* Mask of defined bits */
 304:../../../lib/Middlewares/Third_Party/FatFs/src/ff.c **** 
 305:../../../lib/Middlewares/Third_Party/FatFs/src/ff.c **** 
 306:../../../lib/Middlewares/Third_Party/FatFs/src/ff.c **** /* Additional file access control and file status flags for internal use */
 307:../../../lib/Middlewares/Third_Party/FatFs/src/ff.c **** #define FA_SEEKEND	0x20	/* Seek to end of the file on file open */
 308:../../../lib/Middlewares/Third_Party/FatFs/src/ff.c **** #define FA_MODIFIED	0x40	/* File has been modified */
 309:../../../lib/Middlewares/Third_Party/FatFs/src/ff.c **** #define FA_DIRTY	0x80	/* FIL.buf[] needs to be written-back */
 310:../../../lib/Middlewares/Third_Party/FatFs/src/ff.c **** 
 311:../../../lib/Middlewares/Third_Party/FatFs/src/ff.c **** 
 312:../../../lib/Middlewares/Third_Party/FatFs/src/ff.c **** /* Name status flags in fn[] */
 313:../../../lib/Middlewares/Third_Party/FatFs/src/ff.c **** #define NSFLAG		11		/* Index of the name status byte */
 314:../../../lib/Middlewares/Third_Party/FatFs/src/ff.c **** #define NS_LOSS		0x01	/* Out of 8.3 format */
 315:../../../lib/Middlewares/Third_Party/FatFs/src/ff.c **** #define NS_LFN		0x02	/* Force to create LFN entry */
 316:../../../lib/Middlewares/Third_Party/FatFs/src/ff.c **** #define NS_LAST		0x04	/* Last segment */
ARM GAS  /tmp/cco2ePoA.s 			page 7


 317:../../../lib/Middlewares/Third_Party/FatFs/src/ff.c **** #define NS_BODY		0x08	/* Lower case flag (body) */
 318:../../../lib/Middlewares/Third_Party/FatFs/src/ff.c **** #define NS_EXT		0x10	/* Lower case flag (ext) */
 319:../../../lib/Middlewares/Third_Party/FatFs/src/ff.c **** #define NS_DOT		0x20	/* Dot entry */
 320:../../../lib/Middlewares/Third_Party/FatFs/src/ff.c **** #define NS_NOLFN	0x40	/* Do not find LFN */
 321:../../../lib/Middlewares/Third_Party/FatFs/src/ff.c **** #define NS_NONAME	0x80	/* Not followed */
 322:../../../lib/Middlewares/Third_Party/FatFs/src/ff.c **** 
 323:../../../lib/Middlewares/Third_Party/FatFs/src/ff.c **** 
 324:../../../lib/Middlewares/Third_Party/FatFs/src/ff.c **** /* Limits and boundaries */
 325:../../../lib/Middlewares/Third_Party/FatFs/src/ff.c **** #define MAX_DIR		0x200000		/* Max size of FAT directory */
 326:../../../lib/Middlewares/Third_Party/FatFs/src/ff.c **** #define MAX_DIR_EX	0x10000000		/* Max size of exFAT directory */
 327:../../../lib/Middlewares/Third_Party/FatFs/src/ff.c **** #define MAX_FAT12	0xFF5			/* Max FAT12 clusters (differs from specs, but correct for real DOS/Windo
 328:../../../lib/Middlewares/Third_Party/FatFs/src/ff.c **** #define	MAX_FAT16	0xFFF5			/* Max FAT16 clusters (differs from specs, but correct for real DOS/Wind
 329:../../../lib/Middlewares/Third_Party/FatFs/src/ff.c **** #define	MAX_FAT32	0x0FFFFFF5		/* Max FAT32 clusters (not specified, practical limit) */
 330:../../../lib/Middlewares/Third_Party/FatFs/src/ff.c **** #define	MAX_EXFAT	0x7FFFFFFD		/* Max exFAT clusters (differs from specs, implementation limit) */
 331:../../../lib/Middlewares/Third_Party/FatFs/src/ff.c **** 
 332:../../../lib/Middlewares/Third_Party/FatFs/src/ff.c **** 
 333:../../../lib/Middlewares/Third_Party/FatFs/src/ff.c **** /* FatFs refers the FAT structure as simple byte array instead of structure member
 334:../../../lib/Middlewares/Third_Party/FatFs/src/ff.c **** / because the C structure is not binary compatible between different platforms */
 335:../../../lib/Middlewares/Third_Party/FatFs/src/ff.c **** 
 336:../../../lib/Middlewares/Third_Party/FatFs/src/ff.c **** #define BS_JmpBoot			0		/* x86 jump instruction (3-byte) */
 337:../../../lib/Middlewares/Third_Party/FatFs/src/ff.c **** #define BS_OEMName			3		/* OEM name (8-byte) */
 338:../../../lib/Middlewares/Third_Party/FatFs/src/ff.c **** #define BPB_BytsPerSec		11		/* Sector size [byte] (WORD) */
 339:../../../lib/Middlewares/Third_Party/FatFs/src/ff.c **** #define BPB_SecPerClus		13		/* Cluster size [sector] (BYTE) */
 340:../../../lib/Middlewares/Third_Party/FatFs/src/ff.c **** #define BPB_RsvdSecCnt		14		/* Size of reserved area [sector] (WORD) */
 341:../../../lib/Middlewares/Third_Party/FatFs/src/ff.c **** #define BPB_NumFATs			16		/* Number of FATs (BYTE) */
 342:../../../lib/Middlewares/Third_Party/FatFs/src/ff.c **** #define BPB_RootEntCnt		17		/* Size of root directory area for FAT12/16 [entry] (WORD) */
 343:../../../lib/Middlewares/Third_Party/FatFs/src/ff.c **** #define BPB_TotSec16		19		/* Volume size (16-bit) [sector] (WORD) */
 344:../../../lib/Middlewares/Third_Party/FatFs/src/ff.c **** #define BPB_Media			21		/* Media descriptor byte (BYTE) */
 345:../../../lib/Middlewares/Third_Party/FatFs/src/ff.c **** #define BPB_FATSz16			22		/* FAT size (16-bit) [sector] (WORD) */
 346:../../../lib/Middlewares/Third_Party/FatFs/src/ff.c **** #define BPB_SecPerTrk		24		/* Track size for int13h [sector] (WORD) */
 347:../../../lib/Middlewares/Third_Party/FatFs/src/ff.c **** #define BPB_NumHeads		26		/* Number of heads for int13h (WORD) */
 348:../../../lib/Middlewares/Third_Party/FatFs/src/ff.c **** #define BPB_HiddSec			28		/* Volume offset from top of the drive (DWORD) */
 349:../../../lib/Middlewares/Third_Party/FatFs/src/ff.c **** #define BPB_TotSec32		32		/* Volume size (32-bit) [sector] (DWORD) */
 350:../../../lib/Middlewares/Third_Party/FatFs/src/ff.c **** #define BS_DrvNum			36		/* Physical drive number for int13h (BYTE) */
 351:../../../lib/Middlewares/Third_Party/FatFs/src/ff.c **** #define BS_NTres			37		/* Error flag (BYTE) */
 352:../../../lib/Middlewares/Third_Party/FatFs/src/ff.c **** #define BS_BootSig			38		/* Extended boot signature (BYTE) */
 353:../../../lib/Middlewares/Third_Party/FatFs/src/ff.c **** #define BS_VolID			39		/* Volume serial number (DWORD) */
 354:../../../lib/Middlewares/Third_Party/FatFs/src/ff.c **** #define BS_VolLab			43		/* Volume label string (8-byte) */
 355:../../../lib/Middlewares/Third_Party/FatFs/src/ff.c **** #define BS_FilSysType		54		/* File system type string (8-byte) */
 356:../../../lib/Middlewares/Third_Party/FatFs/src/ff.c **** #define BS_BootCode			62		/* Boot code (448-byte) */
 357:../../../lib/Middlewares/Third_Party/FatFs/src/ff.c **** #define BS_55AA				510		/* Signature word (WORD) */
 358:../../../lib/Middlewares/Third_Party/FatFs/src/ff.c **** 
 359:../../../lib/Middlewares/Third_Party/FatFs/src/ff.c **** #define BPB_FATSz32			36		/* FAT32: FAT size [sector] (DWORD) */
 360:../../../lib/Middlewares/Third_Party/FatFs/src/ff.c **** #define BPB_ExtFlags32		40		/* FAT32: Extended flags (WORD) */
 361:../../../lib/Middlewares/Third_Party/FatFs/src/ff.c **** #define BPB_FSVer32			42		/* FAT32: File system version (WORD) */
 362:../../../lib/Middlewares/Third_Party/FatFs/src/ff.c **** #define BPB_RootClus32		44		/* FAT32: Root directory cluster (DWORD) */
 363:../../../lib/Middlewares/Third_Party/FatFs/src/ff.c **** #define BPB_FSInfo32		48		/* FAT32: Offset of FSINFO sector (WORD) */
 364:../../../lib/Middlewares/Third_Party/FatFs/src/ff.c **** #define BPB_BkBootSec32		50		/* FAT32: Offset of backup boot sector (WORD) */
 365:../../../lib/Middlewares/Third_Party/FatFs/src/ff.c **** #define BS_DrvNum32			64		/* FAT32: Physical drive number for int13h (BYTE) */
 366:../../../lib/Middlewares/Third_Party/FatFs/src/ff.c **** #define BS_NTres32			65		/* FAT32: Error flag (BYTE) */
 367:../../../lib/Middlewares/Third_Party/FatFs/src/ff.c **** #define BS_BootSig32		66		/* FAT32: Extended boot signature (BYTE) */
 368:../../../lib/Middlewares/Third_Party/FatFs/src/ff.c **** #define BS_VolID32			67		/* FAT32: Volume serial number (DWORD) */
 369:../../../lib/Middlewares/Third_Party/FatFs/src/ff.c **** #define BS_VolLab32			71		/* FAT32: Volume label string (8-byte) */
 370:../../../lib/Middlewares/Third_Party/FatFs/src/ff.c **** #define BS_FilSysType32		82		/* FAT32: File system type string (8-byte) */
 371:../../../lib/Middlewares/Third_Party/FatFs/src/ff.c **** #define BS_BootCode32		90		/* FAT32: Boot code (420-byte) */
 372:../../../lib/Middlewares/Third_Party/FatFs/src/ff.c **** 
 373:../../../lib/Middlewares/Third_Party/FatFs/src/ff.c **** #define BPB_ZeroedEx		11		/* exFAT: MBZ field (53-byte) */
ARM GAS  /tmp/cco2ePoA.s 			page 8


 374:../../../lib/Middlewares/Third_Party/FatFs/src/ff.c **** #define BPB_VolOfsEx		64		/* exFAT: Volume offset from top of the drive [sector] (QWORD) */
 375:../../../lib/Middlewares/Third_Party/FatFs/src/ff.c **** #define BPB_TotSecEx		72		/* exFAT: Volume size [sector] (QWORD) */
 376:../../../lib/Middlewares/Third_Party/FatFs/src/ff.c **** #define BPB_FatOfsEx		80		/* exFAT: FAT offset from top of the volume [sector] (DWORD) */
 377:../../../lib/Middlewares/Third_Party/FatFs/src/ff.c **** #define BPB_FatSzEx			84		/* exFAT: FAT size [sector] (DWORD) */
 378:../../../lib/Middlewares/Third_Party/FatFs/src/ff.c **** #define BPB_DataOfsEx		88		/* exFAT: Data offset from top of the volume [sector] (DWORD) */
 379:../../../lib/Middlewares/Third_Party/FatFs/src/ff.c **** #define BPB_NumClusEx		92		/* exFAT: Number of clusters (DWORD) */
 380:../../../lib/Middlewares/Third_Party/FatFs/src/ff.c **** #define BPB_RootClusEx		96		/* exFAT: Root directory start cluster (DWORD) */
 381:../../../lib/Middlewares/Third_Party/FatFs/src/ff.c **** #define BPB_VolIDEx			100		/* exFAT: Volume serial number (DWORD) */
 382:../../../lib/Middlewares/Third_Party/FatFs/src/ff.c **** #define BPB_FSVerEx			104		/* exFAT: File system version (WORD) */
 383:../../../lib/Middlewares/Third_Party/FatFs/src/ff.c **** #define BPB_VolFlagEx		106		/* exFAT: Volume flags (BYTE) */
 384:../../../lib/Middlewares/Third_Party/FatFs/src/ff.c **** #define BPB_ActFatEx		107		/* exFAT: Active FAT flags (BYTE) */
 385:../../../lib/Middlewares/Third_Party/FatFs/src/ff.c **** #define BPB_BytsPerSecEx	108		/* exFAT: Log2 of sector size in unit of byte (BYTE) */
 386:../../../lib/Middlewares/Third_Party/FatFs/src/ff.c **** #define BPB_SecPerClusEx	109		/* exFAT: Log2 of cluster size in unit of sector (BYTE) */
 387:../../../lib/Middlewares/Third_Party/FatFs/src/ff.c **** #define BPB_NumFATsEx		110		/* exFAT: Number of FATs (BYTE) */
 388:../../../lib/Middlewares/Third_Party/FatFs/src/ff.c **** #define BPB_DrvNumEx		111		/* exFAT: Physical drive number for int13h (BYTE) */
 389:../../../lib/Middlewares/Third_Party/FatFs/src/ff.c **** #define BPB_PercInUseEx		112		/* exFAT: Percent in use (BYTE) */
 390:../../../lib/Middlewares/Third_Party/FatFs/src/ff.c **** #define	BPB_RsvdEx			113		/* exFAT: Reserved (7-byte) */
 391:../../../lib/Middlewares/Third_Party/FatFs/src/ff.c **** #define BS_BootCodeEx		120		/* exFAT: Boot code (390-byte) */
 392:../../../lib/Middlewares/Third_Party/FatFs/src/ff.c **** 
 393:../../../lib/Middlewares/Third_Party/FatFs/src/ff.c **** #define	DIR_Name			0		/* Short file name (11-byte) */
 394:../../../lib/Middlewares/Third_Party/FatFs/src/ff.c **** #define	DIR_Attr			11		/* Attribute (BYTE) */
 395:../../../lib/Middlewares/Third_Party/FatFs/src/ff.c **** #define	DIR_NTres			12		/* Lower case flag (BYTE) */
 396:../../../lib/Middlewares/Third_Party/FatFs/src/ff.c **** #define DIR_CrtTime10		13		/* Created time sub-second (BYTE) */
 397:../../../lib/Middlewares/Third_Party/FatFs/src/ff.c **** #define	DIR_CrtTime			14		/* Created time (DWORD) */
 398:../../../lib/Middlewares/Third_Party/FatFs/src/ff.c **** #define DIR_LstAccDate		18		/* Last accessed date (WORD) */
 399:../../../lib/Middlewares/Third_Party/FatFs/src/ff.c **** #define	DIR_FstClusHI		20		/* Higher 16-bit of first cluster (WORD) */
 400:../../../lib/Middlewares/Third_Party/FatFs/src/ff.c **** #define	DIR_ModTime			22		/* Modified time (DWORD) */
 401:../../../lib/Middlewares/Third_Party/FatFs/src/ff.c **** #define	DIR_FstClusLO		26		/* Lower 16-bit of first cluster (WORD) */
 402:../../../lib/Middlewares/Third_Party/FatFs/src/ff.c **** #define	DIR_FileSize		28		/* File size (DWORD) */
 403:../../../lib/Middlewares/Third_Party/FatFs/src/ff.c **** #define	LDIR_Ord			0		/* LFN: LFN order and LLE flag (BYTE) */
 404:../../../lib/Middlewares/Third_Party/FatFs/src/ff.c **** #define	LDIR_Attr			11		/* LFN: LFN attribute (BYTE) */
 405:../../../lib/Middlewares/Third_Party/FatFs/src/ff.c **** #define	LDIR_Type			12		/* LFN: Entry type (BYTE) */
 406:../../../lib/Middlewares/Third_Party/FatFs/src/ff.c **** #define	LDIR_Chksum			13		/* LFN: Checksum of the SFN (BYTE) */
 407:../../../lib/Middlewares/Third_Party/FatFs/src/ff.c **** #define	LDIR_FstClusLO		26		/* LFN: MBZ field (WORD) */
 408:../../../lib/Middlewares/Third_Party/FatFs/src/ff.c **** #define	XDIR_Type			0		/* exFAT: Type of exFAT directory entry (BYTE) */
 409:../../../lib/Middlewares/Third_Party/FatFs/src/ff.c **** #define	XDIR_NumLabel		1		/* exFAT: Number of volume label characters (BYTE) */
 410:../../../lib/Middlewares/Third_Party/FatFs/src/ff.c **** #define	XDIR_Label			2		/* exFAT: Volume label (11-WORD) */
 411:../../../lib/Middlewares/Third_Party/FatFs/src/ff.c **** #define	XDIR_CaseSum		4		/* exFAT: Sum of case conversion table (DWORD) */
 412:../../../lib/Middlewares/Third_Party/FatFs/src/ff.c **** #define	XDIR_NumSec			1		/* exFAT: Number of secondary entries (BYTE) */
 413:../../../lib/Middlewares/Third_Party/FatFs/src/ff.c **** #define	XDIR_SetSum			2		/* exFAT: Sum of the set of directory entries (WORD) */
 414:../../../lib/Middlewares/Third_Party/FatFs/src/ff.c **** #define	XDIR_Attr			4		/* exFAT: File attribute (WORD) */
 415:../../../lib/Middlewares/Third_Party/FatFs/src/ff.c **** #define	XDIR_CrtTime		8		/* exFAT: Created time (DWORD) */
 416:../../../lib/Middlewares/Third_Party/FatFs/src/ff.c **** #define	XDIR_ModTime		12		/* exFAT: Modified time (DWORD) */
 417:../../../lib/Middlewares/Third_Party/FatFs/src/ff.c **** #define	XDIR_AccTime		16		/* exFAT: Last accessed time (DWORD) */
 418:../../../lib/Middlewares/Third_Party/FatFs/src/ff.c **** #define	XDIR_CrtTime10		20		/* exFAT: Created time subsecond (BYTE) */
 419:../../../lib/Middlewares/Third_Party/FatFs/src/ff.c **** #define	XDIR_ModTime10		21		/* exFAT: Modified time subsecond (BYTE) */
 420:../../../lib/Middlewares/Third_Party/FatFs/src/ff.c **** #define	XDIR_CrtTZ			22		/* exFAT: Created timezone (BYTE) */
 421:../../../lib/Middlewares/Third_Party/FatFs/src/ff.c **** #define	XDIR_ModTZ			23		/* exFAT: Modified timezone (BYTE) */
 422:../../../lib/Middlewares/Third_Party/FatFs/src/ff.c **** #define	XDIR_AccTZ			24		/* exFAT: Last accessed timezone (BYTE) */
 423:../../../lib/Middlewares/Third_Party/FatFs/src/ff.c **** #define	XDIR_GenFlags		33		/* exFAT: General secondary flags (WORD) */
 424:../../../lib/Middlewares/Third_Party/FatFs/src/ff.c **** #define	XDIR_NumName		35		/* exFAT: Number of file name characters (BYTE) */
 425:../../../lib/Middlewares/Third_Party/FatFs/src/ff.c **** #define	XDIR_NameHash		36		/* exFAT: Hash of file name (WORD) */
 426:../../../lib/Middlewares/Third_Party/FatFs/src/ff.c **** #define XDIR_ValidFileSize	40		/* exFAT: Valid file size (QWORD) */
 427:../../../lib/Middlewares/Third_Party/FatFs/src/ff.c **** #define	XDIR_FstClus		52		/* exFAT: First cluster of the file data (DWORD) */
 428:../../../lib/Middlewares/Third_Party/FatFs/src/ff.c **** #define	XDIR_FileSize		56		/* exFAT: File/Directory size (QWORD) */
 429:../../../lib/Middlewares/Third_Party/FatFs/src/ff.c **** 
 430:../../../lib/Middlewares/Third_Party/FatFs/src/ff.c **** #define	SZDIRE				32		/* Size of a directory entry */
ARM GAS  /tmp/cco2ePoA.s 			page 9


 431:../../../lib/Middlewares/Third_Party/FatFs/src/ff.c **** #define	DDEM				0xE5	/* Deleted directory entry mark set to DIR_Name[0] */
 432:../../../lib/Middlewares/Third_Party/FatFs/src/ff.c **** #define	RDDEM				0x05	/* Replacement of the character collides with DDEM */
 433:../../../lib/Middlewares/Third_Party/FatFs/src/ff.c **** #define	LLEF				0x40	/* Last long entry flag in LDIR_Ord */
 434:../../../lib/Middlewares/Third_Party/FatFs/src/ff.c **** 
 435:../../../lib/Middlewares/Third_Party/FatFs/src/ff.c **** #define	FSI_LeadSig			0		/* FAT32 FSI: Leading signature (DWORD) */
 436:../../../lib/Middlewares/Third_Party/FatFs/src/ff.c **** #define	FSI_StrucSig		484		/* FAT32 FSI: Structure signature (DWORD) */
 437:../../../lib/Middlewares/Third_Party/FatFs/src/ff.c **** #define	FSI_Free_Count		488		/* FAT32 FSI: Number of free clusters (DWORD) */
 438:../../../lib/Middlewares/Third_Party/FatFs/src/ff.c **** #define	FSI_Nxt_Free		492		/* FAT32 FSI: Last allocated cluster (DWORD) */
 439:../../../lib/Middlewares/Third_Party/FatFs/src/ff.c **** 
 440:../../../lib/Middlewares/Third_Party/FatFs/src/ff.c **** #define MBR_Table			446		/* MBR: Offset of partition table in the MBR */
 441:../../../lib/Middlewares/Third_Party/FatFs/src/ff.c **** #define	SZ_PTE				16		/* MBR: Size of a partition table entry */
 442:../../../lib/Middlewares/Third_Party/FatFs/src/ff.c **** #define PTE_Boot			0		/* MBR PTE: Boot indicator */
 443:../../../lib/Middlewares/Third_Party/FatFs/src/ff.c **** #define PTE_StHead			1		/* MBR PTE: Start head */
 444:../../../lib/Middlewares/Third_Party/FatFs/src/ff.c **** #define PTE_StSec			2		/* MBR PTE: Start sector */
 445:../../../lib/Middlewares/Third_Party/FatFs/src/ff.c **** #define PTE_StCyl			3		/* MBR PTE: Start cylinder */
 446:../../../lib/Middlewares/Third_Party/FatFs/src/ff.c **** #define PTE_System			4		/* MBR PTE: System ID */
 447:../../../lib/Middlewares/Third_Party/FatFs/src/ff.c **** #define PTE_EdHead			5		/* MBR PTE: End head */
 448:../../../lib/Middlewares/Third_Party/FatFs/src/ff.c **** #define PTE_EdSec			6		/* MBR PTE: End sector */
 449:../../../lib/Middlewares/Third_Party/FatFs/src/ff.c **** #define PTE_EdCyl			7		/* MBR PTE: End cylinder */
 450:../../../lib/Middlewares/Third_Party/FatFs/src/ff.c **** #define PTE_StLba			8		/* MBR PTE: Start in LBA */
 451:../../../lib/Middlewares/Third_Party/FatFs/src/ff.c **** #define PTE_SizLba			12		/* MBR PTE: Size in LBA */
 452:../../../lib/Middlewares/Third_Party/FatFs/src/ff.c **** 
 453:../../../lib/Middlewares/Third_Party/FatFs/src/ff.c **** 
 454:../../../lib/Middlewares/Third_Party/FatFs/src/ff.c **** /* Post process after fatal error on file operation */
 455:../../../lib/Middlewares/Third_Party/FatFs/src/ff.c **** #define	ABORT(fs, res)		{ fp->err = (BYTE)(res); LEAVE_FF(fs, res); }
 456:../../../lib/Middlewares/Third_Party/FatFs/src/ff.c **** 
 457:../../../lib/Middlewares/Third_Party/FatFs/src/ff.c **** 
 458:../../../lib/Middlewares/Third_Party/FatFs/src/ff.c **** /* Reentrancy related */
 459:../../../lib/Middlewares/Third_Party/FatFs/src/ff.c **** #if _FS_REENTRANT
 460:../../../lib/Middlewares/Third_Party/FatFs/src/ff.c **** #if _USE_LFN == 1
 461:../../../lib/Middlewares/Third_Party/FatFs/src/ff.c **** #error Static LFN work area cannot be used at thread-safe configuration
 462:../../../lib/Middlewares/Third_Party/FatFs/src/ff.c **** #endif
 463:../../../lib/Middlewares/Third_Party/FatFs/src/ff.c **** #define	ENTER_FF(fs)		{ if (!lock_fs(fs)) return FR_TIMEOUT; }
 464:../../../lib/Middlewares/Third_Party/FatFs/src/ff.c **** #define	LEAVE_FF(fs, res)	{ unlock_fs(fs, res); return res; }
 465:../../../lib/Middlewares/Third_Party/FatFs/src/ff.c **** #else
 466:../../../lib/Middlewares/Third_Party/FatFs/src/ff.c **** #define	ENTER_FF(fs)
 467:../../../lib/Middlewares/Third_Party/FatFs/src/ff.c **** #define LEAVE_FF(fs, res)	return res
 468:../../../lib/Middlewares/Third_Party/FatFs/src/ff.c **** #endif
 469:../../../lib/Middlewares/Third_Party/FatFs/src/ff.c **** 
 470:../../../lib/Middlewares/Third_Party/FatFs/src/ff.c **** 
 471:../../../lib/Middlewares/Third_Party/FatFs/src/ff.c **** /* Definitions of volume - partition conversion */
 472:../../../lib/Middlewares/Third_Party/FatFs/src/ff.c **** #if _MULTI_PARTITION
 473:../../../lib/Middlewares/Third_Party/FatFs/src/ff.c **** #define LD2PD(vol) VolToPart[vol].pd	/* Get physical drive number */
 474:../../../lib/Middlewares/Third_Party/FatFs/src/ff.c **** #define LD2PT(vol) VolToPart[vol].pt	/* Get partition index */
 475:../../../lib/Middlewares/Third_Party/FatFs/src/ff.c **** #else
 476:../../../lib/Middlewares/Third_Party/FatFs/src/ff.c **** #define LD2PD(vol) (BYTE)(vol)	/* Each logical drive is bound to the same physical drive number */
 477:../../../lib/Middlewares/Third_Party/FatFs/src/ff.c **** #define LD2PT(vol) 0			/* Find first valid partition or in SFD */
 478:../../../lib/Middlewares/Third_Party/FatFs/src/ff.c **** #endif
 479:../../../lib/Middlewares/Third_Party/FatFs/src/ff.c **** 
 480:../../../lib/Middlewares/Third_Party/FatFs/src/ff.c **** 
 481:../../../lib/Middlewares/Third_Party/FatFs/src/ff.c **** /* Definitions of sector size */
 482:../../../lib/Middlewares/Third_Party/FatFs/src/ff.c **** #if (_MAX_SS < _MIN_SS) || (_MAX_SS != 512 && _MAX_SS != 1024 && _MAX_SS != 2048 && _MAX_SS != 4096
 483:../../../lib/Middlewares/Third_Party/FatFs/src/ff.c **** #error Wrong sector size configuration
 484:../../../lib/Middlewares/Third_Party/FatFs/src/ff.c **** #endif
 485:../../../lib/Middlewares/Third_Party/FatFs/src/ff.c **** #if _MAX_SS == _MIN_SS
 486:../../../lib/Middlewares/Third_Party/FatFs/src/ff.c **** #define	SS(fs)	((UINT)_MAX_SS)	/* Fixed sector size */
 487:../../../lib/Middlewares/Third_Party/FatFs/src/ff.c **** #else
ARM GAS  /tmp/cco2ePoA.s 			page 10


 488:../../../lib/Middlewares/Third_Party/FatFs/src/ff.c **** #define	SS(fs)	((fs)->ssize)	/* Variable sector size */
 489:../../../lib/Middlewares/Third_Party/FatFs/src/ff.c **** #endif
 490:../../../lib/Middlewares/Third_Party/FatFs/src/ff.c **** 
 491:../../../lib/Middlewares/Third_Party/FatFs/src/ff.c **** 
 492:../../../lib/Middlewares/Third_Party/FatFs/src/ff.c **** /* Timestamp */
 493:../../../lib/Middlewares/Third_Party/FatFs/src/ff.c **** #if _FS_NORTC == 1
 494:../../../lib/Middlewares/Third_Party/FatFs/src/ff.c **** #if _NORTC_YEAR < 1980 || _NORTC_YEAR > 2107 || _NORTC_MON < 1 || _NORTC_MON > 12 || _NORTC_MDAY < 
 495:../../../lib/Middlewares/Third_Party/FatFs/src/ff.c **** #error Invalid _FS_NORTC settings
 496:../../../lib/Middlewares/Third_Party/FatFs/src/ff.c **** #endif
 497:../../../lib/Middlewares/Third_Party/FatFs/src/ff.c **** #define GET_FATTIME()	((DWORD)(_NORTC_YEAR - 1980) << 25 | (DWORD)_NORTC_MON << 21 | (DWORD)_NORTC_
 498:../../../lib/Middlewares/Third_Party/FatFs/src/ff.c **** #else
 499:../../../lib/Middlewares/Third_Party/FatFs/src/ff.c **** #define GET_FATTIME()	get_fattime()
 500:../../../lib/Middlewares/Third_Party/FatFs/src/ff.c **** #endif
 501:../../../lib/Middlewares/Third_Party/FatFs/src/ff.c **** 
 502:../../../lib/Middlewares/Third_Party/FatFs/src/ff.c **** 
 503:../../../lib/Middlewares/Third_Party/FatFs/src/ff.c **** /* File lock controls */
 504:../../../lib/Middlewares/Third_Party/FatFs/src/ff.c **** #if _FS_LOCK != 0
 505:../../../lib/Middlewares/Third_Party/FatFs/src/ff.c **** #if _FS_READONLY
 506:../../../lib/Middlewares/Third_Party/FatFs/src/ff.c **** #error _FS_LOCK must be 0 at read-only configuration
 507:../../../lib/Middlewares/Third_Party/FatFs/src/ff.c **** #endif
 508:../../../lib/Middlewares/Third_Party/FatFs/src/ff.c **** typedef struct {
 509:../../../lib/Middlewares/Third_Party/FatFs/src/ff.c **** 	FATFS *fs;		/* Object ID 1, volume (NULL:blank entry) */
 510:../../../lib/Middlewares/Third_Party/FatFs/src/ff.c **** 	DWORD clu;		/* Object ID 2, containing directory (0:root) */
 511:../../../lib/Middlewares/Third_Party/FatFs/src/ff.c **** 	DWORD ofs;		/* Object ID 3, offset in the directory */
 512:../../../lib/Middlewares/Third_Party/FatFs/src/ff.c **** 	WORD ctr;		/* Object open counter, 0:none, 0x01..0xFF:read mode open count, 0x100:write mode */
 513:../../../lib/Middlewares/Third_Party/FatFs/src/ff.c **** } FILESEM;
 514:../../../lib/Middlewares/Third_Party/FatFs/src/ff.c **** #endif
 515:../../../lib/Middlewares/Third_Party/FatFs/src/ff.c **** 
 516:../../../lib/Middlewares/Third_Party/FatFs/src/ff.c **** 
 517:../../../lib/Middlewares/Third_Party/FatFs/src/ff.c **** 
 518:../../../lib/Middlewares/Third_Party/FatFs/src/ff.c **** 
 519:../../../lib/Middlewares/Third_Party/FatFs/src/ff.c **** 
 520:../../../lib/Middlewares/Third_Party/FatFs/src/ff.c **** /*--------------------------------------------------------------------------
 521:../../../lib/Middlewares/Third_Party/FatFs/src/ff.c **** 
 522:../../../lib/Middlewares/Third_Party/FatFs/src/ff.c ****    Module Private Work Area
 523:../../../lib/Middlewares/Third_Party/FatFs/src/ff.c **** 
 524:../../../lib/Middlewares/Third_Party/FatFs/src/ff.c **** ---------------------------------------------------------------------------*/
 525:../../../lib/Middlewares/Third_Party/FatFs/src/ff.c **** 
 526:../../../lib/Middlewares/Third_Party/FatFs/src/ff.c **** /* Remark: Variables defined here without initial value shall be guaranteed
 527:../../../lib/Middlewares/Third_Party/FatFs/src/ff.c **** /  zero/null at start-up. If not, the linker option or start-up routine is
 528:../../../lib/Middlewares/Third_Party/FatFs/src/ff.c **** /  not compliance with C standard. */
 529:../../../lib/Middlewares/Third_Party/FatFs/src/ff.c **** 
 530:../../../lib/Middlewares/Third_Party/FatFs/src/ff.c **** #if _VOLUMES < 1 || _VOLUMES > 10
 531:../../../lib/Middlewares/Third_Party/FatFs/src/ff.c **** #error Wrong _VOLUMES setting
 532:../../../lib/Middlewares/Third_Party/FatFs/src/ff.c **** #endif
 533:../../../lib/Middlewares/Third_Party/FatFs/src/ff.c **** static FATFS *FatFs[_VOLUMES];	/* Pointer to the file system objects (logical drives) */
 534:../../../lib/Middlewares/Third_Party/FatFs/src/ff.c **** static WORD Fsid;				/* File system mount ID */
 535:../../../lib/Middlewares/Third_Party/FatFs/src/ff.c **** 
 536:../../../lib/Middlewares/Third_Party/FatFs/src/ff.c **** #if _FS_RPATH != 0 && _VOLUMES >= 2
 537:../../../lib/Middlewares/Third_Party/FatFs/src/ff.c **** static BYTE CurrVol;			/* Current drive */
 538:../../../lib/Middlewares/Third_Party/FatFs/src/ff.c **** #endif
 539:../../../lib/Middlewares/Third_Party/FatFs/src/ff.c **** 
 540:../../../lib/Middlewares/Third_Party/FatFs/src/ff.c **** #if _FS_LOCK != 0
 541:../../../lib/Middlewares/Third_Party/FatFs/src/ff.c **** static FILESEM Files[_FS_LOCK];	/* Open object lock semaphores */
 542:../../../lib/Middlewares/Third_Party/FatFs/src/ff.c **** #endif
 543:../../../lib/Middlewares/Third_Party/FatFs/src/ff.c **** 
 544:../../../lib/Middlewares/Third_Party/FatFs/src/ff.c **** #if _USE_LFN == 0		/* Non-LFN configuration */
ARM GAS  /tmp/cco2ePoA.s 			page 11


 545:../../../lib/Middlewares/Third_Party/FatFs/src/ff.c **** #define	DEF_NAMBUF
 546:../../../lib/Middlewares/Third_Party/FatFs/src/ff.c **** #define INIT_NAMBUF(fs)
 547:../../../lib/Middlewares/Third_Party/FatFs/src/ff.c **** #define	FREE_NAMBUF()
 548:../../../lib/Middlewares/Third_Party/FatFs/src/ff.c **** 
 549:../../../lib/Middlewares/Third_Party/FatFs/src/ff.c **** #else					/* LFN configuration */
 550:../../../lib/Middlewares/Third_Party/FatFs/src/ff.c **** #if _MAX_LFN < 12 || _MAX_LFN > 255
 551:../../../lib/Middlewares/Third_Party/FatFs/src/ff.c **** #error Wrong _MAX_LFN value
 552:../../../lib/Middlewares/Third_Party/FatFs/src/ff.c **** #endif
 553:../../../lib/Middlewares/Third_Party/FatFs/src/ff.c **** #define MAXDIRB(nc)	((nc + 44U) / 15 * SZDIRE)
 554:../../../lib/Middlewares/Third_Party/FatFs/src/ff.c **** 
 555:../../../lib/Middlewares/Third_Party/FatFs/src/ff.c **** #if _USE_LFN == 1		/* LFN enabled with static working buffer */
 556:../../../lib/Middlewares/Third_Party/FatFs/src/ff.c **** #if _FS_EXFAT
 557:../../../lib/Middlewares/Third_Party/FatFs/src/ff.c **** static BYTE	DirBuf[MAXDIRB(_MAX_LFN)];	/* Directory entry block scratchpad buffer */
 558:../../../lib/Middlewares/Third_Party/FatFs/src/ff.c **** #endif
 559:../../../lib/Middlewares/Third_Party/FatFs/src/ff.c **** static WCHAR LfnBuf[_MAX_LFN + 1];	/* LFN enabled with static working buffer */
 560:../../../lib/Middlewares/Third_Party/FatFs/src/ff.c **** #define	DEF_NAMBUF
 561:../../../lib/Middlewares/Third_Party/FatFs/src/ff.c **** #define INIT_NAMBUF(fs)
 562:../../../lib/Middlewares/Third_Party/FatFs/src/ff.c **** #define	FREE_NAMBUF()
 563:../../../lib/Middlewares/Third_Party/FatFs/src/ff.c **** 
 564:../../../lib/Middlewares/Third_Party/FatFs/src/ff.c **** #elif _USE_LFN == 2 	/* LFN enabled with dynamic working buffer on the stack */
 565:../../../lib/Middlewares/Third_Party/FatFs/src/ff.c **** #if _FS_EXFAT
 566:../../../lib/Middlewares/Third_Party/FatFs/src/ff.c **** #define	DEF_NAMBUF		WCHAR lbuf[_MAX_LFN+1]; BYTE dbuf[MAXDIRB(_MAX_LFN)];
 567:../../../lib/Middlewares/Third_Party/FatFs/src/ff.c **** #define INIT_NAMBUF(fs)	{ (fs)->lfnbuf = lbuf; (fs)->dirbuf = dbuf; }
 568:../../../lib/Middlewares/Third_Party/FatFs/src/ff.c **** #define	FREE_NAMBUF()
 569:../../../lib/Middlewares/Third_Party/FatFs/src/ff.c **** #else
 570:../../../lib/Middlewares/Third_Party/FatFs/src/ff.c **** #define	DEF_NAMBUF		WCHAR lbuf[_MAX_LFN+1];
 571:../../../lib/Middlewares/Third_Party/FatFs/src/ff.c **** #define INIT_NAMBUF(fs)	{ (fs)->lfnbuf = lbuf; }
 572:../../../lib/Middlewares/Third_Party/FatFs/src/ff.c **** #define	FREE_NAMBUF()
 573:../../../lib/Middlewares/Third_Party/FatFs/src/ff.c **** #endif
 574:../../../lib/Middlewares/Third_Party/FatFs/src/ff.c **** 
 575:../../../lib/Middlewares/Third_Party/FatFs/src/ff.c **** #elif _USE_LFN == 3 	/* LFN enabled with dynamic working buffer on the heap */
 576:../../../lib/Middlewares/Third_Party/FatFs/src/ff.c **** #if _FS_EXFAT
 577:../../../lib/Middlewares/Third_Party/FatFs/src/ff.c **** #define	DEF_NAMBUF		WCHAR *lfn;
 578:../../../lib/Middlewares/Third_Party/FatFs/src/ff.c **** #define INIT_NAMBUF(fs)	{ lfn = ff_memalloc((_MAX_LFN+1)*2 + MAXDIRB(_MAX_LFN)); if (!lfn) LEAVE_FF
 579:../../../lib/Middlewares/Third_Party/FatFs/src/ff.c **** #define	FREE_NAMBUF()	ff_memfree(lfn)
 580:../../../lib/Middlewares/Third_Party/FatFs/src/ff.c **** #else
 581:../../../lib/Middlewares/Third_Party/FatFs/src/ff.c **** #define	DEF_NAMBUF		WCHAR *lfn;
 582:../../../lib/Middlewares/Third_Party/FatFs/src/ff.c **** #define INIT_NAMBUF(fs)	{ lfn = ff_memalloc((_MAX_LFN+1)*2); if (!lfn) LEAVE_FF(fs, FR_NOT_ENOUGH_C
 583:../../../lib/Middlewares/Third_Party/FatFs/src/ff.c **** #define	FREE_NAMBUF()	ff_memfree(lfn)
 584:../../../lib/Middlewares/Third_Party/FatFs/src/ff.c **** #endif
 585:../../../lib/Middlewares/Third_Party/FatFs/src/ff.c **** 
 586:../../../lib/Middlewares/Third_Party/FatFs/src/ff.c **** #else
 587:../../../lib/Middlewares/Third_Party/FatFs/src/ff.c **** #error Wrong _USE_LFN setting
 588:../../../lib/Middlewares/Third_Party/FatFs/src/ff.c **** 
 589:../../../lib/Middlewares/Third_Party/FatFs/src/ff.c **** #endif
 590:../../../lib/Middlewares/Third_Party/FatFs/src/ff.c **** #endif	/* else _USE_LFN == 0 */
 591:../../../lib/Middlewares/Third_Party/FatFs/src/ff.c **** 
 592:../../../lib/Middlewares/Third_Party/FatFs/src/ff.c **** #ifdef _EXCVT
 593:../../../lib/Middlewares/Third_Party/FatFs/src/ff.c **** static const BYTE ExCvt[] = _EXCVT;	/* Upper conversion table for SBCS extended characters */
 594:../../../lib/Middlewares/Third_Party/FatFs/src/ff.c **** #endif
 595:../../../lib/Middlewares/Third_Party/FatFs/src/ff.c **** 
 596:../../../lib/Middlewares/Third_Party/FatFs/src/ff.c **** 
 597:../../../lib/Middlewares/Third_Party/FatFs/src/ff.c **** 
 598:../../../lib/Middlewares/Third_Party/FatFs/src/ff.c **** 
 599:../../../lib/Middlewares/Third_Party/FatFs/src/ff.c **** 
 600:../../../lib/Middlewares/Third_Party/FatFs/src/ff.c **** 
 601:../../../lib/Middlewares/Third_Party/FatFs/src/ff.c **** /*--------------------------------------------------------------------------
ARM GAS  /tmp/cco2ePoA.s 			page 12


 602:../../../lib/Middlewares/Third_Party/FatFs/src/ff.c **** 
 603:../../../lib/Middlewares/Third_Party/FatFs/src/ff.c ****    Module Private Functions
 604:../../../lib/Middlewares/Third_Party/FatFs/src/ff.c **** 
 605:../../../lib/Middlewares/Third_Party/FatFs/src/ff.c **** ---------------------------------------------------------------------------*/
 606:../../../lib/Middlewares/Third_Party/FatFs/src/ff.c **** 
 607:../../../lib/Middlewares/Third_Party/FatFs/src/ff.c **** 
 608:../../../lib/Middlewares/Third_Party/FatFs/src/ff.c **** /*-----------------------------------------------------------------------*/
 609:../../../lib/Middlewares/Third_Party/FatFs/src/ff.c **** /* Load/Store multi-byte word in the FAT structure                       */
 610:../../../lib/Middlewares/Third_Party/FatFs/src/ff.c **** /*-----------------------------------------------------------------------*/
 611:../../../lib/Middlewares/Third_Party/FatFs/src/ff.c **** 
 612:../../../lib/Middlewares/Third_Party/FatFs/src/ff.c **** static
 613:../../../lib/Middlewares/Third_Party/FatFs/src/ff.c **** WORD ld_word (const BYTE* ptr)	/*	 Load a 2-byte little-endian word */
 614:../../../lib/Middlewares/Third_Party/FatFs/src/ff.c **** {
  28              		.loc 1 614 1 view -0
  29              		.cfi_startproc
  30              		@ args = 0, pretend = 0, frame = 0
  31              		@ frame_needed = 0, uses_anonymous_args = 0
  32              		@ link register save eliminated.
 615:../../../lib/Middlewares/Third_Party/FatFs/src/ff.c **** 	WORD rv;
  33              		.loc 1 615 2 view .LVU1
 616:../../../lib/Middlewares/Third_Party/FatFs/src/ff.c **** 
 617:../../../lib/Middlewares/Third_Party/FatFs/src/ff.c **** 	rv = ptr[1];
  34              		.loc 1 617 2 view .LVU2
  35              		.loc 1 617 10 is_stmt 0 view .LVU3
  36 0000 4278     		ldrb	r2, [r0, #1]	@ zero_extendqisi2
  37              	.LVL1:
 618:../../../lib/Middlewares/Third_Party/FatFs/src/ff.c **** 	rv = rv << 8 | ptr[0];
  38              		.loc 1 618 2 is_stmt 1 view .LVU4
  39              		.loc 1 618 20 is_stmt 0 view .LVU5
  40 0002 0078     		ldrb	r0, [r0]	@ zero_extendqisi2
  41              	.LVL2:
 619:../../../lib/Middlewares/Third_Party/FatFs/src/ff.c **** 	return rv;
  42              		.loc 1 619 2 is_stmt 1 view .LVU6
 620:../../../lib/Middlewares/Third_Party/FatFs/src/ff.c **** }
  43              		.loc 1 620 1 is_stmt 0 view .LVU7
  44 0004 40EA0220 		orr	r0, r0, r2, lsl #8
  45              	.LVL3:
  46              		.loc 1 620 1 view .LVU8
  47 0008 7047     		bx	lr
  48              		.cfi_endproc
  49              	.LFE144:
  51              		.section	.text.ld_dword,"ax",%progbits
  52              		.align	1
  53              		.syntax unified
  54              		.thumb
  55              		.thumb_func
  57              	ld_dword:
  58              	.LVL4:
  59              	.LFB145:
 621:../../../lib/Middlewares/Third_Party/FatFs/src/ff.c **** 
 622:../../../lib/Middlewares/Third_Party/FatFs/src/ff.c **** static
 623:../../../lib/Middlewares/Third_Party/FatFs/src/ff.c **** DWORD ld_dword (const BYTE* ptr)	/* Load a 4-byte little-endian word */
 624:../../../lib/Middlewares/Third_Party/FatFs/src/ff.c **** {
  60              		.loc 1 624 1 is_stmt 1 view -0
  61              		.cfi_startproc
  62              		@ args = 0, pretend = 0, frame = 0
  63              		@ frame_needed = 0, uses_anonymous_args = 0
ARM GAS  /tmp/cco2ePoA.s 			page 13


  64              		@ link register save eliminated.
 625:../../../lib/Middlewares/Third_Party/FatFs/src/ff.c **** 	DWORD rv;
  65              		.loc 1 625 2 view .LVU10
 626:../../../lib/Middlewares/Third_Party/FatFs/src/ff.c **** 
 627:../../../lib/Middlewares/Third_Party/FatFs/src/ff.c **** 	rv = ptr[3];
  66              		.loc 1 627 2 view .LVU11
  67              		.loc 1 627 10 is_stmt 0 view .LVU12
  68 0000 C378     		ldrb	r3, [r0, #3]	@ zero_extendqisi2
  69              	.LVL5:
 628:../../../lib/Middlewares/Third_Party/FatFs/src/ff.c **** 	rv = rv << 8 | ptr[2];
  70              		.loc 1 628 2 is_stmt 1 view .LVU13
  71              		.loc 1 628 20 is_stmt 0 view .LVU14
  72 0002 8278     		ldrb	r2, [r0, #2]	@ zero_extendqisi2
  73              		.loc 1 628 5 view .LVU15
  74 0004 42EA0322 		orr	r2, r2, r3, lsl #8
  75              	.LVL6:
 629:../../../lib/Middlewares/Third_Party/FatFs/src/ff.c **** 	rv = rv << 8 | ptr[1];
  76              		.loc 1 629 2 is_stmt 1 view .LVU16
  77              		.loc 1 629 20 is_stmt 0 view .LVU17
  78 0008 4378     		ldrb	r3, [r0, #1]	@ zero_extendqisi2
  79              		.loc 1 629 5 view .LVU18
  80 000a 43EA0223 		orr	r3, r3, r2, lsl #8
  81              	.LVL7:
 630:../../../lib/Middlewares/Third_Party/FatFs/src/ff.c **** 	rv = rv << 8 | ptr[0];
  82              		.loc 1 630 2 is_stmt 1 view .LVU19
  83              		.loc 1 630 20 is_stmt 0 view .LVU20
  84 000e 0078     		ldrb	r0, [r0]	@ zero_extendqisi2
  85              	.LVL8:
 631:../../../lib/Middlewares/Third_Party/FatFs/src/ff.c **** 	return rv;
  86              		.loc 1 631 2 is_stmt 1 view .LVU21
 632:../../../lib/Middlewares/Third_Party/FatFs/src/ff.c **** }
  87              		.loc 1 632 1 is_stmt 0 view .LVU22
  88 0010 40EA0320 		orr	r0, r0, r3, lsl #8
  89              	.LVL9:
  90              		.loc 1 632 1 view .LVU23
  91 0014 7047     		bx	lr
  92              		.cfi_endproc
  93              	.LFE145:
  95              		.section	.text.st_word,"ax",%progbits
  96              		.align	1
  97              		.syntax unified
  98              		.thumb
  99              		.thumb_func
 101              	st_word:
 102              	.LVL10:
 103              	.LFB146:
 633:../../../lib/Middlewares/Third_Party/FatFs/src/ff.c **** 
 634:../../../lib/Middlewares/Third_Party/FatFs/src/ff.c **** #if _FS_EXFAT
 635:../../../lib/Middlewares/Third_Party/FatFs/src/ff.c **** static
 636:../../../lib/Middlewares/Third_Party/FatFs/src/ff.c **** QWORD ld_qword (const BYTE* ptr)	/* Load an 8-byte little-endian word */
 637:../../../lib/Middlewares/Third_Party/FatFs/src/ff.c **** {
 638:../../../lib/Middlewares/Third_Party/FatFs/src/ff.c **** 	QWORD rv;
 639:../../../lib/Middlewares/Third_Party/FatFs/src/ff.c **** 
 640:../../../lib/Middlewares/Third_Party/FatFs/src/ff.c **** 	rv = ptr[7];
 641:../../../lib/Middlewares/Third_Party/FatFs/src/ff.c **** 	rv = rv << 8 | ptr[6];
 642:../../../lib/Middlewares/Third_Party/FatFs/src/ff.c **** 	rv = rv << 8 | ptr[5];
 643:../../../lib/Middlewares/Third_Party/FatFs/src/ff.c **** 	rv = rv << 8 | ptr[4];
ARM GAS  /tmp/cco2ePoA.s 			page 14


 644:../../../lib/Middlewares/Third_Party/FatFs/src/ff.c **** 	rv = rv << 8 | ptr[3];
 645:../../../lib/Middlewares/Third_Party/FatFs/src/ff.c **** 	rv = rv << 8 | ptr[2];
 646:../../../lib/Middlewares/Third_Party/FatFs/src/ff.c **** 	rv = rv << 8 | ptr[1];
 647:../../../lib/Middlewares/Third_Party/FatFs/src/ff.c **** 	rv = rv << 8 | ptr[0];
 648:../../../lib/Middlewares/Third_Party/FatFs/src/ff.c **** 	return rv;
 649:../../../lib/Middlewares/Third_Party/FatFs/src/ff.c **** }
 650:../../../lib/Middlewares/Third_Party/FatFs/src/ff.c **** #endif
 651:../../../lib/Middlewares/Third_Party/FatFs/src/ff.c **** 
 652:../../../lib/Middlewares/Third_Party/FatFs/src/ff.c **** #if !_FS_READONLY
 653:../../../lib/Middlewares/Third_Party/FatFs/src/ff.c **** static
 654:../../../lib/Middlewares/Third_Party/FatFs/src/ff.c **** void st_word (BYTE* ptr, WORD val)	/* Store a 2-byte word in little-endian */
 655:../../../lib/Middlewares/Third_Party/FatFs/src/ff.c **** {
 104              		.loc 1 655 1 is_stmt 1 view -0
 105              		.cfi_startproc
 106              		@ args = 0, pretend = 0, frame = 0
 107              		@ frame_needed = 0, uses_anonymous_args = 0
 108              		@ link register save eliminated.
 656:../../../lib/Middlewares/Third_Party/FatFs/src/ff.c **** 	*ptr++ = (BYTE)val; val >>= 8;
 109              		.loc 1 656 2 view .LVU25
 110              		.loc 1 656 9 is_stmt 0 view .LVU26
 111 0000 0170     		strb	r1, [r0]
 112              		.loc 1 656 22 is_stmt 1 view .LVU27
 113              	.LVL11:
 657:../../../lib/Middlewares/Third_Party/FatFs/src/ff.c **** 	*ptr++ = (BYTE)val;
 114              		.loc 1 657 2 view .LVU28
 115              		.loc 1 657 11 is_stmt 0 view .LVU29
 116 0002 090A     		lsrs	r1, r1, #8
 117              	.LVL12:
 118              		.loc 1 657 9 view .LVU30
 119 0004 4170     		strb	r1, [r0, #1]
 658:../../../lib/Middlewares/Third_Party/FatFs/src/ff.c **** }
 120              		.loc 1 658 1 view .LVU31
 121 0006 7047     		bx	lr
 122              		.cfi_endproc
 123              	.LFE146:
 125              		.section	.text.st_dword,"ax",%progbits
 126              		.align	1
 127              		.syntax unified
 128              		.thumb
 129              		.thumb_func
 131              	st_dword:
 132              	.LVL13:
 133              	.LFB147:
 659:../../../lib/Middlewares/Third_Party/FatFs/src/ff.c **** 
 660:../../../lib/Middlewares/Third_Party/FatFs/src/ff.c **** static
 661:../../../lib/Middlewares/Third_Party/FatFs/src/ff.c **** void st_dword (BYTE* ptr, DWORD val)	/* Store a 4-byte word in little-endian */
 662:../../../lib/Middlewares/Third_Party/FatFs/src/ff.c **** {
 134              		.loc 1 662 1 is_stmt 1 view -0
 135              		.cfi_startproc
 136              		@ args = 0, pretend = 0, frame = 0
 137              		@ frame_needed = 0, uses_anonymous_args = 0
 138              		@ link register save eliminated.
 663:../../../lib/Middlewares/Third_Party/FatFs/src/ff.c **** 	*ptr++ = (BYTE)val; val >>= 8;
 139              		.loc 1 663 2 view .LVU33
 140              		.loc 1 663 9 is_stmt 0 view .LVU34
 141 0000 0170     		strb	r1, [r0]
 142              		.loc 1 663 22 is_stmt 1 view .LVU35
ARM GAS  /tmp/cco2ePoA.s 			page 15


 143              	.LVL14:
 664:../../../lib/Middlewares/Third_Party/FatFs/src/ff.c **** 	*ptr++ = (BYTE)val; val >>= 8;
 144              		.loc 1 664 2 view .LVU36
 145              		.loc 1 664 11 is_stmt 0 view .LVU37
 146 0002 C1F30723 		ubfx	r3, r1, #8, #8
 147              		.loc 1 664 9 view .LVU38
 148 0006 4370     		strb	r3, [r0, #1]
 149              		.loc 1 664 22 is_stmt 1 view .LVU39
 150              	.LVL15:
 665:../../../lib/Middlewares/Third_Party/FatFs/src/ff.c **** 	*ptr++ = (BYTE)val; val >>= 8;
 151              		.loc 1 665 2 view .LVU40
 152              		.loc 1 665 11 is_stmt 0 view .LVU41
 153 0008 C1F30743 		ubfx	r3, r1, #16, #8
 154              		.loc 1 665 9 view .LVU42
 155 000c 8370     		strb	r3, [r0, #2]
 156              		.loc 1 665 22 is_stmt 1 view .LVU43
 157              	.LVL16:
 666:../../../lib/Middlewares/Third_Party/FatFs/src/ff.c **** 	*ptr++ = (BYTE)val;
 158              		.loc 1 666 2 view .LVU44
 159              		.loc 1 666 11 is_stmt 0 view .LVU45
 160 000e 090E     		lsrs	r1, r1, #24
 161              	.LVL17:
 162              		.loc 1 666 9 view .LVU46
 163 0010 C170     		strb	r1, [r0, #3]
 667:../../../lib/Middlewares/Third_Party/FatFs/src/ff.c **** }
 164              		.loc 1 667 1 view .LVU47
 165 0012 7047     		bx	lr
 166              		.cfi_endproc
 167              	.LFE147:
 169              		.section	.text.mem_cpy,"ax",%progbits
 170              		.align	1
 171              		.syntax unified
 172              		.thumb
 173              		.thumb_func
 175              	mem_cpy:
 176              	.LVL18:
 177              	.LFB148:
 668:../../../lib/Middlewares/Third_Party/FatFs/src/ff.c **** 
 669:../../../lib/Middlewares/Third_Party/FatFs/src/ff.c **** #if _FS_EXFAT
 670:../../../lib/Middlewares/Third_Party/FatFs/src/ff.c **** static
 671:../../../lib/Middlewares/Third_Party/FatFs/src/ff.c **** void st_qword (BYTE* ptr, QWORD val)	/* Store an 8-byte word in little-endian */
 672:../../../lib/Middlewares/Third_Party/FatFs/src/ff.c **** {
 673:../../../lib/Middlewares/Third_Party/FatFs/src/ff.c **** 	*ptr++ = (BYTE)val; val >>= 8;
 674:../../../lib/Middlewares/Third_Party/FatFs/src/ff.c **** 	*ptr++ = (BYTE)val; val >>= 8;
 675:../../../lib/Middlewares/Third_Party/FatFs/src/ff.c **** 	*ptr++ = (BYTE)val; val >>= 8;
 676:../../../lib/Middlewares/Third_Party/FatFs/src/ff.c **** 	*ptr++ = (BYTE)val; val >>= 8;
 677:../../../lib/Middlewares/Third_Party/FatFs/src/ff.c **** 	*ptr++ = (BYTE)val; val >>= 8;
 678:../../../lib/Middlewares/Third_Party/FatFs/src/ff.c **** 	*ptr++ = (BYTE)val; val >>= 8;
 679:../../../lib/Middlewares/Third_Party/FatFs/src/ff.c **** 	*ptr++ = (BYTE)val; val >>= 8;
 680:../../../lib/Middlewares/Third_Party/FatFs/src/ff.c **** 	*ptr++ = (BYTE)val;
 681:../../../lib/Middlewares/Third_Party/FatFs/src/ff.c **** }
 682:../../../lib/Middlewares/Third_Party/FatFs/src/ff.c **** #endif
 683:../../../lib/Middlewares/Third_Party/FatFs/src/ff.c **** #endif	/* !_FS_READONLY */
 684:../../../lib/Middlewares/Third_Party/FatFs/src/ff.c **** 
 685:../../../lib/Middlewares/Third_Party/FatFs/src/ff.c **** 
 686:../../../lib/Middlewares/Third_Party/FatFs/src/ff.c **** 
 687:../../../lib/Middlewares/Third_Party/FatFs/src/ff.c **** /*-----------------------------------------------------------------------*/
ARM GAS  /tmp/cco2ePoA.s 			page 16


 688:../../../lib/Middlewares/Third_Party/FatFs/src/ff.c **** /* String functions                                                      */
 689:../../../lib/Middlewares/Third_Party/FatFs/src/ff.c **** /*-----------------------------------------------------------------------*/
 690:../../../lib/Middlewares/Third_Party/FatFs/src/ff.c **** 
 691:../../../lib/Middlewares/Third_Party/FatFs/src/ff.c **** /* Copy memory to memory */
 692:../../../lib/Middlewares/Third_Party/FatFs/src/ff.c **** static
 693:../../../lib/Middlewares/Third_Party/FatFs/src/ff.c **** void mem_cpy (void* dst, const void* src, UINT cnt) {
 178              		.loc 1 693 53 is_stmt 1 view -0
 179              		.cfi_startproc
 180              		@ args = 0, pretend = 0, frame = 0
 181              		@ frame_needed = 0, uses_anonymous_args = 0
 182              		@ link register save eliminated.
 694:../../../lib/Middlewares/Third_Party/FatFs/src/ff.c **** 	BYTE *d = (BYTE*)dst;
 183              		.loc 1 694 2 view .LVU49
 695:../../../lib/Middlewares/Third_Party/FatFs/src/ff.c **** 	const BYTE *s = (const BYTE*)src;
 184              		.loc 1 695 2 view .LVU50
 696:../../../lib/Middlewares/Third_Party/FatFs/src/ff.c **** 
 697:../../../lib/Middlewares/Third_Party/FatFs/src/ff.c **** 	if (cnt) {
 185              		.loc 1 697 2 view .LVU51
 186              		.loc 1 697 5 is_stmt 0 view .LVU52
 187 0000 9446     		mov	ip, r2
 188 0002 32B1     		cbz	r2, .L5
 189              	.LVL19:
 190              	.L7:
 698:../../../lib/Middlewares/Third_Party/FatFs/src/ff.c **** 		do {
 191              		.loc 1 698 3 is_stmt 1 discriminator 1 view .LVU53
 699:../../../lib/Middlewares/Third_Party/FatFs/src/ff.c **** 			*d++ = *s++;
 192              		.loc 1 699 4 discriminator 1 view .LVU54
 193              		.loc 1 699 11 is_stmt 0 discriminator 1 view .LVU55
 194 0004 0A78     		ldrb	r2, [r1]	@ zero_extendqisi2
 195 0006 0131     		adds	r1, r1, #1
 196              	.LVL20:
 197              		.loc 1 699 9 discriminator 1 view .LVU56
 198 0008 0270     		strb	r2, [r0]
 199 000a 0130     		adds	r0, r0, #1
 200              	.LVL21:
 700:../../../lib/Middlewares/Third_Party/FatFs/src/ff.c **** 		} while (--cnt);
 201              		.loc 1 700 12 is_stmt 1 discriminator 1 view .LVU57
 202              		.loc 1 700 12 is_stmt 0 discriminator 1 view .LVU58
 203 000c BCF1010C 		subs	ip, ip, #1
 204              	.LVL22:
 205              		.loc 1 700 12 discriminator 1 view .LVU59
 206 0010 F8D1     		bne	.L7
 207              	.LVL23:
 208              	.L5:
 701:../../../lib/Middlewares/Third_Party/FatFs/src/ff.c **** 	}
 702:../../../lib/Middlewares/Third_Party/FatFs/src/ff.c **** }
 209              		.loc 1 702 1 view .LVU60
 210 0012 7047     		bx	lr
 211              		.cfi_endproc
 212              	.LFE148:
 214              		.section	.text.mem_set,"ax",%progbits
 215              		.align	1
 216              		.syntax unified
 217              		.thumb
 218              		.thumb_func
 220              	mem_set:
 221              	.LFB149:
ARM GAS  /tmp/cco2ePoA.s 			page 17


 703:../../../lib/Middlewares/Third_Party/FatFs/src/ff.c **** 
 704:../../../lib/Middlewares/Third_Party/FatFs/src/ff.c **** /* Fill memory block */
 705:../../../lib/Middlewares/Third_Party/FatFs/src/ff.c **** static
 706:../../../lib/Middlewares/Third_Party/FatFs/src/ff.c **** void mem_set (void* dst, int val, UINT cnt) {
 222              		.loc 1 706 45 is_stmt 1 view -0
 223              		.cfi_startproc
 224              		@ args = 0, pretend = 0, frame = 0
 225              		@ frame_needed = 0, uses_anonymous_args = 0
 226              		@ link register save eliminated.
 227              	.LVL24:
 228              	.L9:
 707:../../../lib/Middlewares/Third_Party/FatFs/src/ff.c **** 	BYTE *d = (BYTE*)dst;
 708:../../../lib/Middlewares/Third_Party/FatFs/src/ff.c **** 
 709:../../../lib/Middlewares/Third_Party/FatFs/src/ff.c **** 	do {
 229              		.loc 1 709 2 discriminator 1 view .LVU62
 710:../../../lib/Middlewares/Third_Party/FatFs/src/ff.c **** 		*d++ = (BYTE)val;
 230              		.loc 1 710 3 discriminator 1 view .LVU63
 231              		.loc 1 710 8 is_stmt 0 discriminator 1 view .LVU64
 232 0000 0170     		strb	r1, [r0]
 233 0002 0130     		adds	r0, r0, #1
 711:../../../lib/Middlewares/Third_Party/FatFs/src/ff.c **** 	} while (--cnt);
 234              		.loc 1 711 11 is_stmt 1 discriminator 1 view .LVU65
 235              	.LVL25:
 236              		.loc 1 711 11 is_stmt 0 discriminator 1 view .LVU66
 237 0004 013A     		subs	r2, r2, #1
 238              	.LVL26:
 239              		.loc 1 711 11 discriminator 1 view .LVU67
 240 0006 FBD1     		bne	.L9
 712:../../../lib/Middlewares/Third_Party/FatFs/src/ff.c **** }
 241              		.loc 1 712 1 view .LVU68
 242 0008 7047     		bx	lr
 243              		.cfi_endproc
 244              	.LFE149:
 246              		.section	.text.mem_cmp,"ax",%progbits
 247              		.align	1
 248              		.syntax unified
 249              		.thumb
 250              		.thumb_func
 252              	mem_cmp:
 253              	.LVL27:
 254              	.LFB150:
 713:../../../lib/Middlewares/Third_Party/FatFs/src/ff.c **** 
 714:../../../lib/Middlewares/Third_Party/FatFs/src/ff.c **** /* Compare memory block */
 715:../../../lib/Middlewares/Third_Party/FatFs/src/ff.c **** static
 716:../../../lib/Middlewares/Third_Party/FatFs/src/ff.c **** int mem_cmp (const void* dst, const void* src, UINT cnt) {	/* ZR:same, NZ:different */
 255              		.loc 1 716 58 is_stmt 1 view -0
 256              		.cfi_startproc
 257              		@ args = 0, pretend = 0, frame = 0
 258              		@ frame_needed = 0, uses_anonymous_args = 0
 259              		@ link register save eliminated.
 260              		.loc 1 716 58 is_stmt 0 view .LVU70
 261 0000 8446     		mov	ip, r0
 717:../../../lib/Middlewares/Third_Party/FatFs/src/ff.c **** 	const BYTE *d = (const BYTE *)dst, *s = (const BYTE *)src;
 262              		.loc 1 717 2 is_stmt 1 view .LVU71
 263              	.LVL28:
 718:../../../lib/Middlewares/Third_Party/FatFs/src/ff.c **** 	int r = 0;
 264              		.loc 1 718 2 view .LVU72
ARM GAS  /tmp/cco2ePoA.s 			page 18


 265              	.L12:
 719:../../../lib/Middlewares/Third_Party/FatFs/src/ff.c **** 
 720:../../../lib/Middlewares/Third_Party/FatFs/src/ff.c **** 	do {
 266              		.loc 1 720 2 discriminator 2 view .LVU73
 721:../../../lib/Middlewares/Third_Party/FatFs/src/ff.c **** 		r = *d++ - *s++;
 267              		.loc 1 721 3 discriminator 2 view .LVU74
 268              		.loc 1 721 7 is_stmt 0 discriminator 2 view .LVU75
 269 0002 9CF80000 		ldrb	r0, [ip]	@ zero_extendqisi2
 270 0006 0CF1010C 		add	ip, ip, #1
 271              	.LVL29:
 272              		.loc 1 721 14 discriminator 2 view .LVU76
 273 000a 0B78     		ldrb	r3, [r1]	@ zero_extendqisi2
 274 000c 0131     		adds	r1, r1, #1
 275              	.LVL30:
 276              		.loc 1 721 5 discriminator 2 view .LVU77
 277 000e C01A     		subs	r0, r0, r3
 278              	.LVL31:
 722:../../../lib/Middlewares/Third_Party/FatFs/src/ff.c **** 	} while (--cnt && r == 0);
 279              		.loc 1 722 17 is_stmt 1 discriminator 2 view .LVU78
 280              		.loc 1 722 17 is_stmt 0 discriminator 2 view .LVU79
 281 0010 013A     		subs	r2, r2, #1
 282              	.LVL32:
 283              		.loc 1 722 17 discriminator 2 view .LVU80
 284 0012 01D0     		beq	.L10
 285              		.loc 1 722 17 discriminator 1 view .LVU81
 286 0014 0028     		cmp	r0, #0
 287 0016 F4D0     		beq	.L12
 288              	.L10:
 723:../../../lib/Middlewares/Third_Party/FatFs/src/ff.c **** 
 724:../../../lib/Middlewares/Third_Party/FatFs/src/ff.c **** 	return r;
 725:../../../lib/Middlewares/Third_Party/FatFs/src/ff.c **** }
 289              		.loc 1 725 1 view .LVU82
 290 0018 7047     		bx	lr
 291              		.cfi_endproc
 292              	.LFE150:
 294              		.section	.text.chk_chr,"ax",%progbits
 295              		.align	1
 296              		.syntax unified
 297              		.thumb
 298              		.thumb_func
 300              	chk_chr:
 301              	.LVL33:
 302              	.LFB151:
 726:../../../lib/Middlewares/Third_Party/FatFs/src/ff.c **** 
 727:../../../lib/Middlewares/Third_Party/FatFs/src/ff.c **** /* Check if chr is contained in the string */
 728:../../../lib/Middlewares/Third_Party/FatFs/src/ff.c **** static
 729:../../../lib/Middlewares/Third_Party/FatFs/src/ff.c **** int chk_chr (const char* str, int chr) {	/* NZ:contained, ZR:not contained */
 303              		.loc 1 729 40 is_stmt 1 view -0
 304              		.cfi_startproc
 305              		@ args = 0, pretend = 0, frame = 0
 306              		@ frame_needed = 0, uses_anonymous_args = 0
 307              		@ link register save eliminated.
 308              		.loc 1 729 40 is_stmt 0 view .LVU84
 309 0000 0346     		mov	r3, r0
 730:../../../lib/Middlewares/Third_Party/FatFs/src/ff.c **** 	while (*str && *str != chr) str++;
 310              		.loc 1 730 2 is_stmt 1 view .LVU85
 311              		.loc 1 730 8 is_stmt 0 view .LVU86
ARM GAS  /tmp/cco2ePoA.s 			page 19


 312 0002 00E0     		b	.L14
 313              	.LVL34:
 314              	.L16:
 315              		.loc 1 730 30 is_stmt 1 discriminator 3 view .LVU87
 316              		.loc 1 730 33 is_stmt 0 discriminator 3 view .LVU88
 317 0004 0133     		adds	r3, r3, #1
 318              	.LVL35:
 319              	.L14:
 320              		.loc 1 730 14 is_stmt 1 discriminator 1 view .LVU89
 321              		.loc 1 730 9 is_stmt 0 discriminator 1 view .LVU90
 322 0006 1878     		ldrb	r0, [r3]	@ zero_extendqisi2
 323              		.loc 1 730 14 discriminator 1 view .LVU91
 324 0008 08B1     		cbz	r0, .L15
 325              		.loc 1 730 14 discriminator 2 view .LVU92
 326 000a 8842     		cmp	r0, r1
 327 000c FAD1     		bne	.L16
 328              	.L15:
 731:../../../lib/Middlewares/Third_Party/FatFs/src/ff.c **** 	return *str;
 329              		.loc 1 731 2 is_stmt 1 view .LVU93
 732:../../../lib/Middlewares/Third_Party/FatFs/src/ff.c **** }
 330              		.loc 1 732 1 is_stmt 0 view .LVU94
 331 000e 7047     		bx	lr
 332              		.cfi_endproc
 333              	.LFE151:
 335              		.section	.text.chk_lock,"ax",%progbits
 336              		.align	1
 337              		.syntax unified
 338              		.thumb
 339              		.thumb_func
 341              	chk_lock:
 342              	.LVL36:
 343              	.LFB152:
 733:../../../lib/Middlewares/Third_Party/FatFs/src/ff.c **** 
 734:../../../lib/Middlewares/Third_Party/FatFs/src/ff.c **** 
 735:../../../lib/Middlewares/Third_Party/FatFs/src/ff.c **** 
 736:../../../lib/Middlewares/Third_Party/FatFs/src/ff.c **** 
 737:../../../lib/Middlewares/Third_Party/FatFs/src/ff.c **** #if _FS_REENTRANT
 738:../../../lib/Middlewares/Third_Party/FatFs/src/ff.c **** /*-----------------------------------------------------------------------*/
 739:../../../lib/Middlewares/Third_Party/FatFs/src/ff.c **** /* Request/Release grant to access the volume                            */
 740:../../../lib/Middlewares/Third_Party/FatFs/src/ff.c **** /*-----------------------------------------------------------------------*/
 741:../../../lib/Middlewares/Third_Party/FatFs/src/ff.c **** static
 742:../../../lib/Middlewares/Third_Party/FatFs/src/ff.c **** int lock_fs (
 743:../../../lib/Middlewares/Third_Party/FatFs/src/ff.c **** 	FATFS* fs		/* File system object */
 744:../../../lib/Middlewares/Third_Party/FatFs/src/ff.c **** )
 745:../../../lib/Middlewares/Third_Party/FatFs/src/ff.c **** {
 746:../../../lib/Middlewares/Third_Party/FatFs/src/ff.c **** 	return (fs && ff_req_grant(fs->sobj)) ? 1 : 0;
 747:../../../lib/Middlewares/Third_Party/FatFs/src/ff.c **** }
 748:../../../lib/Middlewares/Third_Party/FatFs/src/ff.c **** 
 749:../../../lib/Middlewares/Third_Party/FatFs/src/ff.c **** 
 750:../../../lib/Middlewares/Third_Party/FatFs/src/ff.c **** static
 751:../../../lib/Middlewares/Third_Party/FatFs/src/ff.c **** void unlock_fs (
 752:../../../lib/Middlewares/Third_Party/FatFs/src/ff.c **** 	FATFS* fs,		/* File system object */
 753:../../../lib/Middlewares/Third_Party/FatFs/src/ff.c **** 	FRESULT res		/* Result code to be returned */
 754:../../../lib/Middlewares/Third_Party/FatFs/src/ff.c **** )
 755:../../../lib/Middlewares/Third_Party/FatFs/src/ff.c **** {
 756:../../../lib/Middlewares/Third_Party/FatFs/src/ff.c **** 	if (fs && res != FR_NOT_ENABLED && res != FR_INVALID_DRIVE && res != FR_TIMEOUT) {
 757:../../../lib/Middlewares/Third_Party/FatFs/src/ff.c **** 		ff_rel_grant(fs->sobj);
ARM GAS  /tmp/cco2ePoA.s 			page 20


 758:../../../lib/Middlewares/Third_Party/FatFs/src/ff.c **** 	}
 759:../../../lib/Middlewares/Third_Party/FatFs/src/ff.c **** }
 760:../../../lib/Middlewares/Third_Party/FatFs/src/ff.c **** 
 761:../../../lib/Middlewares/Third_Party/FatFs/src/ff.c **** #endif
 762:../../../lib/Middlewares/Third_Party/FatFs/src/ff.c **** 
 763:../../../lib/Middlewares/Third_Party/FatFs/src/ff.c **** 
 764:../../../lib/Middlewares/Third_Party/FatFs/src/ff.c **** 
 765:../../../lib/Middlewares/Third_Party/FatFs/src/ff.c **** #if _FS_LOCK != 0
 766:../../../lib/Middlewares/Third_Party/FatFs/src/ff.c **** /*-----------------------------------------------------------------------*/
 767:../../../lib/Middlewares/Third_Party/FatFs/src/ff.c **** /* File lock control functions                                           */
 768:../../../lib/Middlewares/Third_Party/FatFs/src/ff.c **** /*-----------------------------------------------------------------------*/
 769:../../../lib/Middlewares/Third_Party/FatFs/src/ff.c **** 
 770:../../../lib/Middlewares/Third_Party/FatFs/src/ff.c **** static
 771:../../../lib/Middlewares/Third_Party/FatFs/src/ff.c **** FRESULT chk_lock (	/* Check if the file can be accessed */
 772:../../../lib/Middlewares/Third_Party/FatFs/src/ff.c **** 	DIR* dp,		/* Directory object pointing the file to be checked */
 773:../../../lib/Middlewares/Third_Party/FatFs/src/ff.c **** 	int acc			/* Desired access type (0:Read, 1:Write, 2:Delete/Rename) */
 774:../../../lib/Middlewares/Third_Party/FatFs/src/ff.c **** )
 775:../../../lib/Middlewares/Third_Party/FatFs/src/ff.c **** {
 344              		.loc 1 775 1 is_stmt 1 view -0
 345              		.cfi_startproc
 346              		@ args = 0, pretend = 0, frame = 0
 347              		@ frame_needed = 0, uses_anonymous_args = 0
 348              		@ link register save eliminated.
 349              		.loc 1 775 1 is_stmt 0 view .LVU96
 350 0000 10B4     		push	{r4}
 351              	.LCFI0:
 352              		.cfi_def_cfa_offset 4
 353              		.cfi_offset 4, -4
 776:../../../lib/Middlewares/Third_Party/FatFs/src/ff.c **** 	UINT i, be;
 354              		.loc 1 776 2 is_stmt 1 view .LVU97
 777:../../../lib/Middlewares/Third_Party/FatFs/src/ff.c **** 
 778:../../../lib/Middlewares/Third_Party/FatFs/src/ff.c **** 	/* Search file semaphore table */
 779:../../../lib/Middlewares/Third_Party/FatFs/src/ff.c **** 	for (i = be = 0; i < _FS_LOCK; i++) {
 355              		.loc 1 779 2 view .LVU98
 356              	.LVL37:
 357              		.loc 1 779 14 is_stmt 0 view .LVU99
 358 0002 4FF0000C 		mov	ip, #0
 359              		.loc 1 779 9 view .LVU100
 360 0006 6346     		mov	r3, ip
 361              		.loc 1 779 2 view .LVU101
 362 0008 02E0     		b	.L18
 363              	.LVL38:
 364              	.L25:
 780:../../../lib/Middlewares/Third_Party/FatFs/src/ff.c **** 		if (Files[i].fs) {	/* Existing entry */
 781:../../../lib/Middlewares/Third_Party/FatFs/src/ff.c **** 			if (Files[i].fs == dp->obj.fs &&	 	/* Check if the object matched with an open object */
 782:../../../lib/Middlewares/Third_Party/FatFs/src/ff.c **** 				Files[i].clu == dp->obj.sclust &&
 783:../../../lib/Middlewares/Third_Party/FatFs/src/ff.c **** 				Files[i].ofs == dp->dptr) break;
 784:../../../lib/Middlewares/Third_Party/FatFs/src/ff.c **** 		} else {			/* Blank entry */
 785:../../../lib/Middlewares/Third_Party/FatFs/src/ff.c **** 			be = 1;
 365              		.loc 1 785 7 view .LVU102
 366 000a 4FF0010C 		mov	ip, #1
 367              	.LVL39:
 368              	.L19:
 779:../../../lib/Middlewares/Third_Party/FatFs/src/ff.c **** 		if (Files[i].fs) {	/* Existing entry */
 369              		.loc 1 779 34 is_stmt 1 discriminator 2 view .LVU103
 370 000e 0133     		adds	r3, r3, #1
 371              	.LVL40:
ARM GAS  /tmp/cco2ePoA.s 			page 21


 372              	.L18:
 779:../../../lib/Middlewares/Third_Party/FatFs/src/ff.c **** 		if (Files[i].fs) {	/* Existing entry */
 373              		.loc 1 779 21 discriminator 1 view .LVU104
 374 0010 012B     		cmp	r3, #1
 375 0012 15D8     		bhi	.L20
 780:../../../lib/Middlewares/Third_Party/FatFs/src/ff.c **** 		if (Files[i].fs) {	/* Existing entry */
 376              		.loc 1 780 3 view .LVU105
 780:../../../lib/Middlewares/Third_Party/FatFs/src/ff.c **** 		if (Files[i].fs) {	/* Existing entry */
 377              		.loc 1 780 15 is_stmt 0 view .LVU106
 378 0014 1A01     		lsls	r2, r3, #4
 379 0016 184C     		ldr	r4, .L32
 380 0018 A258     		ldr	r2, [r4, r2]
 780:../../../lib/Middlewares/Third_Party/FatFs/src/ff.c **** 		if (Files[i].fs) {	/* Existing entry */
 381              		.loc 1 780 6 view .LVU107
 382 001a 002A     		cmp	r2, #0
 383 001c F5D0     		beq	.L25
 781:../../../lib/Middlewares/Third_Party/FatFs/src/ff.c **** 				Files[i].clu == dp->obj.sclust &&
 384              		.loc 1 781 4 is_stmt 1 view .LVU108
 781:../../../lib/Middlewares/Third_Party/FatFs/src/ff.c **** 				Files[i].clu == dp->obj.sclust &&
 385              		.loc 1 781 30 is_stmt 0 view .LVU109
 386 001e 0468     		ldr	r4, [r0]
 781:../../../lib/Middlewares/Third_Party/FatFs/src/ff.c **** 				Files[i].clu == dp->obj.sclust &&
 387              		.loc 1 781 7 view .LVU110
 388 0020 A242     		cmp	r2, r4
 389 0022 F4D1     		bne	.L19
 782:../../../lib/Middlewares/Third_Party/FatFs/src/ff.c **** 				Files[i].ofs == dp->dptr) break;
 390              		.loc 1 782 13 discriminator 1 view .LVU111
 391 0024 144A     		ldr	r2, .L32
 392 0026 02EB0312 		add	r2, r2, r3, lsl #4
 393 002a 5468     		ldr	r4, [r2, #4]
 782:../../../lib/Middlewares/Third_Party/FatFs/src/ff.c **** 				Files[i].ofs == dp->dptr) break;
 394              		.loc 1 782 28 discriminator 1 view .LVU112
 395 002c 8268     		ldr	r2, [r0, #8]
 781:../../../lib/Middlewares/Third_Party/FatFs/src/ff.c **** 				Files[i].clu == dp->obj.sclust &&
 396              		.loc 1 781 34 discriminator 1 view .LVU113
 397 002e 9442     		cmp	r4, r2
 398 0030 EDD1     		bne	.L19
 783:../../../lib/Middlewares/Third_Party/FatFs/src/ff.c **** 		} else {			/* Blank entry */
 399              		.loc 1 783 13 view .LVU114
 400 0032 114A     		ldr	r2, .L32
 401 0034 02EB0312 		add	r2, r2, r3, lsl #4
 402 0038 9468     		ldr	r4, [r2, #8]
 783:../../../lib/Middlewares/Third_Party/FatFs/src/ff.c **** 		} else {			/* Blank entry */
 403              		.loc 1 783 23 view .LVU115
 404 003a 4269     		ldr	r2, [r0, #20]
 782:../../../lib/Middlewares/Third_Party/FatFs/src/ff.c **** 				Files[i].ofs == dp->dptr) break;
 405              		.loc 1 782 36 view .LVU116
 406 003c 9442     		cmp	r4, r2
 407 003e E6D1     		bne	.L19
 408              	.L20:
 786:../../../lib/Middlewares/Third_Party/FatFs/src/ff.c **** 		}
 787:../../../lib/Middlewares/Third_Party/FatFs/src/ff.c **** 	}
 788:../../../lib/Middlewares/Third_Party/FatFs/src/ff.c **** 	if (i == _FS_LOCK) {	/* The object is not opened */
 409              		.loc 1 788 2 is_stmt 1 view .LVU117
 410              		.loc 1 788 5 is_stmt 0 view .LVU118
 411 0040 022B     		cmp	r3, #2
 412 0042 0BD0     		beq	.L30
ARM GAS  /tmp/cco2ePoA.s 			page 22


 789:../../../lib/Middlewares/Third_Party/FatFs/src/ff.c **** 		return (be || acc == 2) ? FR_OK : FR_TOO_MANY_OPEN_FILES;	/* Is there a blank entry for new objec
 790:../../../lib/Middlewares/Third_Party/FatFs/src/ff.c **** 	}
 791:../../../lib/Middlewares/Third_Party/FatFs/src/ff.c **** 
 792:../../../lib/Middlewares/Third_Party/FatFs/src/ff.c **** 	/* The object has been opened. Reject any open against writing file and all write mode open */
 793:../../../lib/Middlewares/Third_Party/FatFs/src/ff.c **** 	return (acc || Files[i].ctr == 0x100) ? FR_LOCKED : FR_OK;
 413              		.loc 1 793 2 is_stmt 1 view .LVU119
 414              		.loc 1 793 52 is_stmt 0 view .LVU120
 415 0044 B1B9     		cbnz	r1, .L27
 416              		.loc 1 793 25 discriminator 2 view .LVU121
 417 0046 0C4A     		ldr	r2, .L32
 418 0048 02EB0313 		add	r3, r2, r3, lsl #4
 419              	.LVL41:
 420              		.loc 1 793 25 discriminator 2 view .LVU122
 421 004c 9B89     		ldrh	r3, [r3, #12]
 422              		.loc 1 793 14 discriminator 2 view .LVU123
 423 004e B3F5807F 		cmp	r3, #256
 424 0052 0DD0     		beq	.L31
 425              		.loc 1 793 52 view .LVU124
 426 0054 0020     		movs	r0, #0
 427              	.LVL42:
 428              	.L24:
 794:../../../lib/Middlewares/Third_Party/FatFs/src/ff.c **** }
 429              		.loc 1 794 1 view .LVU125
 430 0056 5DF8044B 		ldr	r4, [sp], #4
 431              	.LCFI1:
 432              		.cfi_remember_state
 433              		.cfi_restore 4
 434              		.cfi_def_cfa_offset 0
 435 005a 7047     		bx	lr
 436              	.LVL43:
 437              	.L30:
 438              	.LCFI2:
 439              		.cfi_restore_state
 789:../../../lib/Middlewares/Third_Party/FatFs/src/ff.c **** 		return (be || acc == 2) ? FR_OK : FR_TOO_MANY_OPEN_FILES;	/* Is there a blank entry for new objec
 440              		.loc 1 789 3 is_stmt 1 view .LVU126
 789:../../../lib/Middlewares/Third_Party/FatFs/src/ff.c **** 		return (be || acc == 2) ? FR_OK : FR_TOO_MANY_OPEN_FILES;	/* Is there a blank entry for new objec
 441              		.loc 1 789 14 is_stmt 0 view .LVU127
 442 005c 0229     		cmp	r1, #2
 443 005e 14BF     		ite	ne
 444 0060 6346     		movne	r3, ip
 445 0062 4CF00103 		orreq	r3, ip, #1
 446              	.LVL44:
 789:../../../lib/Middlewares/Third_Party/FatFs/src/ff.c **** 		return (be || acc == 2) ? FR_OK : FR_TOO_MANY_OPEN_FILES;	/* Is there a blank entry for new objec
 447              		.loc 1 789 35 view .LVU128
 448 0066 0BB1     		cbz	r3, .L26
 449 0068 0020     		movs	r0, #0
 450              	.LVL45:
 789:../../../lib/Middlewares/Third_Party/FatFs/src/ff.c **** 		return (be || acc == 2) ? FR_OK : FR_TOO_MANY_OPEN_FILES;	/* Is there a blank entry for new objec
 451              		.loc 1 789 35 view .LVU129
 452 006a F4E7     		b	.L24
 453              	.LVL46:
 454              	.L26:
 789:../../../lib/Middlewares/Third_Party/FatFs/src/ff.c **** 		return (be || acc == 2) ? FR_OK : FR_TOO_MANY_OPEN_FILES;	/* Is there a blank entry for new objec
 455              		.loc 1 789 35 view .LVU130
 456 006c 1220     		movs	r0, #18
 457              	.LVL47:
 789:../../../lib/Middlewares/Third_Party/FatFs/src/ff.c **** 		return (be || acc == 2) ? FR_OK : FR_TOO_MANY_OPEN_FILES;	/* Is there a blank entry for new objec
ARM GAS  /tmp/cco2ePoA.s 			page 23


 458              		.loc 1 789 35 view .LVU131
 459 006e F2E7     		b	.L24
 460              	.LVL48:
 461              	.L31:
 793:../../../lib/Middlewares/Third_Party/FatFs/src/ff.c **** }
 462              		.loc 1 793 52 view .LVU132
 463 0070 1020     		movs	r0, #16
 464              	.LVL49:
 793:../../../lib/Middlewares/Third_Party/FatFs/src/ff.c **** }
 465              		.loc 1 793 52 view .LVU133
 466 0072 F0E7     		b	.L24
 467              	.LVL50:
 468              	.L27:
 793:../../../lib/Middlewares/Third_Party/FatFs/src/ff.c **** }
 469              		.loc 1 793 52 view .LVU134
 470 0074 1020     		movs	r0, #16
 471              	.LVL51:
 793:../../../lib/Middlewares/Third_Party/FatFs/src/ff.c **** }
 472              		.loc 1 793 52 view .LVU135
 473 0076 EEE7     		b	.L24
 474              	.L33:
 475              		.align	2
 476              	.L32:
 477 0078 00000000 		.word	Files
 478              		.cfi_endproc
 479              	.LFE152:
 481              		.section	.text.enq_lock,"ax",%progbits
 482              		.align	1
 483              		.syntax unified
 484              		.thumb
 485              		.thumb_func
 487              	enq_lock:
 488              	.LFB153:
 795:../../../lib/Middlewares/Third_Party/FatFs/src/ff.c **** 
 796:../../../lib/Middlewares/Third_Party/FatFs/src/ff.c **** 
 797:../../../lib/Middlewares/Third_Party/FatFs/src/ff.c **** static
 798:../../../lib/Middlewares/Third_Party/FatFs/src/ff.c **** int enq_lock (void)	/* Check if an entry is available for a new object */
 799:../../../lib/Middlewares/Third_Party/FatFs/src/ff.c **** {
 489              		.loc 1 799 1 is_stmt 1 view -0
 490              		.cfi_startproc
 491              		@ args = 0, pretend = 0, frame = 0
 492              		@ frame_needed = 0, uses_anonymous_args = 0
 493              		@ link register save eliminated.
 800:../../../lib/Middlewares/Third_Party/FatFs/src/ff.c **** 	UINT i;
 494              		.loc 1 800 2 view .LVU137
 801:../../../lib/Middlewares/Third_Party/FatFs/src/ff.c **** 
 802:../../../lib/Middlewares/Third_Party/FatFs/src/ff.c **** 	for (i = 0; i < _FS_LOCK && Files[i].fs; i++) ;
 495              		.loc 1 802 2 view .LVU138
 496              	.LVL52:
 497              		.loc 1 802 9 is_stmt 0 view .LVU139
 498 0000 0020     		movs	r0, #0
 499              		.loc 1 802 2 view .LVU140
 500 0002 00E0     		b	.L35
 501              	.LVL53:
 502              	.L37:
 503              		.loc 1 802 44 is_stmt 1 discriminator 4 view .LVU141
 504 0004 0130     		adds	r0, r0, #1
ARM GAS  /tmp/cco2ePoA.s 			page 24


 505              	.LVL54:
 506              	.L35:
 507              		.loc 1 802 27 discriminator 1 view .LVU142
 508 0006 0128     		cmp	r0, #1
 509 0008 04D8     		bhi	.L36
 510              		.loc 1 802 38 is_stmt 0 discriminator 3 view .LVU143
 511 000a 0301     		lsls	r3, r0, #4
 512 000c 034A     		ldr	r2, .L38
 513 000e D358     		ldr	r3, [r2, r3]
 514              		.loc 1 802 27 discriminator 3 view .LVU144
 515 0010 002B     		cmp	r3, #0
 516 0012 F7D1     		bne	.L37
 517              	.L36:
 803:../../../lib/Middlewares/Third_Party/FatFs/src/ff.c **** 	return (i == _FS_LOCK) ? 0 : 1;
 518              		.loc 1 803 2 is_stmt 1 view .LVU145
 804:../../../lib/Middlewares/Third_Party/FatFs/src/ff.c **** }
 519              		.loc 1 804 1 is_stmt 0 view .LVU146
 520 0014 0238     		subs	r0, r0, #2
 521              	.LVL55:
 522              		.loc 1 804 1 view .LVU147
 523 0016 18BF     		it	ne
 524 0018 0120     		movne	r0, #1
 525              	.LVL56:
 526              		.loc 1 804 1 view .LVU148
 527 001a 7047     		bx	lr
 528              	.L39:
 529              		.align	2
 530              	.L38:
 531 001c 00000000 		.word	Files
 532              		.cfi_endproc
 533              	.LFE153:
 535              		.section	.text.inc_lock,"ax",%progbits
 536              		.align	1
 537              		.syntax unified
 538              		.thumb
 539              		.thumb_func
 541              	inc_lock:
 542              	.LVL57:
 543              	.LFB154:
 805:../../../lib/Middlewares/Third_Party/FatFs/src/ff.c **** 
 806:../../../lib/Middlewares/Third_Party/FatFs/src/ff.c **** 
 807:../../../lib/Middlewares/Third_Party/FatFs/src/ff.c **** static
 808:../../../lib/Middlewares/Third_Party/FatFs/src/ff.c **** UINT inc_lock (	/* Increment object open counter and returns its index (0:Internal error) */
 809:../../../lib/Middlewares/Third_Party/FatFs/src/ff.c **** 	DIR* dp,	/* Directory object pointing the file to register or increment */
 810:../../../lib/Middlewares/Third_Party/FatFs/src/ff.c **** 	int acc		/* Desired access (0:Read, 1:Write, 2:Delete/Rename) */
 811:../../../lib/Middlewares/Third_Party/FatFs/src/ff.c **** )
 812:../../../lib/Middlewares/Third_Party/FatFs/src/ff.c **** {
 544              		.loc 1 812 1 is_stmt 1 view -0
 545              		.cfi_startproc
 546              		@ args = 0, pretend = 0, frame = 0
 547              		@ frame_needed = 0, uses_anonymous_args = 0
 548              		@ link register save eliminated.
 549              		.loc 1 812 1 is_stmt 0 view .LVU150
 550 0000 70B4     		push	{r4, r5, r6}
 551              	.LCFI3:
 552              		.cfi_def_cfa_offset 12
 553              		.cfi_offset 4, -12
ARM GAS  /tmp/cco2ePoA.s 			page 25


 554              		.cfi_offset 5, -8
 555              		.cfi_offset 6, -4
 813:../../../lib/Middlewares/Third_Party/FatFs/src/ff.c **** 	UINT i;
 556              		.loc 1 813 2 is_stmt 1 view .LVU151
 814:../../../lib/Middlewares/Third_Party/FatFs/src/ff.c **** 
 815:../../../lib/Middlewares/Third_Party/FatFs/src/ff.c **** 
 816:../../../lib/Middlewares/Third_Party/FatFs/src/ff.c **** 	for (i = 0; i < _FS_LOCK; i++) {	/* Find the object */
 557              		.loc 1 816 2 view .LVU152
 558              	.LVL58:
 559              		.loc 1 816 9 is_stmt 0 view .LVU153
 560 0002 0023     		movs	r3, #0
 561              		.loc 1 816 2 view .LVU154
 562 0004 00E0     		b	.L41
 563              	.LVL59:
 564              	.L42:
 565              		.loc 1 816 29 is_stmt 1 discriminator 2 view .LVU155
 566 0006 0133     		adds	r3, r3, #1
 567              	.LVL60:
 568              	.L41:
 569              		.loc 1 816 16 discriminator 1 view .LVU156
 570 0008 012B     		cmp	r3, #1
 571 000a 13D8     		bhi	.L43
 817:../../../lib/Middlewares/Third_Party/FatFs/src/ff.c **** 		if (Files[i].fs == dp->obj.fs &&
 572              		.loc 1 817 3 view .LVU157
 573              		.loc 1 817 15 is_stmt 0 view .LVU158
 574 000c 1A01     		lsls	r2, r3, #4
 575 000e 234C     		ldr	r4, .L57
 576 0010 A458     		ldr	r4, [r4, r2]
 577              		.loc 1 817 29 view .LVU159
 578 0012 0268     		ldr	r2, [r0]
 579              		.loc 1 817 6 view .LVU160
 580 0014 9442     		cmp	r4, r2
 581 0016 F6D1     		bne	.L42
 818:../../../lib/Middlewares/Third_Party/FatFs/src/ff.c **** 			Files[i].clu == dp->obj.sclust &&
 582              		.loc 1 818 12 discriminator 1 view .LVU161
 583 0018 204A     		ldr	r2, .L57
 584 001a 02EB0312 		add	r2, r2, r3, lsl #4
 585 001e 5468     		ldr	r4, [r2, #4]
 586              		.loc 1 818 27 discriminator 1 view .LVU162
 587 0020 8268     		ldr	r2, [r0, #8]
 817:../../../lib/Middlewares/Third_Party/FatFs/src/ff.c **** 		if (Files[i].fs == dp->obj.fs &&
 588              		.loc 1 817 33 discriminator 1 view .LVU163
 589 0022 9442     		cmp	r4, r2
 590 0024 EFD1     		bne	.L42
 819:../../../lib/Middlewares/Third_Party/FatFs/src/ff.c **** 			Files[i].ofs == dp->dptr) break;
 591              		.loc 1 819 12 view .LVU164
 592 0026 1D4A     		ldr	r2, .L57
 593 0028 02EB0312 		add	r2, r2, r3, lsl #4
 594 002c 9468     		ldr	r4, [r2, #8]
 595              		.loc 1 819 22 view .LVU165
 596 002e 4269     		ldr	r2, [r0, #20]
 818:../../../lib/Middlewares/Third_Party/FatFs/src/ff.c **** 			Files[i].clu == dp->obj.sclust &&
 597              		.loc 1 818 35 view .LVU166
 598 0030 9442     		cmp	r4, r2
 599 0032 E8D1     		bne	.L42
 600              	.L43:
 820:../../../lib/Middlewares/Third_Party/FatFs/src/ff.c **** 	}
ARM GAS  /tmp/cco2ePoA.s 			page 26


 821:../../../lib/Middlewares/Third_Party/FatFs/src/ff.c **** 
 822:../../../lib/Middlewares/Third_Party/FatFs/src/ff.c **** 	if (i == _FS_LOCK) {				/* Not opened. Register it as new. */
 601              		.loc 1 822 2 is_stmt 1 view .LVU167
 602              		.loc 1 822 5 is_stmt 0 view .LVU168
 603 0034 022B     		cmp	r3, #2
 604 0036 08D0     		beq	.L56
 605              	.LVL61:
 606              	.L46:
 823:../../../lib/Middlewares/Third_Party/FatFs/src/ff.c **** 		for (i = 0; i < _FS_LOCK && Files[i].fs; i++) ;
 824:../../../lib/Middlewares/Third_Party/FatFs/src/ff.c **** 		if (i == _FS_LOCK) return 0;	/* No free entry to register (int err) */
 825:../../../lib/Middlewares/Third_Party/FatFs/src/ff.c **** 		Files[i].fs = dp->obj.fs;
 826:../../../lib/Middlewares/Third_Party/FatFs/src/ff.c **** 		Files[i].clu = dp->obj.sclust;
 827:../../../lib/Middlewares/Third_Party/FatFs/src/ff.c **** 		Files[i].ofs = dp->dptr;
 828:../../../lib/Middlewares/Third_Party/FatFs/src/ff.c **** 		Files[i].ctr = 0;
 829:../../../lib/Middlewares/Third_Party/FatFs/src/ff.c **** 	}
 830:../../../lib/Middlewares/Third_Party/FatFs/src/ff.c **** 
 831:../../../lib/Middlewares/Third_Party/FatFs/src/ff.c **** 	if (acc && Files[i].ctr) return 0;	/* Access violation (int err) */
 607              		.loc 1 831 2 is_stmt 1 view .LVU169
 608              		.loc 1 831 5 is_stmt 0 view .LVU170
 609 0038 F9B1     		cbz	r1, .L50
 610              		.loc 1 831 21 discriminator 1 view .LVU171
 611 003a 184A     		ldr	r2, .L57
 612 003c 02EB0312 		add	r2, r2, r3, lsl #4
 613 0040 9289     		ldrh	r2, [r2, #12]
 614              		.loc 1 831 10 discriminator 1 view .LVU172
 615 0042 4ABB     		cbnz	r2, .L54
 832:../../../lib/Middlewares/Third_Party/FatFs/src/ff.c **** 
 833:../../../lib/Middlewares/Third_Party/FatFs/src/ff.c **** 	Files[i].ctr = acc ? 0x100 : Files[i].ctr + 1;	/* Set semaphore value */
 616              		.loc 1 833 15 view .LVU173
 617 0044 4FF48072 		mov	r2, #256
 618 0048 1DE0     		b	.L51
 619              	.LVL62:
 620              	.L56:
 823:../../../lib/Middlewares/Third_Party/FatFs/src/ff.c **** 		for (i = 0; i < _FS_LOCK && Files[i].fs; i++) ;
 621              		.loc 1 823 10 view .LVU174
 622 004a 0023     		movs	r3, #0
 623              	.LVL63:
 624              	.L45:
 823:../../../lib/Middlewares/Third_Party/FatFs/src/ff.c **** 		for (i = 0; i < _FS_LOCK && Files[i].fs; i++) ;
 625              		.loc 1 823 28 is_stmt 1 discriminator 1 view .LVU175
 626 004c 012B     		cmp	r3, #1
 627 004e 05D8     		bhi	.L47
 823:../../../lib/Middlewares/Third_Party/FatFs/src/ff.c **** 		for (i = 0; i < _FS_LOCK && Files[i].fs; i++) ;
 628              		.loc 1 823 39 is_stmt 0 discriminator 3 view .LVU176
 629 0050 1A01     		lsls	r2, r3, #4
 630 0052 124C     		ldr	r4, .L57
 631 0054 A258     		ldr	r2, [r4, r2]
 823:../../../lib/Middlewares/Third_Party/FatFs/src/ff.c **** 		for (i = 0; i < _FS_LOCK && Files[i].fs; i++) ;
 632              		.loc 1 823 28 discriminator 3 view .LVU177
 633 0056 0AB1     		cbz	r2, .L47
 823:../../../lib/Middlewares/Third_Party/FatFs/src/ff.c **** 		for (i = 0; i < _FS_LOCK && Files[i].fs; i++) ;
 634              		.loc 1 823 45 is_stmt 1 discriminator 4 view .LVU178
 635 0058 0133     		adds	r3, r3, #1
 636              	.LVL64:
 823:../../../lib/Middlewares/Third_Party/FatFs/src/ff.c **** 		for (i = 0; i < _FS_LOCK && Files[i].fs; i++) ;
 637              		.loc 1 823 45 is_stmt 0 discriminator 4 view .LVU179
 638 005a F7E7     		b	.L45
ARM GAS  /tmp/cco2ePoA.s 			page 27


 639              	.L47:
 824:../../../lib/Middlewares/Third_Party/FatFs/src/ff.c **** 		Files[i].fs = dp->obj.fs;
 640              		.loc 1 824 3 is_stmt 1 view .LVU180
 824:../../../lib/Middlewares/Third_Party/FatFs/src/ff.c **** 		Files[i].fs = dp->obj.fs;
 641              		.loc 1 824 6 is_stmt 0 view .LVU181
 642 005c 022B     		cmp	r3, #2
 643 005e 19D0     		beq	.L53
 825:../../../lib/Middlewares/Third_Party/FatFs/src/ff.c **** 		Files[i].clu = dp->obj.sclust;
 644              		.loc 1 825 3 is_stmt 1 view .LVU182
 825:../../../lib/Middlewares/Third_Party/FatFs/src/ff.c **** 		Files[i].clu = dp->obj.sclust;
 645              		.loc 1 825 15 is_stmt 0 view .LVU183
 646 0060 0E4D     		ldr	r5, .L57
 647 0062 1C01     		lsls	r4, r3, #4
 648 0064 05EB0312 		add	r2, r5, r3, lsl #4
 649 0068 0668     		ldr	r6, [r0]
 650 006a 2E51     		str	r6, [r5, r4]
 826:../../../lib/Middlewares/Third_Party/FatFs/src/ff.c **** 		Files[i].ofs = dp->dptr;
 651              		.loc 1 826 3 is_stmt 1 view .LVU184
 826:../../../lib/Middlewares/Third_Party/FatFs/src/ff.c **** 		Files[i].ofs = dp->dptr;
 652              		.loc 1 826 25 is_stmt 0 view .LVU185
 653 006c 8468     		ldr	r4, [r0, #8]
 826:../../../lib/Middlewares/Third_Party/FatFs/src/ff.c **** 		Files[i].ofs = dp->dptr;
 654              		.loc 1 826 16 view .LVU186
 655 006e 5460     		str	r4, [r2, #4]
 827:../../../lib/Middlewares/Third_Party/FatFs/src/ff.c **** 		Files[i].ctr = 0;
 656              		.loc 1 827 3 is_stmt 1 view .LVU187
 827:../../../lib/Middlewares/Third_Party/FatFs/src/ff.c **** 		Files[i].ctr = 0;
 657              		.loc 1 827 20 is_stmt 0 view .LVU188
 658 0070 4069     		ldr	r0, [r0, #20]
 659              	.LVL65:
 827:../../../lib/Middlewares/Third_Party/FatFs/src/ff.c **** 		Files[i].ctr = 0;
 660              		.loc 1 827 16 view .LVU189
 661 0072 9060     		str	r0, [r2, #8]
 828:../../../lib/Middlewares/Third_Party/FatFs/src/ff.c **** 	}
 662              		.loc 1 828 3 is_stmt 1 view .LVU190
 828:../../../lib/Middlewares/Third_Party/FatFs/src/ff.c **** 	}
 663              		.loc 1 828 16 is_stmt 0 view .LVU191
 664 0074 0020     		movs	r0, #0
 665 0076 9081     		strh	r0, [r2, #12]	@ movhi
 666 0078 DEE7     		b	.L46
 667              	.L50:
 668              		.loc 1 833 39 discriminator 1 view .LVU192
 669 007a 084A     		ldr	r2, .L57
 670 007c 02EB0312 		add	r2, r2, r3, lsl #4
 671 0080 9289     		ldrh	r2, [r2, #12]
 672              		.loc 1 833 15 discriminator 1 view .LVU193
 673 0082 0132     		adds	r2, r2, #1
 674 0084 92B2     		uxth	r2, r2
 675              	.L51:
 676              		.loc 1 833 15 discriminator 4 view .LVU194
 677 0086 0549     		ldr	r1, .L57
 678              	.LVL66:
 679              		.loc 1 833 15 discriminator 4 view .LVU195
 680 0088 01EB0311 		add	r1, r1, r3, lsl #4
 681 008c 8A81     		strh	r2, [r1, #12]	@ movhi
 834:../../../lib/Middlewares/Third_Party/FatFs/src/ff.c **** 
 835:../../../lib/Middlewares/Third_Party/FatFs/src/ff.c **** 	return i + 1;
ARM GAS  /tmp/cco2ePoA.s 			page 28


 682              		.loc 1 835 2 is_stmt 1 discriminator 4 view .LVU196
 683              		.loc 1 835 11 is_stmt 0 discriminator 4 view .LVU197
 684 008e 581C     		adds	r0, r3, #1
 685              	.L40:
 836:../../../lib/Middlewares/Third_Party/FatFs/src/ff.c **** }
 686              		.loc 1 836 1 view .LVU198
 687 0090 70BC     		pop	{r4, r5, r6}
 688              	.LCFI4:
 689              		.cfi_remember_state
 690              		.cfi_restore 6
 691              		.cfi_restore 5
 692              		.cfi_restore 4
 693              		.cfi_def_cfa_offset 0
 694 0092 7047     		bx	lr
 695              	.LVL67:
 696              	.L53:
 697              	.LCFI5:
 698              		.cfi_restore_state
 824:../../../lib/Middlewares/Third_Party/FatFs/src/ff.c **** 		Files[i].fs = dp->obj.fs;
 699              		.loc 1 824 29 view .LVU199
 700 0094 0020     		movs	r0, #0
 701              	.LVL68:
 824:../../../lib/Middlewares/Third_Party/FatFs/src/ff.c **** 		Files[i].fs = dp->obj.fs;
 702              		.loc 1 824 29 view .LVU200
 703 0096 FBE7     		b	.L40
 704              	.L54:
 831:../../../lib/Middlewares/Third_Party/FatFs/src/ff.c **** 
 705              		.loc 1 831 34 view .LVU201
 706 0098 0020     		movs	r0, #0
 707 009a F9E7     		b	.L40
 708              	.L58:
 709              		.align	2
 710              	.L57:
 711 009c 00000000 		.word	Files
 712              		.cfi_endproc
 713              	.LFE154:
 715              		.section	.text.dec_lock,"ax",%progbits
 716              		.align	1
 717              		.syntax unified
 718              		.thumb
 719              		.thumb_func
 721              	dec_lock:
 722              	.LVL69:
 723              	.LFB155:
 837:../../../lib/Middlewares/Third_Party/FatFs/src/ff.c **** 
 838:../../../lib/Middlewares/Third_Party/FatFs/src/ff.c **** 
 839:../../../lib/Middlewares/Third_Party/FatFs/src/ff.c **** static
 840:../../../lib/Middlewares/Third_Party/FatFs/src/ff.c **** FRESULT dec_lock (	/* Decrement object open counter */
 841:../../../lib/Middlewares/Third_Party/FatFs/src/ff.c **** 	UINT i			/* Semaphore index (1..) */
 842:../../../lib/Middlewares/Third_Party/FatFs/src/ff.c **** )
 843:../../../lib/Middlewares/Third_Party/FatFs/src/ff.c **** {
 724              		.loc 1 843 1 is_stmt 1 view -0
 725              		.cfi_startproc
 726              		@ args = 0, pretend = 0, frame = 0
 727              		@ frame_needed = 0, uses_anonymous_args = 0
 728              		@ link register save eliminated.
 844:../../../lib/Middlewares/Third_Party/FatFs/src/ff.c **** 	WORD n;
ARM GAS  /tmp/cco2ePoA.s 			page 29


 729              		.loc 1 844 2 view .LVU203
 845:../../../lib/Middlewares/Third_Party/FatFs/src/ff.c **** 	FRESULT res;
 730              		.loc 1 845 2 view .LVU204
 846:../../../lib/Middlewares/Third_Party/FatFs/src/ff.c **** 
 847:../../../lib/Middlewares/Third_Party/FatFs/src/ff.c **** 
 848:../../../lib/Middlewares/Third_Party/FatFs/src/ff.c **** 	if (--i < _FS_LOCK) {	/* Shift index number origin from 0 */
 731              		.loc 1 848 2 view .LVU205
 732              		.loc 1 848 5 is_stmt 0 view .LVU206
 733 0000 0138     		subs	r0, r0, #1
 734              	.LVL70:
 735              		.loc 1 848 5 view .LVU207
 736 0002 0128     		cmp	r0, #1
 737 0004 15D8     		bhi	.L63
 849:../../../lib/Middlewares/Third_Party/FatFs/src/ff.c **** 		n = Files[i].ctr;
 738              		.loc 1 849 3 is_stmt 1 view .LVU208
 739              		.loc 1 849 5 is_stmt 0 view .LVU209
 740 0006 0D4B     		ldr	r3, .L66
 741 0008 03EB0013 		add	r3, r3, r0, lsl #4
 742 000c 9B89     		ldrh	r3, [r3, #12]
 743              	.LVL71:
 850:../../../lib/Middlewares/Third_Party/FatFs/src/ff.c **** 		if (n == 0x100) n = 0;		/* If write mode open, delete the entry */
 744              		.loc 1 850 3 is_stmt 1 view .LVU210
 745              		.loc 1 850 6 is_stmt 0 view .LVU211
 746 000e B3F5807F 		cmp	r3, #256
 747 0012 03D0     		beq	.L64
 851:../../../lib/Middlewares/Third_Party/FatFs/src/ff.c **** 		if (n > 0) n--;				/* Decrement read mode open count */
 748              		.loc 1 851 3 is_stmt 1 view .LVU212
 749              		.loc 1 851 6 is_stmt 0 view .LVU213
 750 0014 43B1     		cbz	r3, .L62
 751              		.loc 1 851 14 is_stmt 1 discriminator 1 view .LVU214
 752              		.loc 1 851 15 is_stmt 0 discriminator 1 view .LVU215
 753 0016 013B     		subs	r3, r3, #1
 754              	.LVL72:
 755              		.loc 1 851 15 discriminator 1 view .LVU216
 756 0018 9BB2     		uxth	r3, r3
 757              	.LVL73:
 758              		.loc 1 851 15 discriminator 1 view .LVU217
 759 001a 00E0     		b	.L61
 760              	.L64:
 850:../../../lib/Middlewares/Third_Party/FatFs/src/ff.c **** 		if (n == 0x100) n = 0;		/* If write mode open, delete the entry */
 761              		.loc 1 850 21 view .LVU218
 762 001c 0023     		movs	r3, #0
 763              	.LVL74:
 764              	.L61:
 852:../../../lib/Middlewares/Third_Party/FatFs/src/ff.c **** 		Files[i].ctr = n;
 765              		.loc 1 852 3 is_stmt 1 view .LVU219
 766              		.loc 1 852 16 is_stmt 0 view .LVU220
 767 001e 074A     		ldr	r2, .L66
 768 0020 02EB0012 		add	r2, r2, r0, lsl #4
 769 0024 9381     		strh	r3, [r2, #12]	@ movhi
 853:../../../lib/Middlewares/Third_Party/FatFs/src/ff.c **** 		if (n == 0) Files[i].fs = 0;	/* Delete the entry if open count gets zero */
 770              		.loc 1 853 3 is_stmt 1 view .LVU221
 771              		.loc 1 853 6 is_stmt 0 view .LVU222
 772 0026 33B9     		cbnz	r3, .L65
 773              	.L62:
 774              	.LVL75:
 775              		.loc 1 853 15 is_stmt 1 discriminator 1 view .LVU223
ARM GAS  /tmp/cco2ePoA.s 			page 30


 776              		.loc 1 853 27 is_stmt 0 discriminator 1 view .LVU224
 777 0028 0301     		lsls	r3, r0, #4
 778 002a 0020     		movs	r0, #0
 779              	.LVL76:
 780              		.loc 1 853 27 discriminator 1 view .LVU225
 781 002c 034A     		ldr	r2, .L66
 782 002e D050     		str	r0, [r2, r3]
 783 0030 7047     		bx	lr
 784              	.LVL77:
 785              	.L63:
 854:../../../lib/Middlewares/Third_Party/FatFs/src/ff.c **** 		res = FR_OK;
 855:../../../lib/Middlewares/Third_Party/FatFs/src/ff.c **** 	} else {
 856:../../../lib/Middlewares/Third_Party/FatFs/src/ff.c **** 		res = FR_INT_ERR;			/* Invalid index nunber */
 786              		.loc 1 856 7 view .LVU226
 787 0032 0220     		movs	r0, #2
 788              	.LVL78:
 789              		.loc 1 856 7 view .LVU227
 790 0034 7047     		bx	lr
 791              	.LVL79:
 792              	.L65:
 854:../../../lib/Middlewares/Third_Party/FatFs/src/ff.c **** 		res = FR_OK;
 793              		.loc 1 854 7 view .LVU228
 794 0036 0020     		movs	r0, #0
 795              	.LVL80:
 857:../../../lib/Middlewares/Third_Party/FatFs/src/ff.c **** 	}
 858:../../../lib/Middlewares/Third_Party/FatFs/src/ff.c **** 	return res;
 796              		.loc 1 858 2 is_stmt 1 view .LVU229
 859:../../../lib/Middlewares/Third_Party/FatFs/src/ff.c **** }
 797              		.loc 1 859 1 is_stmt 0 view .LVU230
 798 0038 7047     		bx	lr
 799              	.L67:
 800 003a 00BF     		.align	2
 801              	.L66:
 802 003c 00000000 		.word	Files
 803              		.cfi_endproc
 804              	.LFE155:
 806              		.section	.text.clear_lock,"ax",%progbits
 807              		.align	1
 808              		.syntax unified
 809              		.thumb
 810              		.thumb_func
 812              	clear_lock:
 813              	.LVL81:
 814              	.LFB156:
 860:../../../lib/Middlewares/Third_Party/FatFs/src/ff.c **** 
 861:../../../lib/Middlewares/Third_Party/FatFs/src/ff.c **** 
 862:../../../lib/Middlewares/Third_Party/FatFs/src/ff.c **** static
 863:../../../lib/Middlewares/Third_Party/FatFs/src/ff.c **** void clear_lock (	/* Clear lock entries of the volume */
 864:../../../lib/Middlewares/Third_Party/FatFs/src/ff.c **** 	FATFS *fs
 865:../../../lib/Middlewares/Third_Party/FatFs/src/ff.c **** )
 866:../../../lib/Middlewares/Third_Party/FatFs/src/ff.c **** {
 815              		.loc 1 866 1 is_stmt 1 view -0
 816              		.cfi_startproc
 817              		@ args = 0, pretend = 0, frame = 0
 818              		@ frame_needed = 0, uses_anonymous_args = 0
 819              		@ link register save eliminated.
 867:../../../lib/Middlewares/Third_Party/FatFs/src/ff.c **** 	UINT i;
ARM GAS  /tmp/cco2ePoA.s 			page 31


 820              		.loc 1 867 2 view .LVU232
 868:../../../lib/Middlewares/Third_Party/FatFs/src/ff.c **** 
 869:../../../lib/Middlewares/Third_Party/FatFs/src/ff.c **** 	for (i = 0; i < _FS_LOCK; i++) {
 821              		.loc 1 869 2 view .LVU233
 822              		.loc 1 869 9 is_stmt 0 view .LVU234
 823 0000 0023     		movs	r3, #0
 824              		.loc 1 869 2 view .LVU235
 825 0002 03E0     		b	.L73
 826              	.LVL82:
 827              	.L80:
 828              	.LCFI6:
 829              		.cfi_def_cfa_offset 4
 830              		.cfi_offset 4, -4
 870:../../../lib/Middlewares/Third_Party/FatFs/src/ff.c **** 		if (Files[i].fs == fs) Files[i].fs = 0;
 871:../../../lib/Middlewares/Third_Party/FatFs/src/ff.c **** 	}
 872:../../../lib/Middlewares/Third_Party/FatFs/src/ff.c **** }
 831              		.loc 1 872 1 view .LVU236
 832 0004 5DF8044B 		ldr	r4, [sp], #4
 833              	.LCFI7:
 834              		.cfi_restore 4
 835              		.cfi_def_cfa_offset 0
 836 0008 7047     		bx	lr
 837              	.L79:
 869:../../../lib/Middlewares/Third_Party/FatFs/src/ff.c **** 		if (Files[i].fs == fs) Files[i].fs = 0;
 838              		.loc 1 869 29 is_stmt 1 view .LVU237
 839 000a 0133     		adds	r3, r3, #1
 840              	.LVL83:
 841              	.L73:
 869:../../../lib/Middlewares/Third_Party/FatFs/src/ff.c **** 		if (Files[i].fs == fs) Files[i].fs = 0;
 842              		.loc 1 869 16 view .LVU238
 843 000c 012B     		cmp	r3, #1
 844 000e 11D8     		bhi	.L78
 870:../../../lib/Middlewares/Third_Party/FatFs/src/ff.c **** 		if (Files[i].fs == fs) Files[i].fs = 0;
 845              		.loc 1 870 3 view .LVU239
 870:../../../lib/Middlewares/Third_Party/FatFs/src/ff.c **** 		if (Files[i].fs == fs) Files[i].fs = 0;
 846              		.loc 1 870 15 is_stmt 0 view .LVU240
 847 0010 1A01     		lsls	r2, r3, #4
 848 0012 0949     		ldr	r1, .L81
 849 0014 8A58     		ldr	r2, [r1, r2]
 870:../../../lib/Middlewares/Third_Party/FatFs/src/ff.c **** 		if (Files[i].fs == fs) Files[i].fs = 0;
 850              		.loc 1 870 6 view .LVU241
 851 0016 8242     		cmp	r2, r0
 852 0018 F7D1     		bne	.L79
 866:../../../lib/Middlewares/Third_Party/FatFs/src/ff.c **** 	UINT i;
 853              		.loc 1 866 1 view .LVU242
 854 001a 10B4     		push	{r4}
 855              	.LCFI8:
 856              		.cfi_def_cfa_offset 4
 857              		.cfi_offset 4, -4
 858              	.L74:
 870:../../../lib/Middlewares/Third_Party/FatFs/src/ff.c **** 		if (Files[i].fs == fs) Files[i].fs = 0;
 859              		.loc 1 870 26 is_stmt 1 discriminator 1 view .LVU243
 870:../../../lib/Middlewares/Third_Party/FatFs/src/ff.c **** 		if (Files[i].fs == fs) Files[i].fs = 0;
 860              		.loc 1 870 38 is_stmt 0 discriminator 1 view .LVU244
 861 001c 1A01     		lsls	r2, r3, #4
 862 001e 0024     		movs	r4, #0
 863 0020 8C50     		str	r4, [r1, r2]
ARM GAS  /tmp/cco2ePoA.s 			page 32


 864              	.L70:
 869:../../../lib/Middlewares/Third_Party/FatFs/src/ff.c **** 		if (Files[i].fs == fs) Files[i].fs = 0;
 865              		.loc 1 869 29 is_stmt 1 discriminator 2 view .LVU245
 866 0022 0133     		adds	r3, r3, #1
 867              	.LVL84:
 869:../../../lib/Middlewares/Third_Party/FatFs/src/ff.c **** 		if (Files[i].fs == fs) Files[i].fs = 0;
 868              		.loc 1 869 16 discriminator 2 view .LVU246
 869 0024 012B     		cmp	r3, #1
 870 0026 EDD8     		bhi	.L80
 870:../../../lib/Middlewares/Third_Party/FatFs/src/ff.c **** 		if (Files[i].fs == fs) Files[i].fs = 0;
 871              		.loc 1 870 3 view .LVU247
 870:../../../lib/Middlewares/Third_Party/FatFs/src/ff.c **** 		if (Files[i].fs == fs) Files[i].fs = 0;
 872              		.loc 1 870 15 is_stmt 0 view .LVU248
 873 0028 1A01     		lsls	r2, r3, #4
 874 002a 0349     		ldr	r1, .L81
 875 002c 8A58     		ldr	r2, [r1, r2]
 870:../../../lib/Middlewares/Third_Party/FatFs/src/ff.c **** 		if (Files[i].fs == fs) Files[i].fs = 0;
 876              		.loc 1 870 6 view .LVU249
 877 002e 8242     		cmp	r2, r0
 878 0030 F7D1     		bne	.L70
 879 0032 F3E7     		b	.L74
 880              	.L78:
 881              	.LCFI9:
 882              		.cfi_def_cfa_offset 0
 883              		.cfi_restore 4
 870:../../../lib/Middlewares/Third_Party/FatFs/src/ff.c **** 		if (Files[i].fs == fs) Files[i].fs = 0;
 884              		.loc 1 870 6 view .LVU250
 885 0034 7047     		bx	lr
 886              	.L82:
 887 0036 00BF     		.align	2
 888              	.L81:
 889 0038 00000000 		.word	Files
 890              		.cfi_endproc
 891              	.LFE156:
 893              		.section	.text.clust2sect,"ax",%progbits
 894              		.align	1
 895              		.syntax unified
 896              		.thumb
 897              		.thumb_func
 899              	clust2sect:
 900              	.LVL85:
 901              	.LFB160:
 873:../../../lib/Middlewares/Third_Party/FatFs/src/ff.c **** 
 874:../../../lib/Middlewares/Third_Party/FatFs/src/ff.c **** #endif	/* _FS_LOCK != 0 */
 875:../../../lib/Middlewares/Third_Party/FatFs/src/ff.c **** 
 876:../../../lib/Middlewares/Third_Party/FatFs/src/ff.c **** 
 877:../../../lib/Middlewares/Third_Party/FatFs/src/ff.c **** 
 878:../../../lib/Middlewares/Third_Party/FatFs/src/ff.c **** /*-----------------------------------------------------------------------*/
 879:../../../lib/Middlewares/Third_Party/FatFs/src/ff.c **** /* Move/Flush disk access window in the file system object               */
 880:../../../lib/Middlewares/Third_Party/FatFs/src/ff.c **** /*-----------------------------------------------------------------------*/
 881:../../../lib/Middlewares/Third_Party/FatFs/src/ff.c **** #if !_FS_READONLY
 882:../../../lib/Middlewares/Third_Party/FatFs/src/ff.c **** static
 883:../../../lib/Middlewares/Third_Party/FatFs/src/ff.c **** FRESULT sync_window (	/* Returns FR_OK or FR_DISK_ERROR */
 884:../../../lib/Middlewares/Third_Party/FatFs/src/ff.c **** 	FATFS* fs			/* File system object */
 885:../../../lib/Middlewares/Third_Party/FatFs/src/ff.c **** )
 886:../../../lib/Middlewares/Third_Party/FatFs/src/ff.c **** {
 887:../../../lib/Middlewares/Third_Party/FatFs/src/ff.c **** 	DWORD wsect;
ARM GAS  /tmp/cco2ePoA.s 			page 33


 888:../../../lib/Middlewares/Third_Party/FatFs/src/ff.c **** 	UINT nf;
 889:../../../lib/Middlewares/Third_Party/FatFs/src/ff.c **** 	FRESULT res = FR_OK;
 890:../../../lib/Middlewares/Third_Party/FatFs/src/ff.c **** 
 891:../../../lib/Middlewares/Third_Party/FatFs/src/ff.c **** 
 892:../../../lib/Middlewares/Third_Party/FatFs/src/ff.c **** 	if (fs->wflag) {	/* Write back the sector if it is dirty */
 893:../../../lib/Middlewares/Third_Party/FatFs/src/ff.c **** 		wsect = fs->winsect;	/* Current sector number */
 894:../../../lib/Middlewares/Third_Party/FatFs/src/ff.c **** 		if (disk_write(fs->drv, fs->win, wsect, 1) != RES_OK) {
 895:../../../lib/Middlewares/Third_Party/FatFs/src/ff.c **** 			res = FR_DISK_ERR;
 896:../../../lib/Middlewares/Third_Party/FatFs/src/ff.c **** 		} else {
 897:../../../lib/Middlewares/Third_Party/FatFs/src/ff.c **** 			fs->wflag = 0;
 898:../../../lib/Middlewares/Third_Party/FatFs/src/ff.c **** 			if (wsect - fs->fatbase < fs->fsize) {		/* Is it in the FAT area? */
 899:../../../lib/Middlewares/Third_Party/FatFs/src/ff.c **** 				for (nf = fs->n_fats; nf >= 2; nf--) {	/* Reflect the change to all FAT copies */
 900:../../../lib/Middlewares/Third_Party/FatFs/src/ff.c **** 					wsect += fs->fsize;
 901:../../../lib/Middlewares/Third_Party/FatFs/src/ff.c **** 					disk_write(fs->drv, fs->win, wsect, 1);
 902:../../../lib/Middlewares/Third_Party/FatFs/src/ff.c **** 				}
 903:../../../lib/Middlewares/Third_Party/FatFs/src/ff.c **** 			}
 904:../../../lib/Middlewares/Third_Party/FatFs/src/ff.c **** 		}
 905:../../../lib/Middlewares/Third_Party/FatFs/src/ff.c **** 	}
 906:../../../lib/Middlewares/Third_Party/FatFs/src/ff.c **** 	return res;
 907:../../../lib/Middlewares/Third_Party/FatFs/src/ff.c **** }
 908:../../../lib/Middlewares/Third_Party/FatFs/src/ff.c **** #endif
 909:../../../lib/Middlewares/Third_Party/FatFs/src/ff.c **** 
 910:../../../lib/Middlewares/Third_Party/FatFs/src/ff.c **** 
 911:../../../lib/Middlewares/Third_Party/FatFs/src/ff.c **** static
 912:../../../lib/Middlewares/Third_Party/FatFs/src/ff.c **** FRESULT move_window (	/* Returns FR_OK or FR_DISK_ERROR */
 913:../../../lib/Middlewares/Third_Party/FatFs/src/ff.c **** 	FATFS* fs,			/* File system object */
 914:../../../lib/Middlewares/Third_Party/FatFs/src/ff.c **** 	DWORD sector		/* Sector number to make appearance in the fs->win[] */
 915:../../../lib/Middlewares/Third_Party/FatFs/src/ff.c **** )
 916:../../../lib/Middlewares/Third_Party/FatFs/src/ff.c **** {
 917:../../../lib/Middlewares/Third_Party/FatFs/src/ff.c **** 	FRESULT res = FR_OK;
 918:../../../lib/Middlewares/Third_Party/FatFs/src/ff.c **** 
 919:../../../lib/Middlewares/Third_Party/FatFs/src/ff.c **** 
 920:../../../lib/Middlewares/Third_Party/FatFs/src/ff.c **** 	if (sector != fs->winsect) {	/* Window offset changed? */
 921:../../../lib/Middlewares/Third_Party/FatFs/src/ff.c **** #if !_FS_READONLY
 922:../../../lib/Middlewares/Third_Party/FatFs/src/ff.c **** 		res = sync_window(fs);		/* Write-back changes */
 923:../../../lib/Middlewares/Third_Party/FatFs/src/ff.c **** #endif
 924:../../../lib/Middlewares/Third_Party/FatFs/src/ff.c **** 		if (res == FR_OK) {			/* Fill sector window with new data */
 925:../../../lib/Middlewares/Third_Party/FatFs/src/ff.c **** 			if (disk_read(fs->drv, fs->win, sector, 1) != RES_OK) {
 926:../../../lib/Middlewares/Third_Party/FatFs/src/ff.c **** 				sector = 0xFFFFFFFF;	/* Invalidate window if data is not reliable */
 927:../../../lib/Middlewares/Third_Party/FatFs/src/ff.c **** 				res = FR_DISK_ERR;
 928:../../../lib/Middlewares/Third_Party/FatFs/src/ff.c **** 			}
 929:../../../lib/Middlewares/Third_Party/FatFs/src/ff.c **** 			fs->winsect = sector;
 930:../../../lib/Middlewares/Third_Party/FatFs/src/ff.c **** 		}
 931:../../../lib/Middlewares/Third_Party/FatFs/src/ff.c **** 	}
 932:../../../lib/Middlewares/Third_Party/FatFs/src/ff.c **** 	return res;
 933:../../../lib/Middlewares/Third_Party/FatFs/src/ff.c **** }
 934:../../../lib/Middlewares/Third_Party/FatFs/src/ff.c **** 
 935:../../../lib/Middlewares/Third_Party/FatFs/src/ff.c **** 
 936:../../../lib/Middlewares/Third_Party/FatFs/src/ff.c **** 
 937:../../../lib/Middlewares/Third_Party/FatFs/src/ff.c **** 
 938:../../../lib/Middlewares/Third_Party/FatFs/src/ff.c **** #if !_FS_READONLY
 939:../../../lib/Middlewares/Third_Party/FatFs/src/ff.c **** /*-----------------------------------------------------------------------*/
 940:../../../lib/Middlewares/Third_Party/FatFs/src/ff.c **** /* Synchronize file system and strage device                             */
 941:../../../lib/Middlewares/Third_Party/FatFs/src/ff.c **** /*-----------------------------------------------------------------------*/
 942:../../../lib/Middlewares/Third_Party/FatFs/src/ff.c **** 
 943:../../../lib/Middlewares/Third_Party/FatFs/src/ff.c **** static
 944:../../../lib/Middlewares/Third_Party/FatFs/src/ff.c **** FRESULT sync_fs (	/* FR_OK:succeeded, !=0:error */
ARM GAS  /tmp/cco2ePoA.s 			page 34


 945:../../../lib/Middlewares/Third_Party/FatFs/src/ff.c **** 	FATFS* fs		/* File system object */
 946:../../../lib/Middlewares/Third_Party/FatFs/src/ff.c **** )
 947:../../../lib/Middlewares/Third_Party/FatFs/src/ff.c **** {
 948:../../../lib/Middlewares/Third_Party/FatFs/src/ff.c **** 	FRESULT res;
 949:../../../lib/Middlewares/Third_Party/FatFs/src/ff.c **** 
 950:../../../lib/Middlewares/Third_Party/FatFs/src/ff.c **** 
 951:../../../lib/Middlewares/Third_Party/FatFs/src/ff.c **** 	res = sync_window(fs);
 952:../../../lib/Middlewares/Third_Party/FatFs/src/ff.c **** 	if (res == FR_OK) {
 953:../../../lib/Middlewares/Third_Party/FatFs/src/ff.c **** 		/* Update FSInfo sector if needed */
 954:../../../lib/Middlewares/Third_Party/FatFs/src/ff.c **** 		if (fs->fs_type == FS_FAT32 && fs->fsi_flag == 1) {
 955:../../../lib/Middlewares/Third_Party/FatFs/src/ff.c **** 			/* Create FSInfo structure */
 956:../../../lib/Middlewares/Third_Party/FatFs/src/ff.c **** 			mem_set(fs->win, 0, SS(fs));
 957:../../../lib/Middlewares/Third_Party/FatFs/src/ff.c **** 			st_word(fs->win + BS_55AA, 0xAA55);
 958:../../../lib/Middlewares/Third_Party/FatFs/src/ff.c **** 			st_dword(fs->win + FSI_LeadSig, 0x41615252);
 959:../../../lib/Middlewares/Third_Party/FatFs/src/ff.c **** 			st_dword(fs->win + FSI_StrucSig, 0x61417272);
 960:../../../lib/Middlewares/Third_Party/FatFs/src/ff.c **** 			st_dword(fs->win + FSI_Free_Count, fs->free_clst);
 961:../../../lib/Middlewares/Third_Party/FatFs/src/ff.c **** 			st_dword(fs->win + FSI_Nxt_Free, fs->last_clst);
 962:../../../lib/Middlewares/Third_Party/FatFs/src/ff.c **** 			/* Write it into the FSInfo sector */
 963:../../../lib/Middlewares/Third_Party/FatFs/src/ff.c **** 			fs->winsect = fs->volbase + 1;
 964:../../../lib/Middlewares/Third_Party/FatFs/src/ff.c **** 			disk_write(fs->drv, fs->win, fs->winsect, 1);
 965:../../../lib/Middlewares/Third_Party/FatFs/src/ff.c **** 			fs->fsi_flag = 0;
 966:../../../lib/Middlewares/Third_Party/FatFs/src/ff.c **** 		}
 967:../../../lib/Middlewares/Third_Party/FatFs/src/ff.c **** 		/* Make sure that no pending write process in the physical drive */
 968:../../../lib/Middlewares/Third_Party/FatFs/src/ff.c **** 		if (disk_ioctl(fs->drv, CTRL_SYNC, 0) != RES_OK) res = FR_DISK_ERR;
 969:../../../lib/Middlewares/Third_Party/FatFs/src/ff.c **** 	}
 970:../../../lib/Middlewares/Third_Party/FatFs/src/ff.c **** 
 971:../../../lib/Middlewares/Third_Party/FatFs/src/ff.c **** 	return res;
 972:../../../lib/Middlewares/Third_Party/FatFs/src/ff.c **** }
 973:../../../lib/Middlewares/Third_Party/FatFs/src/ff.c **** 
 974:../../../lib/Middlewares/Third_Party/FatFs/src/ff.c **** #endif
 975:../../../lib/Middlewares/Third_Party/FatFs/src/ff.c **** 
 976:../../../lib/Middlewares/Third_Party/FatFs/src/ff.c **** 
 977:../../../lib/Middlewares/Third_Party/FatFs/src/ff.c **** 
 978:../../../lib/Middlewares/Third_Party/FatFs/src/ff.c **** /*-----------------------------------------------------------------------*/
 979:../../../lib/Middlewares/Third_Party/FatFs/src/ff.c **** /* Get sector# from cluster#                                             */
 980:../../../lib/Middlewares/Third_Party/FatFs/src/ff.c **** /*-----------------------------------------------------------------------*/
 981:../../../lib/Middlewares/Third_Party/FatFs/src/ff.c **** 
 982:../../../lib/Middlewares/Third_Party/FatFs/src/ff.c **** static
 983:../../../lib/Middlewares/Third_Party/FatFs/src/ff.c **** DWORD clust2sect (	/* !=0:Sector number, 0:Failed (invalid cluster#) */
 984:../../../lib/Middlewares/Third_Party/FatFs/src/ff.c **** 	FATFS* fs,		/* File system object */
 985:../../../lib/Middlewares/Third_Party/FatFs/src/ff.c **** 	DWORD clst		/* Cluster# to be converted */
 986:../../../lib/Middlewares/Third_Party/FatFs/src/ff.c **** )
 987:../../../lib/Middlewares/Third_Party/FatFs/src/ff.c **** {
 902              		.loc 1 987 1 is_stmt 1 view -0
 903              		.cfi_startproc
 904              		@ args = 0, pretend = 0, frame = 0
 905              		@ frame_needed = 0, uses_anonymous_args = 0
 906              		@ link register save eliminated.
 988:../../../lib/Middlewares/Third_Party/FatFs/src/ff.c **** 	clst -= 2;
 907              		.loc 1 988 2 view .LVU252
 908              		.loc 1 988 7 is_stmt 0 view .LVU253
 909 0000 0239     		subs	r1, r1, #2
 910              	.LVL86:
 989:../../../lib/Middlewares/Third_Party/FatFs/src/ff.c **** 	if (clst >= fs->n_fatent - 2) return 0;		/* Invalid cluster# */
 911              		.loc 1 989 2 is_stmt 1 view .LVU254
 912              		.loc 1 989 16 is_stmt 0 view .LVU255
 913 0002 4369     		ldr	r3, [r0, #20]
ARM GAS  /tmp/cco2ePoA.s 			page 35


 914              		.loc 1 989 27 view .LVU256
 915 0004 023B     		subs	r3, r3, #2
 916              		.loc 1 989 5 view .LVU257
 917 0006 8B42     		cmp	r3, r1
 918 0008 04D9     		bls	.L85
 990:../../../lib/Middlewares/Third_Party/FatFs/src/ff.c **** 	return clst * fs->csize + fs->database;
 919              		.loc 1 990 2 is_stmt 1 view .LVU258
 920              		.loc 1 990 18 is_stmt 0 view .LVU259
 921 000a 4389     		ldrh	r3, [r0, #10]
 922              		.loc 1 990 30 view .LVU260
 923 000c 806A     		ldr	r0, [r0, #40]
 924              	.LVL87:
 925              		.loc 1 990 26 view .LVU261
 926 000e 01FB0300 		mla	r0, r1, r3, r0
 927 0012 7047     		bx	lr
 928              	.LVL88:
 929              	.L85:
 989:../../../lib/Middlewares/Third_Party/FatFs/src/ff.c **** 	if (clst >= fs->n_fatent - 2) return 0;		/* Invalid cluster# */
 930              		.loc 1 989 39 view .LVU262
 931 0014 0020     		movs	r0, #0
 932              	.LVL89:
 991:../../../lib/Middlewares/Third_Party/FatFs/src/ff.c **** }
 933              		.loc 1 991 1 view .LVU263
 934 0016 7047     		bx	lr
 935              		.cfi_endproc
 936              	.LFE160:
 938              		.section	.text.clmt_clust,"ax",%progbits
 939              		.align	1
 940              		.syntax unified
 941              		.thumb
 942              		.thumb_func
 944              	clmt_clust:
 945              	.LVL90:
 946              	.LFB165:
 992:../../../lib/Middlewares/Third_Party/FatFs/src/ff.c **** 
 993:../../../lib/Middlewares/Third_Party/FatFs/src/ff.c **** 
 994:../../../lib/Middlewares/Third_Party/FatFs/src/ff.c **** 
 995:../../../lib/Middlewares/Third_Party/FatFs/src/ff.c **** 
 996:../../../lib/Middlewares/Third_Party/FatFs/src/ff.c **** /*-----------------------------------------------------------------------*/
 997:../../../lib/Middlewares/Third_Party/FatFs/src/ff.c **** /* FAT access - Read value of a FAT entry                                */
 998:../../../lib/Middlewares/Third_Party/FatFs/src/ff.c **** /*-----------------------------------------------------------------------*/
 999:../../../lib/Middlewares/Third_Party/FatFs/src/ff.c **** 
1000:../../../lib/Middlewares/Third_Party/FatFs/src/ff.c **** static
1001:../../../lib/Middlewares/Third_Party/FatFs/src/ff.c **** DWORD get_fat (	/* 0xFFFFFFFF:Disk error, 1:Internal error, 2..0x7FFFFFFF:Cluster status */
1002:../../../lib/Middlewares/Third_Party/FatFs/src/ff.c **** 	_FDID* obj,	/* Corresponding object */
1003:../../../lib/Middlewares/Third_Party/FatFs/src/ff.c **** 	DWORD clst	/* Cluster number to get the value */
1004:../../../lib/Middlewares/Third_Party/FatFs/src/ff.c **** )
1005:../../../lib/Middlewares/Third_Party/FatFs/src/ff.c **** {
1006:../../../lib/Middlewares/Third_Party/FatFs/src/ff.c **** 	UINT wc, bc;
1007:../../../lib/Middlewares/Third_Party/FatFs/src/ff.c **** 	DWORD val;
1008:../../../lib/Middlewares/Third_Party/FatFs/src/ff.c **** 	FATFS *fs = obj->fs;
1009:../../../lib/Middlewares/Third_Party/FatFs/src/ff.c **** 
1010:../../../lib/Middlewares/Third_Party/FatFs/src/ff.c **** 
1011:../../../lib/Middlewares/Third_Party/FatFs/src/ff.c **** 	if (clst < 2 || clst >= fs->n_fatent) {	/* Check if in valid range */
1012:../../../lib/Middlewares/Third_Party/FatFs/src/ff.c **** 		val = 1;	/* Internal error */
1013:../../../lib/Middlewares/Third_Party/FatFs/src/ff.c **** 
1014:../../../lib/Middlewares/Third_Party/FatFs/src/ff.c **** 	} else {
ARM GAS  /tmp/cco2ePoA.s 			page 36


1015:../../../lib/Middlewares/Third_Party/FatFs/src/ff.c **** 		val = 0xFFFFFFFF;	/* Default value falls on disk error */
1016:../../../lib/Middlewares/Third_Party/FatFs/src/ff.c **** 
1017:../../../lib/Middlewares/Third_Party/FatFs/src/ff.c **** 		switch (fs->fs_type) {
1018:../../../lib/Middlewares/Third_Party/FatFs/src/ff.c **** 		case FS_FAT12 :
1019:../../../lib/Middlewares/Third_Party/FatFs/src/ff.c **** 			bc = (UINT)clst; bc += bc / 2;
1020:../../../lib/Middlewares/Third_Party/FatFs/src/ff.c **** 			if (move_window(fs, fs->fatbase + (bc / SS(fs))) != FR_OK) break;
1021:../../../lib/Middlewares/Third_Party/FatFs/src/ff.c **** 			wc = fs->win[bc++ % SS(fs)];
1022:../../../lib/Middlewares/Third_Party/FatFs/src/ff.c **** 			if (move_window(fs, fs->fatbase + (bc / SS(fs))) != FR_OK) break;
1023:../../../lib/Middlewares/Third_Party/FatFs/src/ff.c **** 			wc |= fs->win[bc % SS(fs)] << 8;
1024:../../../lib/Middlewares/Third_Party/FatFs/src/ff.c **** 			val = (clst & 1) ? (wc >> 4) : (wc & 0xFFF);
1025:../../../lib/Middlewares/Third_Party/FatFs/src/ff.c **** 			break;
1026:../../../lib/Middlewares/Third_Party/FatFs/src/ff.c **** 
1027:../../../lib/Middlewares/Third_Party/FatFs/src/ff.c **** 		case FS_FAT16 :
1028:../../../lib/Middlewares/Third_Party/FatFs/src/ff.c **** 			if (move_window(fs, fs->fatbase + (clst / (SS(fs) / 2))) != FR_OK) break;
1029:../../../lib/Middlewares/Third_Party/FatFs/src/ff.c **** 			val = ld_word(fs->win + clst * 2 % SS(fs));
1030:../../../lib/Middlewares/Third_Party/FatFs/src/ff.c **** 			break;
1031:../../../lib/Middlewares/Third_Party/FatFs/src/ff.c **** 
1032:../../../lib/Middlewares/Third_Party/FatFs/src/ff.c **** 		case FS_FAT32 :
1033:../../../lib/Middlewares/Third_Party/FatFs/src/ff.c **** 			if (move_window(fs, fs->fatbase + (clst / (SS(fs) / 4))) != FR_OK) break;
1034:../../../lib/Middlewares/Third_Party/FatFs/src/ff.c **** 			val = ld_dword(fs->win + clst * 4 % SS(fs)) & 0x0FFFFFFF;
1035:../../../lib/Middlewares/Third_Party/FatFs/src/ff.c **** 			break;
1036:../../../lib/Middlewares/Third_Party/FatFs/src/ff.c **** #if _FS_EXFAT
1037:../../../lib/Middlewares/Third_Party/FatFs/src/ff.c **** 		case FS_EXFAT :
1038:../../../lib/Middlewares/Third_Party/FatFs/src/ff.c **** 			if (obj->objsize) {
1039:../../../lib/Middlewares/Third_Party/FatFs/src/ff.c **** 				DWORD cofs = clst - obj->sclust;	/* Offset from start cluster */
1040:../../../lib/Middlewares/Third_Party/FatFs/src/ff.c **** 				DWORD clen = (DWORD)((obj->objsize - 1) / SS(fs)) / fs->csize;	/* Number of clusters - 1 */
1041:../../../lib/Middlewares/Third_Party/FatFs/src/ff.c **** 
1042:../../../lib/Middlewares/Third_Party/FatFs/src/ff.c **** 				if (obj->stat == 2) {	/* Is there no valid chain on the FAT? */
1043:../../../lib/Middlewares/Third_Party/FatFs/src/ff.c **** 					if (cofs <= clen) {
1044:../../../lib/Middlewares/Third_Party/FatFs/src/ff.c **** 						val = (cofs == clen) ? 0x7FFFFFFF : clst + 1;	/* Generate the value */
1045:../../../lib/Middlewares/Third_Party/FatFs/src/ff.c **** 						break;
1046:../../../lib/Middlewares/Third_Party/FatFs/src/ff.c **** 					}
1047:../../../lib/Middlewares/Third_Party/FatFs/src/ff.c **** 				}
1048:../../../lib/Middlewares/Third_Party/FatFs/src/ff.c **** 				if (obj->stat == 3 && cofs < obj->n_cont) {	/* Is it in the 1st fragment? */
1049:../../../lib/Middlewares/Third_Party/FatFs/src/ff.c **** 					val = clst + 1; 	/* Generate the value */
1050:../../../lib/Middlewares/Third_Party/FatFs/src/ff.c **** 					break;
1051:../../../lib/Middlewares/Third_Party/FatFs/src/ff.c **** 				}
1052:../../../lib/Middlewares/Third_Party/FatFs/src/ff.c **** 				if (obj->stat != 2) {	/* Get value from FAT if FAT chain is valid */
1053:../../../lib/Middlewares/Third_Party/FatFs/src/ff.c **** 					if (obj->n_frag != 0) {	/* Is it on the growing edge? */
1054:../../../lib/Middlewares/Third_Party/FatFs/src/ff.c **** 						val = 0x7FFFFFFF;	/* Generate EOC */
1055:../../../lib/Middlewares/Third_Party/FatFs/src/ff.c **** 					} else {
1056:../../../lib/Middlewares/Third_Party/FatFs/src/ff.c **** 						if (move_window(fs, fs->fatbase + (clst / (SS(fs) / 4))) != FR_OK) break;
1057:../../../lib/Middlewares/Third_Party/FatFs/src/ff.c **** 						val = ld_dword(fs->win + clst * 4 % SS(fs)) & 0x7FFFFFFF;
1058:../../../lib/Middlewares/Third_Party/FatFs/src/ff.c **** 					}
1059:../../../lib/Middlewares/Third_Party/FatFs/src/ff.c **** 					break;
1060:../../../lib/Middlewares/Third_Party/FatFs/src/ff.c **** 				}
1061:../../../lib/Middlewares/Third_Party/FatFs/src/ff.c **** 			}
1062:../../../lib/Middlewares/Third_Party/FatFs/src/ff.c **** 			/* go to default */
1063:../../../lib/Middlewares/Third_Party/FatFs/src/ff.c **** #endif
1064:../../../lib/Middlewares/Third_Party/FatFs/src/ff.c **** 		default:
1065:../../../lib/Middlewares/Third_Party/FatFs/src/ff.c **** 			val = 1;	/* Internal error */
1066:../../../lib/Middlewares/Third_Party/FatFs/src/ff.c **** 		}
1067:../../../lib/Middlewares/Third_Party/FatFs/src/ff.c **** 	}
1068:../../../lib/Middlewares/Third_Party/FatFs/src/ff.c **** 
1069:../../../lib/Middlewares/Third_Party/FatFs/src/ff.c **** 	return val;
1070:../../../lib/Middlewares/Third_Party/FatFs/src/ff.c **** }
1071:../../../lib/Middlewares/Third_Party/FatFs/src/ff.c **** 
ARM GAS  /tmp/cco2ePoA.s 			page 37


1072:../../../lib/Middlewares/Third_Party/FatFs/src/ff.c **** 
1073:../../../lib/Middlewares/Third_Party/FatFs/src/ff.c **** 
1074:../../../lib/Middlewares/Third_Party/FatFs/src/ff.c **** 
1075:../../../lib/Middlewares/Third_Party/FatFs/src/ff.c **** #if !_FS_READONLY
1076:../../../lib/Middlewares/Third_Party/FatFs/src/ff.c **** /*-----------------------------------------------------------------------*/
1077:../../../lib/Middlewares/Third_Party/FatFs/src/ff.c **** /* FAT access - Change value of a FAT entry                              */
1078:../../../lib/Middlewares/Third_Party/FatFs/src/ff.c **** /*-----------------------------------------------------------------------*/
1079:../../../lib/Middlewares/Third_Party/FatFs/src/ff.c **** 
1080:../../../lib/Middlewares/Third_Party/FatFs/src/ff.c **** static
1081:../../../lib/Middlewares/Third_Party/FatFs/src/ff.c **** FRESULT put_fat (	/* FR_OK(0):succeeded, !=0:error */
1082:../../../lib/Middlewares/Third_Party/FatFs/src/ff.c **** 	FATFS* fs,		/* Corresponding file system object */
1083:../../../lib/Middlewares/Third_Party/FatFs/src/ff.c **** 	DWORD clst,		/* FAT index number (cluster number) to be changed */
1084:../../../lib/Middlewares/Third_Party/FatFs/src/ff.c **** 	DWORD val		/* New value to be set to the entry */
1085:../../../lib/Middlewares/Third_Party/FatFs/src/ff.c **** )
1086:../../../lib/Middlewares/Third_Party/FatFs/src/ff.c **** {
1087:../../../lib/Middlewares/Third_Party/FatFs/src/ff.c **** 	UINT bc;
1088:../../../lib/Middlewares/Third_Party/FatFs/src/ff.c **** 	BYTE *p;
1089:../../../lib/Middlewares/Third_Party/FatFs/src/ff.c **** 	FRESULT res = FR_INT_ERR;
1090:../../../lib/Middlewares/Third_Party/FatFs/src/ff.c **** 
1091:../../../lib/Middlewares/Third_Party/FatFs/src/ff.c **** 	if (clst >= 2 && clst < fs->n_fatent) {	/* Check if in valid range */
1092:../../../lib/Middlewares/Third_Party/FatFs/src/ff.c **** 		switch (fs->fs_type) {
1093:../../../lib/Middlewares/Third_Party/FatFs/src/ff.c **** 		case FS_FAT12 :	/* Bitfield items */
1094:../../../lib/Middlewares/Third_Party/FatFs/src/ff.c **** 			bc = (UINT)clst; bc += bc / 2;
1095:../../../lib/Middlewares/Third_Party/FatFs/src/ff.c **** 			res = move_window(fs, fs->fatbase + (bc / SS(fs)));
1096:../../../lib/Middlewares/Third_Party/FatFs/src/ff.c **** 			if (res != FR_OK) break;
1097:../../../lib/Middlewares/Third_Party/FatFs/src/ff.c **** 			p = fs->win + bc++ % SS(fs);
1098:../../../lib/Middlewares/Third_Party/FatFs/src/ff.c **** 			*p = (clst & 1) ? ((*p & 0x0F) | ((BYTE)val << 4)) : (BYTE)val;
1099:../../../lib/Middlewares/Third_Party/FatFs/src/ff.c **** 			fs->wflag = 1;
1100:../../../lib/Middlewares/Third_Party/FatFs/src/ff.c **** 			res = move_window(fs, fs->fatbase + (bc / SS(fs)));
1101:../../../lib/Middlewares/Third_Party/FatFs/src/ff.c **** 			if (res != FR_OK) break;
1102:../../../lib/Middlewares/Third_Party/FatFs/src/ff.c **** 			p = fs->win + bc % SS(fs);
1103:../../../lib/Middlewares/Third_Party/FatFs/src/ff.c **** 			*p = (clst & 1) ? (BYTE)(val >> 4) : ((*p & 0xF0) | ((BYTE)(val >> 8) & 0x0F));
1104:../../../lib/Middlewares/Third_Party/FatFs/src/ff.c **** 			fs->wflag = 1;
1105:../../../lib/Middlewares/Third_Party/FatFs/src/ff.c **** 			break;
1106:../../../lib/Middlewares/Third_Party/FatFs/src/ff.c **** 
1107:../../../lib/Middlewares/Third_Party/FatFs/src/ff.c **** 		case FS_FAT16 :	/* WORD aligned items */
1108:../../../lib/Middlewares/Third_Party/FatFs/src/ff.c **** 			res = move_window(fs, fs->fatbase + (clst / (SS(fs) / 2)));
1109:../../../lib/Middlewares/Third_Party/FatFs/src/ff.c **** 			if (res != FR_OK) break;
1110:../../../lib/Middlewares/Third_Party/FatFs/src/ff.c **** 			st_word(fs->win + clst * 2 % SS(fs), (WORD)val);
1111:../../../lib/Middlewares/Third_Party/FatFs/src/ff.c **** 			fs->wflag = 1;
1112:../../../lib/Middlewares/Third_Party/FatFs/src/ff.c **** 			break;
1113:../../../lib/Middlewares/Third_Party/FatFs/src/ff.c **** 
1114:../../../lib/Middlewares/Third_Party/FatFs/src/ff.c **** 		case FS_FAT32 :	/* DWORD aligned items */
1115:../../../lib/Middlewares/Third_Party/FatFs/src/ff.c **** #if _FS_EXFAT
1116:../../../lib/Middlewares/Third_Party/FatFs/src/ff.c **** 		case FS_EXFAT :
1117:../../../lib/Middlewares/Third_Party/FatFs/src/ff.c **** #endif
1118:../../../lib/Middlewares/Third_Party/FatFs/src/ff.c **** 			res = move_window(fs, fs->fatbase + (clst / (SS(fs) / 4)));
1119:../../../lib/Middlewares/Third_Party/FatFs/src/ff.c **** 			if (res != FR_OK) break;
1120:../../../lib/Middlewares/Third_Party/FatFs/src/ff.c **** 			if (!_FS_EXFAT || fs->fs_type != FS_EXFAT) {
1121:../../../lib/Middlewares/Third_Party/FatFs/src/ff.c **** 				val = (val & 0x0FFFFFFF) | (ld_dword(fs->win + clst * 4 % SS(fs)) & 0xF0000000);
1122:../../../lib/Middlewares/Third_Party/FatFs/src/ff.c **** 			}
1123:../../../lib/Middlewares/Third_Party/FatFs/src/ff.c **** 			st_dword(fs->win + clst * 4 % SS(fs), val);
1124:../../../lib/Middlewares/Third_Party/FatFs/src/ff.c **** 			fs->wflag = 1;
1125:../../../lib/Middlewares/Third_Party/FatFs/src/ff.c **** 			break;
1126:../../../lib/Middlewares/Third_Party/FatFs/src/ff.c **** 		}
1127:../../../lib/Middlewares/Third_Party/FatFs/src/ff.c **** 	}
1128:../../../lib/Middlewares/Third_Party/FatFs/src/ff.c **** 	return res;
ARM GAS  /tmp/cco2ePoA.s 			page 38


1129:../../../lib/Middlewares/Third_Party/FatFs/src/ff.c **** }
1130:../../../lib/Middlewares/Third_Party/FatFs/src/ff.c **** 
1131:../../../lib/Middlewares/Third_Party/FatFs/src/ff.c **** #endif /* !_FS_READONLY */
1132:../../../lib/Middlewares/Third_Party/FatFs/src/ff.c **** 
1133:../../../lib/Middlewares/Third_Party/FatFs/src/ff.c **** 
1134:../../../lib/Middlewares/Third_Party/FatFs/src/ff.c **** 
1135:../../../lib/Middlewares/Third_Party/FatFs/src/ff.c **** 
1136:../../../lib/Middlewares/Third_Party/FatFs/src/ff.c **** #if _FS_EXFAT && !_FS_READONLY
1137:../../../lib/Middlewares/Third_Party/FatFs/src/ff.c **** /*-----------------------------------------------------------------------*/
1138:../../../lib/Middlewares/Third_Party/FatFs/src/ff.c **** /* exFAT: Accessing FAT and Allocation Bitmap                            */
1139:../../../lib/Middlewares/Third_Party/FatFs/src/ff.c **** /*-----------------------------------------------------------------------*/
1140:../../../lib/Middlewares/Third_Party/FatFs/src/ff.c **** 
1141:../../../lib/Middlewares/Third_Party/FatFs/src/ff.c **** /*--------------------------------------*/
1142:../../../lib/Middlewares/Third_Party/FatFs/src/ff.c **** /* Find a contiguous free cluster block */
1143:../../../lib/Middlewares/Third_Party/FatFs/src/ff.c **** /*--------------------------------------*/
1144:../../../lib/Middlewares/Third_Party/FatFs/src/ff.c **** 
1145:../../../lib/Middlewares/Third_Party/FatFs/src/ff.c **** static
1146:../../../lib/Middlewares/Third_Party/FatFs/src/ff.c **** DWORD find_bitmap (	/* 0:Not found, 2..:Cluster block found, 0xFFFFFFFF:Disk error */
1147:../../../lib/Middlewares/Third_Party/FatFs/src/ff.c **** 	FATFS* fs,	/* File system object */
1148:../../../lib/Middlewares/Third_Party/FatFs/src/ff.c **** 	DWORD clst,	/* Cluster number to scan from */
1149:../../../lib/Middlewares/Third_Party/FatFs/src/ff.c **** 	DWORD ncl	/* Number of contiguous clusters to find (1..) */
1150:../../../lib/Middlewares/Third_Party/FatFs/src/ff.c **** )
1151:../../../lib/Middlewares/Third_Party/FatFs/src/ff.c **** {
1152:../../../lib/Middlewares/Third_Party/FatFs/src/ff.c **** 	BYTE bm, bv;
1153:../../../lib/Middlewares/Third_Party/FatFs/src/ff.c **** 	UINT i;
1154:../../../lib/Middlewares/Third_Party/FatFs/src/ff.c **** 	DWORD val, scl, ctr;
1155:../../../lib/Middlewares/Third_Party/FatFs/src/ff.c **** 
1156:../../../lib/Middlewares/Third_Party/FatFs/src/ff.c **** 
1157:../../../lib/Middlewares/Third_Party/FatFs/src/ff.c **** 	clst -= 2;	/* The first bit in the bitmap corresponds to cluster #2 */
1158:../../../lib/Middlewares/Third_Party/FatFs/src/ff.c **** 	if (clst >= fs->n_fatent - 2) clst = 0;
1159:../../../lib/Middlewares/Third_Party/FatFs/src/ff.c **** 	scl = val = clst; ctr = 0;
1160:../../../lib/Middlewares/Third_Party/FatFs/src/ff.c **** 	for (;;) {
1161:../../../lib/Middlewares/Third_Party/FatFs/src/ff.c **** 		if (move_window(fs, fs->database + val / 8 / SS(fs)) != FR_OK) return 0xFFFFFFFF;	/* (assuming bi
1162:../../../lib/Middlewares/Third_Party/FatFs/src/ff.c **** 		i = val / 8 % SS(fs); bm = 1 << (val % 8);
1163:../../../lib/Middlewares/Third_Party/FatFs/src/ff.c **** 		do {
1164:../../../lib/Middlewares/Third_Party/FatFs/src/ff.c **** 			do {
1165:../../../lib/Middlewares/Third_Party/FatFs/src/ff.c **** 				bv = fs->win[i] & bm; bm <<= 1;		/* Get bit value */
1166:../../../lib/Middlewares/Third_Party/FatFs/src/ff.c **** 				if (++val >= fs->n_fatent - 2) {	/* Next cluster (with wrap-around) */
1167:../../../lib/Middlewares/Third_Party/FatFs/src/ff.c **** 					val = 0; bm = 0; i = SS(fs);
1168:../../../lib/Middlewares/Third_Party/FatFs/src/ff.c **** 				}
1169:../../../lib/Middlewares/Third_Party/FatFs/src/ff.c **** 				if (!bv) {	/* Is it a free cluster? */
1170:../../../lib/Middlewares/Third_Party/FatFs/src/ff.c **** 					if (++ctr == ncl) return scl + 2;	/* Check if run length is sufficient for required */
1171:../../../lib/Middlewares/Third_Party/FatFs/src/ff.c **** 				} else {
1172:../../../lib/Middlewares/Third_Party/FatFs/src/ff.c **** 					scl = val; ctr = 0;		/* Encountered a cluster in-use, restart to scan */
1173:../../../lib/Middlewares/Third_Party/FatFs/src/ff.c **** 				}
1174:../../../lib/Middlewares/Third_Party/FatFs/src/ff.c **** 				if (val == clst) return 0;	/* All cluster scanned? */
1175:../../../lib/Middlewares/Third_Party/FatFs/src/ff.c **** 			} while (bm);
1176:../../../lib/Middlewares/Third_Party/FatFs/src/ff.c **** 			bm = 1;
1177:../../../lib/Middlewares/Third_Party/FatFs/src/ff.c **** 		} while (++i < SS(fs));
1178:../../../lib/Middlewares/Third_Party/FatFs/src/ff.c **** 	}
1179:../../../lib/Middlewares/Third_Party/FatFs/src/ff.c **** }
1180:../../../lib/Middlewares/Third_Party/FatFs/src/ff.c **** 
1181:../../../lib/Middlewares/Third_Party/FatFs/src/ff.c **** 
1182:../../../lib/Middlewares/Third_Party/FatFs/src/ff.c **** /*----------------------------------------*/
1183:../../../lib/Middlewares/Third_Party/FatFs/src/ff.c **** /* Set/Clear a block of allocation bitmap */
1184:../../../lib/Middlewares/Third_Party/FatFs/src/ff.c **** /*----------------------------------------*/
1185:../../../lib/Middlewares/Third_Party/FatFs/src/ff.c **** 
ARM GAS  /tmp/cco2ePoA.s 			page 39


1186:../../../lib/Middlewares/Third_Party/FatFs/src/ff.c **** static
1187:../../../lib/Middlewares/Third_Party/FatFs/src/ff.c **** FRESULT change_bitmap (
1188:../../../lib/Middlewares/Third_Party/FatFs/src/ff.c **** 	FATFS* fs,	/* File system object */
1189:../../../lib/Middlewares/Third_Party/FatFs/src/ff.c **** 	DWORD clst,	/* Cluster number to change from */
1190:../../../lib/Middlewares/Third_Party/FatFs/src/ff.c **** 	DWORD ncl,	/* Number of clusters to be changed */
1191:../../../lib/Middlewares/Third_Party/FatFs/src/ff.c **** 	int bv		/* bit value to be set (0 or 1) */
1192:../../../lib/Middlewares/Third_Party/FatFs/src/ff.c **** )
1193:../../../lib/Middlewares/Third_Party/FatFs/src/ff.c **** {
1194:../../../lib/Middlewares/Third_Party/FatFs/src/ff.c **** 	BYTE bm;
1195:../../../lib/Middlewares/Third_Party/FatFs/src/ff.c **** 	UINT i;
1196:../../../lib/Middlewares/Third_Party/FatFs/src/ff.c **** 	DWORD sect;
1197:../../../lib/Middlewares/Third_Party/FatFs/src/ff.c **** 
1198:../../../lib/Middlewares/Third_Party/FatFs/src/ff.c **** 	clst -= 2;	/* The first bit corresponds to cluster #2 */
1199:../../../lib/Middlewares/Third_Party/FatFs/src/ff.c **** 	sect = fs->database + clst / 8 / SS(fs);	/* Sector address (assuming bitmap is located top of the 
1200:../../../lib/Middlewares/Third_Party/FatFs/src/ff.c **** 	i = clst / 8 % SS(fs);						/* Byte offset in the sector */
1201:../../../lib/Middlewares/Third_Party/FatFs/src/ff.c **** 	bm = 1 << (clst % 8);						/* Bit mask in the byte */
1202:../../../lib/Middlewares/Third_Party/FatFs/src/ff.c **** 	for (;;) {
1203:../../../lib/Middlewares/Third_Party/FatFs/src/ff.c **** 		if (move_window(fs, sect++) != FR_OK) return FR_DISK_ERR;
1204:../../../lib/Middlewares/Third_Party/FatFs/src/ff.c **** 		do {
1205:../../../lib/Middlewares/Third_Party/FatFs/src/ff.c **** 			do {
1206:../../../lib/Middlewares/Third_Party/FatFs/src/ff.c **** 				if (bv == (int)((fs->win[i] & bm) != 0)) return FR_INT_ERR;	/* Is the bit expected value? */
1207:../../../lib/Middlewares/Third_Party/FatFs/src/ff.c **** 				fs->win[i] ^= bm;	/* Flip the bit */
1208:../../../lib/Middlewares/Third_Party/FatFs/src/ff.c **** 				fs->wflag = 1;
1209:../../../lib/Middlewares/Third_Party/FatFs/src/ff.c **** 				if (--ncl == 0) return FR_OK;	/* All bits processed? */
1210:../../../lib/Middlewares/Third_Party/FatFs/src/ff.c **** 			} while (bm <<= 1);		/* Next bit */
1211:../../../lib/Middlewares/Third_Party/FatFs/src/ff.c **** 			bm = 1;
1212:../../../lib/Middlewares/Third_Party/FatFs/src/ff.c **** 		} while (++i < SS(fs));		/* Next byte */
1213:../../../lib/Middlewares/Third_Party/FatFs/src/ff.c **** 		i = 0;
1214:../../../lib/Middlewares/Third_Party/FatFs/src/ff.c **** 	}
1215:../../../lib/Middlewares/Third_Party/FatFs/src/ff.c **** }
1216:../../../lib/Middlewares/Third_Party/FatFs/src/ff.c **** 
1217:../../../lib/Middlewares/Third_Party/FatFs/src/ff.c **** 
1218:../../../lib/Middlewares/Third_Party/FatFs/src/ff.c **** /*---------------------------------------------*/
1219:../../../lib/Middlewares/Third_Party/FatFs/src/ff.c **** /* Fill the first fragment of the FAT chain    */
1220:../../../lib/Middlewares/Third_Party/FatFs/src/ff.c **** /*---------------------------------------------*/
1221:../../../lib/Middlewares/Third_Party/FatFs/src/ff.c **** 
1222:../../../lib/Middlewares/Third_Party/FatFs/src/ff.c **** static
1223:../../../lib/Middlewares/Third_Party/FatFs/src/ff.c **** FRESULT fill_first_frag (
1224:../../../lib/Middlewares/Third_Party/FatFs/src/ff.c **** 	_FDID* obj	/* Pointer to the corresponding object */
1225:../../../lib/Middlewares/Third_Party/FatFs/src/ff.c **** )
1226:../../../lib/Middlewares/Third_Party/FatFs/src/ff.c **** {
1227:../../../lib/Middlewares/Third_Party/FatFs/src/ff.c **** 	FRESULT res;
1228:../../../lib/Middlewares/Third_Party/FatFs/src/ff.c **** 	DWORD cl, n;
1229:../../../lib/Middlewares/Third_Party/FatFs/src/ff.c **** 
1230:../../../lib/Middlewares/Third_Party/FatFs/src/ff.c **** 	if (obj->stat == 3) {	/* Has the object been changed 'fragmented'? */
1231:../../../lib/Middlewares/Third_Party/FatFs/src/ff.c **** 		for (cl = obj->sclust, n = obj->n_cont; n; cl++, n--) {	/* Create cluster chain on the FAT */
1232:../../../lib/Middlewares/Third_Party/FatFs/src/ff.c **** 			res = put_fat(obj->fs, cl, cl + 1);
1233:../../../lib/Middlewares/Third_Party/FatFs/src/ff.c **** 			if (res != FR_OK) return res;
1234:../../../lib/Middlewares/Third_Party/FatFs/src/ff.c **** 		}
1235:../../../lib/Middlewares/Third_Party/FatFs/src/ff.c **** 		obj->stat = 0;	/* Change status 'FAT chain is valid' */
1236:../../../lib/Middlewares/Third_Party/FatFs/src/ff.c **** 	}
1237:../../../lib/Middlewares/Third_Party/FatFs/src/ff.c **** 	return FR_OK;
1238:../../../lib/Middlewares/Third_Party/FatFs/src/ff.c **** }
1239:../../../lib/Middlewares/Third_Party/FatFs/src/ff.c **** 
1240:../../../lib/Middlewares/Third_Party/FatFs/src/ff.c **** 
1241:../../../lib/Middlewares/Third_Party/FatFs/src/ff.c **** /*---------------------------------------------*/
1242:../../../lib/Middlewares/Third_Party/FatFs/src/ff.c **** /* Fill the last fragment of the FAT chain     */
ARM GAS  /tmp/cco2ePoA.s 			page 40


1243:../../../lib/Middlewares/Third_Party/FatFs/src/ff.c **** /*---------------------------------------------*/
1244:../../../lib/Middlewares/Third_Party/FatFs/src/ff.c **** 
1245:../../../lib/Middlewares/Third_Party/FatFs/src/ff.c **** static
1246:../../../lib/Middlewares/Third_Party/FatFs/src/ff.c **** FRESULT fill_last_frag (
1247:../../../lib/Middlewares/Third_Party/FatFs/src/ff.c **** 	_FDID* obj,	/* Pointer to the corresponding object */
1248:../../../lib/Middlewares/Third_Party/FatFs/src/ff.c **** 	DWORD lcl,	/* Last cluster of the fragment */
1249:../../../lib/Middlewares/Third_Party/FatFs/src/ff.c **** 	DWORD term	/* Value to set the last FAT entry */
1250:../../../lib/Middlewares/Third_Party/FatFs/src/ff.c **** )
1251:../../../lib/Middlewares/Third_Party/FatFs/src/ff.c **** {
1252:../../../lib/Middlewares/Third_Party/FatFs/src/ff.c **** 	FRESULT res;
1253:../../../lib/Middlewares/Third_Party/FatFs/src/ff.c **** 
1254:../../../lib/Middlewares/Third_Party/FatFs/src/ff.c **** 	while (obj->n_frag > 0) {	/* Create the last chain on the FAT */
1255:../../../lib/Middlewares/Third_Party/FatFs/src/ff.c **** 		res = put_fat(obj->fs, lcl - obj->n_frag + 1, (obj->n_frag > 1) ? lcl - obj->n_frag + 2 : term);
1256:../../../lib/Middlewares/Third_Party/FatFs/src/ff.c **** 		if (res != FR_OK) return res;
1257:../../../lib/Middlewares/Third_Party/FatFs/src/ff.c **** 		obj->n_frag--;
1258:../../../lib/Middlewares/Third_Party/FatFs/src/ff.c **** 	}
1259:../../../lib/Middlewares/Third_Party/FatFs/src/ff.c **** 	return FR_OK;
1260:../../../lib/Middlewares/Third_Party/FatFs/src/ff.c **** }
1261:../../../lib/Middlewares/Third_Party/FatFs/src/ff.c **** 
1262:../../../lib/Middlewares/Third_Party/FatFs/src/ff.c **** #endif	/* _FS_EXFAT && !_FS_READONLY */
1263:../../../lib/Middlewares/Third_Party/FatFs/src/ff.c **** 
1264:../../../lib/Middlewares/Third_Party/FatFs/src/ff.c **** 
1265:../../../lib/Middlewares/Third_Party/FatFs/src/ff.c **** 
1266:../../../lib/Middlewares/Third_Party/FatFs/src/ff.c **** #if !_FS_READONLY
1267:../../../lib/Middlewares/Third_Party/FatFs/src/ff.c **** /*-----------------------------------------------------------------------*/
1268:../../../lib/Middlewares/Third_Party/FatFs/src/ff.c **** /* FAT handling - Remove a cluster chain                                 */
1269:../../../lib/Middlewares/Third_Party/FatFs/src/ff.c **** /*-----------------------------------------------------------------------*/
1270:../../../lib/Middlewares/Third_Party/FatFs/src/ff.c **** static
1271:../../../lib/Middlewares/Third_Party/FatFs/src/ff.c **** FRESULT remove_chain (	/* FR_OK(0):succeeded, !=0:error */
1272:../../../lib/Middlewares/Third_Party/FatFs/src/ff.c **** 	_FDID* obj,			/* Corresponding object */
1273:../../../lib/Middlewares/Third_Party/FatFs/src/ff.c **** 	DWORD clst,			/* Cluster to remove a chain from */
1274:../../../lib/Middlewares/Third_Party/FatFs/src/ff.c **** 	DWORD pclst			/* Previous cluster of clst (0:an entire chain) */
1275:../../../lib/Middlewares/Third_Party/FatFs/src/ff.c **** )
1276:../../../lib/Middlewares/Third_Party/FatFs/src/ff.c **** {
1277:../../../lib/Middlewares/Third_Party/FatFs/src/ff.c **** 	FRESULT res = FR_OK;
1278:../../../lib/Middlewares/Third_Party/FatFs/src/ff.c **** 	DWORD nxt;
1279:../../../lib/Middlewares/Third_Party/FatFs/src/ff.c **** 	FATFS *fs = obj->fs;
1280:../../../lib/Middlewares/Third_Party/FatFs/src/ff.c **** #if _FS_EXFAT || _USE_TRIM
1281:../../../lib/Middlewares/Third_Party/FatFs/src/ff.c **** 	DWORD scl = clst, ecl = clst;
1282:../../../lib/Middlewares/Third_Party/FatFs/src/ff.c **** #endif
1283:../../../lib/Middlewares/Third_Party/FatFs/src/ff.c **** #if _USE_TRIM
1284:../../../lib/Middlewares/Third_Party/FatFs/src/ff.c **** 	DWORD rt[2];
1285:../../../lib/Middlewares/Third_Party/FatFs/src/ff.c **** #endif
1286:../../../lib/Middlewares/Third_Party/FatFs/src/ff.c **** 
1287:../../../lib/Middlewares/Third_Party/FatFs/src/ff.c **** 	if (clst < 2 || clst >= fs->n_fatent) return FR_INT_ERR;	/* Check if in valid range */
1288:../../../lib/Middlewares/Third_Party/FatFs/src/ff.c **** 
1289:../../../lib/Middlewares/Third_Party/FatFs/src/ff.c **** 	/* Mark the previous cluster 'EOC' on the FAT if it exists */
1290:../../../lib/Middlewares/Third_Party/FatFs/src/ff.c **** 	if (pclst && (!_FS_EXFAT || fs->fs_type != FS_EXFAT || obj->stat != 2)) {
1291:../../../lib/Middlewares/Third_Party/FatFs/src/ff.c **** 		res = put_fat(fs, pclst, 0xFFFFFFFF);
1292:../../../lib/Middlewares/Third_Party/FatFs/src/ff.c **** 		if (res != FR_OK) return res;
1293:../../../lib/Middlewares/Third_Party/FatFs/src/ff.c **** 	}
1294:../../../lib/Middlewares/Third_Party/FatFs/src/ff.c **** 
1295:../../../lib/Middlewares/Third_Party/FatFs/src/ff.c **** 	/* Remove the chain */
1296:../../../lib/Middlewares/Third_Party/FatFs/src/ff.c **** 	do {
1297:../../../lib/Middlewares/Third_Party/FatFs/src/ff.c **** 		nxt = get_fat(obj, clst);			/* Get cluster status */
1298:../../../lib/Middlewares/Third_Party/FatFs/src/ff.c **** 		if (nxt == 0) break;				/* Empty cluster? */
1299:../../../lib/Middlewares/Third_Party/FatFs/src/ff.c **** 		if (nxt == 1) return FR_INT_ERR;	/* Internal error? */
ARM GAS  /tmp/cco2ePoA.s 			page 41


1300:../../../lib/Middlewares/Third_Party/FatFs/src/ff.c **** 		if (nxt == 0xFFFFFFFF) return FR_DISK_ERR;	/* Disk error? */
1301:../../../lib/Middlewares/Third_Party/FatFs/src/ff.c **** 		if (!_FS_EXFAT || fs->fs_type != FS_EXFAT) {
1302:../../../lib/Middlewares/Third_Party/FatFs/src/ff.c **** 			res = put_fat(fs, clst, 0);		/* Mark the cluster 'free' on the FAT */
1303:../../../lib/Middlewares/Third_Party/FatFs/src/ff.c **** 			if (res != FR_OK) return res;
1304:../../../lib/Middlewares/Third_Party/FatFs/src/ff.c **** 		}
1305:../../../lib/Middlewares/Third_Party/FatFs/src/ff.c **** 		if (fs->free_clst < fs->n_fatent - 2) {	/* Update FSINFO */
1306:../../../lib/Middlewares/Third_Party/FatFs/src/ff.c **** 			fs->free_clst++;
1307:../../../lib/Middlewares/Third_Party/FatFs/src/ff.c **** 			fs->fsi_flag |= 1;
1308:../../../lib/Middlewares/Third_Party/FatFs/src/ff.c **** 		}
1309:../../../lib/Middlewares/Third_Party/FatFs/src/ff.c **** #if _FS_EXFAT || _USE_TRIM
1310:../../../lib/Middlewares/Third_Party/FatFs/src/ff.c **** 		if (ecl + 1 == nxt) {	/* Is next cluster contiguous? */
1311:../../../lib/Middlewares/Third_Party/FatFs/src/ff.c **** 			ecl = nxt;
1312:../../../lib/Middlewares/Third_Party/FatFs/src/ff.c **** 		} else {				/* End of contiguous cluster block */
1313:../../../lib/Middlewares/Third_Party/FatFs/src/ff.c **** #if _FS_EXFAT
1314:../../../lib/Middlewares/Third_Party/FatFs/src/ff.c **** 			if (fs->fs_type == FS_EXFAT) {
1315:../../../lib/Middlewares/Third_Party/FatFs/src/ff.c **** 				res = change_bitmap(fs, scl, ecl - scl + 1, 0);	/* Mark the cluster block 'free' on the bitmap 
1316:../../../lib/Middlewares/Third_Party/FatFs/src/ff.c **** 				if (res != FR_OK) return res;
1317:../../../lib/Middlewares/Third_Party/FatFs/src/ff.c **** 			}
1318:../../../lib/Middlewares/Third_Party/FatFs/src/ff.c **** #endif
1319:../../../lib/Middlewares/Third_Party/FatFs/src/ff.c **** #if _USE_TRIM
1320:../../../lib/Middlewares/Third_Party/FatFs/src/ff.c **** 			rt[0] = clust2sect(fs, scl);					/* Start sector */
1321:../../../lib/Middlewares/Third_Party/FatFs/src/ff.c **** 			rt[1] = clust2sect(fs, ecl) + fs->csize - 1;	/* End sector */
1322:../../../lib/Middlewares/Third_Party/FatFs/src/ff.c **** 			disk_ioctl(fs->drv, CTRL_TRIM, rt);				/* Inform device the block can be erased */
1323:../../../lib/Middlewares/Third_Party/FatFs/src/ff.c **** #endif
1324:../../../lib/Middlewares/Third_Party/FatFs/src/ff.c **** 			scl = ecl = nxt;
1325:../../../lib/Middlewares/Third_Party/FatFs/src/ff.c **** 		}
1326:../../../lib/Middlewares/Third_Party/FatFs/src/ff.c **** #endif
1327:../../../lib/Middlewares/Third_Party/FatFs/src/ff.c **** 		clst = nxt;					/* Next cluster */
1328:../../../lib/Middlewares/Third_Party/FatFs/src/ff.c **** 	} while (clst < fs->n_fatent);	/* Repeat while not the last link */
1329:../../../lib/Middlewares/Third_Party/FatFs/src/ff.c **** 
1330:../../../lib/Middlewares/Third_Party/FatFs/src/ff.c **** #if _FS_EXFAT
1331:../../../lib/Middlewares/Third_Party/FatFs/src/ff.c **** 	if (fs->fs_type == FS_EXFAT) {
1332:../../../lib/Middlewares/Third_Party/FatFs/src/ff.c **** 		if (pclst == 0) {	/* Does the object have no chain? */
1333:../../../lib/Middlewares/Third_Party/FatFs/src/ff.c **** 			obj->stat = 0;		/* Change the object status 'initial' */
1334:../../../lib/Middlewares/Third_Party/FatFs/src/ff.c **** 		} else {
1335:../../../lib/Middlewares/Third_Party/FatFs/src/ff.c **** 			if (obj->stat == 3 && pclst >= obj->sclust && pclst <= obj->sclust + obj->n_cont) {	/* Did the c
1336:../../../lib/Middlewares/Third_Party/FatFs/src/ff.c **** 				obj->stat = 2;	/* Change the object status 'contiguous' */
1337:../../../lib/Middlewares/Third_Party/FatFs/src/ff.c **** 			}
1338:../../../lib/Middlewares/Third_Party/FatFs/src/ff.c **** 		}
1339:../../../lib/Middlewares/Third_Party/FatFs/src/ff.c **** 	}
1340:../../../lib/Middlewares/Third_Party/FatFs/src/ff.c **** #endif
1341:../../../lib/Middlewares/Third_Party/FatFs/src/ff.c **** 	return FR_OK;
1342:../../../lib/Middlewares/Third_Party/FatFs/src/ff.c **** }
1343:../../../lib/Middlewares/Third_Party/FatFs/src/ff.c **** 
1344:../../../lib/Middlewares/Third_Party/FatFs/src/ff.c **** 
1345:../../../lib/Middlewares/Third_Party/FatFs/src/ff.c **** 
1346:../../../lib/Middlewares/Third_Party/FatFs/src/ff.c **** 
1347:../../../lib/Middlewares/Third_Party/FatFs/src/ff.c **** /*-----------------------------------------------------------------------*/
1348:../../../lib/Middlewares/Third_Party/FatFs/src/ff.c **** /* FAT handling - Stretch a chain or Create a new chain                  */
1349:../../../lib/Middlewares/Third_Party/FatFs/src/ff.c **** /*-----------------------------------------------------------------------*/
1350:../../../lib/Middlewares/Third_Party/FatFs/src/ff.c **** static
1351:../../../lib/Middlewares/Third_Party/FatFs/src/ff.c **** DWORD create_chain (	/* 0:No free cluster, 1:Internal error, 0xFFFFFFFF:Disk error, >=2:New cluster
1352:../../../lib/Middlewares/Third_Party/FatFs/src/ff.c **** 	_FDID* obj,			/* Corresponding object */
1353:../../../lib/Middlewares/Third_Party/FatFs/src/ff.c **** 	DWORD clst			/* Cluster# to stretch, 0:Create a new chain */
1354:../../../lib/Middlewares/Third_Party/FatFs/src/ff.c **** )
1355:../../../lib/Middlewares/Third_Party/FatFs/src/ff.c **** {
1356:../../../lib/Middlewares/Third_Party/FatFs/src/ff.c **** 	DWORD cs, ncl, scl;
ARM GAS  /tmp/cco2ePoA.s 			page 42


1357:../../../lib/Middlewares/Third_Party/FatFs/src/ff.c **** 	FRESULT res;
1358:../../../lib/Middlewares/Third_Party/FatFs/src/ff.c **** 	FATFS *fs = obj->fs;
1359:../../../lib/Middlewares/Third_Party/FatFs/src/ff.c **** 
1360:../../../lib/Middlewares/Third_Party/FatFs/src/ff.c **** 
1361:../../../lib/Middlewares/Third_Party/FatFs/src/ff.c **** 	if (clst == 0) {	/* Create a new chain */
1362:../../../lib/Middlewares/Third_Party/FatFs/src/ff.c **** 		scl = fs->last_clst;				/* Get suggested cluster to start from */
1363:../../../lib/Middlewares/Third_Party/FatFs/src/ff.c **** 		if (scl == 0 || scl >= fs->n_fatent) scl = 1;
1364:../../../lib/Middlewares/Third_Party/FatFs/src/ff.c **** 	}
1365:../../../lib/Middlewares/Third_Party/FatFs/src/ff.c **** 	else {				/* Stretch current chain */
1366:../../../lib/Middlewares/Third_Party/FatFs/src/ff.c **** 		cs = get_fat(obj, clst);			/* Check the cluster status */
1367:../../../lib/Middlewares/Third_Party/FatFs/src/ff.c **** 		if (cs < 2) return 1;				/* Invalid FAT value */
1368:../../../lib/Middlewares/Third_Party/FatFs/src/ff.c **** 		if (cs == 0xFFFFFFFF) return cs;	/* A disk error occurred */
1369:../../../lib/Middlewares/Third_Party/FatFs/src/ff.c **** 		if (cs < fs->n_fatent) return cs;	/* It is already followed by next cluster */
1370:../../../lib/Middlewares/Third_Party/FatFs/src/ff.c **** 		scl = clst;
1371:../../../lib/Middlewares/Third_Party/FatFs/src/ff.c **** 	}
1372:../../../lib/Middlewares/Third_Party/FatFs/src/ff.c **** 
1373:../../../lib/Middlewares/Third_Party/FatFs/src/ff.c **** #if _FS_EXFAT
1374:../../../lib/Middlewares/Third_Party/FatFs/src/ff.c **** 	if (fs->fs_type == FS_EXFAT) {	/* On the exFAT volume */
1375:../../../lib/Middlewares/Third_Party/FatFs/src/ff.c **** 		ncl = find_bitmap(fs, scl, 1);				/* Find a free cluster */
1376:../../../lib/Middlewares/Third_Party/FatFs/src/ff.c **** 		if (ncl == 0 || ncl == 0xFFFFFFFF) return ncl;	/* No free cluster or hard error? */
1377:../../../lib/Middlewares/Third_Party/FatFs/src/ff.c **** 		res = change_bitmap(fs, ncl, 1, 1);			/* Mark the cluster 'in use' */
1378:../../../lib/Middlewares/Third_Party/FatFs/src/ff.c **** 		if (res == FR_INT_ERR) return 1;
1379:../../../lib/Middlewares/Third_Party/FatFs/src/ff.c **** 		if (res == FR_DISK_ERR) return 0xFFFFFFFF;
1380:../../../lib/Middlewares/Third_Party/FatFs/src/ff.c **** 		if (clst == 0) {							/* Is it a new chain? */
1381:../../../lib/Middlewares/Third_Party/FatFs/src/ff.c **** 			obj->stat = 2;							/* Set status 'contiguous' */
1382:../../../lib/Middlewares/Third_Party/FatFs/src/ff.c **** 		} else {									/* It is a stretched chain */
1383:../../../lib/Middlewares/Third_Party/FatFs/src/ff.c **** 			if (obj->stat == 2 && ncl != scl + 1) {	/* Is the chain got fragmented? */
1384:../../../lib/Middlewares/Third_Party/FatFs/src/ff.c **** 				obj->n_cont = scl - obj->sclust;	/* Set size of the contiguous part */
1385:../../../lib/Middlewares/Third_Party/FatFs/src/ff.c **** 				obj->stat = 3;						/* Change status 'just fragmented' */
1386:../../../lib/Middlewares/Third_Party/FatFs/src/ff.c **** 			}
1387:../../../lib/Middlewares/Third_Party/FatFs/src/ff.c **** 		}
1388:../../../lib/Middlewares/Third_Party/FatFs/src/ff.c **** 		if (obj->stat != 2) {	/* Is the file non-contiguous? */
1389:../../../lib/Middlewares/Third_Party/FatFs/src/ff.c **** 			if (ncl == clst + 1) {	/* Is the cluster next to previous one? */
1390:../../../lib/Middlewares/Third_Party/FatFs/src/ff.c **** 				obj->n_frag = obj->n_frag ? obj->n_frag + 1 : 2;	/* Increment size of last framgent */
1391:../../../lib/Middlewares/Third_Party/FatFs/src/ff.c **** 			} else {				/* New fragment */
1392:../../../lib/Middlewares/Third_Party/FatFs/src/ff.c **** 				if (obj->n_frag == 0) obj->n_frag = 1;
1393:../../../lib/Middlewares/Third_Party/FatFs/src/ff.c **** 				res = fill_last_frag(obj, clst, ncl);	/* Fill last fragment on the FAT and link it to new one *
1394:../../../lib/Middlewares/Third_Party/FatFs/src/ff.c **** 				if (res == FR_OK) obj->n_frag = 1;
1395:../../../lib/Middlewares/Third_Party/FatFs/src/ff.c **** 			}
1396:../../../lib/Middlewares/Third_Party/FatFs/src/ff.c **** 		}
1397:../../../lib/Middlewares/Third_Party/FatFs/src/ff.c **** 	} else
1398:../../../lib/Middlewares/Third_Party/FatFs/src/ff.c **** #endif
1399:../../../lib/Middlewares/Third_Party/FatFs/src/ff.c **** 	{	/* On the FAT12/16/32 volume */
1400:../../../lib/Middlewares/Third_Party/FatFs/src/ff.c **** 		ncl = scl;	/* Start cluster */
1401:../../../lib/Middlewares/Third_Party/FatFs/src/ff.c **** 		for (;;) {
1402:../../../lib/Middlewares/Third_Party/FatFs/src/ff.c **** 			ncl++;							/* Next cluster */
1403:../../../lib/Middlewares/Third_Party/FatFs/src/ff.c **** 			if (ncl >= fs->n_fatent) {		/* Check wrap-around */
1404:../../../lib/Middlewares/Third_Party/FatFs/src/ff.c **** 				ncl = 2;
1405:../../../lib/Middlewares/Third_Party/FatFs/src/ff.c **** 				if (ncl > scl) return 0;	/* No free cluster */
1406:../../../lib/Middlewares/Third_Party/FatFs/src/ff.c **** 			}
1407:../../../lib/Middlewares/Third_Party/FatFs/src/ff.c **** 			cs = get_fat(obj, ncl);			/* Get the cluster status */
1408:../../../lib/Middlewares/Third_Party/FatFs/src/ff.c **** 			if (cs == 0) break;				/* Found a free cluster */
1409:../../../lib/Middlewares/Third_Party/FatFs/src/ff.c **** 			if (cs == 1 || cs == 0xFFFFFFFF) return cs;	/* An error occurred */
1410:../../../lib/Middlewares/Third_Party/FatFs/src/ff.c **** 			if (ncl == scl) return 0;		/* No free cluster */
1411:../../../lib/Middlewares/Third_Party/FatFs/src/ff.c **** 		}
1412:../../../lib/Middlewares/Third_Party/FatFs/src/ff.c **** 		res = put_fat(fs, ncl, 0xFFFFFFFF);	/* Mark the new cluster 'EOC' */
1413:../../../lib/Middlewares/Third_Party/FatFs/src/ff.c **** 		if (res == FR_OK && clst != 0) {
ARM GAS  /tmp/cco2ePoA.s 			page 43


1414:../../../lib/Middlewares/Third_Party/FatFs/src/ff.c **** 			res = put_fat(fs, clst, ncl);	/* Link it from the previous one if needed */
1415:../../../lib/Middlewares/Third_Party/FatFs/src/ff.c **** 		}
1416:../../../lib/Middlewares/Third_Party/FatFs/src/ff.c **** 	}
1417:../../../lib/Middlewares/Third_Party/FatFs/src/ff.c **** 
1418:../../../lib/Middlewares/Third_Party/FatFs/src/ff.c **** 	if (res == FR_OK) {			/* Update FSINFO if function succeeded. */
1419:../../../lib/Middlewares/Third_Party/FatFs/src/ff.c **** 		fs->last_clst = ncl;
1420:../../../lib/Middlewares/Third_Party/FatFs/src/ff.c **** 		if (fs->free_clst <= fs->n_fatent - 2) fs->free_clst--;
1421:../../../lib/Middlewares/Third_Party/FatFs/src/ff.c **** 		fs->fsi_flag |= 1;
1422:../../../lib/Middlewares/Third_Party/FatFs/src/ff.c **** 	} else {
1423:../../../lib/Middlewares/Third_Party/FatFs/src/ff.c **** 		ncl = (res == FR_DISK_ERR) ? 0xFFFFFFFF : 1;	/* Failed. Generate error status */
1424:../../../lib/Middlewares/Third_Party/FatFs/src/ff.c **** 	}
1425:../../../lib/Middlewares/Third_Party/FatFs/src/ff.c **** 
1426:../../../lib/Middlewares/Third_Party/FatFs/src/ff.c **** 	return ncl;		/* Return new cluster number or error status */
1427:../../../lib/Middlewares/Third_Party/FatFs/src/ff.c **** }
1428:../../../lib/Middlewares/Third_Party/FatFs/src/ff.c **** 
1429:../../../lib/Middlewares/Third_Party/FatFs/src/ff.c **** #endif /* !_FS_READONLY */
1430:../../../lib/Middlewares/Third_Party/FatFs/src/ff.c **** 
1431:../../../lib/Middlewares/Third_Party/FatFs/src/ff.c **** 
1432:../../../lib/Middlewares/Third_Party/FatFs/src/ff.c **** 
1433:../../../lib/Middlewares/Third_Party/FatFs/src/ff.c **** 
1434:../../../lib/Middlewares/Third_Party/FatFs/src/ff.c **** #if _USE_FASTSEEK
1435:../../../lib/Middlewares/Third_Party/FatFs/src/ff.c **** /*-----------------------------------------------------------------------*/
1436:../../../lib/Middlewares/Third_Party/FatFs/src/ff.c **** /* FAT handling - Convert offset into cluster with link map table        */
1437:../../../lib/Middlewares/Third_Party/FatFs/src/ff.c **** /*-----------------------------------------------------------------------*/
1438:../../../lib/Middlewares/Third_Party/FatFs/src/ff.c **** 
1439:../../../lib/Middlewares/Third_Party/FatFs/src/ff.c **** static
1440:../../../lib/Middlewares/Third_Party/FatFs/src/ff.c **** DWORD clmt_clust (	/* <2:Error, >=2:Cluster number */
1441:../../../lib/Middlewares/Third_Party/FatFs/src/ff.c **** 	FIL* fp,		/* Pointer to the file object */
1442:../../../lib/Middlewares/Third_Party/FatFs/src/ff.c **** 	FSIZE_t ofs		/* File offset to be converted to cluster# */
1443:../../../lib/Middlewares/Third_Party/FatFs/src/ff.c **** )
1444:../../../lib/Middlewares/Third_Party/FatFs/src/ff.c **** {
 947              		.loc 1 1444 1 is_stmt 1 view -0
 948              		.cfi_startproc
 949              		@ args = 0, pretend = 0, frame = 0
 950              		@ frame_needed = 0, uses_anonymous_args = 0
 951              		@ link register save eliminated.
1445:../../../lib/Middlewares/Third_Party/FatFs/src/ff.c **** 	DWORD cl, ncl, *tbl;
 952              		.loc 1 1445 2 view .LVU265
1446:../../../lib/Middlewares/Third_Party/FatFs/src/ff.c **** 	FATFS *fs = fp->obj.fs;
 953              		.loc 1 1446 2 view .LVU266
 954              		.loc 1 1446 9 is_stmt 0 view .LVU267
 955 0000 0268     		ldr	r2, [r0]
 956              	.LVL91:
1447:../../../lib/Middlewares/Third_Party/FatFs/src/ff.c **** 
1448:../../../lib/Middlewares/Third_Party/FatFs/src/ff.c **** 
1449:../../../lib/Middlewares/Third_Party/FatFs/src/ff.c **** 	tbl = fp->cltbl + 1;	/* Top of CLMT */
 957              		.loc 1 1449 2 is_stmt 1 view .LVU268
 958              		.loc 1 1449 10 is_stmt 0 view .LVU269
 959 0002 C36A     		ldr	r3, [r0, #44]
 960              		.loc 1 1449 6 view .LVU270
 961 0004 0433     		adds	r3, r3, #4
 962              	.LVL92:
1450:../../../lib/Middlewares/Third_Party/FatFs/src/ff.c **** 	cl = (DWORD)(ofs / SS(fs) / fs->csize);	/* Cluster order from top of the file */
 963              		.loc 1 1450 2 is_stmt 1 view .LVU271
 964              		.loc 1 1450 19 is_stmt 0 view .LVU272
 965 0006 490A     		lsrs	r1, r1, #9
 966              	.LVL93:
ARM GAS  /tmp/cco2ePoA.s 			page 44


 967              		.loc 1 1450 32 view .LVU273
 968 0008 5289     		ldrh	r2, [r2, #10]
 969              	.LVL94:
 970              		.loc 1 1450 5 view .LVU274
 971 000a B1FBF2F1 		udiv	r1, r1, r2
 972              	.LVL95:
 973              		.loc 1 1450 5 view .LVU275
 974 000e 01E0     		b	.L89
 975              	.LVL96:
 976              	.L90:
1451:../../../lib/Middlewares/Third_Party/FatFs/src/ff.c **** 	for (;;) {
1452:../../../lib/Middlewares/Third_Party/FatFs/src/ff.c **** 		ncl = *tbl++;			/* Number of cluters in the fragment */
1453:../../../lib/Middlewares/Third_Party/FatFs/src/ff.c **** 		if (ncl == 0) return 0;	/* End of table? (error) */
1454:../../../lib/Middlewares/Third_Party/FatFs/src/ff.c **** 		if (cl < ncl) break;	/* In this fragment? */
1455:../../../lib/Middlewares/Third_Party/FatFs/src/ff.c **** 		cl -= ncl; tbl++;		/* Next fragment */
 977              		.loc 1 1455 3 is_stmt 1 view .LVU276
 978              		.loc 1 1455 6 is_stmt 0 view .LVU277
 979 0010 091A     		subs	r1, r1, r0
 980              	.LVL97:
 981              		.loc 1 1455 14 is_stmt 1 view .LVU278
 982              		.loc 1 1455 17 is_stmt 0 view .LVU279
 983 0012 0833     		adds	r3, r3, #8
 984              	.LVL98:
1451:../../../lib/Middlewares/Third_Party/FatFs/src/ff.c **** 	for (;;) {
 985              		.loc 1 1451 2 is_stmt 1 view .LVU280
 986              	.L89:
1451:../../../lib/Middlewares/Third_Party/FatFs/src/ff.c **** 	for (;;) {
 987              		.loc 1 1451 2 view .LVU281
1452:../../../lib/Middlewares/Third_Party/FatFs/src/ff.c **** 		if (ncl == 0) return 0;	/* End of table? (error) */
 988              		.loc 1 1452 3 view .LVU282
1452:../../../lib/Middlewares/Third_Party/FatFs/src/ff.c **** 		if (ncl == 0) return 0;	/* End of table? (error) */
 989              		.loc 1 1452 7 is_stmt 0 view .LVU283
 990 0014 1868     		ldr	r0, [r3]
 991              	.LVL99:
1453:../../../lib/Middlewares/Third_Party/FatFs/src/ff.c **** 		if (cl < ncl) break;	/* In this fragment? */
 992              		.loc 1 1453 3 is_stmt 1 view .LVU284
1453:../../../lib/Middlewares/Third_Party/FatFs/src/ff.c **** 		if (cl < ncl) break;	/* In this fragment? */
 993              		.loc 1 1453 6 is_stmt 0 view .LVU285
 994 0016 18B1     		cbz	r0, .L86
1454:../../../lib/Middlewares/Third_Party/FatFs/src/ff.c **** 		cl -= ncl; tbl++;		/* Next fragment */
 995              		.loc 1 1454 3 is_stmt 1 view .LVU286
1454:../../../lib/Middlewares/Third_Party/FatFs/src/ff.c **** 		cl -= ncl; tbl++;		/* Next fragment */
 996              		.loc 1 1454 6 is_stmt 0 view .LVU287
 997 0018 8142     		cmp	r1, r0
 998 001a F9D2     		bcs	.L90
1456:../../../lib/Middlewares/Third_Party/FatFs/src/ff.c **** 	}
1457:../../../lib/Middlewares/Third_Party/FatFs/src/ff.c **** 	return cl + *tbl;	/* Return the cluster number */
 999              		.loc 1 1457 2 is_stmt 1 view .LVU288
 1000              		.loc 1 1457 14 is_stmt 0 view .LVU289
 1001 001c 5868     		ldr	r0, [r3, #4]
 1002              	.LVL100:
 1003              		.loc 1 1457 12 view .LVU290
 1004 001e 0844     		add	r0, r0, r1
 1005              	.L86:
1458:../../../lib/Middlewares/Third_Party/FatFs/src/ff.c **** }
 1006              		.loc 1 1458 1 view .LVU291
 1007 0020 7047     		bx	lr
ARM GAS  /tmp/cco2ePoA.s 			page 45


 1008              		.cfi_endproc
 1009              	.LFE165:
 1011              		.section	.text.ld_clust,"ax",%progbits
 1012              		.align	1
 1013              		.syntax unified
 1014              		.thumb
 1015              		.thumb_func
 1017              	ld_clust:
 1018              	.LVL101:
 1019              	.LFB169:
1459:../../../lib/Middlewares/Third_Party/FatFs/src/ff.c **** 
1460:../../../lib/Middlewares/Third_Party/FatFs/src/ff.c **** #endif	/* _USE_FASTSEEK */
1461:../../../lib/Middlewares/Third_Party/FatFs/src/ff.c **** 
1462:../../../lib/Middlewares/Third_Party/FatFs/src/ff.c **** 
1463:../../../lib/Middlewares/Third_Party/FatFs/src/ff.c **** 
1464:../../../lib/Middlewares/Third_Party/FatFs/src/ff.c **** 
1465:../../../lib/Middlewares/Third_Party/FatFs/src/ff.c **** /*-----------------------------------------------------------------------*/
1466:../../../lib/Middlewares/Third_Party/FatFs/src/ff.c **** /* Directory handling - Set directory index                              */
1467:../../../lib/Middlewares/Third_Party/FatFs/src/ff.c **** /*-----------------------------------------------------------------------*/
1468:../../../lib/Middlewares/Third_Party/FatFs/src/ff.c **** 
1469:../../../lib/Middlewares/Third_Party/FatFs/src/ff.c **** static
1470:../../../lib/Middlewares/Third_Party/FatFs/src/ff.c **** FRESULT dir_sdi (	/* FR_OK(0):succeeded, !=0:error */
1471:../../../lib/Middlewares/Third_Party/FatFs/src/ff.c **** 	DIR* dp,		/* Pointer to directory object */
1472:../../../lib/Middlewares/Third_Party/FatFs/src/ff.c **** 	DWORD ofs		/* Offset of directory table */
1473:../../../lib/Middlewares/Third_Party/FatFs/src/ff.c **** )
1474:../../../lib/Middlewares/Third_Party/FatFs/src/ff.c **** {
1475:../../../lib/Middlewares/Third_Party/FatFs/src/ff.c **** 	DWORD csz, clst;
1476:../../../lib/Middlewares/Third_Party/FatFs/src/ff.c **** 	FATFS *fs = dp->obj.fs;
1477:../../../lib/Middlewares/Third_Party/FatFs/src/ff.c **** 
1478:../../../lib/Middlewares/Third_Party/FatFs/src/ff.c **** 
1479:../../../lib/Middlewares/Third_Party/FatFs/src/ff.c **** 	if (ofs >= (DWORD)((_FS_EXFAT && fs->fs_type == FS_EXFAT) ? MAX_DIR_EX : MAX_DIR) || ofs % SZDIRE)
1480:../../../lib/Middlewares/Third_Party/FatFs/src/ff.c **** 		return FR_INT_ERR;
1481:../../../lib/Middlewares/Third_Party/FatFs/src/ff.c **** 	}
1482:../../../lib/Middlewares/Third_Party/FatFs/src/ff.c **** 	dp->dptr = ofs;				/* Set current offset */
1483:../../../lib/Middlewares/Third_Party/FatFs/src/ff.c **** 	clst = dp->obj.sclust;		/* Table start cluster (0:root) */
1484:../../../lib/Middlewares/Third_Party/FatFs/src/ff.c **** 	if (clst == 0 && fs->fs_type >= FS_FAT32) {	/* Replace cluster# 0 with root cluster# */
1485:../../../lib/Middlewares/Third_Party/FatFs/src/ff.c **** 		clst = fs->dirbase;
1486:../../../lib/Middlewares/Third_Party/FatFs/src/ff.c **** 		if (_FS_EXFAT) dp->obj.stat = 0;	/* exFAT: Root dir has an FAT chain */
1487:../../../lib/Middlewares/Third_Party/FatFs/src/ff.c **** 	}
1488:../../../lib/Middlewares/Third_Party/FatFs/src/ff.c **** 
1489:../../../lib/Middlewares/Third_Party/FatFs/src/ff.c **** 	if (clst == 0) {	/* Static table (root-directory in FAT12/16) */
1490:../../../lib/Middlewares/Third_Party/FatFs/src/ff.c **** 		if (ofs / SZDIRE >= fs->n_rootdir)	return FR_INT_ERR;	/* Is index out of range? */
1491:../../../lib/Middlewares/Third_Party/FatFs/src/ff.c **** 		dp->sect = fs->dirbase;
1492:../../../lib/Middlewares/Third_Party/FatFs/src/ff.c **** 
1493:../../../lib/Middlewares/Third_Party/FatFs/src/ff.c **** 	} else {			/* Dynamic table (sub-directory or root-directory in FAT32+) */
1494:../../../lib/Middlewares/Third_Party/FatFs/src/ff.c **** 		csz = (DWORD)fs->csize * SS(fs);	/* Bytes per cluster */
1495:../../../lib/Middlewares/Third_Party/FatFs/src/ff.c **** 		while (ofs >= csz) {				/* Follow cluster chain */
1496:../../../lib/Middlewares/Third_Party/FatFs/src/ff.c **** 			clst = get_fat(&dp->obj, clst);				/* Get next cluster */
1497:../../../lib/Middlewares/Third_Party/FatFs/src/ff.c **** 			if (clst == 0xFFFFFFFF) return FR_DISK_ERR;	/* Disk error */
1498:../../../lib/Middlewares/Third_Party/FatFs/src/ff.c **** 			if (clst < 2 || clst >= fs->n_fatent) return FR_INT_ERR;	/* Reached to end of table or internal 
1499:../../../lib/Middlewares/Third_Party/FatFs/src/ff.c **** 			ofs -= csz;
1500:../../../lib/Middlewares/Third_Party/FatFs/src/ff.c **** 		}
1501:../../../lib/Middlewares/Third_Party/FatFs/src/ff.c **** 		dp->sect = clust2sect(fs, clst);
1502:../../../lib/Middlewares/Third_Party/FatFs/src/ff.c **** 	}
1503:../../../lib/Middlewares/Third_Party/FatFs/src/ff.c **** 	dp->clust = clst;					/* Current cluster# */
1504:../../../lib/Middlewares/Third_Party/FatFs/src/ff.c **** 	if (!dp->sect) return FR_INT_ERR;
1505:../../../lib/Middlewares/Third_Party/FatFs/src/ff.c **** 	dp->sect += ofs / SS(fs);			/* Sector# of the directory entry */
ARM GAS  /tmp/cco2ePoA.s 			page 46


1506:../../../lib/Middlewares/Third_Party/FatFs/src/ff.c **** 	dp->dir = fs->win + (ofs % SS(fs));	/* Pointer to the entry in the win[] */
1507:../../../lib/Middlewares/Third_Party/FatFs/src/ff.c **** 
1508:../../../lib/Middlewares/Third_Party/FatFs/src/ff.c **** 	return FR_OK;
1509:../../../lib/Middlewares/Third_Party/FatFs/src/ff.c **** }
1510:../../../lib/Middlewares/Third_Party/FatFs/src/ff.c **** 
1511:../../../lib/Middlewares/Third_Party/FatFs/src/ff.c **** 
1512:../../../lib/Middlewares/Third_Party/FatFs/src/ff.c **** 
1513:../../../lib/Middlewares/Third_Party/FatFs/src/ff.c **** 
1514:../../../lib/Middlewares/Third_Party/FatFs/src/ff.c **** /*-----------------------------------------------------------------------*/
1515:../../../lib/Middlewares/Third_Party/FatFs/src/ff.c **** /* Directory handling - Move directory table index next                  */
1516:../../../lib/Middlewares/Third_Party/FatFs/src/ff.c **** /*-----------------------------------------------------------------------*/
1517:../../../lib/Middlewares/Third_Party/FatFs/src/ff.c **** 
1518:../../../lib/Middlewares/Third_Party/FatFs/src/ff.c **** static
1519:../../../lib/Middlewares/Third_Party/FatFs/src/ff.c **** FRESULT dir_next (	/* FR_OK(0):succeeded, FR_NO_FILE:End of table, FR_DENIED:Could not stretch */
1520:../../../lib/Middlewares/Third_Party/FatFs/src/ff.c **** 	DIR* dp,		/* Pointer to the directory object */
1521:../../../lib/Middlewares/Third_Party/FatFs/src/ff.c **** 	int stretch		/* 0: Do not stretch table, 1: Stretch table if needed */
1522:../../../lib/Middlewares/Third_Party/FatFs/src/ff.c **** )
1523:../../../lib/Middlewares/Third_Party/FatFs/src/ff.c **** {
1524:../../../lib/Middlewares/Third_Party/FatFs/src/ff.c **** 	DWORD ofs, clst;
1525:../../../lib/Middlewares/Third_Party/FatFs/src/ff.c **** 	FATFS *fs = dp->obj.fs;
1526:../../../lib/Middlewares/Third_Party/FatFs/src/ff.c **** #if !_FS_READONLY
1527:../../../lib/Middlewares/Third_Party/FatFs/src/ff.c **** 	UINT n;
1528:../../../lib/Middlewares/Third_Party/FatFs/src/ff.c **** #endif
1529:../../../lib/Middlewares/Third_Party/FatFs/src/ff.c **** 
1530:../../../lib/Middlewares/Third_Party/FatFs/src/ff.c **** 	ofs = dp->dptr + SZDIRE;	/* Next entry */
1531:../../../lib/Middlewares/Third_Party/FatFs/src/ff.c **** 	if (!dp->sect || ofs >= (DWORD)((_FS_EXFAT && fs->fs_type == FS_EXFAT) ? MAX_DIR_EX : MAX_DIR)) re
1532:../../../lib/Middlewares/Third_Party/FatFs/src/ff.c **** 
1533:../../../lib/Middlewares/Third_Party/FatFs/src/ff.c **** 	if (ofs % SS(fs) == 0) {	/* Sector changed? */
1534:../../../lib/Middlewares/Third_Party/FatFs/src/ff.c **** 		dp->sect++;				/* Next sector */
1535:../../../lib/Middlewares/Third_Party/FatFs/src/ff.c **** 
1536:../../../lib/Middlewares/Third_Party/FatFs/src/ff.c **** 		if (!dp->clust) {		/* Static table */
1537:../../../lib/Middlewares/Third_Party/FatFs/src/ff.c **** 			if (ofs / SZDIRE >= fs->n_rootdir) {	/* Report EOT if it reached end of static table */
1538:../../../lib/Middlewares/Third_Party/FatFs/src/ff.c **** 				dp->sect = 0; return FR_NO_FILE;
1539:../../../lib/Middlewares/Third_Party/FatFs/src/ff.c **** 			}
1540:../../../lib/Middlewares/Third_Party/FatFs/src/ff.c **** 		}
1541:../../../lib/Middlewares/Third_Party/FatFs/src/ff.c **** 		else {					/* Dynamic table */
1542:../../../lib/Middlewares/Third_Party/FatFs/src/ff.c **** 			if ((ofs / SS(fs) & (fs->csize - 1)) == 0) {		/* Cluster changed? */
1543:../../../lib/Middlewares/Third_Party/FatFs/src/ff.c **** 				clst = get_fat(&dp->obj, dp->clust);			/* Get next cluster */
1544:../../../lib/Middlewares/Third_Party/FatFs/src/ff.c **** 				if (clst <= 1) return FR_INT_ERR;				/* Internal error */
1545:../../../lib/Middlewares/Third_Party/FatFs/src/ff.c **** 				if (clst == 0xFFFFFFFF) return FR_DISK_ERR;		/* Disk error */
1546:../../../lib/Middlewares/Third_Party/FatFs/src/ff.c **** 				if (clst >= fs->n_fatent) {						/* Reached end of dynamic table */
1547:../../../lib/Middlewares/Third_Party/FatFs/src/ff.c **** #if !_FS_READONLY
1548:../../../lib/Middlewares/Third_Party/FatFs/src/ff.c **** 					if (!stretch) {								/* If no stretch, report EOT */
1549:../../../lib/Middlewares/Third_Party/FatFs/src/ff.c **** 						dp->sect = 0; return FR_NO_FILE;
1550:../../../lib/Middlewares/Third_Party/FatFs/src/ff.c **** 					}
1551:../../../lib/Middlewares/Third_Party/FatFs/src/ff.c **** 					clst = create_chain(&dp->obj, dp->clust);	/* Allocate a cluster */
1552:../../../lib/Middlewares/Third_Party/FatFs/src/ff.c **** 					if (clst == 0) return FR_DENIED;			/* No free cluster */
1553:../../../lib/Middlewares/Third_Party/FatFs/src/ff.c **** 					if (clst == 1) return FR_INT_ERR;			/* Internal error */
1554:../../../lib/Middlewares/Third_Party/FatFs/src/ff.c **** 					if (clst == 0xFFFFFFFF) return FR_DISK_ERR;	/* Disk error */
1555:../../../lib/Middlewares/Third_Party/FatFs/src/ff.c **** 					/* Clean-up the stretched table */
1556:../../../lib/Middlewares/Third_Party/FatFs/src/ff.c **** 					if (_FS_EXFAT) dp->obj.stat |= 4;			/* The directory needs to be updated */
1557:../../../lib/Middlewares/Third_Party/FatFs/src/ff.c **** 					if (sync_window(fs) != FR_OK) return FR_DISK_ERR;	/* Flush disk access window */
1558:../../../lib/Middlewares/Third_Party/FatFs/src/ff.c **** 					mem_set(fs->win, 0, SS(fs));				/* Clear window buffer */
1559:../../../lib/Middlewares/Third_Party/FatFs/src/ff.c **** 					for (n = 0, fs->winsect = clust2sect(fs, clst); n < fs->csize; n++, fs->winsect++) {	/* Fill t
1560:../../../lib/Middlewares/Third_Party/FatFs/src/ff.c **** 						fs->wflag = 1;
1561:../../../lib/Middlewares/Third_Party/FatFs/src/ff.c **** 						if (sync_window(fs) != FR_OK) return FR_DISK_ERR;
1562:../../../lib/Middlewares/Third_Party/FatFs/src/ff.c **** 					}
ARM GAS  /tmp/cco2ePoA.s 			page 47


1563:../../../lib/Middlewares/Third_Party/FatFs/src/ff.c **** 					fs->winsect -= n;							/* Restore window offset */
1564:../../../lib/Middlewares/Third_Party/FatFs/src/ff.c **** #else
1565:../../../lib/Middlewares/Third_Party/FatFs/src/ff.c **** 					if (!stretch) dp->sect = 0;					/* (this line is to suppress compiler warning) */
1566:../../../lib/Middlewares/Third_Party/FatFs/src/ff.c **** 					dp->sect = 0; return FR_NO_FILE;			/* Report EOT */
1567:../../../lib/Middlewares/Third_Party/FatFs/src/ff.c **** #endif
1568:../../../lib/Middlewares/Third_Party/FatFs/src/ff.c **** 				}
1569:../../../lib/Middlewares/Third_Party/FatFs/src/ff.c **** 				dp->clust = clst;		/* Initialize data for new cluster */
1570:../../../lib/Middlewares/Third_Party/FatFs/src/ff.c **** 				dp->sect = clust2sect(fs, clst);
1571:../../../lib/Middlewares/Third_Party/FatFs/src/ff.c **** 			}
1572:../../../lib/Middlewares/Third_Party/FatFs/src/ff.c **** 		}
1573:../../../lib/Middlewares/Third_Party/FatFs/src/ff.c **** 	}
1574:../../../lib/Middlewares/Third_Party/FatFs/src/ff.c **** 	dp->dptr = ofs;						/* Current entry */
1575:../../../lib/Middlewares/Third_Party/FatFs/src/ff.c **** 	dp->dir = fs->win + ofs % SS(fs);	/* Pointer to the entry in the win[] */
1576:../../../lib/Middlewares/Third_Party/FatFs/src/ff.c **** 
1577:../../../lib/Middlewares/Third_Party/FatFs/src/ff.c **** 	return FR_OK;
1578:../../../lib/Middlewares/Third_Party/FatFs/src/ff.c **** }
1579:../../../lib/Middlewares/Third_Party/FatFs/src/ff.c **** 
1580:../../../lib/Middlewares/Third_Party/FatFs/src/ff.c **** 
1581:../../../lib/Middlewares/Third_Party/FatFs/src/ff.c **** 
1582:../../../lib/Middlewares/Third_Party/FatFs/src/ff.c **** 
1583:../../../lib/Middlewares/Third_Party/FatFs/src/ff.c **** #if !_FS_READONLY
1584:../../../lib/Middlewares/Third_Party/FatFs/src/ff.c **** /*-----------------------------------------------------------------------*/
1585:../../../lib/Middlewares/Third_Party/FatFs/src/ff.c **** /* Directory handling - Reserve a block of directory entries             */
1586:../../../lib/Middlewares/Third_Party/FatFs/src/ff.c **** /*-----------------------------------------------------------------------*/
1587:../../../lib/Middlewares/Third_Party/FatFs/src/ff.c **** 
1588:../../../lib/Middlewares/Third_Party/FatFs/src/ff.c **** static
1589:../../../lib/Middlewares/Third_Party/FatFs/src/ff.c **** FRESULT dir_alloc (	/* FR_OK(0):succeeded, !=0:error */
1590:../../../lib/Middlewares/Third_Party/FatFs/src/ff.c **** 	DIR* dp,		/* Pointer to the directory object */
1591:../../../lib/Middlewares/Third_Party/FatFs/src/ff.c **** 	UINT nent		/* Number of contiguous entries to allocate */
1592:../../../lib/Middlewares/Third_Party/FatFs/src/ff.c **** )
1593:../../../lib/Middlewares/Third_Party/FatFs/src/ff.c **** {
1594:../../../lib/Middlewares/Third_Party/FatFs/src/ff.c **** 	FRESULT res;
1595:../../../lib/Middlewares/Third_Party/FatFs/src/ff.c **** 	UINT n;
1596:../../../lib/Middlewares/Third_Party/FatFs/src/ff.c **** 	FATFS *fs = dp->obj.fs;
1597:../../../lib/Middlewares/Third_Party/FatFs/src/ff.c **** 
1598:../../../lib/Middlewares/Third_Party/FatFs/src/ff.c **** 
1599:../../../lib/Middlewares/Third_Party/FatFs/src/ff.c **** 	res = dir_sdi(dp, 0);
1600:../../../lib/Middlewares/Third_Party/FatFs/src/ff.c **** 	if (res == FR_OK) {
1601:../../../lib/Middlewares/Third_Party/FatFs/src/ff.c **** 		n = 0;
1602:../../../lib/Middlewares/Third_Party/FatFs/src/ff.c **** 		do {
1603:../../../lib/Middlewares/Third_Party/FatFs/src/ff.c **** 			res = move_window(fs, dp->sect);
1604:../../../lib/Middlewares/Third_Party/FatFs/src/ff.c **** 			if (res != FR_OK) break;
1605:../../../lib/Middlewares/Third_Party/FatFs/src/ff.c **** #if _FS_EXFAT
1606:../../../lib/Middlewares/Third_Party/FatFs/src/ff.c **** 			if ((fs->fs_type == FS_EXFAT) ? (int)((dp->dir[XDIR_Type] & 0x80) == 0) : (int)(dp->dir[DIR_Name
1607:../../../lib/Middlewares/Third_Party/FatFs/src/ff.c **** #else
1608:../../../lib/Middlewares/Third_Party/FatFs/src/ff.c **** 			if (dp->dir[DIR_Name] == DDEM || dp->dir[DIR_Name] == 0) {
1609:../../../lib/Middlewares/Third_Party/FatFs/src/ff.c **** #endif
1610:../../../lib/Middlewares/Third_Party/FatFs/src/ff.c **** 				if (++n == nent) break;	/* A block of contiguous free entries is found */
1611:../../../lib/Middlewares/Third_Party/FatFs/src/ff.c **** 			} else {
1612:../../../lib/Middlewares/Third_Party/FatFs/src/ff.c **** 				n = 0;					/* Not a blank entry. Restart to search */
1613:../../../lib/Middlewares/Third_Party/FatFs/src/ff.c **** 			}
1614:../../../lib/Middlewares/Third_Party/FatFs/src/ff.c **** 			res = dir_next(dp, 1);
1615:../../../lib/Middlewares/Third_Party/FatFs/src/ff.c **** 		} while (res == FR_OK);	/* Next entry with table stretch enabled */
1616:../../../lib/Middlewares/Third_Party/FatFs/src/ff.c **** 	}
1617:../../../lib/Middlewares/Third_Party/FatFs/src/ff.c **** 
1618:../../../lib/Middlewares/Third_Party/FatFs/src/ff.c **** 	if (res == FR_NO_FILE) res = FR_DENIED;	/* No directory entry to allocate */
1619:../../../lib/Middlewares/Third_Party/FatFs/src/ff.c **** 	return res;
ARM GAS  /tmp/cco2ePoA.s 			page 48


1620:../../../lib/Middlewares/Third_Party/FatFs/src/ff.c **** }
1621:../../../lib/Middlewares/Third_Party/FatFs/src/ff.c **** 
1622:../../../lib/Middlewares/Third_Party/FatFs/src/ff.c **** #endif	/* !_FS_READONLY */
1623:../../../lib/Middlewares/Third_Party/FatFs/src/ff.c **** 
1624:../../../lib/Middlewares/Third_Party/FatFs/src/ff.c **** 
1625:../../../lib/Middlewares/Third_Party/FatFs/src/ff.c **** 
1626:../../../lib/Middlewares/Third_Party/FatFs/src/ff.c **** 
1627:../../../lib/Middlewares/Third_Party/FatFs/src/ff.c **** /*-----------------------------------------------------------------------*/
1628:../../../lib/Middlewares/Third_Party/FatFs/src/ff.c **** /* FAT: Directory handling - Load/Store start cluster number             */
1629:../../../lib/Middlewares/Third_Party/FatFs/src/ff.c **** /*-----------------------------------------------------------------------*/
1630:../../../lib/Middlewares/Third_Party/FatFs/src/ff.c **** 
1631:../../../lib/Middlewares/Third_Party/FatFs/src/ff.c **** static
1632:../../../lib/Middlewares/Third_Party/FatFs/src/ff.c **** DWORD ld_clust (	/* Returns the top cluster value of the SFN entry */
1633:../../../lib/Middlewares/Third_Party/FatFs/src/ff.c **** 	FATFS* fs,		/* Pointer to the fs object */
1634:../../../lib/Middlewares/Third_Party/FatFs/src/ff.c **** 	const BYTE* dir	/* Pointer to the key entry */
1635:../../../lib/Middlewares/Third_Party/FatFs/src/ff.c **** )
1636:../../../lib/Middlewares/Third_Party/FatFs/src/ff.c **** {
 1020              		.loc 1 1636 1 is_stmt 1 view -0
 1021              		.cfi_startproc
 1022              		@ args = 0, pretend = 0, frame = 0
 1023              		@ frame_needed = 0, uses_anonymous_args = 0
 1024              		.loc 1 1636 1 is_stmt 0 view .LVU293
 1025 0000 70B5     		push	{r4, r5, r6, lr}
 1026              	.LCFI10:
 1027              		.cfi_def_cfa_offset 16
 1028              		.cfi_offset 4, -16
 1029              		.cfi_offset 5, -12
 1030              		.cfi_offset 6, -8
 1031              		.cfi_offset 14, -4
 1032 0002 0646     		mov	r6, r0
 1033 0004 0D46     		mov	r5, r1
1637:../../../lib/Middlewares/Third_Party/FatFs/src/ff.c **** 	DWORD cl;
 1034              		.loc 1 1637 2 is_stmt 1 view .LVU294
1638:../../../lib/Middlewares/Third_Party/FatFs/src/ff.c **** 
1639:../../../lib/Middlewares/Third_Party/FatFs/src/ff.c **** 	cl = ld_word(dir + DIR_FstClusLO);
 1035              		.loc 1 1639 2 view .LVU295
 1036              		.loc 1 1639 7 is_stmt 0 view .LVU296
 1037 0006 01F11A00 		add	r0, r1, #26
 1038              	.LVL102:
 1039              		.loc 1 1639 7 view .LVU297
 1040 000a FFF7FEFF 		bl	ld_word
 1041              	.LVL103:
1640:../../../lib/Middlewares/Third_Party/FatFs/src/ff.c **** 	if (fs->fs_type == FS_FAT32) {
 1042              		.loc 1 1640 2 is_stmt 1 view .LVU298
 1043              		.loc 1 1640 8 is_stmt 0 view .LVU299
 1044 000e 3378     		ldrb	r3, [r6]	@ zero_extendqisi2
 1045              		.loc 1 1640 5 view .LVU300
 1046 0010 032B     		cmp	r3, #3
 1047 0012 00D0     		beq	.L94
 1048              	.LVL104:
 1049              	.L91:
1641:../../../lib/Middlewares/Third_Party/FatFs/src/ff.c **** 		cl |= (DWORD)ld_word(dir + DIR_FstClusHI) << 16;
1642:../../../lib/Middlewares/Third_Party/FatFs/src/ff.c **** 	}
1643:../../../lib/Middlewares/Third_Party/FatFs/src/ff.c **** 
1644:../../../lib/Middlewares/Third_Party/FatFs/src/ff.c **** 	return cl;
1645:../../../lib/Middlewares/Third_Party/FatFs/src/ff.c **** }
 1050              		.loc 1 1645 1 view .LVU301
ARM GAS  /tmp/cco2ePoA.s 			page 49


 1051 0014 70BD     		pop	{r4, r5, r6, pc}
 1052              	.LVL105:
 1053              	.L94:
 1054              		.loc 1 1645 1 view .LVU302
 1055 0016 0446     		mov	r4, r0
1641:../../../lib/Middlewares/Third_Party/FatFs/src/ff.c **** 		cl |= (DWORD)ld_word(dir + DIR_FstClusHI) << 16;
 1056              		.loc 1 1641 3 is_stmt 1 view .LVU303
1641:../../../lib/Middlewares/Third_Party/FatFs/src/ff.c **** 		cl |= (DWORD)ld_word(dir + DIR_FstClusHI) << 16;
 1057              		.loc 1 1641 16 is_stmt 0 view .LVU304
 1058 0018 05F11400 		add	r0, r5, #20
 1059              	.LVL106:
1641:../../../lib/Middlewares/Third_Party/FatFs/src/ff.c **** 		cl |= (DWORD)ld_word(dir + DIR_FstClusHI) << 16;
 1060              		.loc 1 1641 16 view .LVU305
 1061 001c FFF7FEFF 		bl	ld_word
 1062              	.LVL107:
1641:../../../lib/Middlewares/Third_Party/FatFs/src/ff.c **** 		cl |= (DWORD)ld_word(dir + DIR_FstClusHI) << 16;
 1063              		.loc 1 1641 6 view .LVU306
 1064 0020 44EA0040 		orr	r0, r4, r0, lsl #16
 1065              	.LVL108:
1644:../../../lib/Middlewares/Third_Party/FatFs/src/ff.c **** }
 1066              		.loc 1 1644 2 is_stmt 1 view .LVU307
1644:../../../lib/Middlewares/Third_Party/FatFs/src/ff.c **** }
 1067              		.loc 1 1644 9 is_stmt 0 view .LVU308
 1068 0024 F6E7     		b	.L91
 1069              		.cfi_endproc
 1070              	.LFE169:
 1072              		.section	.text.st_clust,"ax",%progbits
 1073              		.align	1
 1074              		.syntax unified
 1075              		.thumb
 1076              		.thumb_func
 1078              	st_clust:
 1079              	.LVL109:
 1080              	.LFB170:
1646:../../../lib/Middlewares/Third_Party/FatFs/src/ff.c **** 
1647:../../../lib/Middlewares/Third_Party/FatFs/src/ff.c **** 
1648:../../../lib/Middlewares/Third_Party/FatFs/src/ff.c **** #if !_FS_READONLY
1649:../../../lib/Middlewares/Third_Party/FatFs/src/ff.c **** static
1650:../../../lib/Middlewares/Third_Party/FatFs/src/ff.c **** void st_clust (
1651:../../../lib/Middlewares/Third_Party/FatFs/src/ff.c **** 	FATFS* fs,	/* Pointer to the fs object */
1652:../../../lib/Middlewares/Third_Party/FatFs/src/ff.c **** 	BYTE* dir,	/* Pointer to the key entry */
1653:../../../lib/Middlewares/Third_Party/FatFs/src/ff.c **** 	DWORD cl	/* Value to be set */
1654:../../../lib/Middlewares/Third_Party/FatFs/src/ff.c **** )
1655:../../../lib/Middlewares/Third_Party/FatFs/src/ff.c **** {
 1081              		.loc 1 1655 1 is_stmt 1 view -0
 1082              		.cfi_startproc
 1083              		@ args = 0, pretend = 0, frame = 0
 1084              		@ frame_needed = 0, uses_anonymous_args = 0
 1085              		.loc 1 1655 1 is_stmt 0 view .LVU310
 1086 0000 70B5     		push	{r4, r5, r6, lr}
 1087              	.LCFI11:
 1088              		.cfi_def_cfa_offset 16
 1089              		.cfi_offset 4, -16
 1090              		.cfi_offset 5, -12
 1091              		.cfi_offset 6, -8
 1092              		.cfi_offset 14, -4
 1093 0002 0646     		mov	r6, r0
ARM GAS  /tmp/cco2ePoA.s 			page 50


 1094 0004 0C46     		mov	r4, r1
 1095 0006 1546     		mov	r5, r2
1656:../../../lib/Middlewares/Third_Party/FatFs/src/ff.c **** 	st_word(dir + DIR_FstClusLO, (WORD)cl);
 1096              		.loc 1 1656 2 is_stmt 1 view .LVU311
 1097 0008 91B2     		uxth	r1, r2
 1098              	.LVL110:
 1099              		.loc 1 1656 2 is_stmt 0 view .LVU312
 1100 000a 04F11A00 		add	r0, r4, #26
 1101              	.LVL111:
 1102              		.loc 1 1656 2 view .LVU313
 1103 000e FFF7FEFF 		bl	st_word
 1104              	.LVL112:
1657:../../../lib/Middlewares/Third_Party/FatFs/src/ff.c **** 	if (fs->fs_type == FS_FAT32) {
 1105              		.loc 1 1657 2 is_stmt 1 view .LVU314
 1106              		.loc 1 1657 8 is_stmt 0 view .LVU315
 1107 0012 3378     		ldrb	r3, [r6]	@ zero_extendqisi2
 1108              		.loc 1 1657 5 view .LVU316
 1109 0014 032B     		cmp	r3, #3
 1110 0016 00D0     		beq	.L98
 1111              	.L95:
1658:../../../lib/Middlewares/Third_Party/FatFs/src/ff.c **** 		st_word(dir + DIR_FstClusHI, (WORD)(cl >> 16));
1659:../../../lib/Middlewares/Third_Party/FatFs/src/ff.c **** 	}
1660:../../../lib/Middlewares/Third_Party/FatFs/src/ff.c **** }
 1112              		.loc 1 1660 1 view .LVU317
 1113 0018 70BD     		pop	{r4, r5, r6, pc}
 1114              	.LVL113:
 1115              	.L98:
1658:../../../lib/Middlewares/Third_Party/FatFs/src/ff.c **** 		st_word(dir + DIR_FstClusHI, (WORD)(cl >> 16));
 1116              		.loc 1 1658 3 is_stmt 1 view .LVU318
 1117 001a 290C     		lsrs	r1, r5, #16
 1118 001c 04F11400 		add	r0, r4, #20
 1119 0020 FFF7FEFF 		bl	st_word
 1120              	.LVL114:
 1121              		.loc 1 1660 1 is_stmt 0 view .LVU319
 1122 0024 F8E7     		b	.L95
 1123              		.cfi_endproc
 1124              	.LFE170:
 1126              		.section	.text.get_fileinfo,"ax",%progbits
 1127              		.align	1
 1128              		.syntax unified
 1129              		.thumb
 1130              		.thumb_func
 1132              	get_fileinfo:
 1133              	.LVL115:
 1134              	.LFB175:
1661:../../../lib/Middlewares/Third_Party/FatFs/src/ff.c **** #endif
1662:../../../lib/Middlewares/Third_Party/FatFs/src/ff.c **** 
1663:../../../lib/Middlewares/Third_Party/FatFs/src/ff.c **** 
1664:../../../lib/Middlewares/Third_Party/FatFs/src/ff.c **** 
1665:../../../lib/Middlewares/Third_Party/FatFs/src/ff.c **** #if _USE_LFN != 0
1666:../../../lib/Middlewares/Third_Party/FatFs/src/ff.c **** /*------------------------------------------------------------------------*/
1667:../../../lib/Middlewares/Third_Party/FatFs/src/ff.c **** /* FAT-LFN: LFN handling                                                  */
1668:../../../lib/Middlewares/Third_Party/FatFs/src/ff.c **** /*------------------------------------------------------------------------*/
1669:../../../lib/Middlewares/Third_Party/FatFs/src/ff.c **** static
1670:../../../lib/Middlewares/Third_Party/FatFs/src/ff.c **** const BYTE LfnOfs[] = {1,3,5,7,9,14,16,18,20,22,24,28,30};	/* Offset of LFN characters in the direc
1671:../../../lib/Middlewares/Third_Party/FatFs/src/ff.c **** 
1672:../../../lib/Middlewares/Third_Party/FatFs/src/ff.c **** 
ARM GAS  /tmp/cco2ePoA.s 			page 51


1673:../../../lib/Middlewares/Third_Party/FatFs/src/ff.c **** /*--------------------------------------------------------*/
1674:../../../lib/Middlewares/Third_Party/FatFs/src/ff.c **** /* FAT-LFN: Compare a part of file name with an LFN entry */
1675:../../../lib/Middlewares/Third_Party/FatFs/src/ff.c **** /*--------------------------------------------------------*/
1676:../../../lib/Middlewares/Third_Party/FatFs/src/ff.c **** static
1677:../../../lib/Middlewares/Third_Party/FatFs/src/ff.c **** int cmp_lfn (				/* 1:matched, 0:not matched */
1678:../../../lib/Middlewares/Third_Party/FatFs/src/ff.c **** 	const WCHAR* lfnbuf,	/* Pointer to the LFN working buffer to be compared */
1679:../../../lib/Middlewares/Third_Party/FatFs/src/ff.c **** 	BYTE* dir				/* Pointer to the directory entry containing the part of LFN */
1680:../../../lib/Middlewares/Third_Party/FatFs/src/ff.c **** )
1681:../../../lib/Middlewares/Third_Party/FatFs/src/ff.c **** {
1682:../../../lib/Middlewares/Third_Party/FatFs/src/ff.c **** 	UINT i, s;
1683:../../../lib/Middlewares/Third_Party/FatFs/src/ff.c **** 	WCHAR wc, uc;
1684:../../../lib/Middlewares/Third_Party/FatFs/src/ff.c **** 
1685:../../../lib/Middlewares/Third_Party/FatFs/src/ff.c **** 
1686:../../../lib/Middlewares/Third_Party/FatFs/src/ff.c **** 	if (ld_word(dir + LDIR_FstClusLO) != 0) return 0;	/* Check LDIR_FstClusLO */
1687:../../../lib/Middlewares/Third_Party/FatFs/src/ff.c **** 
1688:../../../lib/Middlewares/Third_Party/FatFs/src/ff.c **** 	i = ((dir[LDIR_Ord] & 0x3F) - 1) * 13;	/* Offset in the LFN buffer */
1689:../../../lib/Middlewares/Third_Party/FatFs/src/ff.c **** 
1690:../../../lib/Middlewares/Third_Party/FatFs/src/ff.c **** 	for (wc = 1, s = 0; s < 13; s++) {		/* Process all characters in the entry */
1691:../../../lib/Middlewares/Third_Party/FatFs/src/ff.c **** 		uc = ld_word(dir + LfnOfs[s]);		/* Pick an LFN character */
1692:../../../lib/Middlewares/Third_Party/FatFs/src/ff.c **** 		if (wc) {
1693:../../../lib/Middlewares/Third_Party/FatFs/src/ff.c **** 			if (i >= _MAX_LFN || ff_wtoupper(uc) != ff_wtoupper(lfnbuf[i++])) {	/* Compare it */
1694:../../../lib/Middlewares/Third_Party/FatFs/src/ff.c **** 				return 0;					/* Not matched */
1695:../../../lib/Middlewares/Third_Party/FatFs/src/ff.c **** 			}
1696:../../../lib/Middlewares/Third_Party/FatFs/src/ff.c **** 			wc = uc;
1697:../../../lib/Middlewares/Third_Party/FatFs/src/ff.c **** 		} else {
1698:../../../lib/Middlewares/Third_Party/FatFs/src/ff.c **** 			if (uc != 0xFFFF) return 0;		/* Check filler */
1699:../../../lib/Middlewares/Third_Party/FatFs/src/ff.c **** 		}
1700:../../../lib/Middlewares/Third_Party/FatFs/src/ff.c **** 	}
1701:../../../lib/Middlewares/Third_Party/FatFs/src/ff.c **** 
1702:../../../lib/Middlewares/Third_Party/FatFs/src/ff.c **** 	if ((dir[LDIR_Ord] & LLEF) && wc && lfnbuf[i]) return 0;	/* Last segment matched but different len
1703:../../../lib/Middlewares/Third_Party/FatFs/src/ff.c **** 
1704:../../../lib/Middlewares/Third_Party/FatFs/src/ff.c **** 	return 1;		/* The part of LFN matched */
1705:../../../lib/Middlewares/Third_Party/FatFs/src/ff.c **** }
1706:../../../lib/Middlewares/Third_Party/FatFs/src/ff.c **** 
1707:../../../lib/Middlewares/Third_Party/FatFs/src/ff.c **** 
1708:../../../lib/Middlewares/Third_Party/FatFs/src/ff.c **** #if _FS_MINIMIZE <= 1 || _FS_RPATH >= 2 || _USE_LABEL || _FS_EXFAT
1709:../../../lib/Middlewares/Third_Party/FatFs/src/ff.c **** /*-----------------------------------------------------*/
1710:../../../lib/Middlewares/Third_Party/FatFs/src/ff.c **** /* FAT-LFN: Pick a part of file name from an LFN entry */
1711:../../../lib/Middlewares/Third_Party/FatFs/src/ff.c **** /*-----------------------------------------------------*/
1712:../../../lib/Middlewares/Third_Party/FatFs/src/ff.c **** static
1713:../../../lib/Middlewares/Third_Party/FatFs/src/ff.c **** int pick_lfn (			/* 1:succeeded, 0:buffer overflow or invalid LFN entry */
1714:../../../lib/Middlewares/Third_Party/FatFs/src/ff.c **** 	WCHAR* lfnbuf,		/* Pointer to the LFN working buffer */
1715:../../../lib/Middlewares/Third_Party/FatFs/src/ff.c **** 	BYTE* dir			/* Pointer to the LFN entry */
1716:../../../lib/Middlewares/Third_Party/FatFs/src/ff.c **** )
1717:../../../lib/Middlewares/Third_Party/FatFs/src/ff.c **** {
1718:../../../lib/Middlewares/Third_Party/FatFs/src/ff.c **** 	UINT i, s;
1719:../../../lib/Middlewares/Third_Party/FatFs/src/ff.c **** 	WCHAR wc, uc;
1720:../../../lib/Middlewares/Third_Party/FatFs/src/ff.c **** 
1721:../../../lib/Middlewares/Third_Party/FatFs/src/ff.c **** 
1722:../../../lib/Middlewares/Third_Party/FatFs/src/ff.c **** 	if (ld_word(dir + LDIR_FstClusLO) != 0) return 0;	/* Check LDIR_FstClusLO is 0 */
1723:../../../lib/Middlewares/Third_Party/FatFs/src/ff.c **** 
1724:../../../lib/Middlewares/Third_Party/FatFs/src/ff.c **** 	i = ((dir[LDIR_Ord] & ~LLEF) - 1) * 13;	/* Offset in the LFN buffer */
1725:../../../lib/Middlewares/Third_Party/FatFs/src/ff.c **** 
1726:../../../lib/Middlewares/Third_Party/FatFs/src/ff.c **** 	for (wc = 1, s = 0; s < 13; s++) {		/* Process all characters in the entry */
1727:../../../lib/Middlewares/Third_Party/FatFs/src/ff.c **** 		uc = ld_word(dir + LfnOfs[s]);		/* Pick an LFN character */
1728:../../../lib/Middlewares/Third_Party/FatFs/src/ff.c **** 		if (wc) {
1729:../../../lib/Middlewares/Third_Party/FatFs/src/ff.c **** 			if (i >= _MAX_LFN) return 0;	/* Buffer overflow? */
ARM GAS  /tmp/cco2ePoA.s 			page 52


1730:../../../lib/Middlewares/Third_Party/FatFs/src/ff.c **** 			lfnbuf[i++] = wc = uc;			/* Store it */
1731:../../../lib/Middlewares/Third_Party/FatFs/src/ff.c **** 		} else {
1732:../../../lib/Middlewares/Third_Party/FatFs/src/ff.c **** 			if (uc != 0xFFFF) return 0;		/* Check filler */
1733:../../../lib/Middlewares/Third_Party/FatFs/src/ff.c **** 		}
1734:../../../lib/Middlewares/Third_Party/FatFs/src/ff.c **** 	}
1735:../../../lib/Middlewares/Third_Party/FatFs/src/ff.c **** 
1736:../../../lib/Middlewares/Third_Party/FatFs/src/ff.c **** 	if (dir[LDIR_Ord] & LLEF) {				/* Put terminator if it is the last LFN part */
1737:../../../lib/Middlewares/Third_Party/FatFs/src/ff.c **** 		if (i >= _MAX_LFN) return 0;		/* Buffer overflow? */
1738:../../../lib/Middlewares/Third_Party/FatFs/src/ff.c **** 		lfnbuf[i] = 0;
1739:../../../lib/Middlewares/Third_Party/FatFs/src/ff.c **** 	}
1740:../../../lib/Middlewares/Third_Party/FatFs/src/ff.c **** 
1741:../../../lib/Middlewares/Third_Party/FatFs/src/ff.c **** 	return 1;		/* The part of LFN is valid */
1742:../../../lib/Middlewares/Third_Party/FatFs/src/ff.c **** }
1743:../../../lib/Middlewares/Third_Party/FatFs/src/ff.c **** #endif
1744:../../../lib/Middlewares/Third_Party/FatFs/src/ff.c **** 
1745:../../../lib/Middlewares/Third_Party/FatFs/src/ff.c **** 
1746:../../../lib/Middlewares/Third_Party/FatFs/src/ff.c **** #if !_FS_READONLY
1747:../../../lib/Middlewares/Third_Party/FatFs/src/ff.c **** /*-----------------------------------------*/
1748:../../../lib/Middlewares/Third_Party/FatFs/src/ff.c **** /* FAT-LFN: Create an entry of LFN entries */
1749:../../../lib/Middlewares/Third_Party/FatFs/src/ff.c **** /*-----------------------------------------*/
1750:../../../lib/Middlewares/Third_Party/FatFs/src/ff.c **** static
1751:../../../lib/Middlewares/Third_Party/FatFs/src/ff.c **** void put_lfn (
1752:../../../lib/Middlewares/Third_Party/FatFs/src/ff.c **** 	const WCHAR* lfn,	/* Pointer to the LFN */
1753:../../../lib/Middlewares/Third_Party/FatFs/src/ff.c **** 	BYTE* dir,			/* Pointer to the LFN entry to be created */
1754:../../../lib/Middlewares/Third_Party/FatFs/src/ff.c **** 	BYTE ord,			/* LFN order (1-20) */
1755:../../../lib/Middlewares/Third_Party/FatFs/src/ff.c **** 	BYTE sum			/* Checksum of the corresponding SFN */
1756:../../../lib/Middlewares/Third_Party/FatFs/src/ff.c **** )
1757:../../../lib/Middlewares/Third_Party/FatFs/src/ff.c **** {
1758:../../../lib/Middlewares/Third_Party/FatFs/src/ff.c **** 	UINT i, s;
1759:../../../lib/Middlewares/Third_Party/FatFs/src/ff.c **** 	WCHAR wc;
1760:../../../lib/Middlewares/Third_Party/FatFs/src/ff.c **** 
1761:../../../lib/Middlewares/Third_Party/FatFs/src/ff.c **** 
1762:../../../lib/Middlewares/Third_Party/FatFs/src/ff.c **** 	dir[LDIR_Chksum] = sum;			/* Set checksum */
1763:../../../lib/Middlewares/Third_Party/FatFs/src/ff.c **** 	dir[LDIR_Attr] = AM_LFN;		/* Set attribute. LFN entry */
1764:../../../lib/Middlewares/Third_Party/FatFs/src/ff.c **** 	dir[LDIR_Type] = 0;
1765:../../../lib/Middlewares/Third_Party/FatFs/src/ff.c **** 	st_word(dir + LDIR_FstClusLO, 0);
1766:../../../lib/Middlewares/Third_Party/FatFs/src/ff.c **** 
1767:../../../lib/Middlewares/Third_Party/FatFs/src/ff.c **** 	i = (ord - 1) * 13;				/* Get offset in the LFN working buffer */
1768:../../../lib/Middlewares/Third_Party/FatFs/src/ff.c **** 	s = wc = 0;
1769:../../../lib/Middlewares/Third_Party/FatFs/src/ff.c **** 	do {
1770:../../../lib/Middlewares/Third_Party/FatFs/src/ff.c **** 		if (wc != 0xFFFF) wc = lfn[i++];	/* Get an effective character */
1771:../../../lib/Middlewares/Third_Party/FatFs/src/ff.c **** 		st_word(dir + LfnOfs[s], wc);		/* Put it */
1772:../../../lib/Middlewares/Third_Party/FatFs/src/ff.c **** 		if (wc == 0) wc = 0xFFFF;		/* Padding characters for left locations */
1773:../../../lib/Middlewares/Third_Party/FatFs/src/ff.c **** 	} while (++s < 13);
1774:../../../lib/Middlewares/Third_Party/FatFs/src/ff.c **** 	if (wc == 0xFFFF || !lfn[i]) ord |= LLEF;	/* Last LFN part is the start of LFN sequence */
1775:../../../lib/Middlewares/Third_Party/FatFs/src/ff.c **** 	dir[LDIR_Ord] = ord;			/* Set the LFN order */
1776:../../../lib/Middlewares/Third_Party/FatFs/src/ff.c **** }
1777:../../../lib/Middlewares/Third_Party/FatFs/src/ff.c **** 
1778:../../../lib/Middlewares/Third_Party/FatFs/src/ff.c **** #endif	/* !_FS_READONLY */
1779:../../../lib/Middlewares/Third_Party/FatFs/src/ff.c **** #endif	/* _USE_LFN != 0 */
1780:../../../lib/Middlewares/Third_Party/FatFs/src/ff.c **** 
1781:../../../lib/Middlewares/Third_Party/FatFs/src/ff.c **** 
1782:../../../lib/Middlewares/Third_Party/FatFs/src/ff.c **** 
1783:../../../lib/Middlewares/Third_Party/FatFs/src/ff.c **** #if _USE_LFN != 0 && !_FS_READONLY
1784:../../../lib/Middlewares/Third_Party/FatFs/src/ff.c **** /*-----------------------------------------------------------------------*/
1785:../../../lib/Middlewares/Third_Party/FatFs/src/ff.c **** /* FAT-LFN: Create a Numbered SFN                                        */
1786:../../../lib/Middlewares/Third_Party/FatFs/src/ff.c **** /*-----------------------------------------------------------------------*/
ARM GAS  /tmp/cco2ePoA.s 			page 53


1787:../../../lib/Middlewares/Third_Party/FatFs/src/ff.c **** 
1788:../../../lib/Middlewares/Third_Party/FatFs/src/ff.c **** static
1789:../../../lib/Middlewares/Third_Party/FatFs/src/ff.c **** void gen_numname (
1790:../../../lib/Middlewares/Third_Party/FatFs/src/ff.c **** 	BYTE* dst,			/* Pointer to the buffer to store numbered SFN */
1791:../../../lib/Middlewares/Third_Party/FatFs/src/ff.c **** 	const BYTE* src,	/* Pointer to SFN */
1792:../../../lib/Middlewares/Third_Party/FatFs/src/ff.c **** 	const WCHAR* lfn,	/* Pointer to LFN */
1793:../../../lib/Middlewares/Third_Party/FatFs/src/ff.c **** 	UINT seq			/* Sequence number */
1794:../../../lib/Middlewares/Third_Party/FatFs/src/ff.c **** )
1795:../../../lib/Middlewares/Third_Party/FatFs/src/ff.c **** {
1796:../../../lib/Middlewares/Third_Party/FatFs/src/ff.c **** 	BYTE ns[8], c;
1797:../../../lib/Middlewares/Third_Party/FatFs/src/ff.c **** 	UINT i, j;
1798:../../../lib/Middlewares/Third_Party/FatFs/src/ff.c **** 	WCHAR wc;
1799:../../../lib/Middlewares/Third_Party/FatFs/src/ff.c **** 	DWORD sr;
1800:../../../lib/Middlewares/Third_Party/FatFs/src/ff.c **** 
1801:../../../lib/Middlewares/Third_Party/FatFs/src/ff.c **** 
1802:../../../lib/Middlewares/Third_Party/FatFs/src/ff.c **** 	mem_cpy(dst, src, 11);
1803:../../../lib/Middlewares/Third_Party/FatFs/src/ff.c **** 
1804:../../../lib/Middlewares/Third_Party/FatFs/src/ff.c **** 	if (seq > 5) {	/* In case of many collisions, generate a hash number instead of sequential number 
1805:../../../lib/Middlewares/Third_Party/FatFs/src/ff.c **** 		sr = seq;
1806:../../../lib/Middlewares/Third_Party/FatFs/src/ff.c **** 		while (*lfn) {	/* Create a CRC */
1807:../../../lib/Middlewares/Third_Party/FatFs/src/ff.c **** 			wc = *lfn++;
1808:../../../lib/Middlewares/Third_Party/FatFs/src/ff.c **** 			for (i = 0; i < 16; i++) {
1809:../../../lib/Middlewares/Third_Party/FatFs/src/ff.c **** 				sr = (sr << 1) + (wc & 1);
1810:../../../lib/Middlewares/Third_Party/FatFs/src/ff.c **** 				wc >>= 1;
1811:../../../lib/Middlewares/Third_Party/FatFs/src/ff.c **** 				if (sr & 0x10000) sr ^= 0x11021;
1812:../../../lib/Middlewares/Third_Party/FatFs/src/ff.c **** 			}
1813:../../../lib/Middlewares/Third_Party/FatFs/src/ff.c **** 		}
1814:../../../lib/Middlewares/Third_Party/FatFs/src/ff.c **** 		seq = (UINT)sr;
1815:../../../lib/Middlewares/Third_Party/FatFs/src/ff.c **** 	}
1816:../../../lib/Middlewares/Third_Party/FatFs/src/ff.c **** 
1817:../../../lib/Middlewares/Third_Party/FatFs/src/ff.c **** 	/* itoa (hexdecimal) */
1818:../../../lib/Middlewares/Third_Party/FatFs/src/ff.c **** 	i = 7;
1819:../../../lib/Middlewares/Third_Party/FatFs/src/ff.c **** 	do {
1820:../../../lib/Middlewares/Third_Party/FatFs/src/ff.c **** 		c = (BYTE)((seq % 16) + '0');
1821:../../../lib/Middlewares/Third_Party/FatFs/src/ff.c **** 		if (c > '9') c += 7;
1822:../../../lib/Middlewares/Third_Party/FatFs/src/ff.c **** 		ns[i--] = c;
1823:../../../lib/Middlewares/Third_Party/FatFs/src/ff.c **** 		seq /= 16;
1824:../../../lib/Middlewares/Third_Party/FatFs/src/ff.c **** 	} while (seq);
1825:../../../lib/Middlewares/Third_Party/FatFs/src/ff.c **** 	ns[i] = '~';
1826:../../../lib/Middlewares/Third_Party/FatFs/src/ff.c **** 
1827:../../../lib/Middlewares/Third_Party/FatFs/src/ff.c **** 	/* Append the number */
1828:../../../lib/Middlewares/Third_Party/FatFs/src/ff.c **** 	for (j = 0; j < i && dst[j] != ' '; j++) {
1829:../../../lib/Middlewares/Third_Party/FatFs/src/ff.c **** 		if (IsDBCS1(dst[j])) {
1830:../../../lib/Middlewares/Third_Party/FatFs/src/ff.c **** 			if (j == i - 1) break;
1831:../../../lib/Middlewares/Third_Party/FatFs/src/ff.c **** 			j++;
1832:../../../lib/Middlewares/Third_Party/FatFs/src/ff.c **** 		}
1833:../../../lib/Middlewares/Third_Party/FatFs/src/ff.c **** 	}
1834:../../../lib/Middlewares/Third_Party/FatFs/src/ff.c **** 	do {
1835:../../../lib/Middlewares/Third_Party/FatFs/src/ff.c **** 		dst[j++] = (i < 8) ? ns[i++] : ' ';
1836:../../../lib/Middlewares/Third_Party/FatFs/src/ff.c **** 	} while (j < 8);
1837:../../../lib/Middlewares/Third_Party/FatFs/src/ff.c **** }
1838:../../../lib/Middlewares/Third_Party/FatFs/src/ff.c **** #endif	/* _USE_LFN != 0 && !_FS_READONLY */
1839:../../../lib/Middlewares/Third_Party/FatFs/src/ff.c **** 
1840:../../../lib/Middlewares/Third_Party/FatFs/src/ff.c **** 
1841:../../../lib/Middlewares/Third_Party/FatFs/src/ff.c **** 
1842:../../../lib/Middlewares/Third_Party/FatFs/src/ff.c **** #if _USE_LFN != 0
1843:../../../lib/Middlewares/Third_Party/FatFs/src/ff.c **** /*-----------------------------------------------------------------------*/
ARM GAS  /tmp/cco2ePoA.s 			page 54


1844:../../../lib/Middlewares/Third_Party/FatFs/src/ff.c **** /* FAT-LFN: Calculate checksum of an SFN entry                           */
1845:../../../lib/Middlewares/Third_Party/FatFs/src/ff.c **** /*-----------------------------------------------------------------------*/
1846:../../../lib/Middlewares/Third_Party/FatFs/src/ff.c **** 
1847:../../../lib/Middlewares/Third_Party/FatFs/src/ff.c **** static
1848:../../../lib/Middlewares/Third_Party/FatFs/src/ff.c **** BYTE sum_sfn (
1849:../../../lib/Middlewares/Third_Party/FatFs/src/ff.c **** 	const BYTE* dir		/* Pointer to the SFN entry */
1850:../../../lib/Middlewares/Third_Party/FatFs/src/ff.c **** )
1851:../../../lib/Middlewares/Third_Party/FatFs/src/ff.c **** {
1852:../../../lib/Middlewares/Third_Party/FatFs/src/ff.c **** 	BYTE sum = 0;
1853:../../../lib/Middlewares/Third_Party/FatFs/src/ff.c **** 	UINT n = 11;
1854:../../../lib/Middlewares/Third_Party/FatFs/src/ff.c **** 
1855:../../../lib/Middlewares/Third_Party/FatFs/src/ff.c **** 	do {
1856:../../../lib/Middlewares/Third_Party/FatFs/src/ff.c **** 		sum = (sum >> 1) + (sum << 7) + *dir++;
1857:../../../lib/Middlewares/Third_Party/FatFs/src/ff.c **** 	} while (--n);
1858:../../../lib/Middlewares/Third_Party/FatFs/src/ff.c **** 	return sum;
1859:../../../lib/Middlewares/Third_Party/FatFs/src/ff.c **** }
1860:../../../lib/Middlewares/Third_Party/FatFs/src/ff.c **** 
1861:../../../lib/Middlewares/Third_Party/FatFs/src/ff.c **** #endif	/* _USE_LFN != 0 */
1862:../../../lib/Middlewares/Third_Party/FatFs/src/ff.c **** 
1863:../../../lib/Middlewares/Third_Party/FatFs/src/ff.c **** 
1864:../../../lib/Middlewares/Third_Party/FatFs/src/ff.c **** 
1865:../../../lib/Middlewares/Third_Party/FatFs/src/ff.c **** #if _FS_EXFAT
1866:../../../lib/Middlewares/Third_Party/FatFs/src/ff.c **** /*-----------------------------------------------------------------------*/
1867:../../../lib/Middlewares/Third_Party/FatFs/src/ff.c **** /* exFAT: Checksum                                                       */
1868:../../../lib/Middlewares/Third_Party/FatFs/src/ff.c **** /*-----------------------------------------------------------------------*/
1869:../../../lib/Middlewares/Third_Party/FatFs/src/ff.c **** 
1870:../../../lib/Middlewares/Third_Party/FatFs/src/ff.c **** static
1871:../../../lib/Middlewares/Third_Party/FatFs/src/ff.c **** WORD xdir_sum (			/* Get checksum of the directoly block */
1872:../../../lib/Middlewares/Third_Party/FatFs/src/ff.c **** 	const BYTE* dir		/* Directory entry block to be calculated */
1873:../../../lib/Middlewares/Third_Party/FatFs/src/ff.c **** )
1874:../../../lib/Middlewares/Third_Party/FatFs/src/ff.c **** {
1875:../../../lib/Middlewares/Third_Party/FatFs/src/ff.c **** 	UINT i, szblk;
1876:../../../lib/Middlewares/Third_Party/FatFs/src/ff.c **** 	WORD sum;
1877:../../../lib/Middlewares/Third_Party/FatFs/src/ff.c **** 
1878:../../../lib/Middlewares/Third_Party/FatFs/src/ff.c **** 
1879:../../../lib/Middlewares/Third_Party/FatFs/src/ff.c **** 	szblk = (dir[XDIR_NumSec] + 1) * SZDIRE;
1880:../../../lib/Middlewares/Third_Party/FatFs/src/ff.c **** 	for (i = sum = 0; i < szblk; i++) {
1881:../../../lib/Middlewares/Third_Party/FatFs/src/ff.c **** 		if (i == XDIR_SetSum) {	/* Skip sum field */
1882:../../../lib/Middlewares/Third_Party/FatFs/src/ff.c **** 			i++;
1883:../../../lib/Middlewares/Third_Party/FatFs/src/ff.c **** 		} else {
1884:../../../lib/Middlewares/Third_Party/FatFs/src/ff.c **** 			sum = ((sum & 1) ? 0x8000 : 0) + (sum >> 1) + dir[i];
1885:../../../lib/Middlewares/Third_Party/FatFs/src/ff.c **** 		}
1886:../../../lib/Middlewares/Third_Party/FatFs/src/ff.c **** 	}
1887:../../../lib/Middlewares/Third_Party/FatFs/src/ff.c **** 	return sum;
1888:../../../lib/Middlewares/Third_Party/FatFs/src/ff.c **** }
1889:../../../lib/Middlewares/Third_Party/FatFs/src/ff.c **** 
1890:../../../lib/Middlewares/Third_Party/FatFs/src/ff.c **** 
1891:../../../lib/Middlewares/Third_Party/FatFs/src/ff.c **** 
1892:../../../lib/Middlewares/Third_Party/FatFs/src/ff.c **** static
1893:../../../lib/Middlewares/Third_Party/FatFs/src/ff.c **** WORD xname_sum (		/* Get check sum (to be used as hash) of the name */
1894:../../../lib/Middlewares/Third_Party/FatFs/src/ff.c **** 	const WCHAR* name	/* File name to be calculated */
1895:../../../lib/Middlewares/Third_Party/FatFs/src/ff.c **** )
1896:../../../lib/Middlewares/Third_Party/FatFs/src/ff.c **** {
1897:../../../lib/Middlewares/Third_Party/FatFs/src/ff.c **** 	WCHAR chr;
1898:../../../lib/Middlewares/Third_Party/FatFs/src/ff.c **** 	WORD sum = 0;
1899:../../../lib/Middlewares/Third_Party/FatFs/src/ff.c **** 
1900:../../../lib/Middlewares/Third_Party/FatFs/src/ff.c **** 
ARM GAS  /tmp/cco2ePoA.s 			page 55


1901:../../../lib/Middlewares/Third_Party/FatFs/src/ff.c **** 	while ((chr = *name++) != 0) {
1902:../../../lib/Middlewares/Third_Party/FatFs/src/ff.c **** 		chr = ff_wtoupper(chr);		/* File name needs to be ignored case */
1903:../../../lib/Middlewares/Third_Party/FatFs/src/ff.c **** 		sum = ((sum & 1) ? 0x8000 : 0) + (sum >> 1) + (chr & 0xFF);
1904:../../../lib/Middlewares/Third_Party/FatFs/src/ff.c **** 		sum = ((sum & 1) ? 0x8000 : 0) + (sum >> 1) + (chr >> 8);
1905:../../../lib/Middlewares/Third_Party/FatFs/src/ff.c **** 	}
1906:../../../lib/Middlewares/Third_Party/FatFs/src/ff.c **** 	return sum;
1907:../../../lib/Middlewares/Third_Party/FatFs/src/ff.c **** }
1908:../../../lib/Middlewares/Third_Party/FatFs/src/ff.c **** 
1909:../../../lib/Middlewares/Third_Party/FatFs/src/ff.c **** 
1910:../../../lib/Middlewares/Third_Party/FatFs/src/ff.c **** #if !_FS_READONLY && _USE_MKFS
1911:../../../lib/Middlewares/Third_Party/FatFs/src/ff.c **** static
1912:../../../lib/Middlewares/Third_Party/FatFs/src/ff.c **** DWORD xsum32 (
1913:../../../lib/Middlewares/Third_Party/FatFs/src/ff.c **** 	BYTE  dat,	/* Data to be sumed */
1914:../../../lib/Middlewares/Third_Party/FatFs/src/ff.c **** 	DWORD sum	/* Previous value */
1915:../../../lib/Middlewares/Third_Party/FatFs/src/ff.c **** )
1916:../../../lib/Middlewares/Third_Party/FatFs/src/ff.c **** {
1917:../../../lib/Middlewares/Third_Party/FatFs/src/ff.c **** 	sum = ((sum & 1) ? 0x80000000 : 0) + (sum >> 1) + dat;
1918:../../../lib/Middlewares/Third_Party/FatFs/src/ff.c **** 	return sum;
1919:../../../lib/Middlewares/Third_Party/FatFs/src/ff.c **** }
1920:../../../lib/Middlewares/Third_Party/FatFs/src/ff.c **** #endif
1921:../../../lib/Middlewares/Third_Party/FatFs/src/ff.c **** 
1922:../../../lib/Middlewares/Third_Party/FatFs/src/ff.c **** 
1923:../../../lib/Middlewares/Third_Party/FatFs/src/ff.c **** #if _FS_MINIMIZE <= 1 || _FS_RPATH >= 2
1924:../../../lib/Middlewares/Third_Party/FatFs/src/ff.c **** /*------------------------------------------------------*/
1925:../../../lib/Middlewares/Third_Party/FatFs/src/ff.c **** /* exFAT: Get object information from a directory block */
1926:../../../lib/Middlewares/Third_Party/FatFs/src/ff.c **** /*------------------------------------------------------*/
1927:../../../lib/Middlewares/Third_Party/FatFs/src/ff.c **** 
1928:../../../lib/Middlewares/Third_Party/FatFs/src/ff.c **** static
1929:../../../lib/Middlewares/Third_Party/FatFs/src/ff.c **** void get_xdir_info (
1930:../../../lib/Middlewares/Third_Party/FatFs/src/ff.c **** 	BYTE* dirb,			/* Pointer to the direcotry entry block 85+C0+C1s */
1931:../../../lib/Middlewares/Third_Party/FatFs/src/ff.c **** 	FILINFO* fno		/* Buffer to store the extracted file information */
1932:../../../lib/Middlewares/Third_Party/FatFs/src/ff.c **** )
1933:../../../lib/Middlewares/Third_Party/FatFs/src/ff.c **** {
1934:../../../lib/Middlewares/Third_Party/FatFs/src/ff.c **** 	UINT di, si;
1935:../../../lib/Middlewares/Third_Party/FatFs/src/ff.c **** 	WCHAR w;
1936:../../../lib/Middlewares/Third_Party/FatFs/src/ff.c **** #if !_LFN_UNICODE
1937:../../../lib/Middlewares/Third_Party/FatFs/src/ff.c **** 	UINT nc;
1938:../../../lib/Middlewares/Third_Party/FatFs/src/ff.c **** #endif
1939:../../../lib/Middlewares/Third_Party/FatFs/src/ff.c **** 
1940:../../../lib/Middlewares/Third_Party/FatFs/src/ff.c **** 	/* Get file name */
1941:../../../lib/Middlewares/Third_Party/FatFs/src/ff.c **** 	di = 0;
1942:../../../lib/Middlewares/Third_Party/FatFs/src/ff.c **** #if _LFN_UNICODE
1943:../../../lib/Middlewares/Third_Party/FatFs/src/ff.c **** 	for (si = SZDIRE * 2; di < dirb[XDIR_NumName]; si += 2, di++) {
1944:../../../lib/Middlewares/Third_Party/FatFs/src/ff.c **** 		if ((si % SZDIRE) == 0) si += 2;		/* Skip entry type field */
1945:../../../lib/Middlewares/Third_Party/FatFs/src/ff.c **** 		w = ld_word(dirb + si);					/* Get a character */
1946:../../../lib/Middlewares/Third_Party/FatFs/src/ff.c **** 		if (di >= _MAX_LFN) { di = 0; break; }	/* Buffer overflow --> inaccessible object name */
1947:../../../lib/Middlewares/Third_Party/FatFs/src/ff.c **** 		fno->fname[di] = w;						/* Store it */
1948:../../../lib/Middlewares/Third_Party/FatFs/src/ff.c **** 	}
1949:../../../lib/Middlewares/Third_Party/FatFs/src/ff.c **** #else
1950:../../../lib/Middlewares/Third_Party/FatFs/src/ff.c **** 	for (si = SZDIRE * 2, nc = 0; nc < dirb[XDIR_NumName]; si += 2, nc++) {
1951:../../../lib/Middlewares/Third_Party/FatFs/src/ff.c **** 		if ((si % SZDIRE) == 0) si += 2;		/* Skip entry type field */
1952:../../../lib/Middlewares/Third_Party/FatFs/src/ff.c **** 		w = ff_convert(ld_word(dirb + si), 0);	/* Get a character and Unicode -> OEM */
1953:../../../lib/Middlewares/Third_Party/FatFs/src/ff.c **** 		if (_DF1S && w >= 0x100) {				/* Is it a double byte char? (always false at SBCS cfg) */
1954:../../../lib/Middlewares/Third_Party/FatFs/src/ff.c **** 			fno->fname[di++] = (char)(w >> 8);	/* Put 1st byte of the DBC */
1955:../../../lib/Middlewares/Third_Party/FatFs/src/ff.c **** 		}
1956:../../../lib/Middlewares/Third_Party/FatFs/src/ff.c **** 		if (w == 0 || di >= _MAX_LFN) { di = 0; break; }	/* Invalid char or buffer overflow --> inaccessi
1957:../../../lib/Middlewares/Third_Party/FatFs/src/ff.c **** 		fno->fname[di++] = (char)w;
ARM GAS  /tmp/cco2ePoA.s 			page 56


1958:../../../lib/Middlewares/Third_Party/FatFs/src/ff.c **** 	}
1959:../../../lib/Middlewares/Third_Party/FatFs/src/ff.c **** #endif
1960:../../../lib/Middlewares/Third_Party/FatFs/src/ff.c **** 	if (di == 0) fno->fname[di++] = '?';	/* Inaccessible object name? */
1961:../../../lib/Middlewares/Third_Party/FatFs/src/ff.c **** 	fno->fname[di] = 0;						/* Terminate file name */
1962:../../../lib/Middlewares/Third_Party/FatFs/src/ff.c **** 
1963:../../../lib/Middlewares/Third_Party/FatFs/src/ff.c **** 	fno->altname[0] = 0;							/* No SFN */
1964:../../../lib/Middlewares/Third_Party/FatFs/src/ff.c **** 	fno->fattrib = dirb[XDIR_Attr];					/* Attribute */
1965:../../../lib/Middlewares/Third_Party/FatFs/src/ff.c **** 	fno->fsize = (fno->fattrib & AM_DIR) ? 0 : ld_qword(dirb + XDIR_FileSize);	/* Size */
1966:../../../lib/Middlewares/Third_Party/FatFs/src/ff.c **** 	fno->ftime = ld_word(dirb + XDIR_ModTime + 0);	/* Time */
1967:../../../lib/Middlewares/Third_Party/FatFs/src/ff.c **** 	fno->fdate = ld_word(dirb + XDIR_ModTime + 2);	/* Date */
1968:../../../lib/Middlewares/Third_Party/FatFs/src/ff.c **** }
1969:../../../lib/Middlewares/Third_Party/FatFs/src/ff.c **** 
1970:../../../lib/Middlewares/Third_Party/FatFs/src/ff.c **** #endif	/* _FS_MINIMIZE <= 1 || _FS_RPATH >= 2 */
1971:../../../lib/Middlewares/Third_Party/FatFs/src/ff.c **** 
1972:../../../lib/Middlewares/Third_Party/FatFs/src/ff.c **** 
1973:../../../lib/Middlewares/Third_Party/FatFs/src/ff.c **** /*-----------------------------------*/
1974:../../../lib/Middlewares/Third_Party/FatFs/src/ff.c **** /* exFAT: Get a directry entry block */
1975:../../../lib/Middlewares/Third_Party/FatFs/src/ff.c **** /*-----------------------------------*/
1976:../../../lib/Middlewares/Third_Party/FatFs/src/ff.c **** 
1977:../../../lib/Middlewares/Third_Party/FatFs/src/ff.c **** static
1978:../../../lib/Middlewares/Third_Party/FatFs/src/ff.c **** FRESULT load_xdir (	/* FR_INT_ERR: invalid entry block */
1979:../../../lib/Middlewares/Third_Party/FatFs/src/ff.c **** 	DIR* dp			/* Pointer to the reading direcotry object pointing the 85 entry */
1980:../../../lib/Middlewares/Third_Party/FatFs/src/ff.c **** )
1981:../../../lib/Middlewares/Third_Party/FatFs/src/ff.c **** {
1982:../../../lib/Middlewares/Third_Party/FatFs/src/ff.c **** 	FRESULT res;
1983:../../../lib/Middlewares/Third_Party/FatFs/src/ff.c **** 	UINT i, sz_ent;
1984:../../../lib/Middlewares/Third_Party/FatFs/src/ff.c **** 	BYTE* dirb = dp->obj.fs->dirbuf;	/* Pointer to the on-memory direcotry entry block 85+C0+C1s */
1985:../../../lib/Middlewares/Third_Party/FatFs/src/ff.c **** 
1986:../../../lib/Middlewares/Third_Party/FatFs/src/ff.c **** 
1987:../../../lib/Middlewares/Third_Party/FatFs/src/ff.c **** 	/* Load 85 entry */
1988:../../../lib/Middlewares/Third_Party/FatFs/src/ff.c **** 	res = move_window(dp->obj.fs, dp->sect);
1989:../../../lib/Middlewares/Third_Party/FatFs/src/ff.c **** 	if (res != FR_OK) return res;
1990:../../../lib/Middlewares/Third_Party/FatFs/src/ff.c **** 	if (dp->dir[XDIR_Type] != 0x85) return FR_INT_ERR;
1991:../../../lib/Middlewares/Third_Party/FatFs/src/ff.c **** 	mem_cpy(dirb + 0, dp->dir, SZDIRE);
1992:../../../lib/Middlewares/Third_Party/FatFs/src/ff.c **** 	sz_ent = (dirb[XDIR_NumSec] + 1) * SZDIRE;
1993:../../../lib/Middlewares/Third_Party/FatFs/src/ff.c **** 	if (sz_ent < 3 * SZDIRE || sz_ent > 19 * SZDIRE) return FR_INT_ERR;
1994:../../../lib/Middlewares/Third_Party/FatFs/src/ff.c **** 
1995:../../../lib/Middlewares/Third_Party/FatFs/src/ff.c **** 	/* Load C0 entry */
1996:../../../lib/Middlewares/Third_Party/FatFs/src/ff.c **** 	res = dir_next(dp, 0);
1997:../../../lib/Middlewares/Third_Party/FatFs/src/ff.c **** 	if (res != FR_OK) return res;
1998:../../../lib/Middlewares/Third_Party/FatFs/src/ff.c **** 	res = move_window(dp->obj.fs, dp->sect);
1999:../../../lib/Middlewares/Third_Party/FatFs/src/ff.c **** 	if (res != FR_OK) return res;
2000:../../../lib/Middlewares/Third_Party/FatFs/src/ff.c **** 	if (dp->dir[XDIR_Type] != 0xC0) return FR_INT_ERR;
2001:../../../lib/Middlewares/Third_Party/FatFs/src/ff.c **** 	mem_cpy(dirb + SZDIRE, dp->dir, SZDIRE);
2002:../../../lib/Middlewares/Third_Party/FatFs/src/ff.c **** 	if (MAXDIRB(dirb[XDIR_NumName]) > sz_ent) return FR_INT_ERR;
2003:../../../lib/Middlewares/Third_Party/FatFs/src/ff.c **** 
2004:../../../lib/Middlewares/Third_Party/FatFs/src/ff.c **** 	/* Load C1 entries */
2005:../../../lib/Middlewares/Third_Party/FatFs/src/ff.c **** 	i = SZDIRE * 2;	/* C1 offset */
2006:../../../lib/Middlewares/Third_Party/FatFs/src/ff.c **** 	do {
2007:../../../lib/Middlewares/Third_Party/FatFs/src/ff.c **** 		res = dir_next(dp, 0);
2008:../../../lib/Middlewares/Third_Party/FatFs/src/ff.c **** 		if (res != FR_OK) return res;
2009:../../../lib/Middlewares/Third_Party/FatFs/src/ff.c **** 		res = move_window(dp->obj.fs, dp->sect);
2010:../../../lib/Middlewares/Third_Party/FatFs/src/ff.c **** 		if (res != FR_OK) return res;
2011:../../../lib/Middlewares/Third_Party/FatFs/src/ff.c **** 		if (dp->dir[XDIR_Type] != 0xC1) return FR_INT_ERR;
2012:../../../lib/Middlewares/Third_Party/FatFs/src/ff.c **** 		if (i < MAXDIRB(_MAX_LFN)) mem_cpy(dirb + i, dp->dir, SZDIRE);
2013:../../../lib/Middlewares/Third_Party/FatFs/src/ff.c **** 	} while ((i += SZDIRE) < sz_ent);
2014:../../../lib/Middlewares/Third_Party/FatFs/src/ff.c **** 
ARM GAS  /tmp/cco2ePoA.s 			page 57


2015:../../../lib/Middlewares/Third_Party/FatFs/src/ff.c **** 	/* Sanity check (do it when accessible object name) */
2016:../../../lib/Middlewares/Third_Party/FatFs/src/ff.c **** 	if (i <= MAXDIRB(_MAX_LFN)) {
2017:../../../lib/Middlewares/Third_Party/FatFs/src/ff.c **** 		if (xdir_sum(dirb) != ld_word(dirb + XDIR_SetSum)) return FR_INT_ERR;
2018:../../../lib/Middlewares/Third_Party/FatFs/src/ff.c **** 	}
2019:../../../lib/Middlewares/Third_Party/FatFs/src/ff.c **** 	return FR_OK;
2020:../../../lib/Middlewares/Third_Party/FatFs/src/ff.c **** }
2021:../../../lib/Middlewares/Third_Party/FatFs/src/ff.c **** 
2022:../../../lib/Middlewares/Third_Party/FatFs/src/ff.c **** 
2023:../../../lib/Middlewares/Third_Party/FatFs/src/ff.c **** #if !_FS_READONLY || _FS_RPATH != 0
