ARM GAS  C:\Users\tnguy\AppData\Local\Temp\ccrLQ3au.s 			page 1


   1              		.cpu cortex-m7
   2              		.arch armv7e-m
   3              		.fpu fpv5-d16
   4              		.eabi_attribute 28, 1
   5              		.eabi_attribute 20, 1
   6              		.eabi_attribute 21, 1
   7              		.eabi_attribute 23, 3
   8              		.eabi_attribute 24, 1
   9              		.eabi_attribute 25, 1
  10              		.eabi_attribute 26, 1
  11              		.eabi_attribute 30, 1
  12              		.eabi_attribute 34, 1
  13              		.eabi_attribute 18, 4
  14              		.file	"imu.c"
  15              		.text
  16              	.Ltext0:
  17              		.cfi_sections	.debug_frame
  18              		.section	.text.write_imu_regs,"ax",%progbits
  19              		.align	1
  20              		.syntax unified
  21              		.thumb
  22              		.thumb_func
  24              	write_imu_regs:
  25              	.LVL0:
  26              	.LFB153:
  27              		.file 1 "../../../mod/imu/imu.c"
   1:../../../mod/imu/imu.c **** /*******************************************************************************
   2:../../../mod/imu/imu.c **** *
   3:../../../mod/imu/imu.c **** * FILE: 
   4:../../../mod/imu/imu.c **** * 		imu.c
   5:../../../mod/imu/imu.c **** *
   6:../../../mod/imu/imu.c **** * DESCRIPTION: 
   7:../../../mod/imu/imu.c **** * 		Contains API functions to access data from the IMU MPU9250
   8:../../../mod/imu/imu.c **** *
   9:../../../mod/imu/imu.c **** *******************************************************************************/
  10:../../../mod/imu/imu.c **** 
  11:../../../mod/imu/imu.c **** 
  12:../../../mod/imu/imu.c **** /*------------------------------------------------------------------------------
  13:../../../mod/imu/imu.c ****  Standard Includes                                                              
  14:../../../mod/imu/imu.c **** ------------------------------------------------------------------------------*/
  15:../../../mod/imu/imu.c **** #include <string.h>
  16:../../../mod/imu/imu.c **** 
  17:../../../mod/imu/imu.c **** /*------------------------------------------------------------------------------
  18:../../../mod/imu/imu.c ****  Project Includes                                                               
  19:../../../mod/imu/imu.c **** ------------------------------------------------------------------------------*/
  20:../../../mod/imu/imu.c **** #include "main.h"
  21:../../../mod/imu/imu.c **** #include "sdr_pin_defines_A0002.h"
  22:../../../mod/imu/imu.c **** #include "imu.h"
  23:../../../mod/imu/imu.c **** 
  24:../../../mod/imu/imu.c **** 
  25:../../../mod/imu/imu.c **** /*------------------------------------------------------------------------------
  26:../../../mod/imu/imu.c ****  Global Variables 
  27:../../../mod/imu/imu.c **** ------------------------------------------------------------------------------*/
  28:../../../mod/imu/imu.c **** 
  29:../../../mod/imu/imu.c **** /* BMI270 Initialization File */
  30:../../../mod/imu/imu.c **** #ifdef A0002_REV2
  31:../../../mod/imu/imu.c ****     uint8_t bmi270_init_file[] = {
ARM GAS  C:\Users\tnguy\AppData\Local\Temp\ccrLQ3au.s 			page 2


  32:../../../mod/imu/imu.c ****         #include "bmi270_init_file.tbin"
  33:../../../mod/imu/imu.c ****     };
  34:../../../mod/imu/imu.c **** #endif
  35:../../../mod/imu/imu.c **** 
  36:../../../mod/imu/imu.c **** /*------------------------------------------------------------------------------
  37:../../../mod/imu/imu.c ****  Internal function prototypes 
  38:../../../mod/imu/imu.c **** ------------------------------------------------------------------------------*/
  39:../../../mod/imu/imu.c **** 
  40:../../../mod/imu/imu.c **** /* Initialize the magnetometer */
  41:../../../mod/imu/imu.c **** #if defined( A0002_REV2 )
  42:../../../mod/imu/imu.c **** static IMU_STATUS mag_init
  43:../../../mod/imu/imu.c ****     (
  44:../../../mod/imu/imu.c ****     IMU_CONFIG* imu_config_ptr
  45:../../../mod/imu/imu.c ****     );
  46:../../../mod/imu/imu.c **** #endif
  47:../../../mod/imu/imu.c **** 
  48:../../../mod/imu/imu.c **** /* Read IMU registers */
  49:../../../mod/imu/imu.c **** static IMU_STATUS read_imu_regs
  50:../../../mod/imu/imu.c ****     (
  51:../../../mod/imu/imu.c ****     uint8_t  reg_addr, /* Register address    */
  52:../../../mod/imu/imu.c ****     uint8_t* data_ptr, /* Register data       */
  53:../../../mod/imu/imu.c ****     uint8_t  num_regs  /* Number of registers */
  54:../../../mod/imu/imu.c ****     ); 
  55:../../../mod/imu/imu.c **** 
  56:../../../mod/imu/imu.c **** /* Write to a specified IMU register */
  57:../../../mod/imu/imu.c **** #if defined( A0002_REV2 )
  58:../../../mod/imu/imu.c **** static IMU_STATUS write_imu_reg 
  59:../../../mod/imu/imu.c ****     (
  60:../../../mod/imu/imu.c ****     uint8_t reg_addr, /* Register address    */
  61:../../../mod/imu/imu.c ****     uint8_t data      /* Register data       */
  62:../../../mod/imu/imu.c ****     );
  63:../../../mod/imu/imu.c **** 
  64:../../../mod/imu/imu.c **** /* Write IMU registers */
  65:../../../mod/imu/imu.c **** static IMU_STATUS write_imu_regs 
  66:../../../mod/imu/imu.c ****     (
  67:../../../mod/imu/imu.c ****     uint8_t  reg_addr, /* Register address    */
  68:../../../mod/imu/imu.c ****     uint8_t* data_ptr, /* Register data       */
  69:../../../mod/imu/imu.c ****     uint32_t num_regs  /* Number of registers */
  70:../../../mod/imu/imu.c ****     ); 
  71:../../../mod/imu/imu.c **** #endif /* #if defined( A0002_REV2 )*/
  72:../../../mod/imu/imu.c **** 
  73:../../../mod/imu/imu.c **** /* Read Magnetometer registers */
  74:../../../mod/imu/imu.c **** static IMU_STATUS read_mag_regs
  75:../../../mod/imu/imu.c ****     (
  76:../../../mod/imu/imu.c ****     uint8_t  reg_addr, /* Register address    */
  77:../../../mod/imu/imu.c ****     uint8_t* data_ptr, /* Register data       */
  78:../../../mod/imu/imu.c ****     uint8_t  num_regs  /* Number of registers */
  79:../../../mod/imu/imu.c ****     ); 
  80:../../../mod/imu/imu.c **** 
  81:../../../mod/imu/imu.c **** /* Write to a specified magnetometer register */
  82:../../../mod/imu/imu.c **** #if defined( A0002_REV2 )
  83:../../../mod/imu/imu.c **** static IMU_STATUS write_mag_reg 
  84:../../../mod/imu/imu.c ****     (
  85:../../../mod/imu/imu.c ****     uint8_t reg_addr, /* Register address    */
  86:../../../mod/imu/imu.c ****     uint8_t data      /* Register data       */
  87:../../../mod/imu/imu.c ****     ); 
  88:../../../mod/imu/imu.c **** #endif 
ARM GAS  C:\Users\tnguy\AppData\Local\Temp\ccrLQ3au.s 			page 3


  89:../../../mod/imu/imu.c **** 
  90:../../../mod/imu/imu.c **** 
  91:../../../mod/imu/imu.c **** /*------------------------------------------------------------------------------
  92:../../../mod/imu/imu.c ****  Procedures 
  93:../../../mod/imu/imu.c **** ------------------------------------------------------------------------------*/
  94:../../../mod/imu/imu.c **** 
  95:../../../mod/imu/imu.c **** #if defined( A0002_REV2 )
  96:../../../mod/imu/imu.c **** /*******************************************************************************
  97:../../../mod/imu/imu.c **** *                                                                              *
  98:../../../mod/imu/imu.c **** * PROCEDURE:                                                                   *
  99:../../../mod/imu/imu.c **** * 		imu_init                                                               *
 100:../../../mod/imu/imu.c **** *                                                                              *
 101:../../../mod/imu/imu.c **** * DESCRIPTION:                                                                 *
 102:../../../mod/imu/imu.c **** *       Initialize the IMU                                                     *
 103:../../../mod/imu/imu.c **** *                                                                              *
 104:../../../mod/imu/imu.c **** *******************************************************************************/
 105:../../../mod/imu/imu.c **** IMU_STATUS imu_init 
 106:../../../mod/imu/imu.c **** 	(
 107:../../../mod/imu/imu.c ****     IMU_CONFIG* imu_config_ptr /* IMU Configuration */ 
 108:../../../mod/imu/imu.c **** 	)
 109:../../../mod/imu/imu.c **** {
 110:../../../mod/imu/imu.c **** /*------------------------------------------------------------------------------
 111:../../../mod/imu/imu.c ****  Local variables 
 112:../../../mod/imu/imu.c **** ------------------------------------------------------------------------------*/
 113:../../../mod/imu/imu.c **** IMU_STATUS imu_status;          /* IMU API call return codes       */
 114:../../../mod/imu/imu.c **** uint8_t    imu_dev_id;          /* IMU identification code         */
 115:../../../mod/imu/imu.c **** uint8_t    imu_status_reg;      /* Contents of IMU status register */
 116:../../../mod/imu/imu.c **** uint8_t    imu_acc_conf;        /* IMU ACC_CONF Register contents  */
 117:../../../mod/imu/imu.c **** uint8_t    imu_gyr_conf;        /* IMU GYR_CONF Register contents  */
 118:../../../mod/imu/imu.c **** uint8_t    imu_sensor_data[12]; /* IMU Sensor Data                 */
 119:../../../mod/imu/imu.c **** 
 120:../../../mod/imu/imu.c **** 
 121:../../../mod/imu/imu.c **** /*------------------------------------------------------------------------------
 122:../../../mod/imu/imu.c ****  Initializations 
 123:../../../mod/imu/imu.c **** ------------------------------------------------------------------------------*/
 124:../../../mod/imu/imu.c **** imu_status     = IMU_OK;
 125:../../../mod/imu/imu.c **** imu_dev_id     = 0;
 126:../../../mod/imu/imu.c **** imu_status_reg = 0;
 127:../../../mod/imu/imu.c **** imu_acc_conf   = ( imu_config_ptr -> acc_odr         ) |
 128:../../../mod/imu/imu.c ****                  ( imu_config_ptr -> acc_filter      ) |
 129:../../../mod/imu/imu.c ****                  ( imu_config_ptr -> acc_filter_mode );
 130:../../../mod/imu/imu.c **** imu_gyr_conf   = ( imu_config_ptr -> gyro_odr        ) |
 131:../../../mod/imu/imu.c ****                  ( imu_config_ptr -> gyro_filter     ) |
 132:../../../mod/imu/imu.c ****                  ( 1 << 7 );
 133:../../../mod/imu/imu.c **** memset( &imu_sensor_data[0], 0, sizeof( imu_sensor_data ) );
 134:../../../mod/imu/imu.c **** 
 135:../../../mod/imu/imu.c **** 
 136:../../../mod/imu/imu.c **** /*------------------------------------------------------------------------------
 137:../../../mod/imu/imu.c ****  Implementation 
 138:../../../mod/imu/imu.c **** ------------------------------------------------------------------------------*/
 139:../../../mod/imu/imu.c **** 
 140:../../../mod/imu/imu.c **** /* Read IMU ID and verify correct ID */
 141:../../../mod/imu/imu.c **** imu_status = imu_get_device_id( &imu_dev_id );
 142:../../../mod/imu/imu.c **** if ( imu_status != IMU_OK )
 143:../../../mod/imu/imu.c ****     {
 144:../../../mod/imu/imu.c ****     return imu_status;
 145:../../../mod/imu/imu.c ****     }
ARM GAS  C:\Users\tnguy\AppData\Local\Temp\ccrLQ3au.s 			page 4


 146:../../../mod/imu/imu.c **** 
 147:../../../mod/imu/imu.c **** /* BMI270 Initialization Sequence */
 148:../../../mod/imu/imu.c **** #if defined( A0002_REV2 )
 149:../../../mod/imu/imu.c ****     /* Disable advanced power save */
 150:../../../mod/imu/imu.c ****     imu_status = write_imu_reg( IMU_REG_PWR_CONF, 0x00 );
 151:../../../mod/imu/imu.c ****     if ( imu_status != IMU_OK )
 152:../../../mod/imu/imu.c ****         {
 153:../../../mod/imu/imu.c ****         return IMU_INIT_FAIL;
 154:../../../mod/imu/imu.c ****         }
 155:../../../mod/imu/imu.c ****     HAL_Delay( 1 );
 156:../../../mod/imu/imu.c **** 
 157:../../../mod/imu/imu.c ****     /* Prepare Config Load */
 158:../../../mod/imu/imu.c ****     imu_status = write_imu_reg( IMU_REG_INIT_CTRL, 0x00 );
 159:../../../mod/imu/imu.c ****     if ( imu_status != IMU_OK )
 160:../../../mod/imu/imu.c ****         {
 161:../../../mod/imu/imu.c ****         return IMU_INIT_FAIL;
 162:../../../mod/imu/imu.c ****         }
 163:../../../mod/imu/imu.c ****     
 164:../../../mod/imu/imu.c ****     /* Load the initialization data */
 165:../../../mod/imu/imu.c ****     imu_status = write_imu_regs( IMU_REG_INIT_DATA   , 
 166:../../../mod/imu/imu.c ****                                  &bmi270_init_file[0], 
 167:../../../mod/imu/imu.c ****                                  sizeof( bmi270_init_file ) );
 168:../../../mod/imu/imu.c ****     if ( imu_status != IMU_OK )
 169:../../../mod/imu/imu.c ****         {
 170:../../../mod/imu/imu.c ****         return IMU_INIT_FAIL;
 171:../../../mod/imu/imu.c ****         }
 172:../../../mod/imu/imu.c **** 
 173:../../../mod/imu/imu.c ****     /* Complete config load */
 174:../../../mod/imu/imu.c ****     imu_status = write_imu_reg( IMU_REG_INIT_CTRL, 0x01 );
 175:../../../mod/imu/imu.c ****     if ( imu_status != IMU_OK )
 176:../../../mod/imu/imu.c ****         {
 177:../../../mod/imu/imu.c ****         return IMU_INIT_FAIL;
 178:../../../mod/imu/imu.c ****         }
 179:../../../mod/imu/imu.c **** 
 180:../../../mod/imu/imu.c ****     /* Check if Initialization was Successful */
 181:../../../mod/imu/imu.c ****     HAL_Delay( 150 );
 182:../../../mod/imu/imu.c ****     imu_status = read_imu_regs( IMU_REG_INTERNAL_STATUS, 
 183:../../../mod/imu/imu.c ****                                 &imu_status_reg        ,
 184:../../../mod/imu/imu.c ****                                 sizeof( imu_status_reg ) );
 185:../../../mod/imu/imu.c ****     if ( imu_status != IMU_OK || !( imu_status_reg & 0b00000001 ) )
 186:../../../mod/imu/imu.c ****         {
 187:../../../mod/imu/imu.c ****         return IMU_INIT_FAIL;
 188:../../../mod/imu/imu.c ****         }
 189:../../../mod/imu/imu.c **** #endif /* #if defined( A0002_REV2 ) */
 190:../../../mod/imu/imu.c **** 
 191:../../../mod/imu/imu.c **** /* Initial IMU Configuration */
 192:../../../mod/imu/imu.c **** #if defined( A0002_REV2 )
 193:../../../mod/imu/imu.c ****     /* Enable Sensors */
 194:../../../mod/imu/imu.c ****     imu_status = write_imu_reg( IMU_REG_PWR_CTRL, 
 195:../../../mod/imu/imu.c ****                                 imu_config_ptr -> sensor_enable );
 196:../../../mod/imu/imu.c ****     if ( imu_status != IMU_OK )
 197:../../../mod/imu/imu.c ****         {
 198:../../../mod/imu/imu.c ****         return IMU_CONFIG_FAIL;
 199:../../../mod/imu/imu.c ****         }
 200:../../../mod/imu/imu.c **** 
 201:../../../mod/imu/imu.c ****     /* Configure the Accelerometer */
 202:../../../mod/imu/imu.c ****     imu_status = write_imu_reg( IMU_REG_ACC_CONF, imu_acc_conf );
ARM GAS  C:\Users\tnguy\AppData\Local\Temp\ccrLQ3au.s 			page 5


 203:../../../mod/imu/imu.c ****     if ( imu_status != IMU_OK )
 204:../../../mod/imu/imu.c ****         {
 205:../../../mod/imu/imu.c ****         return IMU_CONFIG_FAIL;
 206:../../../mod/imu/imu.c ****         }
 207:../../../mod/imu/imu.c ****     imu_status = write_imu_reg( IMU_REG_ACC_RANGE,
 208:../../../mod/imu/imu.c ****                                 imu_config_ptr -> acc_range );
 209:../../../mod/imu/imu.c ****     if ( imu_status != IMU_OK )
 210:../../../mod/imu/imu.c ****         {
 211:../../../mod/imu/imu.c ****         return IMU_CONFIG_FAIL;
 212:../../../mod/imu/imu.c ****         }
 213:../../../mod/imu/imu.c ****     
 214:../../../mod/imu/imu.c ****     /* Configure the Gyroscope */
 215:../../../mod/imu/imu.c ****     imu_status = write_imu_reg( IMU_REG_GYR_CONF, imu_gyr_conf );
 216:../../../mod/imu/imu.c ****     if ( imu_status != IMU_OK )
 217:../../../mod/imu/imu.c ****         {
 218:../../../mod/imu/imu.c ****         return IMU_CONFIG_FAIL;
 219:../../../mod/imu/imu.c ****         }
 220:../../../mod/imu/imu.c ****     imu_status = write_imu_reg( IMU_REG_GYR_RANGE, 
 221:../../../mod/imu/imu.c ****                                 imu_config_ptr -> gyro_range );
 222:../../../mod/imu/imu.c ****     if ( imu_status != IMU_OK )
 223:../../../mod/imu/imu.c ****         {
 224:../../../mod/imu/imu.c ****         return IMU_CONFIG_FAIL;
 225:../../../mod/imu/imu.c ****         }
 226:../../../mod/imu/imu.c **** 
 227:../../../mod/imu/imu.c ****     /* Disable Advanced Power Save */
 228:../../../mod/imu/imu.c ****     imu_status = write_imu_reg( IMU_REG_PWR_CONF, 0x02 );
 229:../../../mod/imu/imu.c ****     if ( imu_status != IMU_OK )
 230:../../../mod/imu/imu.c ****         {
 231:../../../mod/imu/imu.c ****         return IMU_CONFIG_FAIL;
 232:../../../mod/imu/imu.c ****         }
 233:../../../mod/imu/imu.c **** 
 234:../../../mod/imu/imu.c ****     /* Readout sensor registers */
 235:../../../mod/imu/imu.c ****     imu_status = read_imu_regs( IMU_REG_DATA_8     , 
 236:../../../mod/imu/imu.c ****                                 &imu_sensor_data[0], 
 237:../../../mod/imu/imu.c ****                                 sizeof( imu_sensor_data ) );
 238:../../../mod/imu/imu.c ****     if ( imu_status != IMU_OK )
 239:../../../mod/imu/imu.c ****         {
 240:../../../mod/imu/imu.c ****         return IMU_CONFIG_FAIL; 
 241:../../../mod/imu/imu.c ****         }
 242:../../../mod/imu/imu.c **** 
 243:../../../mod/imu/imu.c ****     /* Initialize the magnetometer */
 244:../../../mod/imu/imu.c ****     imu_status = mag_init( imu_config_ptr );
 245:../../../mod/imu/imu.c ****     if ( imu_status != IMU_OK )
 246:../../../mod/imu/imu.c ****         {
 247:../../../mod/imu/imu.c ****         return IMU_MAG_INIT_FAIL;
 248:../../../mod/imu/imu.c ****         }
 249:../../../mod/imu/imu.c **** #endif /* #if defined( A0002_REV2 ) */
 250:../../../mod/imu/imu.c **** 
 251:../../../mod/imu/imu.c **** /* IMU Inititialization Successful */
 252:../../../mod/imu/imu.c **** return IMU_OK;
 253:../../../mod/imu/imu.c **** } /* imu_init */
 254:../../../mod/imu/imu.c **** #endif /* #if defined( A0002_REV2 ) */
 255:../../../mod/imu/imu.c **** 
 256:../../../mod/imu/imu.c **** 
 257:../../../mod/imu/imu.c **** /*******************************************************************************
 258:../../../mod/imu/imu.c **** *                                                                              *
 259:../../../mod/imu/imu.c **** * PROCEDURE:                                                                   * 
ARM GAS  C:\Users\tnguy\AppData\Local\Temp\ccrLQ3au.s 			page 6


 260:../../../mod/imu/imu.c **** * 		imu_get_accel_xyz                                                      *
 261:../../../mod/imu/imu.c **** *                                                                              *
 262:../../../mod/imu/imu.c **** * DESCRIPTION:                                                                 * 
 263:../../../mod/imu/imu.c **** * 		Return the pointer to structure that updates the                       * 
 264:../../../mod/imu/imu.c **** *       x,y,z acceleration values from the IMU                                 *
 265:../../../mod/imu/imu.c **** *                                                                              *
 266:../../../mod/imu/imu.c **** *******************************************************************************/
 267:../../../mod/imu/imu.c **** IMU_STATUS imu_get_accel_xyz
 268:../../../mod/imu/imu.c ****     (
 269:../../../mod/imu/imu.c ****     IMU_DATA *pIMU
 270:../../../mod/imu/imu.c ****     )
 271:../../../mod/imu/imu.c **** {
 272:../../../mod/imu/imu.c **** /*------------------------------------------------------------------------------
 273:../../../mod/imu/imu.c ****  Local variables 
 274:../../../mod/imu/imu.c **** ------------------------------------------------------------------------------*/
 275:../../../mod/imu/imu.c **** uint8_t       regAccel[6];    /* Bytes from accelerometer registers */
 276:../../../mod/imu/imu.c **** uint16_t      accel_x_raw ;   /* Raw sensor readouts                */    
 277:../../../mod/imu/imu.c **** uint16_t      accel_y_raw ;  
 278:../../../mod/imu/imu.c **** uint16_t      accel_z_raw ; 
 279:../../../mod/imu/imu.c **** IMU_STATUS    imu_status;     /* IMU status codes                   */
 280:../../../mod/imu/imu.c **** 
 281:../../../mod/imu/imu.c **** 
 282:../../../mod/imu/imu.c **** /*------------------------------------------------------------------------------
 283:../../../mod/imu/imu.c ****  API function implementation 
 284:../../../mod/imu/imu.c **** ------------------------------------------------------------------------------*/
 285:../../../mod/imu/imu.c **** 
 286:../../../mod/imu/imu.c **** /* Read ACCEL_X, ACCEL_Y, ACCEL_Z high byte and low byte registers */
 287:../../../mod/imu/imu.c **** #if   defined( A0002_REV1 )
 288:../../../mod/imu/imu.c ****     imu_status = read_imu_regs( IMU_REG_ACCEL_XOUT_H, 
 289:../../../mod/imu/imu.c ****                                 &regAccel[0]        , 
 290:../../../mod/imu/imu.c ****                                 sizeof( regAccel ) );
 291:../../../mod/imu/imu.c **** #elif defined( A0002_REV2 )
 292:../../../mod/imu/imu.c ****     imu_status = read_imu_regs( IMU_REG_DATA_8, 
 293:../../../mod/imu/imu.c ****                                 &regAccel[0]  ,
 294:../../../mod/imu/imu.c ****                                 sizeof( regAccel ) );
 295:../../../mod/imu/imu.c **** #endif
 296:../../../mod/imu/imu.c **** 
 297:../../../mod/imu/imu.c **** /* Check for HAL IMU error */
 298:../../../mod/imu/imu.c **** if ( imu_status != IMU_OK )
 299:../../../mod/imu/imu.c **** 	{
 300:../../../mod/imu/imu.c **** 	return imu_status;
 301:../../../mod/imu/imu.c **** 	}
 302:../../../mod/imu/imu.c **** 
 303:../../../mod/imu/imu.c **** /* Combine high byte and low byte to 16 bit data */ 
 304:../../../mod/imu/imu.c **** #if   defined( A0002_REV1 )
 305:../../../mod/imu/imu.c ****     accel_x_raw    = ( (uint16_t) regAccel[0] ) << 8  | regAccel[1];
 306:../../../mod/imu/imu.c ****     accel_y_raw    = ( (uint16_t) regAccel[2] ) << 8  | regAccel[3];
 307:../../../mod/imu/imu.c ****     accel_z_raw    = ( (uint16_t) regAccel[4] ) << 8  | regAccel[5]; 
 308:../../../mod/imu/imu.c **** #elif defined( A0002_REV2 )
 309:../../../mod/imu/imu.c ****     accel_x_raw    = ( (uint16_t) regAccel[1] ) << 8  | regAccel[0];
 310:../../../mod/imu/imu.c ****     accel_y_raw    = ( (uint16_t) regAccel[3] ) << 8  | regAccel[2];
 311:../../../mod/imu/imu.c ****     accel_z_raw    = ( (uint16_t) regAccel[5] ) << 8  | regAccel[4]; 
 312:../../../mod/imu/imu.c **** #endif
 313:../../../mod/imu/imu.c **** 
 314:../../../mod/imu/imu.c **** /* Export data to IMU sstruct */
 315:../../../mod/imu/imu.c **** pIMU->accel_x = accel_x_raw;
 316:../../../mod/imu/imu.c **** pIMU->accel_y = accel_y_raw;
ARM GAS  C:\Users\tnguy\AppData\Local\Temp\ccrLQ3au.s 			page 7


 317:../../../mod/imu/imu.c **** pIMU->accel_z = accel_z_raw;
 318:../../../mod/imu/imu.c **** 
 319:../../../mod/imu/imu.c **** return IMU_OK;
 320:../../../mod/imu/imu.c **** } /* imu_get_accel_xyz */
 321:../../../mod/imu/imu.c **** 
 322:../../../mod/imu/imu.c **** 
 323:../../../mod/imu/imu.c **** /*******************************************************************************
 324:../../../mod/imu/imu.c **** *                                                                              *
 325:../../../mod/imu/imu.c **** * PROCEDURE:                                                                   * 
 326:../../../mod/imu/imu.c **** * 		imu_get_gryo_xyz                                                       *
 327:../../../mod/imu/imu.c **** *                                                                              *
 328:../../../mod/imu/imu.c **** * DESCRIPTION:                                                                 * 
 329:../../../mod/imu/imu.c **** * 		Return the pointer to structure that updates the x,y,z gyro values     * 
 330:../../../mod/imu/imu.c **** *       from the IMU                                                           *
 331:../../../mod/imu/imu.c **** *                                                                              *
 332:../../../mod/imu/imu.c **** *******************************************************************************/
 333:../../../mod/imu/imu.c **** IMU_STATUS imu_get_gyro_xyz
 334:../../../mod/imu/imu.c ****     (
 335:../../../mod/imu/imu.c ****     IMU_DATA *pIMU
 336:../../../mod/imu/imu.c ****     )
 337:../../../mod/imu/imu.c **** {
 338:../../../mod/imu/imu.c **** /*------------------------------------------------------------------------------
 339:../../../mod/imu/imu.c ****  Local variables 
 340:../../../mod/imu/imu.c **** ------------------------------------------------------------------------------*/
 341:../../../mod/imu/imu.c **** uint8_t     regGyro[6];   /* Bytes from gyro registers */
 342:../../../mod/imu/imu.c **** uint16_t    gyro_x_raw;   /* Raw gyro sensor readouts  */
 343:../../../mod/imu/imu.c **** uint16_t    gyro_y_raw; 
 344:../../../mod/imu/imu.c **** uint16_t    gyro_z_raw; 
 345:../../../mod/imu/imu.c **** IMU_STATUS  imu_status;   /* IMU status return codes   */
 346:../../../mod/imu/imu.c **** 
 347:../../../mod/imu/imu.c **** 
 348:../../../mod/imu/imu.c **** /*------------------------------------------------------------------------------
 349:../../../mod/imu/imu.c ****  API function implementation 
 350:../../../mod/imu/imu.c **** ------------------------------------------------------------------------------*/
 351:../../../mod/imu/imu.c **** 
 352:../../../mod/imu/imu.c **** /* Read GYRO_X, GYRO_Y, GYRO_Z high byte and low byte registers */
 353:../../../mod/imu/imu.c **** #if   defined( A0002_REV1 )
 354:../../../mod/imu/imu.c ****     imu_status = read_imu_regs( IMU_REG_GYRO_XOUT_H, 
 355:../../../mod/imu/imu.c ****                                 &regGyro[0]        , 
 356:../../../mod/imu/imu.c ****                                 sizeof( regGyro ) );
 357:../../../mod/imu/imu.c **** #elif defined( A0002_REV2 )
 358:../../../mod/imu/imu.c ****     imu_status = read_imu_regs( IMU_REG_DATA_14, 
 359:../../../mod/imu/imu.c ****                                 &regGyro[0]    , 
 360:../../../mod/imu/imu.c ****                                 sizeof( regGyro ) );
 361:../../../mod/imu/imu.c **** #endif
 362:../../../mod/imu/imu.c ****  
 363:../../../mod/imu/imu.c **** /* Check for HAL IMU error */
 364:../../../mod/imu/imu.c **** if ( imu_status != IMU_OK )
 365:../../../mod/imu/imu.c **** 	{
 366:../../../mod/imu/imu.c **** 	return imu_status;
 367:../../../mod/imu/imu.c **** 	}
 368:../../../mod/imu/imu.c **** 
 369:../../../mod/imu/imu.c **** /* Combine high byte and low byte to 16 bit data  */
 370:../../../mod/imu/imu.c **** #if   defined( A0002_REV1 )
 371:../../../mod/imu/imu.c ****     gyro_x_raw = ( (uint16_t) regGyro[0] ) << 8 | regGyro[1];
 372:../../../mod/imu/imu.c ****     gyro_y_raw = ( (uint16_t) regGyro[0] ) << 8 | regGyro[1];
 373:../../../mod/imu/imu.c ****     gyro_z_raw = ( (uint16_t) regGyro[0] ) << 8 | regGyro[1];
ARM GAS  C:\Users\tnguy\AppData\Local\Temp\ccrLQ3au.s 			page 8


 374:../../../mod/imu/imu.c **** #elif defined( A0002_REV2 )
 375:../../../mod/imu/imu.c ****     gyro_x_raw = ( (uint16_t) regGyro[1] ) << 8 | regGyro[0];
 376:../../../mod/imu/imu.c ****     gyro_y_raw = ( (uint16_t) regGyro[3] ) << 8 | regGyro[2];
 377:../../../mod/imu/imu.c ****     gyro_z_raw = ( (uint16_t) regGyro[5] ) << 8 | regGyro[4];
 378:../../../mod/imu/imu.c **** #endif
 379:../../../mod/imu/imu.c **** 
 380:../../../mod/imu/imu.c **** /* Export Sensor Readouts */
 381:../../../mod/imu/imu.c **** pIMU->gyro_x = gyro_x_raw;
 382:../../../mod/imu/imu.c **** pIMU->gyro_y = gyro_y_raw;
 383:../../../mod/imu/imu.c **** pIMU->gyro_z = gyro_z_raw; 
 384:../../../mod/imu/imu.c **** 
 385:../../../mod/imu/imu.c **** return IMU_OK;
 386:../../../mod/imu/imu.c **** } /* imu_get_gyro_xyz */
 387:../../../mod/imu/imu.c **** 
 388:../../../mod/imu/imu.c **** 
 389:../../../mod/imu/imu.c **** /*******************************************************************************
 390:../../../mod/imu/imu.c **** *                                                                              *
 391:../../../mod/imu/imu.c **** * PROCEDURE:                                                                   * 
 392:../../../mod/imu/imu.c **** * 		imu_get_mag_xyz                                                        *
 393:../../../mod/imu/imu.c **** *                                                                              *
 394:../../../mod/imu/imu.c **** * DESCRIPTION:                                                                 * 
 395:../../../mod/imu/imu.c **** * 		Return the pointer to structure that updates the x,y,z magnetometer    *
 396:../../../mod/imu/imu.c **** *       values from the IMU                                                    *
 397:../../../mod/imu/imu.c **** *                                                                              *
 398:../../../mod/imu/imu.c **** *******************************************************************************/
 399:../../../mod/imu/imu.c **** IMU_STATUS imu_get_mag_xyz
 400:../../../mod/imu/imu.c ****     (
 401:../../../mod/imu/imu.c ****     IMU_DATA *pIMU
 402:../../../mod/imu/imu.c ****     )
 403:../../../mod/imu/imu.c **** {
 404:../../../mod/imu/imu.c **** /*------------------------------------------------------------------------------
 405:../../../mod/imu/imu.c ****  Local variables 
 406:../../../mod/imu/imu.c **** ------------------------------------------------------------------------------*/
 407:../../../mod/imu/imu.c **** uint8_t     regMag[6];    /* Magnetometer register bytes      */
 408:../../../mod/imu/imu.c **** uint16_t    mag_x_raw;    /* Raw magnetometer sensor readouts */ 
 409:../../../mod/imu/imu.c **** uint16_t    mag_y_raw; 
 410:../../../mod/imu/imu.c **** uint16_t    mag_z_raw; 
 411:../../../mod/imu/imu.c **** IMU_STATUS  imu_status;   /* IMU status return codes          */
 412:../../../mod/imu/imu.c **** 
 413:../../../mod/imu/imu.c **** 
 414:../../../mod/imu/imu.c **** /*------------------------------------------------------------------------------
 415:../../../mod/imu/imu.c ****  API function implementation 
 416:../../../mod/imu/imu.c **** ------------------------------------------------------------------------------*/
 417:../../../mod/imu/imu.c **** 
 418:../../../mod/imu/imu.c **** /* Read MAG_X, MAG_Y, MAG_Z high byte and low byte registers */
 419:../../../mod/imu/imu.c **** #if   defined( A0002_REV1 )
 420:../../../mod/imu/imu.c ****     imu_status = read_mag_regs( IMU_REG_MAG_XOUT_H, 
 421:../../../mod/imu/imu.c ****                                 &regMag[0]        , 
 422:../../../mod/imu/imu.c ****                                 sizeof( regMag ) );
 423:../../../mod/imu/imu.c **** #elif defined( A0002_REV2 )
 424:../../../mod/imu/imu.c ****     imu_status = read_mag_regs( MAG_REG_DATAX_L, 
 425:../../../mod/imu/imu.c ****                                 &regMag[0]     , 
 426:../../../mod/imu/imu.c ****                                 sizeof( regMag ) );
 427:../../../mod/imu/imu.c **** #endif
 428:../../../mod/imu/imu.c **** 
 429:../../../mod/imu/imu.c **** /* Check for HAL IMU error */
 430:../../../mod/imu/imu.c **** if ( imu_status == IMU_TIMEOUT )
ARM GAS  C:\Users\tnguy\AppData\Local\Temp\ccrLQ3au.s 			page 9


 431:../../../mod/imu/imu.c **** 	{
 432:../../../mod/imu/imu.c **** 	return IMU_TIMEOUT;
 433:../../../mod/imu/imu.c **** 	}
 434:../../../mod/imu/imu.c **** 
 435:../../../mod/imu/imu.c **** /* Combine high byte and low byte to 16 bit data */
 436:../../../mod/imu/imu.c **** #if   defined( A0002_REV1 )
 437:../../../mod/imu/imu.c ****     mag_x_raw  = ( (uint16_t) regMag[1] ) << 8 | regMag[0];
 438:../../../mod/imu/imu.c ****     mag_y_raw  = ( (uint16_t) regMag[3] ) << 8 | regMag[2];
 439:../../../mod/imu/imu.c ****     mag_z_raw  = ( (uint16_t) regMag[5] ) << 8 | regMag[4];
 440:../../../mod/imu/imu.c **** #elif defined( A0002_REV2 )
 441:../../../mod/imu/imu.c ****     mag_x_raw  = (   (uint16_t) regMag[1]                         << MAG_XY_MSB_BITSHIFT ) | 
 442:../../../mod/imu/imu.c ****                  ( ( (uint16_t) regMag[0] && MAG_XY_LSB_BITMASK ) >> MAG_XY_LSB_BITSHIFT );
 443:../../../mod/imu/imu.c ****     mag_y_raw  = (   (uint16_t) regMag[3]                         << MAG_XY_MSB_BITSHIFT ) | 
 444:../../../mod/imu/imu.c ****                  ( ( (uint16_t) regMag[2] && MAG_XY_LSB_BITMASK ) >> MAG_XY_LSB_BITSHIFT );
 445:../../../mod/imu/imu.c ****     mag_z_raw  = (   (uint16_t) regMag[5]                         << MAG_Z_MSB_BITSHIFT  ) | 
 446:../../../mod/imu/imu.c ****                  ( ( (uint16_t) regMag[4] && MAG_Z_LSB_BITMASK )  >> MAG_Z_LSB_BITSHIFT  );
 447:../../../mod/imu/imu.c **** #endif
 448:../../../mod/imu/imu.c **** 
 449:../../../mod/imu/imu.c **** /* Export sensor data */
 450:../../../mod/imu/imu.c **** pIMU->mag_x = mag_x_raw;
 451:../../../mod/imu/imu.c **** pIMU->mag_y = mag_y_raw;
 452:../../../mod/imu/imu.c **** pIMU->mag_z = mag_z_raw;
 453:../../../mod/imu/imu.c **** 
 454:../../../mod/imu/imu.c **** return IMU_OK;
 455:../../../mod/imu/imu.c **** } /* imu_get_mag_xyz */
 456:../../../mod/imu/imu.c **** 
 457:../../../mod/imu/imu.c **** 
 458:../../../mod/imu/imu.c **** /*******************************************************************************
 459:../../../mod/imu/imu.c **** *                                                                              *
 460:../../../mod/imu/imu.c **** * PROCEDURE:                                                                   *
 461:../../../mod/imu/imu.c **** * 		imu_get_device_id                                                      *
 462:../../../mod/imu/imu.c **** *                                                                              *
 463:../../../mod/imu/imu.c **** * DESCRIPTION:                                                                 *
 464:../../../mod/imu/imu.c **** * 		return the device ID of the IMU to verify that the                     *
 465:../../../mod/imu/imu.c **** *       IMU registers are accessible                                           *
 466:../../../mod/imu/imu.c **** *                                                                              *
 467:../../../mod/imu/imu.c **** *******************************************************************************/
 468:../../../mod/imu/imu.c **** IMU_STATUS imu_get_device_id
 469:../../../mod/imu/imu.c ****     (
 470:../../../mod/imu/imu.c ****     uint8_t* pdevice_id 
 471:../../../mod/imu/imu.c ****     )
 472:../../../mod/imu/imu.c **** {
 473:../../../mod/imu/imu.c **** /*------------------------------------------------------------------------------
 474:../../../mod/imu/imu.c ****  Local variables 
 475:../../../mod/imu/imu.c **** ------------------------------------------------------------------------------*/
 476:../../../mod/imu/imu.c **** IMU_STATUS  imu_status;
 477:../../../mod/imu/imu.c **** 
 478:../../../mod/imu/imu.c **** 
 479:../../../mod/imu/imu.c **** /*------------------------------------------------------------------------------
 480:../../../mod/imu/imu.c ****  API function implementation 
 481:../../../mod/imu/imu.c **** ------------------------------------------------------------------------------*/
 482:../../../mod/imu/imu.c **** 
 483:../../../mod/imu/imu.c **** /* Read Device ID register */
 484:../../../mod/imu/imu.c **** #if defined( A0002_REV1 )
 485:../../../mod/imu/imu.c ****     imu_status = read_imu_regs( IMU_REG_WHO_AM_I, pdevice_id, sizeof( uint8_t ) );
 486:../../../mod/imu/imu.c **** #elif defined( A0002_REV2 )
 487:../../../mod/imu/imu.c ****     imu_status = read_imu_regs( IMU_REG_CHIP_ID, pdevice_id, sizeof( uint8_t ) );
ARM GAS  C:\Users\tnguy\AppData\Local\Temp\ccrLQ3au.s 			page 10


 488:../../../mod/imu/imu.c **** #endif
 489:../../../mod/imu/imu.c **** 
 490:../../../mod/imu/imu.c **** if ( *pdevice_id != IMU_ID )
 491:../../../mod/imu/imu.c ****     {
 492:../../../mod/imu/imu.c ****     imu_status = IMU_UNRECOGNIZED_OP;
 493:../../../mod/imu/imu.c ****     }
 494:../../../mod/imu/imu.c **** 
 495:../../../mod/imu/imu.c **** return imu_status;
 496:../../../mod/imu/imu.c **** } /* imu_get_device_id */
 497:../../../mod/imu/imu.c **** 
 498:../../../mod/imu/imu.c **** 
 499:../../../mod/imu/imu.c **** /*------------------------------------------------------------------------------
 500:../../../mod/imu/imu.c ****  Internal procedures 
 501:../../../mod/imu/imu.c **** ------------------------------------------------------------------------------*/
 502:../../../mod/imu/imu.c **** 
 503:../../../mod/imu/imu.c **** #if defined( A0002_REV2 )
 504:../../../mod/imu/imu.c **** /*******************************************************************************
 505:../../../mod/imu/imu.c **** *                                                                              *
 506:../../../mod/imu/imu.c **** * PROCEDURE:                                                                   *
 507:../../../mod/imu/imu.c **** * 		mag_init                                                               *
 508:../../../mod/imu/imu.c **** *                                                                              *
 509:../../../mod/imu/imu.c **** * DESCRIPTION:                                                                 *
 510:../../../mod/imu/imu.c **** *       Initialize the magnetometer                                            *
 511:../../../mod/imu/imu.c **** *                                                                              *
 512:../../../mod/imu/imu.c **** *******************************************************************************/
 513:../../../mod/imu/imu.c **** static IMU_STATUS mag_init
 514:../../../mod/imu/imu.c ****     (
 515:../../../mod/imu/imu.c ****     IMU_CONFIG* imu_config_ptr
 516:../../../mod/imu/imu.c ****     )
 517:../../../mod/imu/imu.c **** {
 518:../../../mod/imu/imu.c **** /*------------------------------------------------------------------------------
 519:../../../mod/imu/imu.c ****  Local variables  
 520:../../../mod/imu/imu.c **** ------------------------------------------------------------------------------*/
 521:../../../mod/imu/imu.c **** IMU_STATUS imu_status;      /* Status return codes from IMU API     */
 522:../../../mod/imu/imu.c **** uint8_t    device_id;       /* Magnetometer Device ID               */
 523:../../../mod/imu/imu.c **** uint8_t    num_reps_xy_reg; /* Content of XY repetititions register */
 524:../../../mod/imu/imu.c **** uint8_t    num_reps_z_reg;  /* Content of Z repititions register    */
 525:../../../mod/imu/imu.c **** 
 526:../../../mod/imu/imu.c **** 
 527:../../../mod/imu/imu.c **** /*------------------------------------------------------------------------------
 528:../../../mod/imu/imu.c ****  Initializations 
 529:../../../mod/imu/imu.c **** ------------------------------------------------------------------------------*/
 530:../../../mod/imu/imu.c **** imu_status      = IMU_OK;
 531:../../../mod/imu/imu.c **** device_id       = 0;
 532:../../../mod/imu/imu.c **** num_reps_xy_reg = ( ( imu_config_ptr -> mag_xy_repititions ) - 1 ) >> 2;
 533:../../../mod/imu/imu.c **** num_reps_z_reg  = ( ( imu_config_ptr -> mag_z_repititions  ) - 1 );
 534:../../../mod/imu/imu.c **** 
 535:../../../mod/imu/imu.c **** 
 536:../../../mod/imu/imu.c **** /*------------------------------------------------------------------------------
 537:../../../mod/imu/imu.c ****  API function implementation 
 538:../../../mod/imu/imu.c **** ------------------------------------------------------------------------------*/
 539:../../../mod/imu/imu.c **** 
 540:../../../mod/imu/imu.c **** /* Put the Magnetometer into sleep mode from suspend mode */
 541:../../../mod/imu/imu.c **** imu_status = write_mag_reg( MAG_REG_PWR_CTRL, 0x01 );
 542:../../../mod/imu/imu.c **** if ( imu_status != IMU_OK )
 543:../../../mod/imu/imu.c ****     {
 544:../../../mod/imu/imu.c ****     return imu_status;
ARM GAS  C:\Users\tnguy\AppData\Local\Temp\ccrLQ3au.s 			page 11


 545:../../../mod/imu/imu.c ****     }
 546:../../../mod/imu/imu.c **** 
 547:../../../mod/imu/imu.c **** /* Check Device ID */
 548:../../../mod/imu/imu.c **** HAL_Delay( 5 );
 549:../../../mod/imu/imu.c **** imu_status = read_mag_regs( MAG_REG_CHIP_ID, &device_id, sizeof( device_id ) );
 550:../../../mod/imu/imu.c **** if      ( imu_status != IMU_OK )
 551:../../../mod/imu/imu.c ****     {
 552:../../../mod/imu/imu.c ****     return imu_status;
 553:../../../mod/imu/imu.c ****     }
 554:../../../mod/imu/imu.c **** else if ( device_id != MAG_ID )
 555:../../../mod/imu/imu.c ****     {
 556:../../../mod/imu/imu.c ****     return IMU_MAG_UNRECOGNIZED_ID; 
 557:../../../mod/imu/imu.c ****     }
 558:../../../mod/imu/imu.c **** 
 559:../../../mod/imu/imu.c **** /* Set the magnetometer operating mode and output data rate */
 560:../../../mod/imu/imu.c **** imu_status = write_mag_reg( MAG_REG_CTRL1, 
 561:../../../mod/imu/imu.c ****                             ( imu_config_ptr -> mag_op_mode ) |
 562:../../../mod/imu/imu.c ****                             ( imu_config_ptr -> mag_odr     ) ); 
 563:../../../mod/imu/imu.c **** if ( imu_status != IMU_OK )
 564:../../../mod/imu/imu.c ****     {
 565:../../../mod/imu/imu.c ****     return imu_status;
 566:../../../mod/imu/imu.c ****     }
 567:../../../mod/imu/imu.c **** 
 568:../../../mod/imu/imu.c **** /* Set the magnetometer measurement repetitions */
 569:../../../mod/imu/imu.c **** imu_status = write_mag_reg( MAG_REG_REP_CTRL_XY, num_reps_xy_reg );
 570:../../../mod/imu/imu.c **** if ( imu_status != IMU_OK )
 571:../../../mod/imu/imu.c ****     {
 572:../../../mod/imu/imu.c ****     return imu_status;
 573:../../../mod/imu/imu.c ****     }
 574:../../../mod/imu/imu.c **** imu_status = write_mag_reg( MAG_REG_REP_CTRL_Z, num_reps_z_reg );
 575:../../../mod/imu/imu.c **** if ( imu_status != IMU_OK )
 576:../../../mod/imu/imu.c ****     {
 577:../../../mod/imu/imu.c ****     return imu_status;
 578:../../../mod/imu/imu.c ****     }
 579:../../../mod/imu/imu.c **** 
 580:../../../mod/imu/imu.c **** /* Successful magnetometer Initialization */
 581:../../../mod/imu/imu.c **** return IMU_OK;
 582:../../../mod/imu/imu.c **** } /* mag_init */
 583:../../../mod/imu/imu.c **** #endif /* #if defined( A0002_REV2 ) */
 584:../../../mod/imu/imu.c **** 
 585:../../../mod/imu/imu.c **** 
 586:../../../mod/imu/imu.c **** /*******************************************************************************
 587:../../../mod/imu/imu.c **** *                                                                              *
 588:../../../mod/imu/imu.c **** * PROCEDURE:                                                                   *
 589:../../../mod/imu/imu.c **** * 		read_mag_regs                                                          *
 590:../../../mod/imu/imu.c **** *                                                                              *
 591:../../../mod/imu/imu.c **** * DESCRIPTION:                                                                 *
 592:../../../mod/imu/imu.c **** * 		Read the specific numbers of registers at one time from magnetometer   *
 593:../../../mod/imu/imu.c **** *       module in the IMU                                                      *
 594:../../../mod/imu/imu.c **** *                                                                              *
 595:../../../mod/imu/imu.c **** *******************************************************************************/
 596:../../../mod/imu/imu.c **** static IMU_STATUS read_mag_regs 
 597:../../../mod/imu/imu.c ****     (
 598:../../../mod/imu/imu.c ****     uint8_t  reg_addr,
 599:../../../mod/imu/imu.c ****     uint8_t* data_ptr, 
 600:../../../mod/imu/imu.c ****     uint8_t  num_regs
 601:../../../mod/imu/imu.c ****     )
ARM GAS  C:\Users\tnguy\AppData\Local\Temp\ccrLQ3au.s 			page 12


 602:../../../mod/imu/imu.c **** {
 603:../../../mod/imu/imu.c ****     
 604:../../../mod/imu/imu.c **** /*------------------------------------------------------------------------------
 605:../../../mod/imu/imu.c ****  Local variables  
 606:../../../mod/imu/imu.c **** ------------------------------------------------------------------------------*/
 607:../../../mod/imu/imu.c **** HAL_StatusTypeDef hal_status;     /* Status return code of I2C HAL */
 608:../../../mod/imu/imu.c **** 
 609:../../../mod/imu/imu.c **** 
 610:../../../mod/imu/imu.c **** /*------------------------------------------------------------------------------
 611:../../../mod/imu/imu.c ****  API function implementation 
 612:../../../mod/imu/imu.c **** ------------------------------------------------------------------------------*/
 613:../../../mod/imu/imu.c **** 
 614:../../../mod/imu/imu.c **** /* Read I2C registers */
 615:../../../mod/imu/imu.c **** hal_status = HAL_I2C_Mem_Read( &( IMU_I2C )        , 
 616:../../../mod/imu/imu.c ****                                IMU_MAG_ADDR        , 
 617:../../../mod/imu/imu.c ****                                reg_addr            , 
 618:../../../mod/imu/imu.c ****                                I2C_MEMADD_SIZE_8BIT, 
 619:../../../mod/imu/imu.c ****                                data_ptr            , 
 620:../../../mod/imu/imu.c ****                                num_regs            , 
 621:../../../mod/imu/imu.c ****                                HAL_IMU_TIMEOUT );
 622:../../../mod/imu/imu.c **** 
 623:../../../mod/imu/imu.c **** /* Return status code of I2C HAL */
 624:../../../mod/imu/imu.c **** if ( hal_status != HAL_OK ) 
 625:../../../mod/imu/imu.c **** 	{
 626:../../../mod/imu/imu.c **** 	return IMU_MAG_ERROR;
 627:../../../mod/imu/imu.c **** 	}
 628:../../../mod/imu/imu.c **** else 
 629:../../../mod/imu/imu.c **** 	{
 630:../../../mod/imu/imu.c **** 	return IMU_OK;
 631:../../../mod/imu/imu.c **** 	}
 632:../../../mod/imu/imu.c **** 
 633:../../../mod/imu/imu.c **** } /* read_mag_regs */
 634:../../../mod/imu/imu.c **** 
 635:../../../mod/imu/imu.c **** 
 636:../../../mod/imu/imu.c **** /*******************************************************************************
 637:../../../mod/imu/imu.c **** *                                                                              *
 638:../../../mod/imu/imu.c **** * PROCEDURE:                                                                   *
 639:../../../mod/imu/imu.c **** * 		read_imu_regs                                                          *
 640:../../../mod/imu/imu.c **** *                                                                              *
 641:../../../mod/imu/imu.c **** * DESCRIPTION:                                                                 *
 642:../../../mod/imu/imu.c **** * 		Read the specific numbers of registers at one time from acceleration   *
 643:../../../mod/imu/imu.c **** *       and gyroscope module in the IMU                                        *
 644:../../../mod/imu/imu.c **** *                                                                              *
 645:../../../mod/imu/imu.c **** *******************************************************************************/
 646:../../../mod/imu/imu.c **** static IMU_STATUS read_imu_regs 
 647:../../../mod/imu/imu.c ****     (
 648:../../../mod/imu/imu.c ****     uint8_t  reg_addr, /* Register address            */
 649:../../../mod/imu/imu.c ****     uint8_t* data_ptr, /* Register data               */ 
 650:../../../mod/imu/imu.c ****     uint8_t  num_regs  /* Number of registers to read */
 651:../../../mod/imu/imu.c ****     )
 652:../../../mod/imu/imu.c **** {
 653:../../../mod/imu/imu.c **** /*------------------------------------------------------------------------------
 654:../../../mod/imu/imu.c ****  Local variables  
 655:../../../mod/imu/imu.c **** ------------------------------------------------------------------------------*/
 656:../../../mod/imu/imu.c **** HAL_StatusTypeDef hal_status;    /* Status of I2C HAL */
 657:../../../mod/imu/imu.c **** 
 658:../../../mod/imu/imu.c **** 
ARM GAS  C:\Users\tnguy\AppData\Local\Temp\ccrLQ3au.s 			page 13


 659:../../../mod/imu/imu.c **** /*------------------------------------------------------------------------------
 660:../../../mod/imu/imu.c ****  Implementation 
 661:../../../mod/imu/imu.c **** ------------------------------------------------------------------------------*/
 662:../../../mod/imu/imu.c **** 
 663:../../../mod/imu/imu.c **** /* Read I2C register */
 664:../../../mod/imu/imu.c **** hal_status = HAL_I2C_Mem_Read( &( IMU_I2C )        , 
 665:../../../mod/imu/imu.c ****                                IMU_ADDR            , 
 666:../../../mod/imu/imu.c ****                                reg_addr            , 
 667:../../../mod/imu/imu.c ****                                I2C_MEMADD_SIZE_8BIT, 
 668:../../../mod/imu/imu.c ****                                data_ptr            , 
 669:../../../mod/imu/imu.c ****                                num_regs            , 
 670:../../../mod/imu/imu.c ****                                HAL_MAX_DELAY );
 671:../../../mod/imu/imu.c **** 
 672:../../../mod/imu/imu.c **** if ( hal_status != HAL_OK )
 673:../../../mod/imu/imu.c **** 	{
 674:../../../mod/imu/imu.c **** 	return IMU_ERROR;
 675:../../../mod/imu/imu.c **** 	}
 676:../../../mod/imu/imu.c **** else
 677:../../../mod/imu/imu.c **** 	{
 678:../../../mod/imu/imu.c **** 	return IMU_OK;
 679:../../../mod/imu/imu.c **** 	}
 680:../../../mod/imu/imu.c **** } /* read_imu_regs */
 681:../../../mod/imu/imu.c **** 
 682:../../../mod/imu/imu.c **** 
 683:../../../mod/imu/imu.c **** #if defined( A0002_REV2 )
 684:../../../mod/imu/imu.c **** /*******************************************************************************
 685:../../../mod/imu/imu.c **** *                                                                              *
 686:../../../mod/imu/imu.c **** * PROCEDURE:                                                                   *
 687:../../../mod/imu/imu.c **** * 		write_imu_reg                                                          *
 688:../../../mod/imu/imu.c **** *                                                                              *
 689:../../../mod/imu/imu.c **** * DESCRIPTION:                                                                 *
 690:../../../mod/imu/imu.c **** *       write to a specified IMU register                                      *
 691:../../../mod/imu/imu.c **** *                                                                              *
 692:../../../mod/imu/imu.c **** *******************************************************************************/
 693:../../../mod/imu/imu.c **** static IMU_STATUS write_imu_reg 
 694:../../../mod/imu/imu.c ****     (
 695:../../../mod/imu/imu.c ****     uint8_t reg_addr, /* Register address    */
 696:../../../mod/imu/imu.c ****     uint8_t data      /* Register data       */
 697:../../../mod/imu/imu.c ****     ) 
 698:../../../mod/imu/imu.c **** {
 699:../../../mod/imu/imu.c **** /*------------------------------------------------------------------------------
 700:../../../mod/imu/imu.c ****  Local variables  
 701:../../../mod/imu/imu.c **** ------------------------------------------------------------------------------*/
 702:../../../mod/imu/imu.c **** HAL_StatusTypeDef hal_status;    /* Status of I2C HAL */
 703:../../../mod/imu/imu.c **** 
 704:../../../mod/imu/imu.c **** 
 705:../../../mod/imu/imu.c **** /*------------------------------------------------------------------------------
 706:../../../mod/imu/imu.c ****  Initializations 
 707:../../../mod/imu/imu.c **** ------------------------------------------------------------------------------*/
 708:../../../mod/imu/imu.c **** hal_status = HAL_OK;
 709:../../../mod/imu/imu.c **** 
 710:../../../mod/imu/imu.c **** 
 711:../../../mod/imu/imu.c **** /*------------------------------------------------------------------------------
 712:../../../mod/imu/imu.c ****  Implementation 
 713:../../../mod/imu/imu.c **** ------------------------------------------------------------------------------*/
 714:../../../mod/imu/imu.c **** hal_status = HAL_I2C_Mem_Write( &( IMU_I2C )        , 
 715:../../../mod/imu/imu.c ****                                 IMU_ADDR            , 
ARM GAS  C:\Users\tnguy\AppData\Local\Temp\ccrLQ3au.s 			page 14


 716:../../../mod/imu/imu.c ****                                 reg_addr            , 
 717:../../../mod/imu/imu.c ****                                 I2C_MEMADD_SIZE_8BIT, 
 718:../../../mod/imu/imu.c ****                                 &data               , 
 719:../../../mod/imu/imu.c ****                                 sizeof( uint8_t )   , 
 720:../../../mod/imu/imu.c ****                                 HAL_IMU_TIMEOUT );
 721:../../../mod/imu/imu.c **** if ( hal_status != HAL_OK )
 722:../../../mod/imu/imu.c ****     {
 723:../../../mod/imu/imu.c ****     return IMU_I2C_ERROR;
 724:../../../mod/imu/imu.c ****     }
 725:../../../mod/imu/imu.c **** else
 726:../../../mod/imu/imu.c ****     {
 727:../../../mod/imu/imu.c ****     return IMU_OK;
 728:../../../mod/imu/imu.c ****     }
 729:../../../mod/imu/imu.c **** } /* write_imu_reg */
 730:../../../mod/imu/imu.c **** 
 731:../../../mod/imu/imu.c **** 
 732:../../../mod/imu/imu.c **** /*******************************************************************************
 733:../../../mod/imu/imu.c **** *                                                                              *
 734:../../../mod/imu/imu.c **** * PROCEDURE:                                                                   *
 735:../../../mod/imu/imu.c **** * 		write_imu_regs                                                         *
 736:../../../mod/imu/imu.c **** *                                                                              *
 737:../../../mod/imu/imu.c **** * DESCRIPTION:                                                                 *
 738:../../../mod/imu/imu.c **** *       write to specified IMU registers                                       *
 739:../../../mod/imu/imu.c **** *                                                                              *
 740:../../../mod/imu/imu.c **** *******************************************************************************/
 741:../../../mod/imu/imu.c **** static IMU_STATUS write_imu_regs 
 742:../../../mod/imu/imu.c ****     (
 743:../../../mod/imu/imu.c ****     uint8_t  reg_addr, /* Register address    */
 744:../../../mod/imu/imu.c ****     uint8_t* data_ptr, /* Register data       */
 745:../../../mod/imu/imu.c ****     uint32_t num_regs  /* Number of registers */
 746:../../../mod/imu/imu.c ****     ) 
 747:../../../mod/imu/imu.c **** {
  28              		.loc 1 747 1 view -0
  29              		.cfi_startproc
  30              		@ args = 0, pretend = 0, frame = 0
  31              		@ frame_needed = 0, uses_anonymous_args = 0
  32              		.loc 1 747 1 is_stmt 0 view .LVU1
  33 0000 00B5     		push	{lr}
  34              	.LCFI0:
  35              		.cfi_def_cfa_offset 4
  36              		.cfi_offset 14, -4
  37 0002 85B0     		sub	sp, sp, #20
  38              	.LCFI1:
  39              		.cfi_def_cfa_offset 24
 748:../../../mod/imu/imu.c **** /*------------------------------------------------------------------------------
 749:../../../mod/imu/imu.c ****  Local variables  
 750:../../../mod/imu/imu.c **** ------------------------------------------------------------------------------*/
 751:../../../mod/imu/imu.c **** HAL_StatusTypeDef hal_status;    /* Status of I2C HAL */
  40              		.loc 1 751 1 is_stmt 1 view .LVU2
 752:../../../mod/imu/imu.c **** 
 753:../../../mod/imu/imu.c **** 
 754:../../../mod/imu/imu.c **** /*------------------------------------------------------------------------------
 755:../../../mod/imu/imu.c ****  Initializations 
 756:../../../mod/imu/imu.c **** ------------------------------------------------------------------------------*/
 757:../../../mod/imu/imu.c **** hal_status = HAL_OK;
  41              		.loc 1 757 1 view .LVU3
  42              	.LVL1:
ARM GAS  C:\Users\tnguy\AppData\Local\Temp\ccrLQ3au.s 			page 15


 758:../../../mod/imu/imu.c **** 
 759:../../../mod/imu/imu.c **** 
 760:../../../mod/imu/imu.c **** /*------------------------------------------------------------------------------
 761:../../../mod/imu/imu.c ****  Implementation 
 762:../../../mod/imu/imu.c **** ------------------------------------------------------------------------------*/
 763:../../../mod/imu/imu.c **** hal_status = HAL_I2C_Mem_Write( &( IMU_I2C ), 
  43              		.loc 1 763 1 view .LVU4
  44              		.loc 1 763 14 is_stmt 0 view .LVU5
  45 0004 4FF0FF33 		mov	r3, #-1
  46 0008 0293     		str	r3, [sp, #8]
  47 000a 92B2     		uxth	r2, r2
  48              	.LVL2:
  49              		.loc 1 763 14 view .LVU6
  50 000c 0192     		str	r2, [sp, #4]
  51 000e 0091     		str	r1, [sp]
  52 0010 0123     		movs	r3, #1
  53 0012 0246     		mov	r2, r0
  54 0014 D021     		movs	r1, #208
  55              	.LVL3:
  56              		.loc 1 763 14 view .LVU7
  57 0016 0448     		ldr	r0, .L5
  58              	.LVL4:
  59              		.loc 1 763 14 view .LVU8
  60 0018 FFF7FEFF 		bl	HAL_I2C_Mem_Write
  61              	.LVL5:
 764:../../../mod/imu/imu.c ****                                 IMU_ADDR            , 
 765:../../../mod/imu/imu.c ****                                 reg_addr            , 
 766:../../../mod/imu/imu.c ****                                 I2C_MEMADD_SIZE_8BIT, 
 767:../../../mod/imu/imu.c ****                                 data_ptr            , 
 768:../../../mod/imu/imu.c ****                                 num_regs            , 
 769:../../../mod/imu/imu.c ****                                 HAL_MAX_DELAY );
 770:../../../mod/imu/imu.c **** if ( hal_status != HAL_OK )
  62              		.loc 1 770 1 is_stmt 1 view .LVU9
  63              		.loc 1 770 4 is_stmt 0 view .LVU10
  64 001c 10B9     		cbnz	r0, .L4
  65              	.L2:
 771:../../../mod/imu/imu.c ****     {
 772:../../../mod/imu/imu.c ****     return IMU_I2C_ERROR;
 773:../../../mod/imu/imu.c ****     }
 774:../../../mod/imu/imu.c **** else
 775:../../../mod/imu/imu.c ****     {
 776:../../../mod/imu/imu.c ****     return IMU_OK;
 777:../../../mod/imu/imu.c ****     }
 778:../../../mod/imu/imu.c **** } /* write_imu_regs */
  66              		.loc 1 778 1 view .LVU11
  67 001e 05B0     		add	sp, sp, #20
  68              	.LCFI2:
  69              		.cfi_remember_state
  70              		.cfi_def_cfa_offset 4
  71              		@ sp needed
  72 0020 5DF804FB 		ldr	pc, [sp], #4
  73              	.L4:
  74              	.LCFI3:
  75              		.cfi_restore_state
 772:../../../mod/imu/imu.c ****     }
  76              		.loc 1 772 12 view .LVU12
  77 0024 0520     		movs	r0, #5
ARM GAS  C:\Users\tnguy\AppData\Local\Temp\ccrLQ3au.s 			page 16


  78 0026 FAE7     		b	.L2
  79              	.L6:
  80              		.align	2
  81              	.L5:
  82 0028 00000000 		.word	hi2c2
  83              		.cfi_endproc
  84              	.LFE153:
  86              		.section	.text.write_imu_reg,"ax",%progbits
  87              		.align	1
  88              		.syntax unified
  89              		.thumb
  90              		.thumb_func
  92              	write_imu_reg:
  93              	.LVL6:
  94              	.LFB152:
 698:../../../mod/imu/imu.c **** /*------------------------------------------------------------------------------
  95              		.loc 1 698 1 is_stmt 1 view -0
  96              		.cfi_startproc
  97              		@ args = 0, pretend = 0, frame = 8
  98              		@ frame_needed = 0, uses_anonymous_args = 0
 698:../../../mod/imu/imu.c **** /*------------------------------------------------------------------------------
  99              		.loc 1 698 1 is_stmt 0 view .LVU14
 100 0000 00B5     		push	{lr}
 101              	.LCFI4:
 102              		.cfi_def_cfa_offset 4
 103              		.cfi_offset 14, -4
 104 0002 87B0     		sub	sp, sp, #28
 105              	.LCFI5:
 106              		.cfi_def_cfa_offset 32
 107 0004 0246     		mov	r2, r0
 108 0006 8DF81710 		strb	r1, [sp, #23]
 702:../../../mod/imu/imu.c **** 
 109              		.loc 1 702 1 is_stmt 1 view .LVU15
 708:../../../mod/imu/imu.c **** 
 110              		.loc 1 708 1 view .LVU16
 111              	.LVL7:
 714:../../../mod/imu/imu.c ****                                 IMU_ADDR            , 
 112              		.loc 1 714 1 view .LVU17
 714:../../../mod/imu/imu.c ****                                 IMU_ADDR            , 
 113              		.loc 1 714 14 is_stmt 0 view .LVU18
 114 000a 0A23     		movs	r3, #10
 115 000c 0293     		str	r3, [sp, #8]
 116 000e 0123     		movs	r3, #1
 117 0010 0193     		str	r3, [sp, #4]
 118 0012 0DF11701 		add	r1, sp, #23
 119              	.LVL8:
 714:../../../mod/imu/imu.c ****                                 IMU_ADDR            , 
 120              		.loc 1 714 14 view .LVU19
 121 0016 0091     		str	r1, [sp]
 122 0018 D021     		movs	r1, #208
 123              	.LVL9:
 714:../../../mod/imu/imu.c ****                                 IMU_ADDR            , 
 124              		.loc 1 714 14 view .LVU20
 125 001a 0448     		ldr	r0, .L11
 126              	.LVL10:
 714:../../../mod/imu/imu.c ****                                 IMU_ADDR            , 
 127              		.loc 1 714 14 view .LVU21
ARM GAS  C:\Users\tnguy\AppData\Local\Temp\ccrLQ3au.s 			page 17


 128 001c FFF7FEFF 		bl	HAL_I2C_Mem_Write
 129              	.LVL11:
 721:../../../mod/imu/imu.c ****     {
 130              		.loc 1 721 1 is_stmt 1 view .LVU22
 721:../../../mod/imu/imu.c ****     {
 131              		.loc 1 721 4 is_stmt 0 view .LVU23
 132 0020 10B9     		cbnz	r0, .L10
 133              	.L8:
 729:../../../mod/imu/imu.c **** 
 134              		.loc 1 729 1 view .LVU24
 135 0022 07B0     		add	sp, sp, #28
 136              	.LCFI6:
 137              		.cfi_remember_state
 138              		.cfi_def_cfa_offset 4
 139              		@ sp needed
 140 0024 5DF804FB 		ldr	pc, [sp], #4
 141              	.L10:
 142              	.LCFI7:
 143              		.cfi_restore_state
 723:../../../mod/imu/imu.c ****     }
 144              		.loc 1 723 12 view .LVU25
 145 0028 0520     		movs	r0, #5
 146 002a FAE7     		b	.L8
 147              	.L12:
 148              		.align	2
 149              	.L11:
 150 002c 00000000 		.word	hi2c2
 151              		.cfi_endproc
 152              	.LFE152:
 154              		.section	.text.write_mag_reg,"ax",%progbits
 155              		.align	1
 156              		.syntax unified
 157              		.thumb
 158              		.thumb_func
 160              	write_mag_reg:
 161              	.LVL12:
 162              	.LFB154:
 779:../../../mod/imu/imu.c **** 
 780:../../../mod/imu/imu.c **** 
 781:../../../mod/imu/imu.c **** /*******************************************************************************
 782:../../../mod/imu/imu.c **** *                                                                              *
 783:../../../mod/imu/imu.c **** * PROCEDURE:                                                                   *
 784:../../../mod/imu/imu.c **** * 		write_mag_reg                                                          *
 785:../../../mod/imu/imu.c **** *                                                                              *
 786:../../../mod/imu/imu.c **** * DESCRIPTION:                                                                 *
 787:../../../mod/imu/imu.c **** *       write to a specified magnetometer register                             *
 788:../../../mod/imu/imu.c **** *                                                                              *
 789:../../../mod/imu/imu.c **** *******************************************************************************/
 790:../../../mod/imu/imu.c **** static IMU_STATUS write_mag_reg 
 791:../../../mod/imu/imu.c ****     (
 792:../../../mod/imu/imu.c ****     uint8_t reg_addr, /* Register address    */
 793:../../../mod/imu/imu.c ****     uint8_t data      /* Register data       */
 794:../../../mod/imu/imu.c ****     ) 
 795:../../../mod/imu/imu.c **** {
 163              		.loc 1 795 1 is_stmt 1 view -0
 164              		.cfi_startproc
 165              		@ args = 0, pretend = 0, frame = 8
ARM GAS  C:\Users\tnguy\AppData\Local\Temp\ccrLQ3au.s 			page 18


 166              		@ frame_needed = 0, uses_anonymous_args = 0
 167              		.loc 1 795 1 is_stmt 0 view .LVU27
 168 0000 00B5     		push	{lr}
 169              	.LCFI8:
 170              		.cfi_def_cfa_offset 4
 171              		.cfi_offset 14, -4
 172 0002 87B0     		sub	sp, sp, #28
 173              	.LCFI9:
 174              		.cfi_def_cfa_offset 32
 175 0004 0246     		mov	r2, r0
 176 0006 8DF81710 		strb	r1, [sp, #23]
 796:../../../mod/imu/imu.c **** /*------------------------------------------------------------------------------
 797:../../../mod/imu/imu.c ****  Local variables  
 798:../../../mod/imu/imu.c **** ------------------------------------------------------------------------------*/
 799:../../../mod/imu/imu.c **** HAL_StatusTypeDef hal_status;    /* Status of I2C HAL */
 177              		.loc 1 799 1 is_stmt 1 view .LVU28
 800:../../../mod/imu/imu.c **** 
 801:../../../mod/imu/imu.c **** 
 802:../../../mod/imu/imu.c **** /*------------------------------------------------------------------------------
 803:../../../mod/imu/imu.c ****  Initializations 
 804:../../../mod/imu/imu.c **** ------------------------------------------------------------------------------*/
 805:../../../mod/imu/imu.c **** hal_status = HAL_OK;
 178              		.loc 1 805 1 view .LVU29
 179              	.LVL13:
 806:../../../mod/imu/imu.c **** 
 807:../../../mod/imu/imu.c **** 
 808:../../../mod/imu/imu.c **** /*------------------------------------------------------------------------------
 809:../../../mod/imu/imu.c ****  Implementation 
 810:../../../mod/imu/imu.c **** ------------------------------------------------------------------------------*/
 811:../../../mod/imu/imu.c **** hal_status = HAL_I2C_Mem_Write( &( IMU_I2C )        , 
 180              		.loc 1 811 1 view .LVU30
 181              		.loc 1 811 14 is_stmt 0 view .LVU31
 182 000a 0A23     		movs	r3, #10
 183 000c 0293     		str	r3, [sp, #8]
 184 000e 0123     		movs	r3, #1
 185 0010 0193     		str	r3, [sp, #4]
 186 0012 0DF11701 		add	r1, sp, #23
 187              	.LVL14:
 188              		.loc 1 811 14 view .LVU32
 189 0016 0091     		str	r1, [sp]
 190 0018 2021     		movs	r1, #32
 191              	.LVL15:
 192              		.loc 1 811 14 view .LVU33
 193 001a 0448     		ldr	r0, .L17
 194              	.LVL16:
 195              		.loc 1 811 14 view .LVU34
 196 001c FFF7FEFF 		bl	HAL_I2C_Mem_Write
 197              	.LVL17:
 812:../../../mod/imu/imu.c ****                                 IMU_MAG_ADDR        , 
 813:../../../mod/imu/imu.c ****                                 reg_addr            , 
 814:../../../mod/imu/imu.c ****                                 I2C_MEMADD_SIZE_8BIT, 
 815:../../../mod/imu/imu.c ****                                 &data               , 
 816:../../../mod/imu/imu.c ****                                 sizeof( uint8_t )   , 
 817:../../../mod/imu/imu.c ****                                 HAL_IMU_TIMEOUT );
 818:../../../mod/imu/imu.c **** if ( hal_status != HAL_OK )
 198              		.loc 1 818 1 is_stmt 1 view .LVU35
 199              		.loc 1 818 4 is_stmt 0 view .LVU36
ARM GAS  C:\Users\tnguy\AppData\Local\Temp\ccrLQ3au.s 			page 19


 200 0020 10B9     		cbnz	r0, .L16
 201              	.L14:
 819:../../../mod/imu/imu.c ****     {
 820:../../../mod/imu/imu.c ****     return IMU_I2C_ERROR;
 821:../../../mod/imu/imu.c ****     }
 822:../../../mod/imu/imu.c **** else
 823:../../../mod/imu/imu.c ****     {
 824:../../../mod/imu/imu.c ****     return IMU_OK;
 825:../../../mod/imu/imu.c ****     }
 826:../../../mod/imu/imu.c **** } /* write_mag_regs */
 202              		.loc 1 826 1 view .LVU37
 203 0022 07B0     		add	sp, sp, #28
 204              	.LCFI10:
 205              		.cfi_remember_state
 206              		.cfi_def_cfa_offset 4
 207              		@ sp needed
 208 0024 5DF804FB 		ldr	pc, [sp], #4
 209              	.L16:
 210              	.LCFI11:
 211              		.cfi_restore_state
 820:../../../mod/imu/imu.c ****     }
 212              		.loc 1 820 12 view .LVU38
 213 0028 0520     		movs	r0, #5
 214 002a FAE7     		b	.L14
 215              	.L18:
 216              		.align	2
 217              	.L17:
 218 002c 00000000 		.word	hi2c2
 219              		.cfi_endproc
 220              	.LFE154:
 222              		.section	.text.read_imu_regs,"ax",%progbits
 223              		.align	1
 224              		.syntax unified
 225              		.thumb
 226              		.thumb_func
 228              	read_imu_regs:
 229              	.LVL18:
 230              	.LFB151:
 652:../../../mod/imu/imu.c **** /*------------------------------------------------------------------------------
 231              		.loc 1 652 1 is_stmt 1 view -0
 232              		.cfi_startproc
 233              		@ args = 0, pretend = 0, frame = 0
 234              		@ frame_needed = 0, uses_anonymous_args = 0
 652:../../../mod/imu/imu.c **** /*------------------------------------------------------------------------------
 235              		.loc 1 652 1 is_stmt 0 view .LVU40
 236 0000 00B5     		push	{lr}
 237              	.LCFI12:
 238              		.cfi_def_cfa_offset 4
 239              		.cfi_offset 14, -4
 240 0002 85B0     		sub	sp, sp, #20
 241              	.LCFI13:
 242              		.cfi_def_cfa_offset 24
 656:../../../mod/imu/imu.c **** 
 243              		.loc 1 656 1 is_stmt 1 view .LVU41
 664:../../../mod/imu/imu.c ****                                IMU_ADDR            , 
 244              		.loc 1 664 1 view .LVU42
 664:../../../mod/imu/imu.c ****                                IMU_ADDR            , 
ARM GAS  C:\Users\tnguy\AppData\Local\Temp\ccrLQ3au.s 			page 20


 245              		.loc 1 664 14 is_stmt 0 view .LVU43
 246 0004 4FF0FF33 		mov	r3, #-1
 247 0008 0293     		str	r3, [sp, #8]
 248 000a 0192     		str	r2, [sp, #4]
 249 000c 0091     		str	r1, [sp]
 250 000e 0123     		movs	r3, #1
 251 0010 0246     		mov	r2, r0
 252              	.LVL19:
 664:../../../mod/imu/imu.c ****                                IMU_ADDR            , 
 253              		.loc 1 664 14 view .LVU44
 254 0012 D021     		movs	r1, #208
 255              	.LVL20:
 664:../../../mod/imu/imu.c ****                                IMU_ADDR            , 
 256              		.loc 1 664 14 view .LVU45
 257 0014 0448     		ldr	r0, .L23
 258              	.LVL21:
 664:../../../mod/imu/imu.c ****                                IMU_ADDR            , 
 259              		.loc 1 664 14 view .LVU46
 260 0016 FFF7FEFF 		bl	HAL_I2C_Mem_Read
 261              	.LVL22:
 672:../../../mod/imu/imu.c **** 	{
 262              		.loc 1 672 1 is_stmt 1 view .LVU47
 672:../../../mod/imu/imu.c **** 	{
 263              		.loc 1 672 4 is_stmt 0 view .LVU48
 264 001a 10B9     		cbnz	r0, .L22
 265              	.L20:
 680:../../../mod/imu/imu.c **** 
 266              		.loc 1 680 1 view .LVU49
 267 001c 05B0     		add	sp, sp, #20
 268              	.LCFI14:
 269              		.cfi_remember_state
 270              		.cfi_def_cfa_offset 4
 271              		@ sp needed
 272 001e 5DF804FB 		ldr	pc, [sp], #4
 273              	.L22:
 274              	.LCFI15:
 275              		.cfi_restore_state
 674:../../../mod/imu/imu.c **** 	}
 276              		.loc 1 674 9 view .LVU50
 277 0022 0720     		movs	r0, #7
 278 0024 FAE7     		b	.L20
 279              	.L24:
 280 0026 00BF     		.align	2
 281              	.L23:
 282 0028 00000000 		.word	hi2c2
 283              		.cfi_endproc
 284              	.LFE151:
 286              		.section	.text.read_mag_regs,"ax",%progbits
 287              		.align	1
 288              		.syntax unified
 289              		.thumb
 290              		.thumb_func
 292              	read_mag_regs:
 293              	.LVL23:
 294              	.LFB150:
 602:../../../mod/imu/imu.c ****     
 295              		.loc 1 602 1 is_stmt 1 view -0
ARM GAS  C:\Users\tnguy\AppData\Local\Temp\ccrLQ3au.s 			page 21


 296              		.cfi_startproc
 297              		@ args = 0, pretend = 0, frame = 0
 298              		@ frame_needed = 0, uses_anonymous_args = 0
 602:../../../mod/imu/imu.c ****     
 299              		.loc 1 602 1 is_stmt 0 view .LVU52
 300 0000 00B5     		push	{lr}
 301              	.LCFI16:
 302              		.cfi_def_cfa_offset 4
 303              		.cfi_offset 14, -4
 304 0002 85B0     		sub	sp, sp, #20
 305              	.LCFI17:
 306              		.cfi_def_cfa_offset 24
 607:../../../mod/imu/imu.c **** 
 307              		.loc 1 607 1 is_stmt 1 view .LVU53
 615:../../../mod/imu/imu.c ****                                IMU_MAG_ADDR        , 
 308              		.loc 1 615 1 view .LVU54
 615:../../../mod/imu/imu.c ****                                IMU_MAG_ADDR        , 
 309              		.loc 1 615 14 is_stmt 0 view .LVU55
 310 0004 0A23     		movs	r3, #10
 311 0006 0293     		str	r3, [sp, #8]
 312 0008 0192     		str	r2, [sp, #4]
 313 000a 0091     		str	r1, [sp]
 314 000c 0123     		movs	r3, #1
 315 000e 0246     		mov	r2, r0
 316              	.LVL24:
 615:../../../mod/imu/imu.c ****                                IMU_MAG_ADDR        , 
 317              		.loc 1 615 14 view .LVU56
 318 0010 2021     		movs	r1, #32
 319              	.LVL25:
 615:../../../mod/imu/imu.c ****                                IMU_MAG_ADDR        , 
 320              		.loc 1 615 14 view .LVU57
 321 0012 0448     		ldr	r0, .L29
 322              	.LVL26:
 615:../../../mod/imu/imu.c ****                                IMU_MAG_ADDR        , 
 323              		.loc 1 615 14 view .LVU58
 324 0014 FFF7FEFF 		bl	HAL_I2C_Mem_Read
 325              	.LVL27:
 624:../../../mod/imu/imu.c **** 	{
 326              		.loc 1 624 1 is_stmt 1 view .LVU59
 624:../../../mod/imu/imu.c **** 	{
 327              		.loc 1 624 4 is_stmt 0 view .LVU60
 328 0018 10B9     		cbnz	r0, .L28
 329              	.L26:
 633:../../../mod/imu/imu.c **** 
 330              		.loc 1 633 1 view .LVU61
 331 001a 05B0     		add	sp, sp, #20
 332              	.LCFI18:
 333              		.cfi_remember_state
 334              		.cfi_def_cfa_offset 4
 335              		@ sp needed
 336 001c 5DF804FB 		ldr	pc, [sp], #4
 337              	.L28:
 338              	.LCFI19:
 339              		.cfi_restore_state
 626:../../../mod/imu/imu.c **** 	}
 340              		.loc 1 626 9 view .LVU62
 341 0020 0620     		movs	r0, #6
ARM GAS  C:\Users\tnguy\AppData\Local\Temp\ccrLQ3au.s 			page 22


 342 0022 FAE7     		b	.L26
 343              	.L30:
 344              		.align	2
 345              	.L29:
 346 0024 00000000 		.word	hi2c2
 347              		.cfi_endproc
 348              	.LFE150:
 350              		.section	.text.mag_init,"ax",%progbits
 351              		.align	1
 352              		.syntax unified
 353              		.thumb
 354              		.thumb_func
 356              	mag_init:
 357              	.LVL28:
 358              	.LFB149:
 517:../../../mod/imu/imu.c **** /*------------------------------------------------------------------------------
 359              		.loc 1 517 1 is_stmt 1 view -0
 360              		.cfi_startproc
 361              		@ args = 0, pretend = 0, frame = 8
 362              		@ frame_needed = 0, uses_anonymous_args = 0
 517:../../../mod/imu/imu.c **** /*------------------------------------------------------------------------------
 363              		.loc 1 517 1 is_stmt 0 view .LVU64
 364 0000 70B5     		push	{r4, r5, r6, lr}
 365              	.LCFI20:
 366              		.cfi_def_cfa_offset 16
 367              		.cfi_offset 4, -16
 368              		.cfi_offset 5, -12
 369              		.cfi_offset 6, -8
 370              		.cfi_offset 14, -4
 371 0002 82B0     		sub	sp, sp, #8
 372              	.LCFI21:
 373              		.cfi_def_cfa_offset 24
 374 0004 0446     		mov	r4, r0
 521:../../../mod/imu/imu.c **** uint8_t    device_id;       /* Magnetometer Device ID               */
 375              		.loc 1 521 1 is_stmt 1 view .LVU65
 522:../../../mod/imu/imu.c **** uint8_t    num_reps_xy_reg; /* Content of XY repetititions register */
 376              		.loc 1 522 1 view .LVU66
 523:../../../mod/imu/imu.c **** uint8_t    num_reps_z_reg;  /* Content of Z repititions register    */
 377              		.loc 1 523 1 view .LVU67
 524:../../../mod/imu/imu.c **** 
 378              		.loc 1 524 1 view .LVU68
 530:../../../mod/imu/imu.c **** device_id       = 0;
 379              		.loc 1 530 1 view .LVU69
 380              	.LVL29:
 531:../../../mod/imu/imu.c **** num_reps_xy_reg = ( ( imu_config_ptr -> mag_xy_repititions ) - 1 ) >> 2;
 381              		.loc 1 531 1 view .LVU70
 531:../../../mod/imu/imu.c **** num_reps_xy_reg = ( ( imu_config_ptr -> mag_xy_repititions ) - 1 ) >> 2;
 382              		.loc 1 531 17 is_stmt 0 view .LVU71
 383 0006 0023     		movs	r3, #0
 384 0008 8DF80730 		strb	r3, [sp, #7]
 532:../../../mod/imu/imu.c **** num_reps_z_reg  = ( ( imu_config_ptr -> mag_z_repititions  ) - 1 );
 385              		.loc 1 532 1 is_stmt 1 view .LVU72
 532:../../../mod/imu/imu.c **** num_reps_z_reg  = ( ( imu_config_ptr -> mag_z_repititions  ) - 1 );
 386              		.loc 1 532 38 is_stmt 0 view .LVU73
 387 000c C17A     		ldrb	r1, [r0, #11]	@ zero_extendqisi2
 532:../../../mod/imu/imu.c **** num_reps_z_reg  = ( ( imu_config_ptr -> mag_z_repititions  ) - 1 );
 388              		.loc 1 532 62 view .LVU74
ARM GAS  C:\Users\tnguy\AppData\Local\Temp\ccrLQ3au.s 			page 23


 389 000e 0139     		subs	r1, r1, #1
 532:../../../mod/imu/imu.c **** num_reps_z_reg  = ( ( imu_config_ptr -> mag_z_repititions  ) - 1 );
 390              		.loc 1 532 17 view .LVU75
 391 0010 C1F38706 		ubfx	r6, r1, #2, #8
 392              	.LVL30:
 533:../../../mod/imu/imu.c **** 
 393              		.loc 1 533 1 is_stmt 1 view .LVU76
 533:../../../mod/imu/imu.c **** 
 394              		.loc 1 533 38 is_stmt 0 view .LVU77
 395 0014 017B     		ldrb	r1, [r0, #12]	@ zero_extendqisi2
 533:../../../mod/imu/imu.c **** 
 396              		.loc 1 533 17 view .LVU78
 397 0016 0139     		subs	r1, r1, #1
 398 0018 CDB2     		uxtb	r5, r1
 399              	.LVL31:
 541:../../../mod/imu/imu.c **** if ( imu_status != IMU_OK )
 400              		.loc 1 541 1 is_stmt 1 view .LVU79
 541:../../../mod/imu/imu.c **** if ( imu_status != IMU_OK )
 401              		.loc 1 541 14 is_stmt 0 view .LVU80
 402 001a 0121     		movs	r1, #1
 403 001c 4B20     		movs	r0, #75
 404              	.LVL32:
 541:../../../mod/imu/imu.c **** if ( imu_status != IMU_OK )
 405              		.loc 1 541 14 view .LVU81
 406 001e FFF7FEFF 		bl	write_mag_reg
 407              	.LVL33:
 542:../../../mod/imu/imu.c ****     {
 408              		.loc 1 542 1 is_stmt 1 view .LVU82
 542:../../../mod/imu/imu.c ****     {
 409              		.loc 1 542 4 is_stmt 0 view .LVU83
 410 0022 08B1     		cbz	r0, .L35
 411              	.LVL34:
 412              	.L32:
 582:../../../mod/imu/imu.c **** #endif /* #if defined( A0002_REV2 ) */
 413              		.loc 1 582 1 view .LVU84
 414 0024 02B0     		add	sp, sp, #8
 415              	.LCFI22:
 416              		.cfi_remember_state
 417              		.cfi_def_cfa_offset 16
 418              		@ sp needed
 419 0026 70BD     		pop	{r4, r5, r6, pc}
 420              	.LVL35:
 421              	.L35:
 422              	.LCFI23:
 423              		.cfi_restore_state
 548:../../../mod/imu/imu.c **** imu_status = read_mag_regs( MAG_REG_CHIP_ID, &device_id, sizeof( device_id ) );
 424              		.loc 1 548 1 is_stmt 1 view .LVU85
 425 0028 0520     		movs	r0, #5
 426 002a FFF7FEFF 		bl	HAL_Delay
 427              	.LVL36:
 549:../../../mod/imu/imu.c **** if      ( imu_status != IMU_OK )
 428              		.loc 1 549 1 view .LVU86
 549:../../../mod/imu/imu.c **** if      ( imu_status != IMU_OK )
 429              		.loc 1 549 14 is_stmt 0 view .LVU87
 430 002e 0122     		movs	r2, #1
 431 0030 0DF10701 		add	r1, sp, #7
 432 0034 4020     		movs	r0, #64
ARM GAS  C:\Users\tnguy\AppData\Local\Temp\ccrLQ3au.s 			page 24


 433 0036 FFF7FEFF 		bl	read_mag_regs
 434              	.LVL37:
 550:../../../mod/imu/imu.c ****     {
 435              		.loc 1 550 1 is_stmt 1 view .LVU88
 550:../../../mod/imu/imu.c ****     {
 436              		.loc 1 550 9 is_stmt 0 view .LVU89
 437 003a 0028     		cmp	r0, #0
 438 003c F2D1     		bne	.L32
 554:../../../mod/imu/imu.c ****     {
 439              		.loc 1 554 6 is_stmt 1 view .LVU90
 554:../../../mod/imu/imu.c ****     {
 440              		.loc 1 554 21 is_stmt 0 view .LVU91
 441 003e 9DF80730 		ldrb	r3, [sp, #7]	@ zero_extendqisi2
 554:../../../mod/imu/imu.c ****     {
 442              		.loc 1 554 9 view .LVU92
 443 0042 322B     		cmp	r3, #50
 444 0044 01D0     		beq	.L36
 556:../../../mod/imu/imu.c ****     }
 445              		.loc 1 556 12 view .LVU93
 446 0046 0A20     		movs	r0, #10
 447              	.LVL38:
 556:../../../mod/imu/imu.c ****     }
 448              		.loc 1 556 12 view .LVU94
 449 0048 ECE7     		b	.L32
 450              	.LVL39:
 451              	.L36:
 560:../../../mod/imu/imu.c ****                             ( imu_config_ptr -> mag_op_mode ) |
 452              		.loc 1 560 1 is_stmt 1 view .LVU95
 561:../../../mod/imu/imu.c ****                             ( imu_config_ptr -> mag_odr     ) ); 
 453              		.loc 1 561 46 is_stmt 0 view .LVU96
 454 004a A17A     		ldrb	r1, [r4, #10]	@ zero_extendqisi2
 562:../../../mod/imu/imu.c **** if ( imu_status != IMU_OK )
 455              		.loc 1 562 46 view .LVU97
 456 004c E378     		ldrb	r3, [r4, #3]	@ zero_extendqisi2
 560:../../../mod/imu/imu.c ****                             ( imu_config_ptr -> mag_op_mode ) |
 457              		.loc 1 560 14 view .LVU98
 458 004e 1943     		orrs	r1, r1, r3
 459 0050 4C20     		movs	r0, #76
 460              	.LVL40:
 560:../../../mod/imu/imu.c ****                             ( imu_config_ptr -> mag_op_mode ) |
 461              		.loc 1 560 14 view .LVU99
 462 0052 FFF7FEFF 		bl	write_mag_reg
 463              	.LVL41:
 563:../../../mod/imu/imu.c ****     {
 464              		.loc 1 563 1 is_stmt 1 view .LVU100
 563:../../../mod/imu/imu.c ****     {
 465              		.loc 1 563 4 is_stmt 0 view .LVU101
 466 0056 0028     		cmp	r0, #0
 467 0058 E4D1     		bne	.L32
 569:../../../mod/imu/imu.c **** if ( imu_status != IMU_OK )
 468              		.loc 1 569 1 is_stmt 1 view .LVU102
 569:../../../mod/imu/imu.c **** if ( imu_status != IMU_OK )
 469              		.loc 1 569 14 is_stmt 0 view .LVU103
 470 005a 3146     		mov	r1, r6
 471 005c 5120     		movs	r0, #81
 472              	.LVL42:
 569:../../../mod/imu/imu.c **** if ( imu_status != IMU_OK )
ARM GAS  C:\Users\tnguy\AppData\Local\Temp\ccrLQ3au.s 			page 25


 473              		.loc 1 569 14 view .LVU104
 474 005e FFF7FEFF 		bl	write_mag_reg
 475              	.LVL43:
 570:../../../mod/imu/imu.c ****     {
 476              		.loc 1 570 1 is_stmt 1 view .LVU105
 570:../../../mod/imu/imu.c ****     {
 477              		.loc 1 570 4 is_stmt 0 view .LVU106
 478 0062 0028     		cmp	r0, #0
 479 0064 DED1     		bne	.L32
 574:../../../mod/imu/imu.c **** if ( imu_status != IMU_OK )
 480              		.loc 1 574 1 is_stmt 1 view .LVU107
 574:../../../mod/imu/imu.c **** if ( imu_status != IMU_OK )
 481              		.loc 1 574 14 is_stmt 0 view .LVU108
 482 0066 2946     		mov	r1, r5
 483 0068 5220     		movs	r0, #82
 484              	.LVL44:
 574:../../../mod/imu/imu.c **** if ( imu_status != IMU_OK )
 485              		.loc 1 574 14 view .LVU109
 486 006a FFF7FEFF 		bl	write_mag_reg
 487              	.LVL45:
 575:../../../mod/imu/imu.c ****     {
 488              		.loc 1 575 1 is_stmt 1 view .LVU110
 489 006e D9E7     		b	.L32
 490              		.cfi_endproc
 491              	.LFE149:
 493              		.section	.text.imu_get_accel_xyz,"ax",%progbits
 494              		.align	1
 495              		.global	imu_get_accel_xyz
 496              		.syntax unified
 497              		.thumb
 498              		.thumb_func
 500              	imu_get_accel_xyz:
 501              	.LVL46:
 502              	.LFB145:
 271:../../../mod/imu/imu.c **** /*------------------------------------------------------------------------------
 503              		.loc 1 271 1 view -0
 504              		.cfi_startproc
 505              		@ args = 0, pretend = 0, frame = 8
 506              		@ frame_needed = 0, uses_anonymous_args = 0
 271:../../../mod/imu/imu.c **** /*------------------------------------------------------------------------------
 507              		.loc 1 271 1 is_stmt 0 view .LVU112
 508 0000 10B5     		push	{r4, lr}
 509              	.LCFI24:
 510              		.cfi_def_cfa_offset 8
 511              		.cfi_offset 4, -8
 512              		.cfi_offset 14, -4
 513 0002 82B0     		sub	sp, sp, #8
 514              	.LCFI25:
 515              		.cfi_def_cfa_offset 16
 516 0004 0446     		mov	r4, r0
 275:../../../mod/imu/imu.c **** uint16_t      accel_x_raw ;   /* Raw sensor readouts                */    
 517              		.loc 1 275 1 is_stmt 1 view .LVU113
 276:../../../mod/imu/imu.c **** uint16_t      accel_y_raw ;  
 518              		.loc 1 276 1 view .LVU114
 277:../../../mod/imu/imu.c **** uint16_t      accel_z_raw ; 
 519              		.loc 1 277 1 view .LVU115
 278:../../../mod/imu/imu.c **** IMU_STATUS    imu_status;     /* IMU status codes                   */
ARM GAS  C:\Users\tnguy\AppData\Local\Temp\ccrLQ3au.s 			page 26


 520              		.loc 1 278 1 view .LVU116
 279:../../../mod/imu/imu.c **** 
 521              		.loc 1 279 1 view .LVU117
 292:../../../mod/imu/imu.c ****                                 &regAccel[0]  ,
 522              		.loc 1 292 5 view .LVU118
 292:../../../mod/imu/imu.c ****                                 &regAccel[0]  ,
 523              		.loc 1 292 18 is_stmt 0 view .LVU119
 524 0006 0622     		movs	r2, #6
 525 0008 6946     		mov	r1, sp
 526 000a 0C20     		movs	r0, #12
 527              	.LVL47:
 292:../../../mod/imu/imu.c ****                                 &regAccel[0]  ,
 528              		.loc 1 292 18 view .LVU120
 529 000c FFF7FEFF 		bl	read_imu_regs
 530              	.LVL48:
 298:../../../mod/imu/imu.c **** 	{
 531              		.loc 1 298 1 is_stmt 1 view .LVU121
 298:../../../mod/imu/imu.c **** 	{
 532              		.loc 1 298 4 is_stmt 0 view .LVU122
 533 0010 A0B9     		cbnz	r0, .L38
 309:../../../mod/imu/imu.c ****     accel_y_raw    = ( (uint16_t) regAccel[3] ) << 8  | regAccel[2];
 534              		.loc 1 309 5 is_stmt 1 view .LVU123
 309:../../../mod/imu/imu.c ****     accel_y_raw    = ( (uint16_t) regAccel[3] ) << 8  | regAccel[2];
 535              		.loc 1 309 43 is_stmt 0 view .LVU124
 536 0012 9DF80130 		ldrb	r3, [sp, #1]	@ zero_extendqisi2
 309:../../../mod/imu/imu.c ****     accel_y_raw    = ( (uint16_t) regAccel[3] ) << 8  | regAccel[2];
 537              		.loc 1 309 65 view .LVU125
 538 0016 9DF80010 		ldrb	r1, [sp]	@ zero_extendqisi2
 309:../../../mod/imu/imu.c ****     accel_y_raw    = ( (uint16_t) regAccel[3] ) << 8  | regAccel[2];
 539              		.loc 1 309 20 view .LVU126
 540 001a 41EA0321 		orr	r1, r1, r3, lsl #8
 541              	.LVL49:
 310:../../../mod/imu/imu.c ****     accel_z_raw    = ( (uint16_t) regAccel[5] ) << 8  | regAccel[4]; 
 542              		.loc 1 310 5 is_stmt 1 view .LVU127
 310:../../../mod/imu/imu.c ****     accel_z_raw    = ( (uint16_t) regAccel[5] ) << 8  | regAccel[4]; 
 543              		.loc 1 310 43 is_stmt 0 view .LVU128
 544 001e 9DF80330 		ldrb	r3, [sp, #3]	@ zero_extendqisi2
 310:../../../mod/imu/imu.c ****     accel_z_raw    = ( (uint16_t) regAccel[5] ) << 8  | regAccel[4]; 
 545              		.loc 1 310 65 view .LVU129
 546 0022 9DF80220 		ldrb	r2, [sp, #2]	@ zero_extendqisi2
 310:../../../mod/imu/imu.c ****     accel_z_raw    = ( (uint16_t) regAccel[5] ) << 8  | regAccel[4]; 
 547              		.loc 1 310 20 view .LVU130
 548 0026 42EA0322 		orr	r2, r2, r3, lsl #8
 549              	.LVL50:
 311:../../../mod/imu/imu.c **** #endif
 550              		.loc 1 311 5 is_stmt 1 view .LVU131
 311:../../../mod/imu/imu.c **** #endif
 551              		.loc 1 311 43 is_stmt 0 view .LVU132
 552 002a 9DF805C0 		ldrb	ip, [sp, #5]	@ zero_extendqisi2
 311:../../../mod/imu/imu.c **** #endif
 553              		.loc 1 311 65 view .LVU133
 554 002e 9DF80430 		ldrb	r3, [sp, #4]	@ zero_extendqisi2
 311:../../../mod/imu/imu.c **** #endif
 555              		.loc 1 311 20 view .LVU134
 556 0032 43EA0C23 		orr	r3, r3, ip, lsl #8
 557              	.LVL51:
 315:../../../mod/imu/imu.c **** pIMU->accel_y = accel_y_raw;
ARM GAS  C:\Users\tnguy\AppData\Local\Temp\ccrLQ3au.s 			page 27


 558              		.loc 1 315 1 is_stmt 1 view .LVU135
 315:../../../mod/imu/imu.c **** pIMU->accel_y = accel_y_raw;
 559              		.loc 1 315 15 is_stmt 0 view .LVU136
 560 0036 2180     		strh	r1, [r4]	@ movhi
 316:../../../mod/imu/imu.c **** pIMU->accel_z = accel_z_raw;
 561              		.loc 1 316 1 is_stmt 1 view .LVU137
 316:../../../mod/imu/imu.c **** pIMU->accel_z = accel_z_raw;
 562              		.loc 1 316 15 is_stmt 0 view .LVU138
 563 0038 6280     		strh	r2, [r4, #2]	@ movhi
 317:../../../mod/imu/imu.c **** 
 564              		.loc 1 317 1 is_stmt 1 view .LVU139
 317:../../../mod/imu/imu.c **** 
 565              		.loc 1 317 15 is_stmt 0 view .LVU140
 566 003a A380     		strh	r3, [r4, #4]	@ movhi
 319:../../../mod/imu/imu.c **** } /* imu_get_accel_xyz */
 567              		.loc 1 319 1 is_stmt 1 view .LVU141
 568              	.LVL52:
 569              	.L38:
 320:../../../mod/imu/imu.c **** 
 570              		.loc 1 320 1 is_stmt 0 view .LVU142
 571 003c 02B0     		add	sp, sp, #8
 572              	.LCFI26:
 573              		.cfi_def_cfa_offset 8
 574              		@ sp needed
 575 003e 10BD     		pop	{r4, pc}
 320:../../../mod/imu/imu.c **** 
 576              		.loc 1 320 1 view .LVU143
 577              		.cfi_endproc
 578              	.LFE145:
 580              		.section	.text.imu_get_gyro_xyz,"ax",%progbits
 581              		.align	1
 582              		.global	imu_get_gyro_xyz
 583              		.syntax unified
 584              		.thumb
 585              		.thumb_func
 587              	imu_get_gyro_xyz:
 588              	.LVL53:
 589              	.LFB146:
 337:../../../mod/imu/imu.c **** /*------------------------------------------------------------------------------
 590              		.loc 1 337 1 is_stmt 1 view -0
 591              		.cfi_startproc
 592              		@ args = 0, pretend = 0, frame = 8
 593              		@ frame_needed = 0, uses_anonymous_args = 0
 337:../../../mod/imu/imu.c **** /*------------------------------------------------------------------------------
 594              		.loc 1 337 1 is_stmt 0 view .LVU145
 595 0000 10B5     		push	{r4, lr}
 596              	.LCFI27:
 597              		.cfi_def_cfa_offset 8
 598              		.cfi_offset 4, -8
 599              		.cfi_offset 14, -4
 600 0002 82B0     		sub	sp, sp, #8
 601              	.LCFI28:
 602              		.cfi_def_cfa_offset 16
 603 0004 0446     		mov	r4, r0
 341:../../../mod/imu/imu.c **** uint16_t    gyro_x_raw;   /* Raw gyro sensor readouts  */
 604              		.loc 1 341 1 is_stmt 1 view .LVU146
 342:../../../mod/imu/imu.c **** uint16_t    gyro_y_raw; 
ARM GAS  C:\Users\tnguy\AppData\Local\Temp\ccrLQ3au.s 			page 28


 605              		.loc 1 342 1 view .LVU147
 343:../../../mod/imu/imu.c **** uint16_t    gyro_z_raw; 
 606              		.loc 1 343 1 view .LVU148
 344:../../../mod/imu/imu.c **** IMU_STATUS  imu_status;   /* IMU status return codes   */
 607              		.loc 1 344 1 view .LVU149
 345:../../../mod/imu/imu.c **** 
 608              		.loc 1 345 1 view .LVU150
 358:../../../mod/imu/imu.c ****                                 &regGyro[0]    , 
 609              		.loc 1 358 5 view .LVU151
 358:../../../mod/imu/imu.c ****                                 &regGyro[0]    , 
 610              		.loc 1 358 18 is_stmt 0 view .LVU152
 611 0006 0622     		movs	r2, #6
 612 0008 6946     		mov	r1, sp
 613 000a 1220     		movs	r0, #18
 614              	.LVL54:
 358:../../../mod/imu/imu.c ****                                 &regGyro[0]    , 
 615              		.loc 1 358 18 view .LVU153
 616 000c FFF7FEFF 		bl	read_imu_regs
 617              	.LVL55:
 364:../../../mod/imu/imu.c **** 	{
 618              		.loc 1 364 1 is_stmt 1 view .LVU154
 364:../../../mod/imu/imu.c **** 	{
 619              		.loc 1 364 4 is_stmt 0 view .LVU155
 620 0010 A0B9     		cbnz	r0, .L41
 375:../../../mod/imu/imu.c ****     gyro_y_raw = ( (uint16_t) regGyro[3] ) << 8 | regGyro[2];
 621              		.loc 1 375 5 is_stmt 1 view .LVU156
 375:../../../mod/imu/imu.c ****     gyro_y_raw = ( (uint16_t) regGyro[3] ) << 8 | regGyro[2];
 622              		.loc 1 375 38 is_stmt 0 view .LVU157
 623 0012 9DF80130 		ldrb	r3, [sp, #1]	@ zero_extendqisi2
 375:../../../mod/imu/imu.c ****     gyro_y_raw = ( (uint16_t) regGyro[3] ) << 8 | regGyro[2];
 624              		.loc 1 375 58 view .LVU158
 625 0016 9DF80010 		ldrb	r1, [sp]	@ zero_extendqisi2
 375:../../../mod/imu/imu.c ****     gyro_y_raw = ( (uint16_t) regGyro[3] ) << 8 | regGyro[2];
 626              		.loc 1 375 16 view .LVU159
 627 001a 41EA0321 		orr	r1, r1, r3, lsl #8
 628              	.LVL56:
 376:../../../mod/imu/imu.c ****     gyro_z_raw = ( (uint16_t) regGyro[5] ) << 8 | regGyro[4];
 629              		.loc 1 376 5 is_stmt 1 view .LVU160
 376:../../../mod/imu/imu.c ****     gyro_z_raw = ( (uint16_t) regGyro[5] ) << 8 | regGyro[4];
 630              		.loc 1 376 38 is_stmt 0 view .LVU161
 631 001e 9DF80330 		ldrb	r3, [sp, #3]	@ zero_extendqisi2
 376:../../../mod/imu/imu.c ****     gyro_z_raw = ( (uint16_t) regGyro[5] ) << 8 | regGyro[4];
 632              		.loc 1 376 58 view .LVU162
 633 0022 9DF80220 		ldrb	r2, [sp, #2]	@ zero_extendqisi2
 376:../../../mod/imu/imu.c ****     gyro_z_raw = ( (uint16_t) regGyro[5] ) << 8 | regGyro[4];
 634              		.loc 1 376 16 view .LVU163
 635 0026 42EA0322 		orr	r2, r2, r3, lsl #8
 636              	.LVL57:
 377:../../../mod/imu/imu.c **** #endif
 637              		.loc 1 377 5 is_stmt 1 view .LVU164
 377:../../../mod/imu/imu.c **** #endif
 638              		.loc 1 377 38 is_stmt 0 view .LVU165
 639 002a 9DF805C0 		ldrb	ip, [sp, #5]	@ zero_extendqisi2
 377:../../../mod/imu/imu.c **** #endif
 640              		.loc 1 377 58 view .LVU166
 641 002e 9DF80430 		ldrb	r3, [sp, #4]	@ zero_extendqisi2
 377:../../../mod/imu/imu.c **** #endif
ARM GAS  C:\Users\tnguy\AppData\Local\Temp\ccrLQ3au.s 			page 29


 642              		.loc 1 377 16 view .LVU167
 643 0032 43EA0C23 		orr	r3, r3, ip, lsl #8
 644              	.LVL58:
 381:../../../mod/imu/imu.c **** pIMU->gyro_y = gyro_y_raw;
 645              		.loc 1 381 1 is_stmt 1 view .LVU168
 381:../../../mod/imu/imu.c **** pIMU->gyro_y = gyro_y_raw;
 646              		.loc 1 381 14 is_stmt 0 view .LVU169
 647 0036 E180     		strh	r1, [r4, #6]	@ movhi
 382:../../../mod/imu/imu.c **** pIMU->gyro_z = gyro_z_raw; 
 648              		.loc 1 382 1 is_stmt 1 view .LVU170
 382:../../../mod/imu/imu.c **** pIMU->gyro_z = gyro_z_raw; 
 649              		.loc 1 382 14 is_stmt 0 view .LVU171
 650 0038 2281     		strh	r2, [r4, #8]	@ movhi
 383:../../../mod/imu/imu.c **** 
 651              		.loc 1 383 1 is_stmt 1 view .LVU172
 383:../../../mod/imu/imu.c **** 
 652              		.loc 1 383 14 is_stmt 0 view .LVU173
 653 003a 6381     		strh	r3, [r4, #10]	@ movhi
 385:../../../mod/imu/imu.c **** } /* imu_get_gyro_xyz */
 654              		.loc 1 385 1 is_stmt 1 view .LVU174
 655              	.LVL59:
 656              	.L41:
 386:../../../mod/imu/imu.c **** 
 657              		.loc 1 386 1 is_stmt 0 view .LVU175
 658 003c 02B0     		add	sp, sp, #8
 659              	.LCFI29:
 660              		.cfi_def_cfa_offset 8
 661              		@ sp needed
 662 003e 10BD     		pop	{r4, pc}
 386:../../../mod/imu/imu.c **** 
 663              		.loc 1 386 1 view .LVU176
 664              		.cfi_endproc
 665              	.LFE146:
 667              		.section	.text.imu_get_mag_xyz,"ax",%progbits
 668              		.align	1
 669              		.global	imu_get_mag_xyz
 670              		.syntax unified
 671              		.thumb
 672              		.thumb_func
 674              	imu_get_mag_xyz:
 675              	.LVL60:
 676              	.LFB147:
 403:../../../mod/imu/imu.c **** /*------------------------------------------------------------------------------
 677              		.loc 1 403 1 is_stmt 1 view -0
 678              		.cfi_startproc
 679              		@ args = 0, pretend = 0, frame = 8
 680              		@ frame_needed = 0, uses_anonymous_args = 0
 403:../../../mod/imu/imu.c **** /*------------------------------------------------------------------------------
 681              		.loc 1 403 1 is_stmt 0 view .LVU178
 682 0000 10B5     		push	{r4, lr}
 683              	.LCFI30:
 684              		.cfi_def_cfa_offset 8
 685              		.cfi_offset 4, -8
 686              		.cfi_offset 14, -4
 687 0002 82B0     		sub	sp, sp, #8
 688              	.LCFI31:
 689              		.cfi_def_cfa_offset 16
ARM GAS  C:\Users\tnguy\AppData\Local\Temp\ccrLQ3au.s 			page 30


 690 0004 0446     		mov	r4, r0
 407:../../../mod/imu/imu.c **** uint16_t    mag_x_raw;    /* Raw magnetometer sensor readouts */ 
 691              		.loc 1 407 1 is_stmt 1 view .LVU179
 408:../../../mod/imu/imu.c **** uint16_t    mag_y_raw; 
 692              		.loc 1 408 1 view .LVU180
 409:../../../mod/imu/imu.c **** uint16_t    mag_z_raw; 
 693              		.loc 1 409 1 view .LVU181
 410:../../../mod/imu/imu.c **** IMU_STATUS  imu_status;   /* IMU status return codes          */
 694              		.loc 1 410 1 view .LVU182
 411:../../../mod/imu/imu.c **** 
 695              		.loc 1 411 1 view .LVU183
 424:../../../mod/imu/imu.c ****                                 &regMag[0]     , 
 696              		.loc 1 424 5 view .LVU184
 424:../../../mod/imu/imu.c ****                                 &regMag[0]     , 
 697              		.loc 1 424 18 is_stmt 0 view .LVU185
 698 0006 0622     		movs	r2, #6
 699 0008 6946     		mov	r1, sp
 700 000a 4220     		movs	r0, #66
 701              	.LVL61:
 424:../../../mod/imu/imu.c ****                                 &regMag[0]     , 
 702              		.loc 1 424 18 view .LVU186
 703 000c FFF7FEFF 		bl	read_mag_regs
 704              	.LVL62:
 430:../../../mod/imu/imu.c **** 	{
 705              		.loc 1 430 1 is_stmt 1 view .LVU187
 430:../../../mod/imu/imu.c **** 	{
 706              		.loc 1 430 4 is_stmt 0 view .LVU188
 707 0010 0428     		cmp	r0, #4
 708 0012 0CD0     		beq	.L44
 441:../../../mod/imu/imu.c ****                  ( ( (uint16_t) regMag[0] && MAG_XY_LSB_BITMASK ) >> MAG_XY_LSB_BITSHIFT );
 709              		.loc 1 441 5 is_stmt 1 view .LVU189
 441:../../../mod/imu/imu.c ****                  ( ( (uint16_t) regMag[0] && MAG_XY_LSB_BITMASK ) >> MAG_XY_LSB_BITSHIFT );
 710              		.loc 1 441 39 is_stmt 0 view .LVU190
 711 0014 9DF80110 		ldrb	r1, [sp, #1]	@ zero_extendqisi2
 441:../../../mod/imu/imu.c ****                  ( ( (uint16_t) regMag[0] && MAG_XY_LSB_BITMASK ) >> MAG_XY_LSB_BITSHIFT );
 712              		.loc 1 441 16 view .LVU191
 713 0018 4901     		lsls	r1, r1, #5
 714              	.LVL63:
 443:../../../mod/imu/imu.c ****                  ( ( (uint16_t) regMag[2] && MAG_XY_LSB_BITMASK ) >> MAG_XY_LSB_BITSHIFT );
 715              		.loc 1 443 5 is_stmt 1 view .LVU192
 443:../../../mod/imu/imu.c ****                  ( ( (uint16_t) regMag[2] && MAG_XY_LSB_BITMASK ) >> MAG_XY_LSB_BITSHIFT );
 716              		.loc 1 443 39 is_stmt 0 view .LVU193
 717 001a 9DF80320 		ldrb	r2, [sp, #3]	@ zero_extendqisi2
 443:../../../mod/imu/imu.c ****                  ( ( (uint16_t) regMag[2] && MAG_XY_LSB_BITMASK ) >> MAG_XY_LSB_BITSHIFT );
 718              		.loc 1 443 16 view .LVU194
 719 001e 5201     		lsls	r2, r2, #5
 720              	.LVL64:
 445:../../../mod/imu/imu.c ****                  ( ( (uint16_t) regMag[4] && MAG_Z_LSB_BITMASK )  >> MAG_Z_LSB_BITSHIFT  );
 721              		.loc 1 445 5 is_stmt 1 view .LVU195
 445:../../../mod/imu/imu.c ****                  ( ( (uint16_t) regMag[4] && MAG_Z_LSB_BITMASK )  >> MAG_Z_LSB_BITSHIFT  );
 722              		.loc 1 445 39 is_stmt 0 view .LVU196
 723 0020 9DF80530 		ldrb	r3, [sp, #5]	@ zero_extendqisi2
 445:../../../mod/imu/imu.c ****                  ( ( (uint16_t) regMag[4] && MAG_Z_LSB_BITMASK )  >> MAG_Z_LSB_BITSHIFT  );
 724              		.loc 1 445 16 view .LVU197
 725 0024 DB01     		lsls	r3, r3, #7
 726              	.LVL65:
 450:../../../mod/imu/imu.c **** pIMU->mag_y = mag_y_raw;
ARM GAS  C:\Users\tnguy\AppData\Local\Temp\ccrLQ3au.s 			page 31


 727              		.loc 1 450 1 is_stmt 1 view .LVU198
 450:../../../mod/imu/imu.c **** pIMU->mag_y = mag_y_raw;
 728              		.loc 1 450 13 is_stmt 0 view .LVU199
 729 0026 A181     		strh	r1, [r4, #12]	@ movhi
 451:../../../mod/imu/imu.c **** pIMU->mag_z = mag_z_raw;
 730              		.loc 1 451 1 is_stmt 1 view .LVU200
 451:../../../mod/imu/imu.c **** pIMU->mag_z = mag_z_raw;
 731              		.loc 1 451 13 is_stmt 0 view .LVU201
 732 0028 E281     		strh	r2, [r4, #14]	@ movhi
 452:../../../mod/imu/imu.c **** 
 733              		.loc 1 452 1 is_stmt 1 view .LVU202
 452:../../../mod/imu/imu.c **** 
 734              		.loc 1 452 13 is_stmt 0 view .LVU203
 735 002a 2382     		strh	r3, [r4, #16]	@ movhi
 454:../../../mod/imu/imu.c **** } /* imu_get_mag_xyz */
 736              		.loc 1 454 1 is_stmt 1 view .LVU204
 454:../../../mod/imu/imu.c **** } /* imu_get_mag_xyz */
 737              		.loc 1 454 8 is_stmt 0 view .LVU205
 738 002c 0020     		movs	r0, #0
 739              	.LVL66:
 740              	.L44:
 455:../../../mod/imu/imu.c **** 
 741              		.loc 1 455 1 view .LVU206
 742 002e 02B0     		add	sp, sp, #8
 743              	.LCFI32:
 744              		.cfi_def_cfa_offset 8
 745              		@ sp needed
 746 0030 10BD     		pop	{r4, pc}
 455:../../../mod/imu/imu.c **** 
 747              		.loc 1 455 1 view .LVU207
 748              		.cfi_endproc
 749              	.LFE147:
 751              		.section	.text.imu_get_device_id,"ax",%progbits
 752              		.align	1
 753              		.global	imu_get_device_id
 754              		.syntax unified
 755              		.thumb
 756              		.thumb_func
 758              	imu_get_device_id:
 759              	.LVL67:
 760              	.LFB148:
 472:../../../mod/imu/imu.c **** /*------------------------------------------------------------------------------
 761              		.loc 1 472 1 is_stmt 1 view -0
 762              		.cfi_startproc
 763              		@ args = 0, pretend = 0, frame = 0
 764              		@ frame_needed = 0, uses_anonymous_args = 0
 472:../../../mod/imu/imu.c **** /*------------------------------------------------------------------------------
 765              		.loc 1 472 1 is_stmt 0 view .LVU209
 766 0000 10B5     		push	{r4, lr}
 767              	.LCFI33:
 768              		.cfi_def_cfa_offset 8
 769              		.cfi_offset 4, -8
 770              		.cfi_offset 14, -4
 771 0002 0446     		mov	r4, r0
 476:../../../mod/imu/imu.c **** 
 772              		.loc 1 476 1 is_stmt 1 view .LVU210
 487:../../../mod/imu/imu.c **** #endif
ARM GAS  C:\Users\tnguy\AppData\Local\Temp\ccrLQ3au.s 			page 32


 773              		.loc 1 487 5 view .LVU211
 487:../../../mod/imu/imu.c **** #endif
 774              		.loc 1 487 18 is_stmt 0 view .LVU212
 775 0004 0122     		movs	r2, #1
 776 0006 0146     		mov	r1, r0
 777 0008 0020     		movs	r0, #0
 778              	.LVL68:
 487:../../../mod/imu/imu.c **** #endif
 779              		.loc 1 487 18 view .LVU213
 780 000a FFF7FEFF 		bl	read_imu_regs
 781              	.LVL69:
 490:../../../mod/imu/imu.c ****     {
 782              		.loc 1 490 1 is_stmt 1 view .LVU214
 490:../../../mod/imu/imu.c ****     {
 783              		.loc 1 490 6 is_stmt 0 view .LVU215
 784 000e 2378     		ldrb	r3, [r4]	@ zero_extendqisi2
 490:../../../mod/imu/imu.c ****     {
 785              		.loc 1 490 4 view .LVU216
 786 0010 242B     		cmp	r3, #36
 787 0012 00D0     		beq	.L47
 492:../../../mod/imu/imu.c ****     }
 788              		.loc 1 492 16 view .LVU217
 789 0014 0320     		movs	r0, #3
 790              	.LVL70:
 791              	.L47:
 495:../../../mod/imu/imu.c **** } /* imu_get_device_id */
 792              		.loc 1 495 1 is_stmt 1 view .LVU218
 496:../../../mod/imu/imu.c **** 
 793              		.loc 1 496 1 is_stmt 0 view .LVU219
 794 0016 10BD     		pop	{r4, pc}
 496:../../../mod/imu/imu.c **** 
 795              		.loc 1 496 1 view .LVU220
 796              		.cfi_endproc
 797              	.LFE148:
 799              		.section	.text.imu_init,"ax",%progbits
 800              		.align	1
 801              		.global	imu_init
 802              		.syntax unified
 803              		.thumb
 804              		.thumb_func
 806              	imu_init:
 807              	.LVL71:
 808              	.LFB144:
 109:../../../mod/imu/imu.c **** /*------------------------------------------------------------------------------
 809              		.loc 1 109 1 is_stmt 1 view -0
 810              		.cfi_startproc
 811              		@ args = 0, pretend = 0, frame = 16
 812              		@ frame_needed = 0, uses_anonymous_args = 0
 109:../../../mod/imu/imu.c **** /*------------------------------------------------------------------------------
 813              		.loc 1 109 1 is_stmt 0 view .LVU222
 814 0000 70B5     		push	{r4, r5, r6, lr}
 815              	.LCFI34:
 816              		.cfi_def_cfa_offset 16
 817              		.cfi_offset 4, -16
 818              		.cfi_offset 5, -12
 819              		.cfi_offset 6, -8
 820              		.cfi_offset 14, -4
ARM GAS  C:\Users\tnguy\AppData\Local\Temp\ccrLQ3au.s 			page 33


 821 0002 84B0     		sub	sp, sp, #16
 822              	.LCFI35:
 823              		.cfi_def_cfa_offset 32
 824 0004 0446     		mov	r4, r0
 113:../../../mod/imu/imu.c **** uint8_t    imu_dev_id;          /* IMU identification code         */
 825              		.loc 1 113 1 is_stmt 1 view .LVU223
 114:../../../mod/imu/imu.c **** uint8_t    imu_status_reg;      /* Contents of IMU status register */
 826              		.loc 1 114 1 view .LVU224
 115:../../../mod/imu/imu.c **** uint8_t    imu_acc_conf;        /* IMU ACC_CONF Register contents  */
 827              		.loc 1 115 1 view .LVU225
 116:../../../mod/imu/imu.c **** uint8_t    imu_gyr_conf;        /* IMU GYR_CONF Register contents  */
 828              		.loc 1 116 1 view .LVU226
 117:../../../mod/imu/imu.c **** uint8_t    imu_sensor_data[12]; /* IMU Sensor Data                 */
 829              		.loc 1 117 1 view .LVU227
 118:../../../mod/imu/imu.c **** 
 830              		.loc 1 118 1 view .LVU228
 124:../../../mod/imu/imu.c **** imu_dev_id     = 0;
 831              		.loc 1 124 1 view .LVU229
 832              	.LVL72:
 125:../../../mod/imu/imu.c **** imu_status_reg = 0;
 833              		.loc 1 125 1 view .LVU230
 125:../../../mod/imu/imu.c **** imu_status_reg = 0;
 834              		.loc 1 125 16 is_stmt 0 view .LVU231
 835 0006 0023     		movs	r3, #0
 836 0008 8DF80F30 		strb	r3, [sp, #15]
 126:../../../mod/imu/imu.c **** imu_acc_conf   = ( imu_config_ptr -> acc_odr         ) |
 837              		.loc 1 126 1 is_stmt 1 view .LVU232
 126:../../../mod/imu/imu.c **** imu_acc_conf   = ( imu_config_ptr -> acc_odr         ) |
 838              		.loc 1 126 16 is_stmt 0 view .LVU233
 839 000c 8DF80E30 		strb	r3, [sp, #14]
 127:../../../mod/imu/imu.c ****                  ( imu_config_ptr -> acc_filter      ) |
 840              		.loc 1 127 1 is_stmt 1 view .LVU234
 127:../../../mod/imu/imu.c ****                  ( imu_config_ptr -> acc_filter      ) |
 841              		.loc 1 127 35 is_stmt 0 view .LVU235
 842 0010 4278     		ldrb	r2, [r0, #1]	@ zero_extendqisi2
 128:../../../mod/imu/imu.c ****                  ( imu_config_ptr -> acc_filter_mode );
 843              		.loc 1 128 35 view .LVU236
 844 0012 0179     		ldrb	r1, [r0, #4]	@ zero_extendqisi2
 129:../../../mod/imu/imu.c **** imu_gyr_conf   = ( imu_config_ptr -> gyro_odr        ) |
 845              		.loc 1 129 35 view .LVU237
 846 0014 8679     		ldrb	r6, [r0, #6]	@ zero_extendqisi2
 127:../../../mod/imu/imu.c ****                  ( imu_config_ptr -> acc_filter      ) |
 847              		.loc 1 127 16 view .LVU238
 848 0016 0A43     		orrs	r2, r2, r1
 849 0018 1643     		orrs	r6, r6, r2
 850              	.LVL73:
 130:../../../mod/imu/imu.c ****                  ( imu_config_ptr -> gyro_filter     ) |
 851              		.loc 1 130 1 is_stmt 1 view .LVU239
 130:../../../mod/imu/imu.c ****                  ( imu_config_ptr -> gyro_filter     ) |
 852              		.loc 1 130 35 is_stmt 0 view .LVU240
 853 001a 8178     		ldrb	r1, [r0, #2]	@ zero_extendqisi2
 131:../../../mod/imu/imu.c ****                  ( 1 << 7 );
 854              		.loc 1 131 35 view .LVU241
 855 001c 4279     		ldrb	r2, [r0, #5]	@ zero_extendqisi2
 130:../../../mod/imu/imu.c ****                  ( imu_config_ptr -> gyro_filter     ) |
 856              		.loc 1 130 16 view .LVU242
 857 001e 1143     		orrs	r1, r1, r2
ARM GAS  C:\Users\tnguy\AppData\Local\Temp\ccrLQ3au.s 			page 34


 858 0020 41F08005 		orr	r5, r1, #128
 859              	.LVL74:
 133:../../../mod/imu/imu.c **** 
 860              		.loc 1 133 1 is_stmt 1 view .LVU243
 861 0024 0093     		str	r3, [sp]
 862 0026 0193     		str	r3, [sp, #4]
 863 0028 0293     		str	r3, [sp, #8]
 141:../../../mod/imu/imu.c **** if ( imu_status != IMU_OK )
 864              		.loc 1 141 1 view .LVU244
 141:../../../mod/imu/imu.c **** if ( imu_status != IMU_OK )
 865              		.loc 1 141 14 is_stmt 0 view .LVU245
 866 002a 0DF10F00 		add	r0, sp, #15
 867              	.LVL75:
 141:../../../mod/imu/imu.c **** if ( imu_status != IMU_OK )
 868              		.loc 1 141 14 view .LVU246
 869 002e FFF7FEFF 		bl	imu_get_device_id
 870              	.LVL76:
 142:../../../mod/imu/imu.c ****     {
 871              		.loc 1 142 1 is_stmt 1 view .LVU247
 142:../../../mod/imu/imu.c ****     {
 872              		.loc 1 142 4 is_stmt 0 view .LVU248
 873 0032 08B1     		cbz	r0, .L67
 874              	.LVL77:
 875              	.L51:
 253:../../../mod/imu/imu.c **** #endif /* #if defined( A0002_REV2 ) */
 876              		.loc 1 253 1 view .LVU249
 877 0034 04B0     		add	sp, sp, #16
 878              	.LCFI36:
 879              		.cfi_remember_state
 880              		.cfi_def_cfa_offset 16
 881              		@ sp needed
 882 0036 70BD     		pop	{r4, r5, r6, pc}
 883              	.LVL78:
 884              	.L67:
 885              	.LCFI37:
 886              		.cfi_restore_state
 150:../../../mod/imu/imu.c ****     if ( imu_status != IMU_OK )
 887              		.loc 1 150 5 is_stmt 1 view .LVU250
 150:../../../mod/imu/imu.c ****     if ( imu_status != IMU_OK )
 888              		.loc 1 150 18 is_stmt 0 view .LVU251
 889 0038 0021     		movs	r1, #0
 890              	.LVL79:
 150:../../../mod/imu/imu.c ****     if ( imu_status != IMU_OK )
 891              		.loc 1 150 18 view .LVU252
 892 003a 7C20     		movs	r0, #124
 893 003c FFF7FEFF 		bl	write_imu_reg
 894              	.LVL80:
 151:../../../mod/imu/imu.c ****         {
 895              		.loc 1 151 5 is_stmt 1 view .LVU253
 151:../../../mod/imu/imu.c ****         {
 896              		.loc 1 151 8 is_stmt 0 view .LVU254
 897 0040 0028     		cmp	r0, #0
 898 0042 50D1     		bne	.L52
 155:../../../mod/imu/imu.c **** 
 899              		.loc 1 155 5 is_stmt 1 view .LVU255
 900 0044 0120     		movs	r0, #1
 901              	.LVL81:
ARM GAS  C:\Users\tnguy\AppData\Local\Temp\ccrLQ3au.s 			page 35


 155:../../../mod/imu/imu.c **** 
 902              		.loc 1 155 5 is_stmt 0 view .LVU256
 903 0046 FFF7FEFF 		bl	HAL_Delay
 904              	.LVL82:
 158:../../../mod/imu/imu.c ****     if ( imu_status != IMU_OK )
 905              		.loc 1 158 5 is_stmt 1 view .LVU257
 158:../../../mod/imu/imu.c ****     if ( imu_status != IMU_OK )
 906              		.loc 1 158 18 is_stmt 0 view .LVU258
 907 004a 0021     		movs	r1, #0
 908 004c 5920     		movs	r0, #89
 909 004e FFF7FEFF 		bl	write_imu_reg
 910              	.LVL83:
 159:../../../mod/imu/imu.c ****         {
 911              		.loc 1 159 5 is_stmt 1 view .LVU259
 159:../../../mod/imu/imu.c ****         {
 912              		.loc 1 159 8 is_stmt 0 view .LVU260
 913 0052 0028     		cmp	r0, #0
 914 0054 49D1     		bne	.L53
 165:../../../mod/imu/imu.c ****                                  &bmi270_init_file[0], 
 915              		.loc 1 165 5 is_stmt 1 view .LVU261
 165:../../../mod/imu/imu.c ****                                  &bmi270_init_file[0], 
 916              		.loc 1 165 18 is_stmt 0 view .LVU262
 917 0056 4FF40052 		mov	r2, #8192
 918 005a 3049     		ldr	r1, .L68
 919 005c 5E20     		movs	r0, #94
 920              	.LVL84:
 165:../../../mod/imu/imu.c ****                                  &bmi270_init_file[0], 
 921              		.loc 1 165 18 view .LVU263
 922 005e FFF7FEFF 		bl	write_imu_regs
 923              	.LVL85:
 168:../../../mod/imu/imu.c ****         {
 924              		.loc 1 168 5 is_stmt 1 view .LVU264
 168:../../../mod/imu/imu.c ****         {
 925              		.loc 1 168 8 is_stmt 0 view .LVU265
 926 0062 0028     		cmp	r0, #0
 927 0064 43D1     		bne	.L54
 174:../../../mod/imu/imu.c ****     if ( imu_status != IMU_OK )
 928              		.loc 1 174 5 is_stmt 1 view .LVU266
 174:../../../mod/imu/imu.c ****     if ( imu_status != IMU_OK )
 929              		.loc 1 174 18 is_stmt 0 view .LVU267
 930 0066 0121     		movs	r1, #1
 931 0068 5920     		movs	r0, #89
 932              	.LVL86:
 174:../../../mod/imu/imu.c ****     if ( imu_status != IMU_OK )
 933              		.loc 1 174 18 view .LVU268
 934 006a FFF7FEFF 		bl	write_imu_reg
 935              	.LVL87:
 175:../../../mod/imu/imu.c ****         {
 936              		.loc 1 175 5 is_stmt 1 view .LVU269
 175:../../../mod/imu/imu.c ****         {
 937              		.loc 1 175 8 is_stmt 0 view .LVU270
 938 006e 0028     		cmp	r0, #0
 939 0070 3FD1     		bne	.L55
 181:../../../mod/imu/imu.c ****     imu_status = read_imu_regs( IMU_REG_INTERNAL_STATUS, 
 940              		.loc 1 181 5 is_stmt 1 view .LVU271
 941 0072 9620     		movs	r0, #150
 942              	.LVL88:
ARM GAS  C:\Users\tnguy\AppData\Local\Temp\ccrLQ3au.s 			page 36


 181:../../../mod/imu/imu.c ****     imu_status = read_imu_regs( IMU_REG_INTERNAL_STATUS, 
 943              		.loc 1 181 5 is_stmt 0 view .LVU272
 944 0074 FFF7FEFF 		bl	HAL_Delay
 945              	.LVL89:
 182:../../../mod/imu/imu.c ****                                 &imu_status_reg        ,
 946              		.loc 1 182 5 is_stmt 1 view .LVU273
 182:../../../mod/imu/imu.c ****                                 &imu_status_reg        ,
 947              		.loc 1 182 18 is_stmt 0 view .LVU274
 948 0078 0122     		movs	r2, #1
 949 007a 0DF10E01 		add	r1, sp, #14
 950 007e 2120     		movs	r0, #33
 951 0080 FFF7FEFF 		bl	read_imu_regs
 952              	.LVL90:
 185:../../../mod/imu/imu.c ****         {
 953              		.loc 1 185 5 is_stmt 1 view .LVU275
 185:../../../mod/imu/imu.c ****         {
 954              		.loc 1 185 8 is_stmt 0 view .LVU276
 955 0084 B8BB     		cbnz	r0, .L56
 185:../../../mod/imu/imu.c ****         {
 956              		.loc 1 185 52 discriminator 1 view .LVU277
 957 0086 9DF80E30 		ldrb	r3, [sp, #14]	@ zero_extendqisi2
 185:../../../mod/imu/imu.c ****         {
 958              		.loc 1 185 31 discriminator 1 view .LVU278
 959 008a 13F0010F 		tst	r3, #1
 960 008e 34D0     		beq	.L57
 194:../../../mod/imu/imu.c ****                                 imu_config_ptr -> sensor_enable );
 961              		.loc 1 194 5 is_stmt 1 view .LVU279
 194:../../../mod/imu/imu.c ****                                 imu_config_ptr -> sensor_enable );
 962              		.loc 1 194 18 is_stmt 0 view .LVU280
 963 0090 2178     		ldrb	r1, [r4]	@ zero_extendqisi2
 964 0092 7D20     		movs	r0, #125
 965              	.LVL91:
 194:../../../mod/imu/imu.c ****                                 imu_config_ptr -> sensor_enable );
 966              		.loc 1 194 18 view .LVU281
 967 0094 FFF7FEFF 		bl	write_imu_reg
 968              	.LVL92:
 196:../../../mod/imu/imu.c ****         {
 969              		.loc 1 196 5 is_stmt 1 view .LVU282
 196:../../../mod/imu/imu.c ****         {
 970              		.loc 1 196 8 is_stmt 0 view .LVU283
 971 0098 88BB     		cbnz	r0, .L58
 202:../../../mod/imu/imu.c ****     if ( imu_status != IMU_OK )
 972              		.loc 1 202 5 is_stmt 1 view .LVU284
 202:../../../mod/imu/imu.c ****     if ( imu_status != IMU_OK )
 973              		.loc 1 202 18 is_stmt 0 view .LVU285
 974 009a 3146     		mov	r1, r6
 975 009c 4020     		movs	r0, #64
 976              	.LVL93:
 202:../../../mod/imu/imu.c ****     if ( imu_status != IMU_OK )
 977              		.loc 1 202 18 view .LVU286
 978 009e FFF7FEFF 		bl	write_imu_reg
 979              	.LVL94:
 203:../../../mod/imu/imu.c ****         {
 980              		.loc 1 203 5 is_stmt 1 view .LVU287
 203:../../../mod/imu/imu.c ****         {
 981              		.loc 1 203 8 is_stmt 0 view .LVU288
 982 00a2 70BB     		cbnz	r0, .L59
ARM GAS  C:\Users\tnguy\AppData\Local\Temp\ccrLQ3au.s 			page 37


 207:../../../mod/imu/imu.c ****                                 imu_config_ptr -> acc_range );
 983              		.loc 1 207 5 is_stmt 1 view .LVU289
 207:../../../mod/imu/imu.c ****                                 imu_config_ptr -> acc_range );
 984              		.loc 1 207 18 is_stmt 0 view .LVU290
 985 00a4 217A     		ldrb	r1, [r4, #8]	@ zero_extendqisi2
 986 00a6 4120     		movs	r0, #65
 987              	.LVL95:
 207:../../../mod/imu/imu.c ****                                 imu_config_ptr -> acc_range );
 988              		.loc 1 207 18 view .LVU291
 989 00a8 FFF7FEFF 		bl	write_imu_reg
 990              	.LVL96:
 209:../../../mod/imu/imu.c ****         {
 991              		.loc 1 209 5 is_stmt 1 view .LVU292
 209:../../../mod/imu/imu.c ****         {
 992              		.loc 1 209 8 is_stmt 0 view .LVU293
 993 00ac 58BB     		cbnz	r0, .L60
 215:../../../mod/imu/imu.c ****     if ( imu_status != IMU_OK )
 994              		.loc 1 215 5 is_stmt 1 view .LVU294
 215:../../../mod/imu/imu.c ****     if ( imu_status != IMU_OK )
 995              		.loc 1 215 18 is_stmt 0 view .LVU295
 996 00ae 2946     		mov	r1, r5
 997 00b0 4220     		movs	r0, #66
 998              	.LVL97:
 215:../../../mod/imu/imu.c ****     if ( imu_status != IMU_OK )
 999              		.loc 1 215 18 view .LVU296
 1000 00b2 FFF7FEFF 		bl	write_imu_reg
 1001              	.LVL98:
 216:../../../mod/imu/imu.c ****         {
 1002              		.loc 1 216 5 is_stmt 1 view .LVU297
 216:../../../mod/imu/imu.c ****         {
 1003              		.loc 1 216 8 is_stmt 0 view .LVU298
 1004 00b6 40BB     		cbnz	r0, .L61
 220:../../../mod/imu/imu.c ****                                 imu_config_ptr -> gyro_range );
 1005              		.loc 1 220 5 is_stmt 1 view .LVU299
 220:../../../mod/imu/imu.c ****                                 imu_config_ptr -> gyro_range );
 1006              		.loc 1 220 18 is_stmt 0 view .LVU300
 1007 00b8 617A     		ldrb	r1, [r4, #9]	@ zero_extendqisi2
 1008 00ba 4320     		movs	r0, #67
 1009              	.LVL99:
 220:../../../mod/imu/imu.c ****                                 imu_config_ptr -> gyro_range );
 1010              		.loc 1 220 18 view .LVU301
 1011 00bc FFF7FEFF 		bl	write_imu_reg
 1012              	.LVL100:
 222:../../../mod/imu/imu.c ****         {
 1013              		.loc 1 222 5 is_stmt 1 view .LVU302
 222:../../../mod/imu/imu.c ****         {
 1014              		.loc 1 222 8 is_stmt 0 view .LVU303
 1015 00c0 28BB     		cbnz	r0, .L62
 228:../../../mod/imu/imu.c ****     if ( imu_status != IMU_OK )
 1016              		.loc 1 228 5 is_stmt 1 view .LVU304
 228:../../../mod/imu/imu.c ****     if ( imu_status != IMU_OK )
 1017              		.loc 1 228 18 is_stmt 0 view .LVU305
 1018 00c2 0221     		movs	r1, #2
 1019 00c4 7C20     		movs	r0, #124
 1020              	.LVL101:
 228:../../../mod/imu/imu.c ****     if ( imu_status != IMU_OK )
 1021              		.loc 1 228 18 view .LVU306
ARM GAS  C:\Users\tnguy\AppData\Local\Temp\ccrLQ3au.s 			page 38


 1022 00c6 FFF7FEFF 		bl	write_imu_reg
 1023              	.LVL102:
 229:../../../mod/imu/imu.c ****         {
 1024              		.loc 1 229 5 is_stmt 1 view .LVU307
 229:../../../mod/imu/imu.c ****         {
 1025              		.loc 1 229 8 is_stmt 0 view .LVU308
 1026 00ca 10BB     		cbnz	r0, .L63
 235:../../../mod/imu/imu.c ****                                 &imu_sensor_data[0], 
 1027              		.loc 1 235 5 is_stmt 1 view .LVU309
 235:../../../mod/imu/imu.c ****                                 &imu_sensor_data[0], 
 1028              		.loc 1 235 18 is_stmt 0 view .LVU310
 1029 00cc 0C22     		movs	r2, #12
 1030 00ce 6946     		mov	r1, sp
 1031 00d0 1046     		mov	r0, r2
 1032              	.LVL103:
 235:../../../mod/imu/imu.c ****                                 &imu_sensor_data[0], 
 1033              		.loc 1 235 18 view .LVU311
 1034 00d2 FFF7FEFF 		bl	read_imu_regs
 1035              	.LVL104:
 238:../../../mod/imu/imu.c ****         {
 1036              		.loc 1 238 5 is_stmt 1 view .LVU312
 238:../../../mod/imu/imu.c ****         {
 1037              		.loc 1 238 8 is_stmt 0 view .LVU313
 1038 00d6 F0B9     		cbnz	r0, .L64
 244:../../../mod/imu/imu.c ****     if ( imu_status != IMU_OK )
 1039              		.loc 1 244 5 is_stmt 1 view .LVU314
 244:../../../mod/imu/imu.c ****     if ( imu_status != IMU_OK )
 1040              		.loc 1 244 18 is_stmt 0 view .LVU315
 1041 00d8 2046     		mov	r0, r4
 1042              	.LVL105:
 244:../../../mod/imu/imu.c ****     if ( imu_status != IMU_OK )
 1043              		.loc 1 244 18 view .LVU316
 1044 00da FFF7FEFF 		bl	mag_init
 1045              	.LVL106:
 245:../../../mod/imu/imu.c ****         {
 1046              		.loc 1 245 5 is_stmt 1 view .LVU317
 245:../../../mod/imu/imu.c ****         {
 1047              		.loc 1 245 8 is_stmt 0 view .LVU318
 1048 00de 0028     		cmp	r0, #0
 1049 00e0 A8D0     		beq	.L51
 247:../../../mod/imu/imu.c ****         }
 1050              		.loc 1 247 16 view .LVU319
 1051 00e2 0B20     		movs	r0, #11
 1052              	.LVL107:
 247:../../../mod/imu/imu.c ****         }
 1053              		.loc 1 247 16 view .LVU320
 1054 00e4 A6E7     		b	.L51
 1055              	.LVL108:
 1056              	.L52:
 153:../../../mod/imu/imu.c ****         }
 1057              		.loc 1 153 16 view .LVU321
 1058 00e6 0820     		movs	r0, #8
 1059              	.LVL109:
 153:../../../mod/imu/imu.c ****         }
 1060              		.loc 1 153 16 view .LVU322
 1061 00e8 A4E7     		b	.L51
 1062              	.LVL110:
ARM GAS  C:\Users\tnguy\AppData\Local\Temp\ccrLQ3au.s 			page 39


 1063              	.L53:
 161:../../../mod/imu/imu.c ****         }
 1064              		.loc 1 161 16 view .LVU323
 1065 00ea 0820     		movs	r0, #8
 1066              	.LVL111:
 161:../../../mod/imu/imu.c ****         }
 1067              		.loc 1 161 16 view .LVU324
 1068 00ec A2E7     		b	.L51
 1069              	.LVL112:
 1070              	.L54:
 170:../../../mod/imu/imu.c ****         }
 1071              		.loc 1 170 16 view .LVU325
 1072 00ee 0820     		movs	r0, #8
 1073              	.LVL113:
 170:../../../mod/imu/imu.c ****         }
 1074              		.loc 1 170 16 view .LVU326
 1075 00f0 A0E7     		b	.L51
 1076              	.LVL114:
 1077              	.L55:
 177:../../../mod/imu/imu.c ****         }
 1078              		.loc 1 177 16 view .LVU327
 1079 00f2 0820     		movs	r0, #8
 1080              	.LVL115:
 177:../../../mod/imu/imu.c ****         }
 1081              		.loc 1 177 16 view .LVU328
 1082 00f4 9EE7     		b	.L51
 1083              	.LVL116:
 1084              	.L56:
 187:../../../mod/imu/imu.c ****         }
 1085              		.loc 1 187 16 view .LVU329
 1086 00f6 0820     		movs	r0, #8
 1087              	.LVL117:
 187:../../../mod/imu/imu.c ****         }
 1088              		.loc 1 187 16 view .LVU330
 1089 00f8 9CE7     		b	.L51
 1090              	.LVL118:
 1091              	.L57:
 187:../../../mod/imu/imu.c ****         }
 1092              		.loc 1 187 16 view .LVU331
 1093 00fa 0820     		movs	r0, #8
 1094              	.LVL119:
 187:../../../mod/imu/imu.c ****         }
 1095              		.loc 1 187 16 view .LVU332
 1096 00fc 9AE7     		b	.L51
 1097              	.LVL120:
 1098              	.L58:
 198:../../../mod/imu/imu.c ****         }
 1099              		.loc 1 198 16 view .LVU333
 1100 00fe 0920     		movs	r0, #9
 1101              	.LVL121:
 198:../../../mod/imu/imu.c ****         }
 1102              		.loc 1 198 16 view .LVU334
 1103 0100 98E7     		b	.L51
 1104              	.LVL122:
 1105              	.L59:
 205:../../../mod/imu/imu.c ****         }
 1106              		.loc 1 205 16 view .LVU335
ARM GAS  C:\Users\tnguy\AppData\Local\Temp\ccrLQ3au.s 			page 40


 1107 0102 0920     		movs	r0, #9
 1108              	.LVL123:
 205:../../../mod/imu/imu.c ****         }
 1109              		.loc 1 205 16 view .LVU336
 1110 0104 96E7     		b	.L51
 1111              	.LVL124:
 1112              	.L60:
 211:../../../mod/imu/imu.c ****         }
 1113              		.loc 1 211 16 view .LVU337
 1114 0106 0920     		movs	r0, #9
 1115              	.LVL125:
 211:../../../mod/imu/imu.c ****         }
 1116              		.loc 1 211 16 view .LVU338
 1117 0108 94E7     		b	.L51
 1118              	.LVL126:
 1119              	.L61:
 218:../../../mod/imu/imu.c ****         }
 1120              		.loc 1 218 16 view .LVU339
 1121 010a 0920     		movs	r0, #9
 1122              	.LVL127:
 218:../../../mod/imu/imu.c ****         }
 1123              		.loc 1 218 16 view .LVU340
 1124 010c 92E7     		b	.L51
 1125              	.LVL128:
 1126              	.L62:
 224:../../../mod/imu/imu.c ****         }
 1127              		.loc 1 224 16 view .LVU341
 1128 010e 0920     		movs	r0, #9
 1129              	.LVL129:
 224:../../../mod/imu/imu.c ****         }
 1130              		.loc 1 224 16 view .LVU342
 1131 0110 90E7     		b	.L51
 1132              	.LVL130:
 1133              	.L63:
 231:../../../mod/imu/imu.c ****         }
 1134              		.loc 1 231 16 view .LVU343
 1135 0112 0920     		movs	r0, #9
 1136              	.LVL131:
 231:../../../mod/imu/imu.c ****         }
 1137              		.loc 1 231 16 view .LVU344
 1138 0114 8EE7     		b	.L51
 1139              	.LVL132:
 1140              	.L64:
 240:../../../mod/imu/imu.c ****         }
 1141              		.loc 1 240 16 view .LVU345
 1142 0116 0920     		movs	r0, #9
 1143              	.LVL133:
 240:../../../mod/imu/imu.c ****         }
 1144              		.loc 1 240 16 view .LVU346
 1145 0118 8CE7     		b	.L51
 1146              	.L69:
 1147 011a 00BF     		.align	2
 1148              	.L68:
 1149 011c 00000000 		.word	bmi270_init_file
 1150              		.cfi_endproc
 1151              	.LFE144:
 1153              		.global	bmi270_init_file
ARM GAS  C:\Users\tnguy\AppData\Local\Temp\ccrLQ3au.s 			page 41


 1154              		.section	.data.bmi270_init_file,"aw"
 1155              		.align	2
 1158              	bmi270_init_file:
 1159 0000 C82E002E 		.ascii	"\310.\000.\200.=\261\310.\000.\200.\221\003\200.\274"
 1159      802E3DB1 
 1159      C82E002E 
 1159      802E9103 
 1159      802EBC
 1160 0013 B0802EA3 		.ascii	"\260\200.\243\003\310.\000.\200.\000\260P0!.Y\365\020"
 1160      03C82E00 
 1160      2E802E00 
 1160      B0503021 
 1160      2E59F510 
 1161 0027 30212E6A 		.ascii	"0!.j\365\200.;\003\000\000\000\000\010\031\001\000\""
 1161      F5802E3B 
 1161      03000000 
 1161      00081901 
 1161      0022
 1162 0039 00750000 		.ascii	"\000u\000\000\020\000\020\321\000\263C\200.\000\301"
 1162      100010D1 
 1162      00B34380 
 1162      2E00C1
 1163 0048 802E00C1 		.ascii	"\200.\000\301\200.\000\301\200.\000\301\200.\000\301"
 1163      802E00C1 
 1163      802E00C1 
 1163      802E00C1 
 1164 0058 802E00C1 		.ascii	"\200.\000\301\200.\000\301\200.\000\301\200.\000\301"
 1164      802E00C1 
 1164      802E00C1 
 1164      802E00C1 
 1165 0068 802E00C1 		.ascii	"\200.\000\301\200.\000\301\200.\000\301\200.\000\301"
 1165      802E00C1 
 1165      802E00C1 
 1165      802E00C1 
 1166 0078 802E00C1 		.ascii	"\200.\000\301\200.\000\301\200.\000\301\200.\000\301"
 1166      802E00C1 
 1166      802E00C1 
 1166      802E00C1 
 1167 0088 802E00C1 		.ascii	"\200.\000\301\200.\000\301\200.\000\301\200.\000\301"
 1167      802E00C1 
 1167      802E00C1 
 1167      802E00C1 
 1168 0098 802E00C1 		.ascii	"\200.\000\301\200.\000\301\200.\000\301\200.\000\301"
 1168      802E00C1 
 1168      802E00C1 
 1168      802E00C1 
 1169 00a8 802E00C1 		.ascii	"\200.\000\301\200.\000\301\200.\000\301\200.\000\301"
 1169      802E00C1 
 1169      802E00C1 
 1169      802E00C1 
 1170 00b8 802E00C1 		.ascii	"\200.\000\301\200.\000\301\200.\000\301\200.\000\301"
 1170      802E00C1 
 1170      802E00C1 
 1170      802E00C1 
 1171 00c8 802E00C1 		.ascii	"\200.\000\301\200.\000\301\200.\000\301\200.\000\301"
 1171      802E00C1 
 1171      802E00C1 
ARM GAS  C:\Users\tnguy\AppData\Local\Temp\ccrLQ3au.s 			page 42


 1171      802E00C1 
 1172 00d8 802E00C1 		.ascii	"\200.\000\301\200.\000\301\200.\000\301\200.\000\301"
 1172      802E00C1 
 1172      802E00C1 
 1172      802E00C1 
 1173 00e8 802E00C1 		.ascii	"\200.\000\301\340_\000\000\000\000\001\000\000\000\000"
 1173      E05F0000 
 1173      00000100 
 1173      000000
 1174 00f7 00000000 		.ascii	"\000\000\000\000\000\000\000\222\000\000\000\000\000"
 1174      00000092 
 1174      00000000 
 1174      00
 1175 0104 00000000 		.ascii	"\000\000\000\000\000\000\000\000\000\000\000\000\010"
 1175      00000000 
 1175      00000000 
 1175      08
 1176 0111 19000088 		.ascii	"\031\000\000\210\000\000\000\000\000\000\000\005\340"
 1176      00000000 
 1176      00000005 
 1176      E0
 1177 011e AA3805E0 		.ascii	"\2528\005\340\2200\372\000\226\000K\011\021\000\021"
 1177      9030FA00 
 1177      96004B09 
 1177      110011
 1178 012d 0002002D 		.ascii	"\000\002\000-\001\324{;\001\333z\004\000?{\315l\303"
 1178      01D47B3B 
 1178      01DB7A04 
 1178      003F7BCD 
 1178      6CC3
 1179 013f 048509C3 		.ascii	"\004\205\011\303\004\354\346\014F\001\000'\000\031\000"
 1179      04ECE60C 
 1179      46010027 
 1179      001900
 1180 014e 9600A000 		.ascii	"\226\000\240\000\001\000\014\000\360<\000\001\001\000"
 1180      01000C00 
 1180      F03C0001 
 1180      0100
 1181 015c 03000100 		.ascii	"\003\000\001\000\016\000\000\0002\000\005\000\356\006"
 1181      0E000000 
 1181      32000500 
 1181      EE06
 1182 016a 0400C800 		.ascii	"\004\000\310\000\000\000\004\000\250\005\356\006\000"
 1182      00000400 
 1182      A805EE06 
 1182      00
 1183 0177 04BC02B3 		.ascii	"\004\274\002\263\000\205\007\000\000\000\000\000\000"
 1183      00850700 
 1183      00000000 
 1183      00
 1184 0184 00000000 		.ascii	"\000\000\000\000\000\000\000\000\000\000\000\000\000"
 1184      00000000 
 1184      00000000 
 1184      00
 1185 0191 00B40001 		.ascii	"\000\264\000\001\000\271\000\001\000\230\000\000\000"
 1185      00B90001 
 1185      00980000 
ARM GAS  C:\Users\tnguy\AppData\Local\Temp\ccrLQ3au.s 			page 43


 1185      00
 1186 019e 00000000 		.ascii	"\000\000\000\000\000\000\001\000\200\000\004\000\000"
 1186      00000100 
 1186      80000400 
 1186      00
 1187 01ab 00000000 		.ascii	"\000\000\000\000\000\000\000\000\000\000\000\000\000"
 1187      00000000 
 1187      00000000 
 1187      00
 1188 01b8 00000000 		.ascii	"\000\000\000\000\000\000\000\000\000\000\000\000\000"
 1188      00000000 
 1188      00000000 
 1188      00
 1189 01c5 00000000 		.ascii	"\000\000\000\000\000\000\000\000\000\000\000\000\000"
 1189      00000000 
 1189      00000000 
 1189      00
 1190 01d2 00000000 		.ascii	"\000\000\000\000\000\000\000\000\000\000\000\000\000"
 1190      00000000 
 1190      00000000 
 1190      00
 1191 01df 00000000 		.ascii	"\000\000\000\000\000\000\000\000\000\000\000\000\000"
 1191      00000000 
 1191      00000000 
 1191      00
 1192 01ec 00000000 		.ascii	"\000\000\000\000\000\000\000\000\000\000\000\000\000"
 1192      00000000 
 1192      00000000 
 1192      00
 1193 01f9 00802E00 		.ascii	"\000\200.\000\301\375-\336\000\353\000\332\000\000\014"
 1193      C1FD2DDE 
 1193      00EB00DA 
 1193      00000C
 1194 0208 FF0F0004 		.ascii	"\377\017\000\004\300\000[\365\311\001\036\362\200\000"
 1194      C0005BF5 
 1194      C9011EF2 
 1194      8000
 1195 0216 3FFF19F4 		.ascii	"?\377\031\364X\365f\365d\365\300\361\360\000\340\000"
 1195      58F566F5 
 1195      64F5C0F1 
 1195      F000E000 
 1196 0226 CD01D301 		.ascii	"\315\001\323\001\333\001\377\177\377\001\344\000t\367"
 1196      DB01FF7F 
 1196      FF01E400 
 1196      74F7
 1197 0234 F300FA00 		.ascii	"\363\000\372\000\377?\312\003l8V\376D\375\274\002\371"
 1197      FF3FCA03 
 1197      6C3856FE 
 1197      44FDBC02 
 1197      F9
 1198 0245 0600FC12 		.ascii	"\006\000\374\022\002\256\001X\372\232\375w\005\273\002"
 1198      02AE0158 
 1198      FA9AFD77 
 1198      05BB02
 1199 0254 96019501 		.ascii	"\226\001\225\001\177\001\202\001\211\001\207\001\210"
 1199      7F018201 
 1199      89018701 
ARM GAS  C:\Users\tnguy\AppData\Local\Temp\ccrLQ3au.s 			page 44


 1199      88
 1200 0261 018A018C 		.ascii	"\001\212\001\214\001\217\001\215\001\222\001\221\001"
 1200      018F018D 
 1200      01920191 
 1200      01
 1201 026e DD009F01 		.ascii	"\335\000\237\001~\001\333\000\266\001pi&\323\234\007"
 1201      7E01DB00 
 1201      B6017069 
 1201      26D39C07 
 1202 027e 1F059D00 		.ascii	"\037\005\235\000\000\010\274\0057\372\242\001\252\001"
 1202      0008BC05 
 1202      37FAA201 
 1202      AA01
 1203 028c A101A801 		.ascii	"\241\001\250\001\240\001\250\005\264\001\264\001\316"
 1203      A001A805 
 1203      B401B401 
 1203      CE
 1204 0299 00D000FC 		.ascii	"\000\320\000\374\000\305\001\377\373\261\000\0008\000"
 1204      00C501FF 
 1204      FBB10000 
 1204      3800
 1205 02a7 30FDF5FC 		.ascii	"0\375\365\374\365\315\001\240\000_\377\000@\377\000"
 1205      F5CD01A0 
 1205      005FFF00 
 1205      40FF00
 1206 02b6 00806D0F 		.ascii	"\000\200m\017\353\000\177\377\302\365h\367\263\361g"
 1206      EB007FFF 
 1206      C2F568F7 
 1206      B3F167
 1207 02c5 0F5B0F61 		.ascii	"\017[\017a\017\200\017X\367[\367\203\017\206\000r\017"
 1207      0F800F58 
 1207      F75BF783 
 1207      0F860072 
 1207      0F
 1208 02d6 850FC6F1 		.ascii	"\205\017\306\361\177\017l\367\000\340\000\377\321\365"
 1208      7F0F6CF7 
 1208      00E000FF 
 1208      D1F5
 1209 02e4 870F8A0F 		.ascii	"\207\017\212\017\377\003\360?\213\000\216\000\220\000"
 1209      FF03F03F 
 1209      8B008E00 
 1209      9000
 1210 02f2 B9002DF5 		.ascii	"\271\000-\365\312\365\313\001 \362\000\000\000\000\000"
 1210      CAF5CB01 
 1210      20F20000 
 1210      000000
 1211 0301 00000000 		.ascii	"\000\000\000\000\000\000\000\000\000\000\000\000\000"
 1211      00000000 
 1211      00000000 
 1211      00
 1212 030e 00000000 		.ascii	"\000\000\000\000\000\000\000\000\000\000\000\000\000"
 1212      00000000 
 1212      00000000 
 1212      00
 1213 031b 00000000 		.ascii	"\000\000\000\000\000\000\000\000\000\000\000\000\000"
 1213      00000000 
 1213      00000000 
ARM GAS  C:\Users\tnguy\AppData\Local\Temp\ccrLQ3au.s 			page 45


 1213      00
 1214 0328 00000000 		.ascii	"\000\000\000\000\000\000\000\000\000\000\000\000\000"
 1214      00000000 
 1214      00000000 
 1214      00
 1215 0335 00000000 		.ascii	"\000\000\000\000\000\000\000\000\000\000\000\000\000"
 1215      00000000 
 1215      00000000 
 1215      00
 1216 0342 00000000 		.ascii	"\000\000\000\000\000\000\000\000\000\000\000\000\000"
 1216      00000000 
 1216      00000000 
 1216      00
 1217 034f 00000000 		.ascii	"\000\000\000\000\000\000\000\000\000\000\000\000\000"
 1217      00000000 
 1217      00000000 
 1217      00
 1218 035c 00000000 		.ascii	"\000\000\000\000\000\000\000\000\000\000\000\000\000"
 1218      00000000 
 1218      00000000 
 1218      00
 1219 0369 00000000 		.ascii	"\000\000\000\000\000\000\000\000\000\000\000\000\000"
 1219      00000000 
 1219      00000000 
 1219      00
 1220 0376 00000000 		.ascii	"\000\000\000\000\000\000\000\000\000\000\000\000\000"
 1220      00000000 
 1220      00000000 
 1220      00
 1221 0383 00000000 		.ascii	"\000\000\000\000\000\000\000\000\000\000\000\000\000"
 1221      00000000 
 1221      00000000 
 1221      00
 1222 0390 00000000 		.ascii	"\000\000\000\000\000\000\000\000\000\000\000\000\000"
 1222      00000000 
 1222      00000000 
 1222      00
 1223 039d 00000000 		.ascii	"\000\000\000\000\000\000\000\000\000\000\000\000\000"
 1223      00000000 
 1223      00000000 
 1223      00
 1224 03aa 00000000 		.ascii	"\000\000\000\000\000\000\000\000\000\000\000\000\000"
 1224      00000000 
 1224      00000000 
 1224      00
 1225 03b7 00000000 		.ascii	"\000\000\000\000\000\000\000\000\000\000\000\000\000"
 1225      00000000 
 1225      00000000 
 1225      00
 1226 03c4 00000000 		.ascii	"\000\000\000\000\000\000\000\000\000\000\000\000\000"
 1226      00000000 
 1226      00000000 
 1226      00
 1227 03d1 00000000 		.ascii	"\000\000\000\000\000\000\0000P\230.\327\016P2\230.\372"
 1227      00000030 
 1227      50982ED7 
 1227      0E503298 
ARM GAS  C:\Users\tnguy\AppData\Local\Temp\ccrLQ3au.s 			page 46


 1227      2EFA
 1228 03e3 030030F0 		.ascii	"\003\0000\360\177\000.\000.\320.\000.\001\200\010\242"
 1228      7F002E00 
 1228      2ED02E00 
 1228      2E018008 
 1228      A2
 1229 03f4 FB2F982E 		.ascii	"\373/\230.\272\003!.\031\000\001.\356\000\000\262\007"
 1229      BA03212E 
 1229      1900012E 
 1229      EE0000B2 
 1229      07
 1230 0405 2F012E19 		.ascii	"/\001.\031\000\000\262\003/\001P\003R\230.\007\314\001"
 1230      0000B203 
 1230      2F015003 
 1230      52982E07 
 1230      CC01
 1231 0417 2EDD0000 		.ascii	".\335\000\000\262'/\005.\212\000\005R\230.\307\301\003"
 1231      B2272F05 
 1231      2E8A0005 
 1231      52982EC7 
 1231      C103
 1232 0429 2EE90040 		.ascii	".\351\000@\262\360\177\010/\001.\031\000\000\262\004"
 1232      B2F07F08 
 1232      2F012E19 
 1232      0000B204 
 1233 0439 2F003021 		.ascii	"/\0000!.\351\000\230.\264\261\001.\030\000\000\262\020"
 1233      2EE90098 
 1233      2EB4B101 
 1233      2E180000 
 1233      B210
 1234 044b 2F055098 		.ascii	"/\005P\230.M\303\005P\230.Z\307\230.\371\264\230.T\262"
 1234      2E4DC305 
 1234      50982E5A 
 1234      C7982EF9 
 1234      B4982E54 
 1235 0460 982E67B6 		.ascii	"\230.g\266\230.\027\262\0200!.w\000\001.\357\000\000"
 1235      982E17B2 
 1235      1030212E 
 1235      7700012E 
 1235      EF0000
 1236 0473 B2042F98 		.ascii	"\262\004/\230.z\267\0000!.\357\000\001.\324\000\004"
 1236      2E7AB700 
 1236      30212EEF 
 1236      00012ED4 
 1236      0004
 1237 0485 AE0B2F01 		.ascii	"\256\013/\001.\335\000\000\262\007/\005R\230.\216\016"
 1237      2EDD0000 
 1237      B2072F05 
 1237      52982E8E 
 1237      0E
 1238 0496 00B2022F 		.ascii	"\000\262\002/\0200!.}\000\001.}\000\000\220\220.\361"
 1238      1030212E 
 1238      7D00012E 
 1238      7D000090 
 1238      902EF1
 1239 04a9 02012ED7 		.ascii	"\002\001.\327\000\000\262\004/\230./\016\0000!.{\000"
 1239      0000B204 
ARM GAS  C:\Users\tnguy\AppData\Local\Temp\ccrLQ3au.s 			page 47


 1239      2F982E2F 
 1239      0E003021 
 1239      2E7B00
 1240 04bc 012E7B00 		.ascii	"\001.{\000\000\262\022/\001.\324\000\000\220\002/\230"
 1240      00B2122F 
 1240      012ED400 
 1240      0090022F 
 1240      98
 1241 04cd 2E1F0E09 		.ascii	".\037\016\011-\230.\201\015\001.\324\000\004\220\002"
 1241      2D982E81 
 1241      0D012ED4 
 1241      00049002 
 1242 04dd 2F503298 		.ascii	"/P2\230.\372\003\0000!.{\000\001.|\000\000\262\220."
 1242      2EFA0300 
 1242      30212E7B 
 1242      00012E7C 
 1242      0000B290 
 1243 04f2 0903012E 		.ascii	"\011\003\001.|\000\0011\001\010\000\262\004/\230.G\313"
 1243      7C000131 
 1243      010800B2 
 1243      042F982E 
 1243      47CB
 1244 0504 1030212E 		.ascii	"\0200!.w\000\2010\001.|\000\001\010\000\262a/\003.\211"
 1244      77008130 
 1244      012E7C00 
 1244      010800B2 
 1244      612F032E 
 1245 0519 00012ED4 		.ascii	"\000\001.\324\000\230\274\230\270\005\262\017X#/\007"
 1245      0098BC98 
 1245      B805B20F 
 1245      58232F07 
 1246 0529 90095400 		.ascii	"\220\011T\00007/\025A\004A\334\276D\276\334\272,\001"
 1246      30372F15 
 1246      410441DC 
 1246      BE44BEDC 
 1246      BA2C01
 1247 053c 61000F56 		.ascii	"a\000\017VJ\017\014/\321B\224\270\301B\0210\005.j\367"
 1247      4A0F0C2F 
 1247      D14294B8 
 1247      C1421130 
 1247      052E6AF7 
 1248 0550 2CBD2FB9 		.ascii	",\275/\271\200\262\010\"\230.\303\267!-a0#.\324\000"
 1248      80B20822 
 1248      982EC3B7 
 1248      212D6130 
 1248      232ED400 
 1249 0564 982EC3B7 		.ascii	"\230.\303\267\0000!.Z\365\030-\341\177P0\230.\372\003"
 1249      0030212E 
 1249      5AF5182D 
 1249      E17F5030 
 1249      982EFA03 
 1250 0578 0F520750 		.ascii	"\017R\007PPBp0\015TBB~\202\342o\200\262BB\005/!.\324"
 1250      50427030 
 1250      0D544242 
 1250      7E82E26F 
 1250      80B24242 
 1251 0591 00103098 		.ascii	"\000\0200\230.\303\267\003-`0!.\324\000\001.\324\000"
ARM GAS  C:\Users\tnguy\AppData\Local\Temp\ccrLQ3au.s 			page 48


 1251      2EC3B703 
 1251      2D603021 
 1251      2ED40001 
 1251      2ED400
 1252 05a4 0690182F 		.ascii	"\006\220\030/\001.v\000\013T\007R\340\177\230.z\301"
 1252      012E7600 
 1252      0B540752 
 1252      E07F982E 
 1252      7AC1
 1253 05b6 E16F081A 		.ascii	"\341o\010\032@0\010/!.\324\000 0\230.\257\267P2\230"
 1253      4030082F 
 1253      212ED400 
 1253      2030982E 
 1253      AFB75032 
 1254 05cb 2EFA0305 		.ascii	".\372\003\005-\230.8\016\0000!.\324\000\0000!.|\000"
 1254      2D982E38 
 1254      0E003021 
 1254      2ED40000 
 1254      30212E7C 
 1255 05e0 182D012E 		.ascii	"\030-\001.\324\000\003\252\001/\230.E\016\001.\324\000"
 1255      D40003AA 
 1255      012F982E 
 1255      450E012E 
 1255      D400
 1256 05f2 3F8003A2 		.ascii	"?\200\003\242\001/\000.\002-\230.[\01600\230.\316\267"
 1256      012F002E 
 1256      022D982E 
 1256      5B0E3030 
 1256      982ECEB7 
 1257 0606 0030212E 		.ascii	"\0000!.}\000P2\230.\372\003\001.w\000\000\262$/\230"
 1257      7D005032 
 1257      982EFA03 
 1257      012E7700 
 1257      00B2242F 
 1258 061b 2EF5CB03 		.ascii	".\365\313\003.\325\000\021T\001\012\274\204\203\206"
 1258      2ED50011 
 1258      54010ABC 
 1258      848386
 1259 062a 212EC901 		.ascii	"!.\311\001\340@\023R\304@\202@\250\271RBC\276SB\004"
 1259      E0401352 
 1259      C4408240 
 1259      A8B95242 
 1259      43BE5342 
 1260 063f 0A5042E1 		.ascii	"\012PB\341\177\3601A@\362o%\275\010\010\002\012\320"
 1260      7FF03141 
 1260      40F26F25 
 1260      BD080802 
 1260      0AD0
 1261 0651 7F982EA8 		.ascii	"\177\230.\250\317\006\274\321o\342o\010\012\200B\230"
 1261      CF06BCD1 
 1261      6FE26F08 
 1261      0A804298 
 1262 0661 2E58B700 		.ascii	".X\267\0000!.\356\000!.w\000!.\335\000\200.\364\001"
 1262      30212EEE 
 1262      00212E77 
 1262      00212EDD 
 1262      00802EF4 
ARM GAS  C:\Users\tnguy\AppData\Local\Temp\ccrLQ3au.s 			page 49


 1263 0676 1A242200 		.ascii	"\032$\"\000\200.\354\001\020P\373\177\230.\363\003W"
 1263      802EEC01 
 1263      1050FB7F 
 1263      982EF303 
 1263      57
 1264 0687 50FB6F01 		.ascii	"P\373o\0010qT\021BB\016\374/\300.\001B\360_\200.\000"
 1264      30715411 
 1264      42420EFC 
 1264      2FC02E01 
 1264      42F05F80 
 1265 069d C1FD2D01 		.ascii	"\301\375-\001\000\000\000\000\000\000\000\000\000\000"
 1265      00000000 
 1265      00000000 
 1265      0000
 1266 06ab 009A0134 		.ascii	"\000\232\0014\003\000\000\000\000\000\000\000\000\000"
 1266      03000000 
 1266      00000000 
 1266      0000
 1267 06b9 00000000 		.ascii	"\000\000\000\000\000\000\000\000\000\000\000\000\000"
 1267      00000000 
 1267      00000000 
 1267      00
 1268 06c6 00000000 		.ascii	"\000\000\000\000\000\000\000\000\000\000\000\000\000"
 1268      00000000 
 1268      00000000 
 1268      00
 1269 06d3 00000000 		.ascii	"\000\000\000\000\000\000\000\000\000\000\000\000\000"
 1269      00000000 
 1269      00000000 
 1269      00
 1270 06e0 00000000 		.ascii	"\000\000\000\000\000\000\000\000\000\000\000\000\000"
 1270      00000000 
 1270      00000000 
 1270      00
 1271 06ed 00000000 		.ascii	"\000\000\000\000\000\000\000\000\000\000\000\000\000"
 1271      00000000 
 1271      00000000 
 1271      00
 1272 06fa 00000000 		.ascii	"\000\000\000\000\000\000\000\000\000\000\000\000\000"
 1272      00000000 
 1272      00000000 
 1272      00
 1273 0707 00000000 		.ascii	"\000\000\000\000\000\000\000\000\000\000\000\000\000"
 1273      00000000 
 1273      00000000 
 1273      00
 1274 0714 00000000 		.ascii	"\000\000\000\000\000\000\000\000\000\000\000\000\000"
 1274      00000000 
 1274      00000000 
 1274      00
 1275 0721 002050E7 		.ascii	"\000 P\347\177\366\177\0062\017.a\365\376\011\300\263"
 1275      7FF67F06 
 1275      320F2E61 
 1275      F5FE09C0 
 1275      B3
 1276 0732 042F1730 		.ascii	"\004/\0270/.\357\000-.a\365\366o\347o\340_\310. P\347"
 1276      2F2EEF00 
ARM GAS  C:\Users\tnguy\AppData\Local\Temp\ccrLQ3au.s 			page 50


 1276      2D2E61F5 
 1276      F66FE76F 
 1276      E05FC82E 
 1277 0749 7FF67F46 		.ascii	"\177\366\177F0\017.\244\361\276\011\200\263\006/\015"
 1277      300F2EA4 
 1277      F1BE0980 
 1277      B3062F0D 
 1278 0759 2ED40084 		.ascii	".\324\000\204\257\002/\0260-.{\000\2060-.`\365\366o"
 1278      AF022F16 
 1278      302D2E7B 
 1278      0086302D 
 1278      2E60F5F6 
 1279 076e E76FE05F 		.ascii	"\347o\340_\310.\001.w\367\011\274\017\270\000\262\020"
 1279      C82E012E 
 1279      77F709BC 
 1279      0FB800B2 
 1279      10
 1280 077f 50FB7F10 		.ascii	"P\373\177\0200\013/\003.\212\000\226\274\237\270@\262"
 1280      300B2F03 
 1280      2E8A0096 
 1280      BC9FB840 
 1280      B2
 1281 0790 052F032E 		.ascii	"\005/\003.h\367\236\274\237\270@\262\007/\003.~\000"
 1281      68F79EBC 
 1281      9FB840B2 
 1281      072F032E 
 1281      7E00
 1282 07a2 4190012F 		.ascii	"A\220\001/\230.\334\003\003,\0000!.~\000\373o\360_\270"
 1282      982EDC03 
 1282      032C0030 
 1282      212E7E00 
 1282      FB6FF05F 
 1283 07b7 2E2050E0 		.ascii	". P\340\177\373\177\000.'P\230.;\310)P\230.\247\310"
 1283      7FFB7F00 
 1283      2E275098 
 1283      2E3BC829 
 1283      50982EA7 
 1284 07cc 0150982E 		.ascii	"\001P\230."
 1285 07d0 55CCE16F 		.ascii	"U\314\341o+P\230.\340\311\373o\0000\340_!.~\000\270"
 1285      2B50982E 
 1285      E0C9FB6F 
 1285      0030E05F 
 1285      212E7E00 
 1286 07e5 2E735001 		.ascii	".sP\0010WT\021BB\016\374/\270.!.Y\365\0200\300.!.J\361"
 1286      30575411 
 1286      42420EFC 
 1286      2FB82E21 
 1286      2E59F510 
 1287 0800 9050F77F 		.ascii	"\220P\367\177\346\177\325\177\304\177\263\177\241\177"
 1287      E67FD57F 
 1287      C47FB37F 
 1287      A17F
 1288 080e 907F827F 		.ascii	"\220\177\202\177{\177\230.5\267\000\262\220.\227\260"
 1288      7B7F982E 
 1288      35B700B2 
 1288      902E97B0 
 1289 081e 032E8F00 		.ascii	"\003.\217\000\007.\221\000\005.\261\000?\272\237\270"
ARM GAS  C:\Users\tnguy\AppData\Local\Temp\ccrLQ3au.s 			page 51


 1289      072E9100 
 1289      052EB100 
 1289      3FBA9FB8 
 1290 082e 012EB100 		.ascii	"\001.\261\000\243\275L\012\005.\261\000\004\276\277"
 1290      A3BD4C0A 
 1290      052EB100 
 1290      04BEBF
 1291 083d B9CB0A4F 		.ascii	"\271\313\012O\272\"\275\001.\263\000\334\012/\271\003"
 1291      BA22BD01 
 1291      2EB300DC 
 1291      0A2FB903 
 1292 084d 2EB8000A 		.ascii	".\270\000\012\276\232\012\317\271\233\274\001.\227\000"
 1292      BE9A0ACF 
 1292      B99BBC01 
 1292      2E9700
 1293 085c 9FB8930A 		.ascii	"\237\270\223\012\017\274\221\012\017\270\220\012%.\030"
 1293      0FBC910A 
 1293      0FB8900A 
 1293      252E18
 1294 086b 00052EC1 		.ascii	"\000\005.\301\365.\275.\271\001.\031\00010\212\004\000"
 1294      F52EBD2E 
 1294      B9012E19 
 1294      0031308A 
 1294      0400
 1295 087d 90072F01 		.ascii	"\220\007/\001.\324\000\004\242\003/\001.\030\000\000"
 1295      2ED40004 
 1295      A2032F01 
 1295      2E180000 
 1296 088d B20C2F19 		.ascii	"\262\014/\031P\005R\230.M\267\005.x\000\200\220\020"
 1296      50055298 
 1296      2E4DB705 
 1296      2E780080 
 1296      9010
 1297 089f 30012F21 		.ascii	"0\001/!.x\000%.\335\000\230.>\267\000\262\0020\0010"
 1297      2E780025 
 1297      2EDD0098 
 1297      2E3EB700 
 1297      B2023001 
 1298 08b4 042F012E 		.ascii	"\004/\001.\031\000\000\262\000/!0\001.\352\000\010\032"
 1298      190000B2 
 1298      002F2130 
 1298      012EEA00 
 1298      081A
 1299 08c6 0E2F232E 		.ascii	"\016/#.\352\00030\033P\013\011\001@\027VF\276K\010L"
 1299      EA003330 
 1299      1B500B09 
 1299      01401756 
 1299      46BE4B08 
 1300 08db 0A01420A 		.ascii	"\012\001B\012\200\025R\001B\000.\001.\030\000\000\262"
 1300      80155201 
 1300      42002E01 
 1300      2E180000 
 1300      B2
 1301 08ec 1F2F032E 		.ascii	"\037/\003.\300\365\3600H\010G\252t0\007.z\000a\"K\032"
 1301      C0F5F030 
 1301      480847AA 
 1301      7430072E 
ARM GAS  C:\Users\tnguy\AppData\Local\Temp\ccrLQ3au.s 			page 52


 1301      7A006122 
 1302 0902 052F072E 		.ascii	"\005/\007.f\365\277\275\277\271\300\220\013/\035V+0"
 1302      66F5BFBD 
 1302      BFB9C090 
 1302      0B2F1D56 
 1302      2B30
 1303 0914 D242DB42 		.ascii	"\322B\333B\001\004\302B\004\275\376\200\201\204#.z\000"
 1303      0104C242 
 1303      04BDFE80 
 1303      8184232E 
 1303      7A00
 1304 0926 02420232 		.ascii	"\002B\0022%.b\365\005.\326\000\201\204%.\326\000\002"
 1304      252E62F5 
 1304      052ED600 
 1304      8184252E 
 1304      D60002
 1305 0939 31252E60 		.ascii	"1%.`\365\005.\212\000\013P\220\010\200\262\013/\005"
 1305      F5052E8A 
 1305      000B5090 
 1305      0880B20B 
 1305      2F05
 1306 094b 2ECAF5F0 		.ascii	".\312\365\360>\220\010%.\312\365\005.Y\365\340?\220"
 1306      3E900825 
 1306      2ECAF505 
 1306      2E59F5E0 
 1306      3F90
 1307 095d 08252E59 		.ascii	"\010%.Y\365\220o\241o\263o\304o\325o\346o\367o{o\202"
 1307      F5906FA1 
 1307      6FB36FC4 
 1307      6FD56FE6 
 1307      6FF76F7B 
 1308 0973 6F705FC8 		.ascii	"op_\310.\300P\220\177\345\177\324\177\303\177\261\177"
 1308      2EC05090 
 1308      7FE57FD4 
 1308      7FC37FB1 
 1308      7F
 1309 0984 A27F877F 		.ascii	"\242\177\207\177\366\177{\177\000.\001.`\365`\177\230"
 1309      F67F7B7F 
 1309      002E012E 
 1309      60F5607F 
 1309      98
 1310 0995 2E35B702 		.ascii	".5\267\0020co\025RP\177b\177Z,\0022\032\011\000\263"
 1310      30636F15 
 1310      52507F62 
 1310      7F5A2C02 
 1310      321A0900 
 1311 09aa 142F00B2 		.ascii	"\024/\000\262\003/\011.\030\000\000\221\014/C\177\230"
 1311      032F092E 
 1311      18000091 
 1311      0C2F437F 
 1311      98
 1312 09bb 2E97B71F 		.ascii	".\227\267\037P\002\212\0022\0040%.d\365\025RPoCoDC%"
 1312      50028A02 
 1312      32043025 
 1312      2E64F515 
 1312      52506F43 
 1313 09d3 2E60F5D9 		.ascii	".`\365\331\010\300\2626/\230.>\267\000\262\006/\001"
ARM GAS  C:\Users\tnguy\AppData\Local\Temp\ccrLQ3au.s 			page 53


 1313      08C0B236 
 1313      2F982E3E 
 1313      B700B206 
 1313      2F01
 1314 09e5 2E190000 		.ascii	".\031\000\000\262\002/Po\000\220\012/\001.y\000\000"
 1314      B2022F50 
 1314      6F00900A 
 1314      2F012E79 
 1314      0000
 1315 09f7 90192F10 		.ascii	"\220\031/\0200!.y\000\0000\230.\334\003\023-\001.\303"
 1315      30212E79 
 1315      00003098 
 1315      2EDC0313 
 1315      2D012EC3 
 1316 0a0b F50CBC0F 		.ascii	"\365\014\274\017\270\0220\020\004\003\260&%!P\003R\230"
 1316      B8123010 
 1316      0403B026 
 1316      25215003 
 1316      5298
 1317 0a1d 2E4DB710 		.ascii	".M\267\0200!.\356\000\0020`\177%.y\000`o\000\220\005"
 1317      30212EEE 
 1317      00023060 
 1317      7F252E79 
 1317      00606F00 
 1318 0a33 2F003021 		.ascii	"/\0000!.\352\000\025P!.d\365\025R#.`\365\0022Po\000"
 1318      2EEA0015 
 1318      50212E64 
 1318      F5155223 
 1318      2E60F502 
 1319 0a4b 90022F03 		.ascii	"\220\002/\0030'.x\000\007.`\365\032\011\000\221\243"
 1319      30272E78 
 1319      00072E60 
 1319      F51A0900 
 1319      91A3
 1320 0a5d 2F190900 		.ascii	"/\031\011\000\221\240/\220o\242o\261o\303o\324o\345"
 1320      91A02F90 
 1320      6FA26FB1 
 1320      6FC36FD4 
 1320      6FE5
 1321 0a6f 6F7B6FF6 		.ascii	"o{o\366o\207o@_\310.\300P\347\177\366\177&0\017.a\365"
 1321      6F876F40 
 1321      5FC82EC0 
 1321      50E77FF6 
 1321      7F26300F 
 1322 0a86 2F2E7C00 		.ascii	"/.|\000\017.|\000\276\011\242\177\200\177\200\263\325"
 1322      0F2E7C00 
 1322      BE09A27F 
 1322      807F80B3 
 1322      D5
 1323 0a97 7FC47FB3 		.ascii	"\177\304\177\263\177\221\177{\177\013/#P\032%\022@B"
 1323      7F917F7B 
 1323      7F0B2F23 
 1323      501A2512 
 1323      4042
 1324 0aa9 7F748212 		.ascii	"\177t\202\022@R\177\000.\000@`\177\230.j\326\2010\001"
 1324      40527F00 
 1324      2E004060 
ARM GAS  C:\Users\tnguy\AppData\Local\Temp\ccrLQ3au.s 			page 54


 1324      7F982E6A 
 1324      D6813001 
 1325 0abd 2E7C0001 		.ascii	".|\000\001\010\000\262B/\003.\211\000\001.\211\000\227"
 1325      0800B242 
 1325      2F032E89 
 1325      00012E89 
 1325      0097
 1326 0acf BC06BC9F 		.ascii	"\274\006\274\237\270\017\270\000\220#.\330\000\0200"
 1326      B80FB800 
 1326      90232ED8 
 1326      001030
 1327 0ade 01302A2F 		.ascii	"\0010*/\003.\324\000D\262\005/G\262\0000-/!.|\000+-"
 1327      032ED400 
 1327      44B2052F 
 1327      47B20030 
 1327      2D2F212E 
 1328 0af6 032EFDF5 		.ascii	"\003.\375\365\236\274\237\270@\220\024/\003.\374\365"
 1328      9EBC9FB8 
 1328      4090142F 
 1328      032EFCF5 
 1329 0b06 99BC9FB8 		.ascii	"\231\274\237\270@\220\016/\003.I\361%TJ\010@\220\010"
 1329      40900E2F 
 1329      032E49F1 
 1329      25544A08 
 1329      409008
 1330 0b19 2F982E35 		.ascii	"/\230.5\267\000\262\0200\003/P0!.\324\000\020-\230."
 1330      B700B210 
 1330      30032F50 
 1330      30212ED4 
 1330      00102D98 
 1331 0b2e AFB70030 		.ascii	"\257\267\0000!.|\000\012-\005.i\367-\275/\271\200\262"
 1331      212E7C00 
 1331      0A2D052E 
 1331      69F72DBD 
 1331      2FB980B2 
 1332 0b42 012F212E 		.ascii	"\001/!.}\000#.|\000\3401!.a\365\366o\347o\200o\242o"
 1332      7D00232E 
 1332      7C00E031 
 1332      212E61F5 
 1332      F66FE76F 
 1333 0b5a B36FC46F 		.ascii	"\263o\304o\325o{o\221o@_\310.`Q\012%6\210\364\177\353"
 1333      D56F7B6F 
 1333      916F405F 
 1333      C82E6051 
 1333      0A253688 
 1334 0b71 7F003231 		.ascii	"\177\00021R20\0230\230.\025\313\012%3\204\322\177C0"
 1334      52323013 
 1334      30982E15 
 1334      CB0A2533 
 1334      84D27F43 
 1335 0b86 05502D52 		.ascii	"\005P-R\230.\225\301\322o'R\230.\327\307*%\260\206\300"
 1335      982E95C1 
 1335      D26F2752 
 1335      982ED7C7 
 1335      2A25B086 
 1336 0b9b 7FD37FAF 		.ascii	"\177\323\177\257\204)P\361o\230.M\310*%\256\212\252"
 1336      842950F1 
ARM GAS  C:\Users\tnguy\AppData\Local\Temp\ccrLQ3au.s 			page 55


 1336      6F982E4D 
 1336      C82A25AE 
 1336      8AAA
 1337 0bad 88F26E2B 		.ascii	"\210\362n+P\301o\323o\364\177\230.\266\310\340n\000"
 1337      50C16FD3 
 1337      6FF47F98 
 1337      2EB6C8E0 
 1337      6E00
 1338 0bbf B2322F33 		.ascii	"\2622/3T\203\206\361o\303\177\004000\364\177\320\177"
 1338      548386F1 
 1338      6FC37F04 
 1338      303030F4 
 1338      7FD07F
 1339 0bd2 B27FE330 		.ascii	"\262\177\3430\305oV@EA(\010\003\024\016\264\010\274"
 1339      C56F5640 
 1339      45412808 
 1339      03140EB4 
 1339      08BC
 1340 0be4 8240100A 		.ascii	"\202@\020\012/T&\005\221\177D(\243\177\230.\331\300"
 1340      2F542605 
 1340      917F4428 
 1340      A37F982E 
 1340      D9C0
 1341 0bf6 08B93330 		.ascii	"\010\27130S\011\301o\323o\364o\203\027G@l\025\262o\276"
 1341      5309C16F 
 1341      D36FF46F 
 1341      83174740 
 1341      6C15B26F 
 1342 0c0b 09750B90 		.ascii	"\011u\013\220BEBQ\0162\274\002\211\241o~\206\364\177"
 1342      42454251 
 1342      0E32BC02 
 1342      89A16F7E 
 1342      86F47F
 1343 0c1e D07FB27F 		.ascii	"\320\177\262\177\0040\221o\326/\353o\240^\270.\003."
 1343      0430916F 
 1343      D62FEB6F 
 1343      A05EB82E 
 1343      032E
 1344 0c30 97001BBC 		.ascii	"\227\000\033\274`P\237\274\014\270\360\177@\262\353"
 1344      60509FBC 
 1344      0CB8F07F 
 1344      40B2EB
 1345 0c3f 7F2B2F03 		.ascii	"\177+/\003.\177\000A@\001.\310\000\001\032\021/7X#."
 1345      2E7F0041 
 1345      40012EC8 
 1345      00011A11 
 1345      2F375823 
 1346 0c54 C8001041 		.ascii	"\310\000\020A\240\1778\201\001A\320\177\261\177\230"
 1346      A07F3881 
 1346      0141D07F 
 1346      B17F98
 1347 0c63 2E64CFD0 		.ascii	".d\317\320o\007\200\241o\021B\000.\261o\001B\0210\001"
 1347      6F0780A1 
 1347      6F114200 
 1347      2EB16F01 
 1347      42113001 
 1348 0c77 2EFC0000 		.ascii	".\374\000\000\250\0030\313\"J%\001.\177\000<\2115R\005"
ARM GAS  C:\Users\tnguy\AppData\Local\Temp\ccrLQ3au.s 			page 56


 1348      A80330CB 
 1348      224A2501 
 1348      2E7F003C 
 1348      89355205 
 1349 0c8b 54982EC4 		.ascii	"T\230.\304\316\301o\360o\230.\225\317\004-\0010\360"
 1349      CEC16FF0 
 1349      6F982E95 
 1349      CF042D01 
 1349      30F0
 1350 0c9d 6F982E95 		.ascii	"o\230.\225\317\353o\240_\270.\003.\263\000\0022\360"
 1350      CFEB6FA0 
 1350      5FB82E03 
 1350      2EB30002 
 1350      32F0
 1351 0caf 30033130 		.ascii	"0\00310P\212\010\010\010\313\010\340\177\200\262\363"
 1351      508A0808 
 1351      08CB08E0 
 1351      7F80B2F3 
 1352 0cbf 7FDB7F25 		.ascii	"\177\333\177%/\003.\312\000A\220\004/\0010#.\312\000"
 1352      2F032ECA 
 1352      00419004 
 1352      2F013023 
 1352      2ECA00
 1353 0cd2 982E3F03 		.ascii	"\230.?\003\300\262\005/\003.\332\000\0000A\004#.\332"
 1353      C0B2052F 
 1353      032EDA00 
 1353      00304104 
 1353      232EDA
 1354 0ce5 00982E92 		.ascii	"\000\230.\222\262\020%\360o\000\262\005/\001.\332\000"
 1354      B21025F0 
 1354      6F00B205 
 1354      2F012EDA 
 1354      00
 1355 0cf6 02301004 		.ascii	"\0020\020\004!.\332\000@\262\001/#.\310\001\333o\340"
 1355      212EDA00 
 1355      40B2012F 
 1355      232EC801 
 1355      DB6FE0
 1356 0d09 6FD05F80 		.ascii	"o\320_\200.\225\317\0010\340o\230.\225\317\0210#.\312"
 1356      2E95CF01 
 1356      30E06F98 
 1356      2E95CF11 
 1356      30232ECA 
 1357 0d1d 00DB6FD0 		.ascii	"\000\333o\320_\270.\320P\012%3\204UP\322\177\342\177"
 1357      5FB82ED0 
 1357      500A2533 
 1357      845550D2 
 1357      7FE27F
 1358 0d30 038CC07F 		.ascii	"\003\214\300\177\273\177\0000\005Z9TQA\245\177\226\177"
 1358      BB7F0030 
 1358      055A3954 
 1358      5141A57F 
 1358      967F
 1359 0d42 807F982E 		.ascii	"\200\177\230.\331\300\0050\365\177 %\221o;X=\\;V\230"
 1359      D9C00530 
 1359      F57F2025 
 1359      916F3B58 
ARM GAS  C:\Users\tnguy\AppData\Local\Temp\ccrLQ3au.s 			page 57


 1359      3D5C3B56 
 1360 0d57 2E67CCC1 		.ascii	".g\314\301o\325oR@PC\301\177\325\177\020%\230.\376\311"
 1360      6FD56F52 
 1360      405043C1 
 1360      7FD57F10 
 1360      25982EFE 
 1361 0d6c 1025982E 		.ascii	"\020%\230.t\300\206o0(\222o\202\214\245ooRi\0169T\333"
 1361      74C0866F 
 1361      3028926F 
 1361      828CA56F 
 1361      6F52690E 
 1362 0d83 2F19A015 		.ascii	"/\031\240\0250\003/\0000!.\201\001\012-\001.\201\001"
 1362      30032F00 
 1362      30212E81 
 1362      010A2D01 
 1362      2E8101
 1363 0d96 05284236 		.ascii	"\005(B6!.\201\001\002\016\001/\230.\363\003WP\0220\001"
 1363      212E8101 
 1363      020E012F 
 1363      982EF303 
 1363      57501230 
 1364 0dab 40982EFE 		.ascii	"@\230.\376\311Qo\013\\\216\016;oWX\0020!.\225\001Eo"
 1364      C9516F0B 
 1364      5C8E0E3B 
 1364      6F575802 
 1364      30212E95 
 1365 0dc2 2A8DD27F 		.ascii	"*\215\322\177\313\177\023/\0020?P\322\177\250\016\016"
 1365      CB7F132F 
 1365      02303F50 
 1365      D27FA80E 
 1365      0E
 1366 0dd3 2FC06F53 		.ascii	"/\300oST\002\000QTB\016\0200YR\0020\001/\000.\003-P"
 1366      54020051 
 1366      54420E10 
 1366      30595202 
 1366      30012F00 
 1367 0deb 42424212 		.ascii	"BBB\0220\322\177\200\262\003/\0000!.\200\001\022-\001"
 1367      30D27F80 
 1367      B2032F00 
 1367      30212E80 
 1367      01122D01 
 1368 0dff 2EC90002 		.ascii	".\311\000\002\200\005.\200\001\0210\221(\000@%.\200"
 1368      80052E80 
 1368      01113091 
 1368      28004025 
 1368      2E80
 1369 0e11 01100E05 		.ascii	"\001\020\016\005/\001.\177\001\001\220\001/\230.\363"
 1369      2F012E7F 
 1369      01019001 
 1369      2F982EF3 
 1370 0e21 03002EA0 		.ascii	"\003\000.\240A\001\220\246\177\220.\343\264\001.\225"
 1370      410190A6 
 1370      7F902EE3 
 1370      B4012E95 
 1371 0e31 0100A890 		.ascii	"\001\000\250\220.\343\264[T\225\200\202@\200\262\002"
 1371      2EE3B45B 
 1371      54958082 
ARM GAS  C:\Users\tnguy\AppData\Local\Temp\ccrLQ3au.s 			page 58


 1371      4080B202 
 1372 0e41 402D8C3F 		.ascii	"@-\214?R\226\177\220.\302\263)\016v/\001.\311\000\000"
 1372      52967F90 
 1372      2EC2B329 
 1372      0E762F01 
 1372      2EC90000 
 1373 0e55 40812845 		.ascii	"@\201(ER\2630\230.\017\312]T\200\177\000.\241@r\177"
 1373      52B33098 
 1373      2E0FCA5D 
 1373      54807F00 
 1373      2EA14072 
 1374 0e6a 82808240 		.ascii	"\202\200\202@`\177\230.\376\311\020%\230.t\300bo\005"
 1374      607F982E 
 1374      FEC91025 
 1374      982E74C0 
 1374      626F05
 1375 0e7d 308740C0 		.ascii	"0\207@\300\221\0040\005/\005.\203\001\200\262\0240\000"
 1375      91043005 
 1375      2F052E83 
 1375      0180B214 
 1375      3000
 1376 0e8f 2F043005 		.ascii	"/\0040\005.\311\000so\201@\342@i\004\021\017\341@\026"
 1376      2EC90073 
 1376      6F8140E2 
 1376      40690411 
 1376      0FE14016 
 1377 0ea3 30FE29CB 		.ascii	"0\376)\313@\002/\203o\203\017\"/GV\023\017\0220w/IT"
 1377      40022F83 
 1377      6F830F22 
 1377      2F475613 
 1377      0F123077 
 1378 0eba 420E1230 		.ascii	"B\016\0220s/\000\221\012/\001.\213\001\031\250\0020"
 1378      732F0091 
 1378      0A2F012E 
 1378      8B0119A8 
 1378      0230
 1379 0ecc 6C2F6350 		.ascii	"l/cP\000.\027B\005Bh,\0220\013%\010\017P0\002/!.\203"
 1379      002E1742 
 1379      0542682C 
 1379      12300B25 
 1379      080F5030 
 1380 0ee5 01032D40 		.ascii	"\001\003-@0!.\203\001+.\205\001Z,\0220\000\221+%\004"
 1380      30212E83 
 1380      012B2E85 
 1380      015A2C12 
 1380      3000912B 
 1381 0efb 2F635002 		.ascii	"/cP\0020\027B\027,\002B\230.\376\311\020%\230.t\300"
 1381      30174217 
 1381      2C024298 
 1381      2EFEC910 
 1381      25982E74 
 1382 0f10 052EC900 		.ascii	"\005.\311\000\201\204[0\202@7.\203\001\002\016\007/"
 1382      81845B30 
 1382      8240372E 
 1382      8301020E 
 1382      072F
 1383 0f22 5F524030 		.ascii	"_R@0b@A@\221\016\001/!.\203\001\0050+.\205\001\0220"
ARM GAS  C:\Users\tnguy\AppData\Local\Temp\ccrLQ3au.s 			page 59


 1383      62404140 
 1383      910E012F 
 1383      212E8301 
 1383      05302B2E 
 1384 0f3a 362C1630 		.ascii	"6,\0260\025%\201\177\230.\376\311\020%\230.t\300\031"
 1384      1525817F 
 1384      982EFEC9 
 1384      1025982E 
 1384      74C019
 1385 0f4d A2163015 		.ascii	"\242\0260\025/\005.\227\001\200o\202\016\005/\001.\206"
 1385      2F052E97 
 1385      01806F82 
 1385      0E052F01 
 1385      2E86
 1386 0f5f 01062821 		.ascii	"\001\006(!.\206\001\013-\003.\207\001_TN(\221B\000."
 1386      2E86010B 
 1386      2D032E87 
 1386      015F544E 
 1386      28914200 
 1387 0f74 8240900E 		.ascii	"\202@\220\016\001/!.\210\001\0020\023,\0050\300o\010"
 1387      012F212E 
 1387      88010230 
 1387      132C0530 
 1387      C06F08
 1388 0f87 1CA80F16 		.ascii	"\034\250\017\0260\0050[P\011/\002\200-.\202\001\005"
 1388      3005305B 
 1388      50092F02 
 1388      802D2E82 
 1388      0105
 1389 0f99 42058000 		.ascii	"B\005\200\000.\002B"
 1389      2E0242
 1390 0fa0 3E80002E 		.ascii	">\200\000.\006B\0020\220o>\210\001@\004AL(\001B\007"
 1390      06420230 
 1390      906F3E88 
 1390      01400441 
 1390      4C280142 
 1391 0fb5 80102524 		.ascii	"\200\020%$@\000@\000\250\365\"#)DBz\202~\210C@\004A"
 1391      40004000 
 1391      A8F52223 
 1391      2944427A 
 1391      827E8843 
 1392 0fcc 00ABF523 		.ascii	"\000\253\365#\337(CB\331\240\024/\000\220\002/\322o"
 1392      DF284342 
 1392      D9A0142F 
 1392      0090022F 
 1392      D26F
 1393 0fde 81B2052F 		.ascii	"\201\262\005/cT\006(\220B\205B\011,\0020[P\003\200)"
 1393      63540628 
 1393      90428542 
 1393      092C0230 
 1393      5B500380 
 1394 0ff3 2E7E012B 		.ascii	".~\001+.\202\001\005B\0220+.\203\001E\202\000.@@z\202"
 1394      2E820105 
 1394      4212302B 
 1394      2E830145 
 1394      82002E40 
 1395 100a 02A0082F 		.ascii	"\002\240\010/cP;0\025B\005B7\2007.~\001\005B\0220\001"
ARM GAS  C:\Users\tnguy\AppData\Local\Temp\ccrLQ3au.s 			page 60


 1395      63503B30 
 1395      15420542 
 1395      3780372E 
 1395      7E010542 
 1396 1021 2EC90002 		.ascii	".\311\000\002\214@@\204Az\214\004\017\003/\001.\213"
 1396      8C404084 
 1396      417A8C04 
 1396      0F032F01 
 1396      2E8B
 1397 1033 0119A404 		.ascii	"\001\031\244\004/+.\202\001\230.\363\003\0220\201\220"
 1397      2F2B2E82 
 1397      01982EF3 
 1397      03123081 
 1397      90
 1398 1044 6152082F 		.ascii	"aR\010/eBeBC\2009\204\202\210\005BEB\205B\005C\000."
 1398      65426542 
 1398      43803984 
 1398      82880542 
 1398      45428542 
 1399 105c 80410090 		.ascii	"\200A\000\220\220.\341\264eT\301o\200@\000\262CXiPD"
 1399      902EE1B4 
 1399      6554C16F 
 1399      804000B2 
 1399      43586950 
 1400 1071 2F555CB7 		.ascii	"/U\\\267\207\214\017\015.\226\001\304@6/AV\213\016*"
 1400      878C0F0D 
 1400      2E9601C4 
 1400      40362F41 
 1400      568B0E2A 
 1401 1085 2F0B52A1 		.ascii	"/\013R\241\016\012/\005.\217\001\024%\230.\376\311K"
 1401      0E0A2F05 
 1401      2E8F0114 
 1401      25982EFE 
 1401      C94B
 1402 1097 54020F69 		.ascii	"T\002\017iP\0050eT\025/\003.\216\001M\\\216\017:/\005"
 1402      50053065 
 1402      54152F03 
 1402      2E8E014D 
 1402      5C8E0F3A 
 1403 10ad 2E8F0198 		.ascii	".\217\001\230.\376\311OT\202\017\0050iPeT0/mR\0250B"
 1403      2EFEC94F 
 1403      54820F05 
 1403      30695065 
 1403      54302F6D 
 1404 10c5 8C454204 		.ascii	"\214EB\0040+,\204CkRB\214\000.\205C\0250$,EB\216\017"
 1404      302B2C84 
 1404      436B5242 
 1404      8C002E85 
 1404      43153024 
 1405 10de 202F0D2E 		.ascii	" /\015.\216\001\261\016\034/#.\216\001\032-\016\016"
 1405      8E01B10E 
 1405      1C2F232E 
 1405      8E011A2D 
 1405      0E0E
 1406 10f0 172FA10F 		.ascii	"\027/\241\017\025/#.\215\001\023-\230.t\300CT\302\016"
 1406      152F232E 
 1406      8D01132D 
ARM GAS  C:\Users\tnguy\AppData\Local\Temp\ccrLQ3au.s 			page 61


 1406      982E74C0 
 1406      4354C20E 
 1407 1104 0A2F6550 		.ascii	"\012/eP\004\200\0130\006\202\013By\200A@\0220%.\214"
 1407      04800B30 
 1407      06820B42 
 1407      79804140 
 1407      1230252E 
 1408 1119 01014205 		.ascii	"\001\001B\0050iPeT\204\202C\204\276\214\204@\206A&)"
 1408      30695065 
 1408      54848243 
 1408      84BE8C84 
 1408      40864126 
 1409 112e 9442BE8E 		.ascii	"\224B\276\216\325\177\031\241C@\013.\214\001\204@\307"
 1409      D57F19A1 
 1409      43400B2E 
 1409      8C018440 
 1409      C7
 1410 113f 415D2927 		.ascii	"A])')EB\204B\302\177\001/\300\263\035/\005.\224\001"
 1410      29454284 
 1410      42C27F01 
 1410      2FC0B31D 
 1410      2F052E94 
 1411 1154 99A0012F 		.ascii	"\231\240\001/\200\263\023/\200\263\030/\300\263\026"
 1411      80B3132F 
 1411      80B3182F 
 1411      C0B316
 1412 1163 2F124001 		.ascii	"/\022@\001@\222\177\230.t\300\222o\020\017 0\003/\020"
 1412      40927F98 
 1412      2E74C092 
 1412      6F100F20 
 1412      30032F10 
 1413 1177 30212E7E 		.ascii	"0!.~\001\012-!.~\001\007- 0!.~\001\003-\0200!.~\001"
 1413      010A2D21 
 1413      2E7E0107 
 1413      2D203021 
 1413      2E7E0103 
 1414 1192 C26F012E 		.ascii	"\302o\001.\311\000\274\204\002\200\202@\000@\220\016"
 1414      C900BC84 
 1414      02808240 
 1414      0040900E 
 1415 11a2 D56F022F 		.ascii	"\325o\002/\0250\230.\363\003A\221\0050\007/gP=\200+"
 1415      1530982E 
 1415      F3034191 
 1415      0530072F 
 1415      67503D80 
 1416 11b7 2E8F0105 		.ascii	".\217\001\005B\004\200\000.\005B\002,\0000\0000\242"
 1416      42048000 
 1416      2E054202 
 1416      2C003000 
 1416      30A2
 1417 11c9 6F988A86 		.ascii	"o\230\212\206@\200\247\005/\230.\363\003\3000!.\225"
 1417      4080A705 
 1417      2F982EF3 
 1417      03C03021 
 1417      2E95
 1418 11db 0106251A 		.ascii	"\001\006%\032%\342ov\202\226@VCQ\016\373/\273o0_\270"
 1418      25E26F76 
ARM GAS  C:\Users\tnguy\AppData\Local\Temp\ccrLQ3au.s 			page 62


 1418      82964056 
 1418      43510EFB 
 1418      2FBB6F30 
 1419 11f1 2E012EB8 		.ascii	".\001.\270\000\0011A\010@\262 P\3620\002\010\373\177"
 1419      00013141 
 1419      0840B220 
 1419      50F23002 
 1419      08FB7F
 1420 1204 0130102F 		.ascii	"\0010\020/\005.\314\000\201\220\340\177\003/#.\314\000"
 1420      052ECC00 
 1420      8190E07F 
 1420      032F232E 
 1420      CC00
 1421 1216 982E55B6 		.ascii	"\230.U\266\230.\035\265\020%\373o\340o\340_\200.\225"
 1421      982E1DB5 
 1421      1025FB6F 
 1421      E06FE05F 
 1421      802E95
 1422 1229 CF982E95 		.ascii	"\317\230.\225\317\0200!.\314\000\373o\340_\270.\000"
 1422      CF103021 
 1422      2ECC00FB 
 1422      6FE05FB8 
 1422      2E00
 1423 123b 510558EB 		.ascii	"Q\005X\353\177*%\211RoZ\211P\023A\006@\263\001\026B"
 1423      7F2A2589 
 1423      526F5A89 
 1423      50134106 
 1423      40B30116 
 1424 1250 CB160640 		.ascii	"\313\026\006@\363\002\023Be\016\365/\005@\0240,)\004"
 1424      F3021342 
 1424      650EF52F 
 1424      05401430 
 1424      2C2904
 1425 1263 4208A100 		.ascii	"B\010\241\0000\220.R\266\263\210\260\212\266\204\244"
 1425      30902E52 
 1425      B6B388B0 
 1425      8AB684A4 
 1426 1273 7FC47FB5 		.ascii	"\177\304\177\265\177\325\177\222\177s0\0040U@B@\212"
 1426      7FD57F92 
 1426      7F733004 
 1426      30554042 
 1426      408A
 1427 1285 17F3086B 		.ascii	"\027\363\010k\001\220\002S\270K\202\255\276q\177E\012"
 1427      01900253 
 1427      B84B82AD 
 1427      BE717F45 
 1427      0A
 1428 1296 0954847F 		.ascii	"\011T\204\177\230.\331\300\243o{T\320B\243\177\362\177"
 1428      982ED9C0 
 1428      A36F7B54 
 1428      D042A37F 
 1428      F27F
 1429 12a8 607F2025 		.ascii	"`\177 %qouZwXy\\uV\230.g\314\261oboPB\261\177\2630\020"
 1429      716F755A 
 1429      7758795C 
 1429      7556982E 
 1429      67CCB16F 
ARM GAS  C:\Users\tnguy\AppData\Local\Temp\ccrLQ3au.s 			page 63


 1430 12c5 25982E0F 		.ascii	"%\230.\017\312\204o )qo\222o\245ov\202j\016s0\0000\320"
 1430      CA846F20 
 1430      29716F92 
 1430      6FA56F76 
 1430      826A0E73 
 1431 12dd 2FD26FD1 		.ascii	"/\322o\321\177\264\177\230.+\267\025\275\013\270\002"
 1431      7FB47F98 
 1431      2E2BB715 
 1431      BD0BB802 
 1432 12ed 0AC26FC0 		.ascii	"\012\302o\300\177\230.+\267\025\275\013\270B\012\300"
 1432      7F982E2B 
 1432      B715BD0B 
 1432      B8420AC0 
 1433 12fd 6F081741 		.ascii	"o\010\027A\030\211\026\341\030\320\030\241\177'%\026"
 1433      188916E1 
 1433      18D018A1 
 1433      7F272516 
 1434 130d 25982E79 		.ascii	"%\230.y\300\213T\220\177\2630\202@\200\220\015/}R\222"
 1434      C08B5490 
 1434      7FB33082 
 1434      4080900D 
 1434      2F7D5292 
 1435 1321 6F982E0F 		.ascii	"o\230.\017\312\262o\220\016\006/\213P\0240BoQo\024B"
 1435      CAB26F90 
 1435      0E062F8B 
 1435      50143042 
 1435      6F516F14 
 1436 1336 12420142 		.ascii	"\022B\001B\000.1o\230.t\300Ao\200\177\230.t\300\202"
 1436      002E316F 
 1436      982E74C0 
 1436      416F807F 
 1436      982E74C0 
 1437 134b 6F100443 		.ascii	"o\020\004CR\001\017\005.\313\000\0000\0040!/QoCX\214"
 1437      52010F05 
 1437      2ECB0000 
 1437      30043021 
 1437      2F516F43 
 1438 1361 0E04301C 		.ascii	"\016\0040\034/\205\210Ao\004A\214\017\0040\026/\204"
 1438      2F858841 
 1438      6F04418C 
 1438      0F043016 
 1438      2F84
 1439 1373 88002E04 		.ascii	"\210\000.\004A\004\005\214\016\0040\017/\202\2101o\004"
 1439      4104058C 
 1439      0E04300F 
 1439      2F828831 
 1439      6F04
 1440 1385 4104058C 		.ascii	"A\004\005\214\016\0040\010/\203\210\000.\004A\214\017"
 1440      0E043008 
 1440      2F838800 
 1440      2E04418C 
 1440      0F
 1441 1396 0430022F 		.ascii	"\0040\002/!.\255\001\0240\000\221\024/\003.\241\001"
 1441      212EAD01 
 1441      14300091 
 1441      142F032E 
 1441      A101
ARM GAS  C:\Users\tnguy\AppData\Local\Temp\ccrLQ3au.s 			page 64


 1442 13a8 41900E2F 		.ascii	"A\220\016/\003.\255\001\0240L(#.\255\001F\240\006/\201"
 1442      032EAD01 
 1442      14304C28 
 1442      232EAD01 
 1442      46A0062F 
 1443 13bd 848D5248 		.ascii	"\204\215RH\202\202@!.\241\001BB\\,\0020\005.\252\001"
 1443      82824021 
 1443      2EA10142 
 1443      425C2C02 
 1443      30052EAA 
 1444 13d2 80B20230 		.ascii	"\200\262\0020U/\003.\251\001\222o\2630\230.\017\312"
 1444      552F032E 
 1444      A901926F 
 1444      B330982E 
 1444      0FCA
 1445 13e4 B26F900F 		.ascii	"\262o\220\017\0000\0020J/\242o\207R\221\000\205RQ\016"
 1445      00300230 
 1445      4A2FA26F 
 1445      87529100 
 1445      8552510E 
 1446 13f8 022F002E 		.ascii	"\002/\000.C,\0020\302o\177R\221\016\0020</Qo\201T\230"
 1446      432C0230 
 1446      C26F7F52 
 1446      910E0230 
 1446      3C2F516F 
 1447 140f 2EFEC910 		.ascii	".\376\311\020%\2630!%\230.\017\3122o\300\177\2630\022"
 1447      25B33021 
 1447      25982E0F 
 1447      CA326FC0 
 1447      7FB33012 
 1448 1423 25982E0F 		.ascii	"%\230.\017\312Bo\260\177\2630\022%\230.\017\312\262"
 1448      CA426FB0 
 1448      7FB33012 
 1448      25982E0F 
 1448      CAB2
 1449 1435 6F902883 		.ascii	"o\220(\203R\230.\376\311\302o\220\017\0000\0020\035"
 1449      52982EFE 
 1449      C9C26F90 
 1449      0F003002 
 1449      301D
 1450 1447 2F052EA1 		.ascii	"/\005.\241\001\200\262\0220\017/Bo\003.\253\001\221"
 1450      0180B212 
 1450      300F2F42 
 1450      6F032EAB 
 1450      0191
 1451 1459 0E023012 		.ascii	"\016\0020\022/Ro\003.\254\001\221\017\0020\014/!.\252"
 1451      2F526F03 
 1451      2EAC0191 
 1451      0F02300C 
 1451      2F212EAA 
 1452 146d 010A2C12 		.ascii	"\001\012,\0220\003.\313\000\215X\010\211A@\021C\000"
 1452      30032ECB 
 1452      008D5808 
 1452      89414011 
 1452      4300
 1453 147f 43252EA1 		.ascii	"C%.\241\001\324o\217R\000C:\211\000.\020C\020Ca\016"
 1453      01D46F8F 
ARM GAS  C:\Users\tnguy\AppData\Local\Temp\ccrLQ3au.s 			page 65


 1453      5200433A 
 1453      89002E10 
 1453      43104361 
 1454 1494 FB2F032E 		.ascii	"\373/\003.\240\001\021\032\002/\002%!.\240\001\353o"
 1454      A001111A 
 1454      022F0225 
 1454      212EA001 
 1454      EB6F
 1455 14a6 005FB82E 		.ascii	"\000_\270.\221R\0200\0020\225VRBK\016\374/\215T\210"
 1455      91521030 
 1455      02309556 
 1455      52424B0E 
 1455      FC2F8D54 
 1456 14bb 82935680 		.ascii	"\202\223V\200BSB@BB\206\203T\300.\302B\000.\243R\000"
 1456      42534240 
 1456      42428683 
 1456      54C02EC2 
 1456      42002EA3 
 1457 14d1 51524047 		.ascii	"QR@G@\032%\001.\227\000\217\276r\206\373\177\0130|\277"
 1457      401A2501 
 1457      2E97008F 
 1457      BE7286FB 
 1457      7F0B307C 
 1458 14e6 A5501008 		.ascii	"\245P\020\010\337\272p\210\370\277\313B\323\177l\273"
 1458      DFBA7088 
 1458      F8BFCB42 
 1458      D37F6CBB 
 1459 14f6 FCBBC50A 		.ascii	"\374\273\305\012\220\177\033\177\013C\300\262\345\177"
 1459      907F1B7F 
 1459      0B43C0B2 
 1459      E57F
 1460 1504 B77FA67F 		.ascii	"\267\177\246\177\304\177\220.\034\267\007.\322\000\300"
 1460      C47F902E 
 1460      1CB7072E 
 1460      D200C0
 1461 1513 B20B2F97 		.ascii	"\262\013/\227R\001.\315\000\202\177\230.\273\314\013"
 1461      52012ECD 
 1461      00827F98 
 1461      2EBBCC0B 
 1462 1523 30372ED2 		.ascii	"07.\322\000\202o\220o\032%\000\262\213\177\024/\246"
 1462      00826F90 
 1462      6F1A2500 
 1462      B28B7F14 
 1462      2FA6
 1463 1535 BD25BDB6 		.ascii	"\275%\275\266\271/\271\200\262\324\260\014/\231T\233"
 1463      B92FB980 
 1463      B2D4B00C 
 1463      2F99549B 
 1464 1545 560B300B 		.ascii	"V\0130\013.\261\000\241X\233B\333Bl\011+.\261\000\213"
 1464      2EB100A1 
 1464      589B42DB 
 1464      426C092B 
 1464      2EB1008B 
 1465 1559 42CB4286 		.ascii	"B\313B\206\177s\204\247V\303\0109R\005Pr\177c\177\230"
 1465      7F7384A7 
 1465      56C30839 
 1465      52055072 
ARM GAS  C:\Users\tnguy\AppData\Local\Temp\ccrLQ3au.s 			page 66


 1465      7F637F98 
 1466 156d 2EC2C0E1 		.ascii	".\302\300\341obo\321\012\001.\315\000\325o\304oro\227"
 1466      6F626FD1 
 1466      0A012ECD 
 1466      00D56FC4 
 1466      6F726F97 
 1467 1581 529D5C98 		.ascii	"R\235\\\230.\006\315#o\220o\231R\300\262\004\275T@\257"
 1467      2E06CD23 
 1467      6F906F99 
 1467      52C0B204 
 1467      BD5440AF 
 1468 1595 B94540E1 		.ascii	"\271E@\341\177\0020\006/\300\262\0020\003/\233\\\022"
 1468      7F023006 
 1468      2FC0B202 
 1468      30032F9B 
 1468      5C12
 1469 15a7 30944385 		.ascii	"0\224C\205C\003\277o\273\200\263 /\006o&\001\026on\003"
 1469      4303BF6F 
 1469      BB80B320 
 1469      2F066F26 
 1469      01166F6E 
 1470 15bc 4542C090 		.ascii	"EB\300\220).\316\000\233R\024/\233\\\000.\223A\206A"
 1470      292ECE00 
 1470      9B52142F 
 1470      9B5C002E 
 1470      93418641 
 1471 15d0 E304AE07 		.ascii	"\343\004\256\007\200\253\004/\200\221\012/\206os\017"
 1471      80AB042F 
 1471      80910A2F 
 1471      866F730F 
 1472 15e0 072F836F 		.ascii	"\007/\203o\300\262\004/TBEB\0220\004,\0210\002,\021"
 1472      C0B2042F 
 1472      54424542 
 1472      1230042C 
 1472      1130022C 
 1473 15f5 30113002 		.ascii	"0\0210\002\274\017\270\322\177\000\262\012/\001.\374"
 1473      BC0FB8D2 
 1473      7F00B20A 
 1473      2F012EFC 
 1474 1605 00052EC7 		.ascii	"\000\005.\307\001\020\032\002/!.\307\001\003-\002,\001"
 1474      01101A02 
 1474      2F212EC7 
 1474      01032D02 
 1474      2C01
 1475 1617 300130B0 		.ascii	"0\0010\260o\230.\225\317\321o\240o\230.\225\317\342"
 1475      6F982E95 
 1475      CFD16FA0 
 1475      6F982E95 
 1475      CFE2
 1476 1629 6F9F5201 		.ascii	"o\237R\001.\316\000\202@PB\014,BB\0210#.\322\000\001"
 1476      2ECE0082 
 1476      4050420C 
 1476      2C424211 
 1476      30232ED2 
 1477 163f 30B06F98 		.ascii	"0\260o\230.\225\317\240o\0010\230.\225\317\000.\373"
 1477      2E95CFA0 
 1477      6F013098 
ARM GAS  C:\Users\tnguy\AppData\Local\Temp\ccrLQ3au.s 			page 67


 1477      2E95CF00 
 1477      2EFB
 1478 1651 6F005FB8 		.ascii	"o\000_\270.\203\206\0010\0000\224@$\030\006\000S\016"
 1478      2E838601 
 1478      30003094 
 1478      40241806 
 1478      00530E
 1479 1664 4F02F92F 		.ascii	"O\002\371/\270.\251R\000.`@A@\015\274\230\274\300.\001"
 1479      B82EA952 
 1479      002E6040 
 1479      41400DBC 
 1479      98BCC02E 
 1480 1679 0A0FB8AB 		.ascii	"\012\017\270\253RS<R@@@K\000\202\026&\271\001\270A@"
 1480      52533C52 
 1480      4040404B 
 1480      00821626 
 1480      B901B841 
 1481 168e 100897B8 		.ascii	"\020\010\227\270\001\010\300.\0210\001\010C\206%@\004"
 1481      0108C02E 
 1481      11300108 
 1481      43862540 
 1481      04
 1482 169f 40D8BE2C 		.ascii	"@\330\276,\013\"\021TB\003\200K\016\366/\270.\237P\020"
 1482      0B221154 
 1482      4203804B 
 1482      0EF62FB8 
 1482      2E9F5010 
 1483 16b3 50AD5205 		.ascii	"P\255R\005.\323\000\373\177\000.\023@\223BA\016\373"
 1483      2ED300FB 
 1483      7F002E13 
 1483      40934241 
 1483      0EFB
 1484 16c5 2F982EA5 		.ascii	"/\230.\245\267\230.\207\317\001.\331\000\000\262\373"
 1484      B7982E87 
 1484      CF012ED9 
 1484      0000B2FB 
 1485 16d5 6F0B2F01 		.ascii	"o\013/\001.i\367\261?\001\010\0010\360_#.\331\000!."
 1485      2E69F7B1 
 1485      3F010801 
 1485      30F05F23 
 1485      2ED90021 
 1486 16ea 69F7802E 		.ascii	"i\367\200.z\267\360_\270.\001.\300\370\003.\374\365"
 1486      7AB7F05F 
 1486      B82E012E 
 1486      C0F8032E 
 1486      FCF5
 1487 16fc 1554AF56 		.ascii	"\025T\257V\202\010\013.i\367\313\012\261X\200\220\335"
 1487      82080B2E 
 1487      69F7CB0A 
 1487      B1588090 
 1487      DD
 1488 170d BE4C085F 		.ascii	"\276L\010_\271Y\"\200\220\007/\0034\303\010\362:\012"
 1488      B9592280 
 1488      90072F03 
 1488      34C308F2 
 1488      3A0A
 1489 171f 080235C0 		.ascii	"\010\0025\300\220J\012H\"\300.#.\374\365\020P\373\177"
ARM GAS  C:\Users\tnguy\AppData\Local\Temp\ccrLQ3au.s 			page 68


 1489      904A0A48 
 1489      22C02E23 
 1489      2EFCF510 
 1489      50FB7F
 1490 1732 982E56C7 		.ascii	"\230.V\307\230.I\303\0200\373o\360_!.\314\000!.\312"
 1490      982E49C3 
 1490      1030FB6F 
 1490      F05F212E 
 1490      CC00212E 
 1491 1747 00B82E03 		.ascii	"\000\270.\003.\323\000\026\270\0024J\014!.-\365\300"
 1491      2ED30016 
 1491      B802344A 
 1491      0C212E2D 
 1491      F5C0
 1492 1759 2E232ED3 		.ascii	".#.\323\000\003\274!.\325\000\003.\325\000@\262\020"
 1492      0003BC21 
 1492      2ED50003 
 1492      2ED50040 
 1492      B210
 1493 176b 30212E77 		.ascii	"0!.w\000"
 1493      00
 1494 1770 0130052F 		.ascii	"\0010\005/\005.\330\000\200\220\001/#.o\365\300.!.\331"
 1494      052ED800 
 1494      8090012F 
 1494      232E6FF5 
 1494      C02E212E 
 1495 1785 00113081 		.ascii	"\000\0210\201\010\001.j\367q?#\275\001\010\002\012\300"
 1495      08012E6A 
 1495      F7713F23 
 1495      BD010802 
 1495      0AC0
 1496 1797 2E212E6A 		.ascii	".!.j\3670%\0000!.Z\365\020P!.{\000!.|\000\373\177\230"
 1496      F7302500 
 1496      30212E5A 
 1496      F5105021 
 1496      2E7B0021 
 1497 17b1 2EC3B740 		.ascii	".\303\267@0!.\324\000\373o\360_\003%\200.\257\267\200"
 1497      30212ED4 
 1497      00FB6FF0 
 1497      5F032580 
 1497      2EAFB780 
 1498 17c5 2E00C180 		.ascii	".\000\301\200.\000\301\200.\000\301\200.\000\301\200"
 1498      2E00C180 
 1498      2E00C180 
 1498      2E00C180 
 1499 17d5 2E00C180 		.ascii	".\000\301\200.\000\301\200.\000\301\200.\000\301\200"
 1499      2E00C180 
 1499      2E00C180 
 1499      2E00C180 
 1500 17e5 2E00C180 		.ascii	".\000\301\200.\000\301\200.\000\301\200.\000\301\200"
 1500      2E00C180 
 1500      2E00C180 
 1500      2E00C180 
 1501 17f5 2E00C180 		.ascii	".\000\301\200.\000\301\200.\000\301\001.]\367\010\274"
 1501      2E00C180 
 1501      2E00C101 
 1501      2E5DF708 
ARM GAS  C:\Users\tnguy\AppData\Local\Temp\ccrLQ3au.s 			page 69


 1501      BC
 1502 1806 80AC0EBB 		.ascii	"\200\254\016\273\002/\0000A\004\202\006\300\244\000"
 1502      022F0030 
 1502      41048206 
 1502      C0A400
 1503 1815 30112F40 		.ascii	"0\021/@\251\003/@\221\015/\000\247\013/\200\263\263"
 1503      A9032F40 
 1503      910D2F00 
 1503      A70B2F80 
 1503      B3B3
 1504 1827 58022F90 		.ascii	"X\002/\220\241&\023 #\200\220\0200\001/\314\016\000"
 1504      A1261320 
 1504      23809010 
 1504      30012FCC 
 1504      0E00
 1505 1839 2F0030B8 		.ascii	"/\0000\270.\265P\030\010\010\274\210\266\015\027\306"
 1505      2EB55018 
 1505      0808BC88 
 1505      B60D17C6 
 1506 1849 BD56BCB7 		.ascii	"\275V\274\267X\332\272\004\001\035\012\020P\00502%E"
 1506      58DABA04 
 1506      011D0A10 
 1506      50053032 
 1506      2545
 1507 185b 03FB7FF6 		.ascii	"\003\373\177\3660!%\230.7\312\026\265\232\274\006\270"
 1507      30212598 
 1507      2E37CA16 
 1507      B59ABC06 
 1507      B8
 1508 186c 80A8410A 		.ascii	"\200\250A\012\016/\200\220\002/-PH\017\011/\277\240"
 1508      0E2F8090 
 1508      022F2D50 
 1508      480F092F 
 1508      BFA0
 1509 187e 042FBF90 		.ascii	"\004/\277\220\006/\267T\312\017\003/\000.\002,\267R"
 1509      062FB754 
 1509      CA0F032F 
 1509      002E022C 
 1509      B752
 1510 1890 2D52F233 		.ascii	"-R\3623\230.\331\300\373o\3617\300.\001\010\360_\277"
 1510      982ED9C0 
 1510      FB6FF137 
 1510      C02E0108 
 1510      F05FBF
 1511 18a3 56B954D0 		.ascii	"V\271T\320@\304@\013.\375\363\277R\220B\224B\225B\005"
 1511      40C4400B 
 1511      2EFDF3BF 
 1511      52904294 
 1511      42954205 
 1512 18b7 30C1500F 		.ascii	"0\301P\017\210\006@\004A\226B\305BH\276s0\015.\330\000"
 1512      88064004 
 1512      419642C5 
 1512      4248BE73 
 1512      300D2ED8 
 1513 18cc 4FBA8442 		.ascii	"O\272\204B\003B\201\263\002/+.o\365\006-\005.w\367\275"
 1513      034281B3 
 1513      022F2B2E 
ARM GAS  C:\Users\tnguy\AppData\Local\Temp\ccrLQ3au.s 			page 70


 1513      6FF5062D 
 1513      052E77F7 
 1514 18e1 56930825 		.ascii	"V\223\010%.w\367\273T%.\302\365\007.\375\363B0\2643"
 1514      2E77F7BB 
 1514      54252EC2 
 1514      F5072EFD 
 1514      F34230B4 
 1515 18f6 DA0A4C00 		.ascii	"\332\012L\000'.\375\363C@\324?\334\010CB\000.\000.C"
 1515      272EFDF3 
 1515      4340D43F 
 1515      DC084342 
 1515      002E002E 
 1516 190b 402430DC 		.ascii	"@$0\334\012CB\004\200\003.\375\363J\012#.\375\363a4"
 1516      0A434204 
 1516      80032EFD 
 1516      F34A0A23 
 1516      2EFDF361 
 1517 1920 C02E0142 		.ascii	"\300.\001B\000.`P\032%z\206\340\177\363\177\003%\303"
 1517      002E6050 
 1517      1A257A86 
 1517      E07FF37F 
 1517      0325C3
 1518 1933 524184DB 		.ascii	"RA\204\333\17730\230.\026\302\032%}\202\360o\342o2%"
 1518      7F333098 
 1518      2E16C21A 
 1518      257D82F0 
 1518      6FE26F32 
 1519 1948 16409440 		.ascii	"\026@\224@&\001\205@\216\027\304Bn\003\225BA\016\364"
 1519      26018540 
 1519      8E17C442 
 1519      6E039542 
 1519      410EF4
 1520 195b 2FDB6FA0 		.ascii	"/\333o\240_\270.\260Q\373\177\230.\350\015Z%\230.\017"
 1520      5FB82EB0 
 1520      51FB7F98 
 1520      2EE80D5A 
 1520      25982E0F 
 1521 196f 0ECB5832 		.ascii	"\016\313X2\207\304\177e\211k\215\305Ze\177\341\177\203"
 1521      87C47F65 
 1521      896B8DC5 
 1521      5A657FE1 
 1521      7F83
 1522 1981 7FA67F74 		.ascii	"\177\246\177t\177\320\177\266\177\224\177\0270\307R"
 1522      7FD07FB6 
 1522      7F947F17 
 1522      30C752
 1523 1990 C954517F 		.ascii	"\311TQ\177\000.\205oB\177\000.QAE\201BA\023@;\212\000"
 1523      002E856F 
 1523      427F002E 
 1523      51414581 
 1523      42411340 
 1524 19a7 404B04D0 		.ascii	"@K\004\320\006\300\254\205\177\002/\0020Q\004\323\006"
 1524      06C0AC85 
 1524      7F022F02 
 1524      305104D3 
 1524      06
 1525 19b8 41840530 		.ascii	"A\204\0050]\002\311\026\337\010\323\000\215\002\257"
ARM GAS  C:\Users\tnguy\AppData\Local\Temp\ccrLQ3au.s 			page 71


 1525      5D02C916 
 1525      DF08D300 
 1525      8D02AF
 1526 19c7 BCB1B959 		.ascii	"\274\261\271Y\012eo\021C\241\264RASA\001C4\177e\177"
 1526      0A656F11 
 1526      43A1B452 
 1526      41534101 
 1526      43347F65 
 1527 19dc 2631E56F 		.ascii	"&1\345o\324o\230.7\3122ouo\203@BA#\177\022\177\3660"
 1527      D46F982E 
 1527      37CA326F 
 1527      756F8340 
 1527      4241237F 
 1528 19f4 40255125 		.ascii	"@%Q%\230.7\312\024o \005po%oi\007\242o1o\0130\004B\233"
 1528      982E37CA 
 1528      146F2005 
 1528      706F256F 
 1528      6907A26F 
 1529 1a0f 428B4255 		.ascii	"B\213BUB2\177@\251\303oq\177\0020\320@\303\177\003/"
 1529      42327F40 
 1529      A9C36F71 
 1529      7F0230D0 
 1529      40C37F03 
 1530 1a24 4091152F 		.ascii	"@\221\025/\000\247\023/\000\244\021/\204\275\230.y\312"
 1530      00A7132F 
 1530      00A4112F 
 1530      84BD982E 
 1530      79CA
 1531 1a36 556FB754 		.ascii	"Uo\267TTA\202\000\363?EA\313\002\3660\230.7\3125o\244"
 1531      54418200 
 1531      F33F4541 
 1531      CB02F630 
 1531      982E37CA 
 1532 1a4d 6F414303 		.ascii	"oAC\003,\000C\244o5o\0270BoQo\223@B\202\000A\303\000"
 1532      2C0043A4 
 1532      6F356F17 
 1532      30426F51 
 1532      6F934042 
 1533 1a66 0343517F 		.ascii	"\003CQ\177\000.\224@AAL\002\304o\321Vc\016toQC\245\177"
 1533      002E9440 
 1533      41414C02 
 1533      C46FD156 
 1533      630E746F 
 1534 1a7e 8A2F092E 		.ascii	"\212/\011.\330\000\001\263!/\313X\220o\023A\266o\344"
 1534      D80001B3 
 1534      212FCB58 
 1534      906F1341 
 1534      B66FE4
 1535 1a91 7F002E91 		.ascii	"\177\000.\221A\024@\222A\025@\027.o\365\266\177\320"
 1535      41144092 
 1535      41154017 
 1535      2E6FF5B6 
 1535      7FD0
 1536 1aa3 7FCB7F98 		.ascii	"\177\313\177\230.\000\014\007\025\302o\024\013).o\365"
 1536      2E000C07 
 1536      15C26F14 
 1536      0B292E6F 
ARM GAS  C:\Users\tnguy\AppData\Local\Temp\ccrLQ3au.s 			page 72


 1536      F5
 1537 1ab4 C3A3C18F 		.ascii	"\303\243\301\217\344o\320o\346/\0240\005.o\365\024\013"
 1537      E46FD06F 
 1537      E62F1430 
 1537      052E6FF5 
 1537      140B
 1538 1ac6 292E6FF5 		.ascii	").o\365\030-\315V\0042\265o\034\001QARA\303@\265\177"
 1538      182DCD56 
 1538      0432B56F 
 1538      1C015141 
 1538      5241C340 
 1539 1adc E47F982E 		.ascii	"\344\177\230.\037\014\344o!\207\000C\0042\317TZ\016"
 1539      1F0CE46F 
 1539      21870043 
 1539      0432CF54 
 1539      5A0E
 1540 1aee EF2F1554 		.ascii	"\357/\025T\011.w\367\"\013).w\367\373oP^\270.\020P\001"
 1540      092E77F7 
 1540      220B292E 
 1540      77F7FB6F 
 1540      505EB82E 
 1541 1b05 2ED40000 		.ascii	".\324\000\000\262\373\177Q/\001\262H/\002\262B/\003"
 1541      B2FB7F51 
 1541      2F01B248 
 1541      2F02B242 
 1541      2F03
 1542 1b17 90562FD7 		.ascii	"\220V/\327Ry\200B@\201\204\000@BB\230.\223\014\331T"
 1542      52798042 
 1542      40818400 
 1542      40424298 
 1542      2E930CD9 
 1543 1b2c D750A140 		.ascii	"\327P\241@\230\275\202@>\202\332\012D@\213\026\343\000"
 1543      98BD8240 
 1543      3E82DA0A 
 1543      44408B16 
 1543      E300
 1544 1b3e 5342002E 		.ascii	"SB\000.C@\232\002RB\000.A@\025TJ\016:/:\202\0000A@!"
 1544      43409A02 
 1544      5242002E 
 1544      41401554 
 1544      4A0E3A2F 
 1545 1b59 2E850F40 		.ascii	".\205\017@\262\012/\230.\261\014\230.E\016\230.[\016"
 1545      B20A2F98 
 1545      2EB10C98 
 1545      2E450E98 
 1545      2E5B0E
 1546 1b6c FB6FF05F 		.ascii	"\373o\360_\0000\200.\316\267\335R\323TBBO\204s0\333"
 1546      0030802E 
 1546      CEB7DD52 
 1546      D3544242 
 1546      4F847330 
 1547 1b81 5283421B 		.ascii	"R\203B\0330kB#0'.\327\0007.\324\000!.\326\000z\204\027"
 1547      306B4223 
 1547      30272ED7 
 1547      00372ED4 
 1547      00212ED6 
 1548 1b99 2C424230 		.ascii	",BB00!.\324\000\022-!0\0000#.\324\000!.{\367\013-\027"
ARM GAS  C:\Users\tnguy\AppData\Local\Temp\ccrLQ3au.s 			page 73


 1548      30212ED4 
 1548      00122D21 
 1548      30003023 
 1548      2ED40021 
 1549 1bb3 30982E51 		.ascii	"0\230.Q\014\325P\014\202r0/.\324\000%.{\367@B\000.\373"
 1549      0CD5500C 
 1549      8272302F 
 1549      2ED40025 
 1549      2E7BF740 
 1550 1bcb 6FF05FB8 		.ascii	"o\360_\270.pP\012%9\206\373\177\3412b0\230.\302\304"
 1550      2E70500A 
 1550      253986FB 
 1550      7FE13262 
 1550      30982EC2 
 1551 1be0 B556A56F 		.ascii	"\265V\245o\253\010\221oK\010\337V\304o#\011M\272\223"
 1551      AB08916F 
 1551      4B08DF56 
 1551      C46F2309 
 1551      4DBA93
 1552 1bf3 BC8C0BD1 		.ascii	"\274\214\013\321o\013\011\313R\341^VB\257\011M\272#"
 1552      6F0B09CB 
 1552      52E15E56 
 1552      42AF094D 
 1552      BA23
 1553 1c05 BD940AE5 		.ascii	"\275\224\012\345oh\273\353\010\275\271c\276\373oRB\343"
 1553      6F68BBEB 
 1553      08BDB963 
 1553      BEFB6F52 
 1553      42E3
 1554 1c17 0AC02E43 		.ascii	"\012\300.CB\220_\321P\003.%\363\023@\000@\233\274\233"
 1554      42905FD1 
 1554      50032E25 
 1554      F3134000 
 1554      409BBC9B 
 1555 1c2b B408BDB8 		.ascii	"\264\010\275\270\271\230\274\332\012\010\266\211\026"
 1555      B998BCDA 
 1555      0A08B689 
 1555      16
 1556 1c38 C02E1900 		.ascii	"\300.\031\000b\002\020P\373\177\230.\201\015\001.\324"
 1556      62021050 
 1556      FB7F982E 
 1556      810D012E 
 1556      D4
 1557 1c49 00313008 		.ascii	"\00010\010\004\373o\0010\360_#.\326\000!.\327\000\270"
 1557      04FB6F01 
 1557      30F05F23 
 1557      2ED60021 
 1557      2ED700B8 
 1558 1c5d 2E012ED7 		.ascii	".\001.\327\000\003.\326\000H\016\001/\200.\037\016\270"
 1558      00032ED6 
 1558      00480E01 
 1558      2F802E1F 
 1558      0EB8
 1559 1c6f 2EE35021 		.ascii	".\343P!4\001B\2020\3012%.b\365\001\000\"0\001@J\012"
 1559      34014282 
 1559      30C13225 
 1559      2E62F501 
ARM GAS  C:\Users\tnguy\AppData\Local\Temp\ccrLQ3au.s 			page 74


 1559      00223001 
 1560 1c86 0142B82E 		.ascii	"\001B\270.\343T\360;\203@\330\010\345R\203B\0000\203"
 1560      E354F03B 
 1560      8340D808 
 1560      E5528342 
 1560      003083
 1561 1c99 305042C4 		.ascii	"0PB\3042'.d\365\224\000PB@B\323?\204@}\202\343\010@"
 1561      32272E64 
 1561      F5940050 
 1561      424042D3 
 1561      3F84407D 
 1562 1cb1 428342B8 		.ascii	"B\203B\270.\335R\0000@B|\206\271R\011.p\017\277T\304"
 1562      2EDD5200 
 1562      3040427C 
 1562      86B95209 
 1562      2E700FBF 
 1563 1cc7 42D38654 		.ascii	"B\323\206T@U@\224B\205B!.\327\000B@%.\375\363\300B~"
 1563      40554094 
 1563      42854221 
 1563      2ED70042 
 1563      40252EFD 
 1564 1cdf 82052E7D 		.ascii	"\202\005.}\000\200\262\024/\005.\211\000'\275/\271\200"
 1564      0080B214 
 1564      2F052E89 
 1564      0027BD2F 
 1564      B980
 1565 1cf1 90022F21 		.ascii	"\220\002/!.o\365\014-\007.q\017\0240\034\011\005.w\367"
 1565      2E6FF50C 
 1565      2D072E71 
 1565      0F14301C 
 1565      09052E77 
 1566 1d06 BD5647BE 		.ascii	"\275VG\276\223\010\224\012%.w\367\347TPBJ\016\374/\270"
 1566      9308940A 
 1566      252E77F7 
 1566      E7545042 
 1566      4A0EFC2F 
 1567 1d1b 2E505002 		.ascii	".PP\0020C\206\345P\373\177\343\177\322\177\300\177\261"
 1567      304386E5 
 1567      50FB7FE3 
 1567      7FD27FC0 
 1567      7FB1
 1568 1d2d 7F002E41 		.ascii	"\177\000.A@\000@H\004\230.t\300\036\252\323o\0240\261"
 1568      40004048 
 1568      04982E74 
 1568      C01EAAD3 
 1568      6F1430B1 
 1569 1d41 6FE322C0 		.ascii	"o\343\"\300oR@\344oL\016\022B\323\177\353/\003.\206"
 1569      6F5240E4 
 1569      6F4C0E12 
 1569      42D37FEB 
 1569      2F032E86 
 1570 1d55 0F409011 		.ascii	"\017@\220\0210\003/#.\206\017\002,\0000\320o\373o\260"
 1570      30032F23 
 1570      2E860F02 
 1570      2C0030D0 
 1570      6FFB6FB0 
 1571 1d69 5FB82E40 		.ascii	"_\270.@P\361\177\012%<\206\353\177A3\"0\230.\302\304"
ARM GAS  C:\Users\tnguy\AppData\Local\Temp\ccrLQ3au.s 			page 75


 1571      50F17F0A 
 1571      253C86EB 
 1571      7F413322 
 1571      30982EC2 
 1572 1d7e D36FF430 		.ascii	"\323o\3640\334\011GX\302o\224\011\353Xj\273\334\010"
 1572      DC094758 
 1572      C26F9409 
 1572      EB586ABB 
 1572      DC08
 1573 1d90 B4B9B1BD 		.ascii	"\264\271\261\275\351Z\225\010!\275\366\277w\013Q\276"
 1573      E95A9508 
 1573      21BDF6BF 
 1573      770B51BE 
 1574 1da0 F16FEB6F 		.ascii	"\361o\353oRBTB\300.CB\300_PP\365P10\021B\373\177{0\013"
 1574      52425442 
 1574      C02E4342 
 1574      C05F5050 
 1574      F5503130 
 1575 1dbb 42113002 		.ascii	"B\0210\002\200#3\001B\003\000\007.\200\003\005.\323"
 1575      80233301 
 1575      42030007 
 1575      2E800305 
 1575      2ED3
 1576 1dcd 002352E2 		.ascii	"\000#R\342\177\323\177\300\177\230.\266\016\321o\010"
 1576      7FD37FC0 
 1576      7F982EB6 
 1576      0ED16F08 
 1577 1ddd 0A1A257B 		.ascii	"\012\032%{\206\320\177\0013\0220\230.\302\304\321o\010"
 1577      86D07F01 
 1577      33123098 
 1577      2EC2C4D1 
 1577      6F08
 1578 1def 0A00B20D 		.ascii	"\012\000\262\015/\343o\001.\200\003Q0\307\206#.!\362"
 1578      2FE36F01 
 1578      2E800351 
 1578      30C78623 
 1578      2E21F2
 1579 1e02 08BCC042 		.ascii	"\010\274\300B\230.\245\267\000.\000.\320.\260o\013\270"
 1579      982EA5B7 
 1579      002E002E 
 1579      D02EB06F 
 1579      0BB8
 1580 1e14 032E1B00 		.ascii	"\003.\033\000\010\032\260\177p0\004/!.!\362\000.\000"
 1580      081AB07F 
 1580      7030042F 
 1580      212E21F2 
 1580      002E00
 1581 1e27 2ED02E98 		.ascii	".\320.\230.m\300\230.]\300\355P\230.D\313\357P\230."
 1581      2E6DC098 
 1581      2E5DC0ED 
 1581      50982E44 
 1581      CBEF5098 
 1582 1e3c 46C3F150 		.ascii	"F\303\361P\230.S\3075P\230.d\317\0200\230.\334\003 "
 1582      982E53C7 
 1582      3550982E 
 1582      64CF1030 
 1582      982EDC03 
ARM GAS  C:\Users\tnguy\AppData\Local\Temp\ccrLQ3au.s 			page 76


 1583 1e51 26C06F02 		.ascii	"&\300o\0021\022B\2533\013B7\200\0010\001B\3637\367R"
 1583      311242AB 
 1583      330B4237 
 1583      80013001 
 1583      42F337F7 
 1584 1e66 FB504440 		.ascii	"\373PD@\242\012BB\2131\011.^\367\371T\343\010\203B\033"
 1584      A20A4242 
 1584      8B31092E 
 1584      5EF7F954 
 1584      E3088342 
 1585 1e7b 4223334B 		.ascii	"B#3K\000\274\204\013@30\203B\013B\340\177\321\177\230"
 1585      00BC840B 
 1585      40333083 
 1585      420B42E0 
 1585      7FD17F98 
 1586 1e8f 2E58B7D1 		.ascii	".X\267\321o\2000@B\0030\340o\363T\0040\000.\000.\001"
 1586      6F803040 
 1586      420330E0 
 1586      6FF35404 
 1586      30002E00 
 1587 1ea5 89620EFA 		.ascii	"\211b\016\372/CB\0210\373o\300.\001B\260_\301J\000\000"
 1587      2F434211 
 1587      30FB6FC0 
 1587      2E0142B0 
 1587      5FC14A00 
 1588 1eba 6D570000 		.ascii	"mW\000\000w\216\000\000\340\377\377\377\323\377\377"
 1588      778E0000 
 1588      E0FFFFFF 
 1588      D3FFFF
 1589 1ec9 FFE5FFFF 		.ascii	"\377\345\377\377\377\356\341\377\377|\023\000\000F\346"
 1589      FFEEE1FF 
 1589      FF7C1300 
 1589      0046E6
 1590 1ed8 FFFF0000 		.ascii	"\377\377\000\000\000\000\000\000\000\000\000\000\000"
 1590      00000000 
 1590      00000000 
 1590      00
 1591 1ee5 00000000 		.ascii	"\000\000\000\000\000\000\000\000\000\000\000\000\000"
 1591      00000000 
 1591      00000000 
 1591      00
 1592 1ef2 00000000 		.ascii	"\000\000\000\000\000\000\000\000\000\000\000\000\000"
 1592      00000000 
 1592      00000000 
 1592      00
 1593 1eff 00000000 		.ascii	"\000\000\000\000\000\000\000\000\000\000\000\000\000"
 1593      00000000 
 1593      00000000 
 1593      00
 1594 1f0c 00000000 		.ascii	"\000\000\000\000\000\000\000\000\200.\000\301\200.\000"
 1594      00000000 
 1594      802E00C1 
 1594      802E00
 1595 1f1b C1802E00 		.ascii	"\301\200.\000\301\200.\000\301\200.\000\301\200.\000"
 1595      C1802E00 
 1595      C1802E00 
 1595      C1802E00 
ARM GAS  C:\Users\tnguy\AppData\Local\Temp\ccrLQ3au.s 			page 77


 1596 1f2b C1802E00 		.ascii	"\301\200.\000\301\200.\000\301\200.\000\301\200.\000"
 1596      C1802E00 
 1596      C1802E00 
 1596      C1802E00 
 1597 1f3b C1802E00 		.ascii	"\301\200.\000\301"
 1597      C1
 1598 1f40 802E00C1 		.ascii	"\200.\000\301\200.\000\301\200.\000\301\200.\000\301"
 1598      802E00C1 
 1598      802E00C1 
 1598      802E00C1 
 1599 1f50 802E00C1 		.ascii	"\200.\000\301\200.\000\301\200.\000\301\200.\000\301"
 1599      802E00C1 
 1599      802E00C1 
 1599      802E00C1 
 1600 1f60 802E00C1 		.ascii	"\200.\000\301\200.\000\301\200.\000\301\200.\000\301"
 1600      802E00C1 
 1600      802E00C1 
 1600      802E00C1 
 1601 1f70 802E00C1 		.ascii	"\200.\000\301\200.\000\301\200.\000\301\200.\000\301"
 1601      802E00C1 
 1601      802E00C1 
 1601      802E00C1 
 1602 1f80 802E00C1 		.ascii	"\200.\000\301\200.\000\301\200.\000\301\200.\000\301"
 1602      802E00C1 
 1602      802E00C1 
 1602      802E00C1 
 1603 1f90 802E00C1 		.ascii	"\200.\000\301\200.\000\301\200.\000\301\200.\000\301"
 1603      802E00C1 
 1603      802E00C1 
 1603      802E00C1 
 1604 1fa0 802E00C1 		.ascii	"\200.\000\301\200.\000\301\200.\000\301\200.\000\301"
 1604      802E00C1 
 1604      802E00C1 
 1604      802E00C1 
 1605 1fb0 802E00C1 		.ascii	"\200.\000\301\200.\000\301\200.\000\301\200.\000\301"
 1605      802E00C1 
 1605      802E00C1 
 1605      802E00C1 
 1606 1fc0 802E00C1 		.ascii	"\200.\000\301\200.\000\301\200.\000\301\200.\000\301"
 1606      802E00C1 
 1606      802E00C1 
 1606      802E00C1 
 1607 1fd0 802E00C1 		.ascii	"\200.\000\301\200.\000\301\200.\000\301\200.\000\301"
 1607      802E00C1 
 1607      802E00C1 
 1607      802E00C1 
 1608 1fe0 802E00C1 		.ascii	"\200.\000\301\200.\000\301\200.\000\301\200.\000\301"
 1608      802E00C1 
 1608      802E00C1 
 1608      802E00C1 
 1609 1ff0 802E00C1 		.ascii	"\200.\000\301\200.\000\301\200.\000\301\200.\000\301"
 1609      802E00C1 
 1609      802E00C1 
 1609      802E00C1 
 1610              		.text
 1611              	.Letext0:
 1612              		.file 2 "c:\\program files (x86)\\gnu arm embedded toolchain\\10 2021.10\\arm-none-eabi\\include\\
ARM GAS  C:\Users\tnguy\AppData\Local\Temp\ccrLQ3au.s 			page 78


 1613              		.file 3 "c:\\program files (x86)\\gnu arm embedded toolchain\\10 2021.10\\arm-none-eabi\\include\\
 1614              		.file 4 "../../../lib/Drivers/CMSIS/Device/ST/STM32H7xx/Include/stm32h750xx.h"
 1615              		.file 5 "../../../lib/Drivers/STM32H7xx_HAL_Driver/Inc/stm32h7xx_hal_def.h"
 1616              		.file 6 "../../../lib/Drivers/STM32H7xx_HAL_Driver/Inc/stm32h7xx_hal_dma.h"
 1617              		.file 7 "../../../lib/Drivers/STM32H7xx_HAL_Driver/Inc/stm32h7xx_hal_i2c.h"
 1618              		.file 8 "../../../mod/imu/imu.h"
 1619              		.file 9 "../../../lib/sdr_pin_defines_A0002.h"
 1620              		.file 10 "../../../lib/Drivers/STM32H7xx_HAL_Driver/Inc/stm32h7xx_hal.h"
ARM GAS  C:\Users\tnguy\AppData\Local\Temp\ccrLQ3au.s 			page 79


DEFINED SYMBOLS
                            *ABS*:00000000 imu.c
C:\Users\tnguy\AppData\Local\Temp\ccrLQ3au.s:19     .text.write_imu_regs:00000000 $t
C:\Users\tnguy\AppData\Local\Temp\ccrLQ3au.s:24     .text.write_imu_regs:00000000 write_imu_regs
C:\Users\tnguy\AppData\Local\Temp\ccrLQ3au.s:82     .text.write_imu_regs:00000028 $d
C:\Users\tnguy\AppData\Local\Temp\ccrLQ3au.s:87     .text.write_imu_reg:00000000 $t
C:\Users\tnguy\AppData\Local\Temp\ccrLQ3au.s:92     .text.write_imu_reg:00000000 write_imu_reg
C:\Users\tnguy\AppData\Local\Temp\ccrLQ3au.s:150    .text.write_imu_reg:0000002c $d
C:\Users\tnguy\AppData\Local\Temp\ccrLQ3au.s:155    .text.write_mag_reg:00000000 $t
C:\Users\tnguy\AppData\Local\Temp\ccrLQ3au.s:160    .text.write_mag_reg:00000000 write_mag_reg
C:\Users\tnguy\AppData\Local\Temp\ccrLQ3au.s:218    .text.write_mag_reg:0000002c $d
C:\Users\tnguy\AppData\Local\Temp\ccrLQ3au.s:223    .text.read_imu_regs:00000000 $t
C:\Users\tnguy\AppData\Local\Temp\ccrLQ3au.s:228    .text.read_imu_regs:00000000 read_imu_regs
C:\Users\tnguy\AppData\Local\Temp\ccrLQ3au.s:282    .text.read_imu_regs:00000028 $d
C:\Users\tnguy\AppData\Local\Temp\ccrLQ3au.s:287    .text.read_mag_regs:00000000 $t
C:\Users\tnguy\AppData\Local\Temp\ccrLQ3au.s:292    .text.read_mag_regs:00000000 read_mag_regs
C:\Users\tnguy\AppData\Local\Temp\ccrLQ3au.s:346    .text.read_mag_regs:00000024 $d
C:\Users\tnguy\AppData\Local\Temp\ccrLQ3au.s:351    .text.mag_init:00000000 $t
C:\Users\tnguy\AppData\Local\Temp\ccrLQ3au.s:356    .text.mag_init:00000000 mag_init
C:\Users\tnguy\AppData\Local\Temp\ccrLQ3au.s:494    .text.imu_get_accel_xyz:00000000 $t
C:\Users\tnguy\AppData\Local\Temp\ccrLQ3au.s:500    .text.imu_get_accel_xyz:00000000 imu_get_accel_xyz
C:\Users\tnguy\AppData\Local\Temp\ccrLQ3au.s:581    .text.imu_get_gyro_xyz:00000000 $t
C:\Users\tnguy\AppData\Local\Temp\ccrLQ3au.s:587    .text.imu_get_gyro_xyz:00000000 imu_get_gyro_xyz
C:\Users\tnguy\AppData\Local\Temp\ccrLQ3au.s:668    .text.imu_get_mag_xyz:00000000 $t
C:\Users\tnguy\AppData\Local\Temp\ccrLQ3au.s:674    .text.imu_get_mag_xyz:00000000 imu_get_mag_xyz
C:\Users\tnguy\AppData\Local\Temp\ccrLQ3au.s:752    .text.imu_get_device_id:00000000 $t
C:\Users\tnguy\AppData\Local\Temp\ccrLQ3au.s:758    .text.imu_get_device_id:00000000 imu_get_device_id
C:\Users\tnguy\AppData\Local\Temp\ccrLQ3au.s:800    .text.imu_init:00000000 $t
C:\Users\tnguy\AppData\Local\Temp\ccrLQ3au.s:806    .text.imu_init:00000000 imu_init
C:\Users\tnguy\AppData\Local\Temp\ccrLQ3au.s:1149   .text.imu_init:0000011c $d
C:\Users\tnguy\AppData\Local\Temp\ccrLQ3au.s:1158   .data.bmi270_init_file:00000000 bmi270_init_file
C:\Users\tnguy\AppData\Local\Temp\ccrLQ3au.s:1155   .data.bmi270_init_file:00000000 $d

UNDEFINED SYMBOLS
HAL_I2C_Mem_Write
hi2c2
HAL_I2C_Mem_Read
HAL_Delay
