ARM GAS  C:\Users\tnguy\AppData\Local\Temp\ccYIihLb.s 			page 1


   1              		.cpu cortex-m7
   2              		.arch armv7e-m
   3              		.fpu fpv5-d16
   4              		.eabi_attribute 28, 1
   5              		.eabi_attribute 20, 1
   6              		.eabi_attribute 21, 1
   7              		.eabi_attribute 23, 3
   8              		.eabi_attribute 24, 1
   9              		.eabi_attribute 25, 1
  10              		.eabi_attribute 26, 1
  11              		.eabi_attribute 30, 1
  12              		.eabi_attribute 34, 1
  13              		.eabi_attribute 18, 4
  14              		.file	"init.c"
  15              		.text
  16              	.Ltext0:
  17              		.cfi_sections	.debug_frame
  18              		.section	.text.SystemClock_Config,"ax",%progbits
  19              		.align	1
  20              		.global	SystemClock_Config
  21              		.syntax unified
  22              		.thumb
  23              		.thumb_func
  25              	SystemClock_Config:
  26              	.LFB144:
  27              		.file 1 "../../../init/terminal/init.c"
   1:../../../init/terminal/init.c **** /*******************************************************************************
   2:../../../init/terminal/init.c **** *                                                                              *
   3:../../../init/terminal/init.c **** * FILE:                                                                        *
   4:../../../init/terminal/init.c **** * 		init.c                                                                 *
   5:../../../init/terminal/init.c **** *                                                                              *
   6:../../../init/terminal/init.c **** * DESCRIPTION:                                                                 *
   7:../../../init/terminal/init.c **** * 		Contains initialization routines for MCU core and peripherals          *
   8:../../../init/terminal/init.c **** *                                                                              *
   9:../../../init/terminal/init.c **** *******************************************************************************/
  10:../../../init/terminal/init.c **** 
  11:../../../init/terminal/init.c **** 
  12:../../../init/terminal/init.c **** /*------------------------------------------------------------------------------
  13:../../../init/terminal/init.c ****  Standard Includes                                                              
  14:../../../init/terminal/init.c **** ------------------------------------------------------------------------------*/
  15:../../../init/terminal/init.c **** 
  16:../../../init/terminal/init.c **** 
  17:../../../init/terminal/init.c **** /*------------------------------------------------------------------------------
  18:../../../init/terminal/init.c ****  Project Includes                                                               
  19:../../../init/terminal/init.c **** ------------------------------------------------------------------------------*/
  20:../../../init/terminal/init.c **** #include "sdr_pin_defines_A0002.h"
  21:../../../init/terminal/init.c **** #include "main.h"
  22:../../../init/terminal/init.c **** #include "init.h"
  23:../../../init/terminal/init.c **** #include "fatfs.h"
  24:../../../init/terminal/init.c **** 
  25:../../../init/terminal/init.c **** 
  26:../../../init/terminal/init.c **** /*------------------------------------------------------------------------------
  27:../../../init/terminal/init.c ****  Global Variables 
  28:../../../init/terminal/init.c **** ------------------------------------------------------------------------------*/
  29:../../../init/terminal/init.c **** extern I2C_HandleTypeDef  hi2c1;   /* Baro sensor    */
  30:../../../init/terminal/init.c **** extern I2C_HandleTypeDef  hi2c2;   /* IMU and GPS    */
  31:../../../init/terminal/init.c **** extern SD_HandleTypeDef   hsd1;    /* SD Card        */
ARM GAS  C:\Users\tnguy\AppData\Local\Temp\ccYIihLb.s 			page 2


  32:../../../init/terminal/init.c **** extern SPI_HandleTypeDef  hspi2;   /* External flash */
  33:../../../init/terminal/init.c **** extern TIM_HandleTypeDef  htim4;   /* Buzzer Timer   */
  34:../../../init/terminal/init.c **** extern UART_HandleTypeDef huart6;  /* USB            */
  35:../../../init/terminal/init.c **** extern UART_HandleTypeDef huart4;  /* GPS            */
  36:../../../init/terminal/init.c **** 
  37:../../../init/terminal/init.c **** 
  38:../../../init/terminal/init.c **** /*------------------------------------------------------------------------------
  39:../../../init/terminal/init.c ****  Procedures 
  40:../../../init/terminal/init.c **** ------------------------------------------------------------------------------*/
  41:../../../init/terminal/init.c **** 
  42:../../../init/terminal/init.c **** 
  43:../../../init/terminal/init.c **** /*******************************************************************************
  44:../../../init/terminal/init.c **** *                                                                              *
  45:../../../init/terminal/init.c **** * PROCEDURE:                                                                   * 
  46:../../../init/terminal/init.c **** * 		SystemClock_Config                                                     *
  47:../../../init/terminal/init.c **** *                                                                              *
  48:../../../init/terminal/init.c **** * DESCRIPTION:                                                                 * 
  49:../../../init/terminal/init.c **** * 		Initializes the microcontroller clock. Enables peripheral clocks and   *
  50:../../../init/terminal/init.c **** *       sets prescalers                                                        *
  51:../../../init/terminal/init.c **** *                                                                              *
  52:../../../init/terminal/init.c **** *******************************************************************************/
  53:../../../init/terminal/init.c **** void SystemClock_Config
  54:../../../init/terminal/init.c **** 	(
  55:../../../init/terminal/init.c **** 	void
  56:../../../init/terminal/init.c **** 	)
  57:../../../init/terminal/init.c **** {
  28              		.loc 1 57 1 view -0
  29              		.cfi_startproc
  30              		@ args = 0, pretend = 0, frame = 112
  31              		@ frame_needed = 0, uses_anonymous_args = 0
  32 0000 00B5     		push	{lr}
  33              	.LCFI0:
  34              		.cfi_def_cfa_offset 4
  35              		.cfi_offset 14, -4
  36 0002 9DB0     		sub	sp, sp, #116
  37              	.LCFI1:
  38              		.cfi_def_cfa_offset 120
  58:../../../init/terminal/init.c **** /* System Clock Initialization structs */
  59:../../../init/terminal/init.c **** RCC_OscInitTypeDef RCC_OscInitStruct = {0};
  39              		.loc 1 59 1 view .LVU1
  40              		.loc 1 59 20 is_stmt 0 view .LVU2
  41 0004 4C22     		movs	r2, #76
  42 0006 0021     		movs	r1, #0
  43 0008 09A8     		add	r0, sp, #36
  44 000a FFF7FEFF 		bl	memset
  45              	.LVL0:
  60:../../../init/terminal/init.c **** RCC_ClkInitTypeDef RCC_ClkInitStruct = {0};
  46              		.loc 1 60 1 is_stmt 1 view .LVU3
  47              		.loc 1 60 20 is_stmt 0 view .LVU4
  48 000e 2022     		movs	r2, #32
  49 0010 0021     		movs	r1, #0
  50 0012 01A8     		add	r0, sp, #4
  51 0014 FFF7FEFF 		bl	memset
  52              	.LVL1:
  61:../../../init/terminal/init.c **** 
  62:../../../init/terminal/init.c **** /* Supply configuration update enable */
  63:../../../init/terminal/init.c **** HAL_PWREx_ConfigSupply(PWR_LDO_SUPPLY);
ARM GAS  C:\Users\tnguy\AppData\Local\Temp\ccYIihLb.s 			page 3


  53              		.loc 1 63 1 is_stmt 1 view .LVU5
  54 0018 0220     		movs	r0, #2
  55 001a FFF7FEFF 		bl	HAL_PWREx_ConfigSupply
  56              	.LVL2:
  64:../../../init/terminal/init.c **** 
  65:../../../init/terminal/init.c **** /* Configure the main internal regulator output voltage */
  66:../../../init/terminal/init.c **** __HAL_PWR_VOLTAGESCALING_CONFIG(PWR_REGULATOR_VOLTAGE_SCALE0);
  57              		.loc 1 66 1 view .LVU6
  58              	.LBB2:
  59              		.loc 1 66 1 view .LVU7
  60 001e 0023     		movs	r3, #0
  61 0020 0093     		str	r3, [sp]
  62              		.loc 1 66 1 view .LVU8
  63              		.loc 1 66 1 view .LVU9
  64 0022 264B     		ldr	r3, .L8
  65 0024 9A69     		ldr	r2, [r3, #24]
  66 0026 42F44042 		orr	r2, r2, #49152
  67 002a 9A61     		str	r2, [r3, #24]
  68              		.loc 1 66 1 view .LVU10
  69 002c 9B69     		ldr	r3, [r3, #24]
  70 002e 03F44043 		and	r3, r3, #49152
  71 0032 0093     		str	r3, [sp]
  72              		.loc 1 66 1 view .LVU11
  73 0034 224B     		ldr	r3, .L8+4
  74 0036 DA6A     		ldr	r2, [r3, #44]
  75 0038 42F00102 		orr	r2, r2, #1
  76 003c DA62     		str	r2, [r3, #44]
  77              		.loc 1 66 1 view .LVU12
  78 003e DB6A     		ldr	r3, [r3, #44]
  79 0040 03F00103 		and	r3, r3, #1
  80 0044 0093     		str	r3, [sp]
  81              		.loc 1 66 1 view .LVU13
  82 0046 009B     		ldr	r3, [sp]
  83              	.LBE2:
  84              		.loc 1 66 1 view .LVU14
  67:../../../init/terminal/init.c **** while( !__HAL_PWR_GET_FLAG(PWR_FLAG_VOSRDY) ) 
  85              		.loc 1 67 1 view .LVU15
  86              	.L2:
  68:../../../init/terminal/init.c **** 	{
  69:../../../init/terminal/init.c **** 	/* Wait for PWR_FLAG_VOSRDY flag */
  70:../../../init/terminal/init.c **** 	}
  87              		.loc 1 70 2 discriminator 1 view .LVU16
  67:../../../init/terminal/init.c **** while( !__HAL_PWR_GET_FLAG(PWR_FLAG_VOSRDY) ) 
  88              		.loc 1 67 6 discriminator 1 view .LVU17
  67:../../../init/terminal/init.c **** while( !__HAL_PWR_GET_FLAG(PWR_FLAG_VOSRDY) ) 
  89              		.loc 1 67 9 is_stmt 0 discriminator 1 view .LVU18
  90 0048 1C4B     		ldr	r3, .L8
  91 004a 9B69     		ldr	r3, [r3, #24]
  67:../../../init/terminal/init.c **** while( !__HAL_PWR_GET_FLAG(PWR_FLAG_VOSRDY) ) 
  92              		.loc 1 67 6 discriminator 1 view .LVU19
  93 004c 13F4005F 		tst	r3, #8192
  94 0050 FAD0     		beq	.L2
  71:../../../init/terminal/init.c **** 
  72:../../../init/terminal/init.c **** /* Initializes the RCC Oscillators according to the specified parameters
  73:../../../init/terminal/init.c ****    in the RCC_OscInitTypeDef structure. */
  74:../../../init/terminal/init.c **** RCC_OscInitStruct.OscillatorType = RCC_OSCILLATORTYPE_HSE;
  95              		.loc 1 74 1 is_stmt 1 view .LVU20
ARM GAS  C:\Users\tnguy\AppData\Local\Temp\ccYIihLb.s 			page 4


  96              		.loc 1 74 34 is_stmt 0 view .LVU21
  97 0052 0123     		movs	r3, #1
  98 0054 0993     		str	r3, [sp, #36]
  75:../../../init/terminal/init.c **** RCC_OscInitStruct.HSEState       = RCC_HSE_ON;
  99              		.loc 1 75 1 is_stmt 1 view .LVU22
 100              		.loc 1 75 34 is_stmt 0 view .LVU23
 101 0056 4FF48033 		mov	r3, #65536
 102 005a 0A93     		str	r3, [sp, #40]
  76:../../../init/terminal/init.c **** RCC_OscInitStruct.PLL.PLLState   = RCC_PLL_ON;
 103              		.loc 1 76 1 is_stmt 1 view .LVU24
 104              		.loc 1 76 34 is_stmt 0 view .LVU25
 105 005c 0223     		movs	r3, #2
 106 005e 1293     		str	r3, [sp, #72]
  77:../../../init/terminal/init.c **** RCC_OscInitStruct.PLL.PLLSource  = RCC_PLLSOURCE_HSE;
 107              		.loc 1 77 1 is_stmt 1 view .LVU26
 108              		.loc 1 77 34 is_stmt 0 view .LVU27
 109 0060 1393     		str	r3, [sp, #76]
  78:../../../init/terminal/init.c **** RCC_OscInitStruct.PLL.PLLM       = 2;
 110              		.loc 1 78 1 is_stmt 1 view .LVU28
 111              		.loc 1 78 34 is_stmt 0 view .LVU29
 112 0062 1493     		str	r3, [sp, #80]
  79:../../../init/terminal/init.c **** RCC_OscInitStruct.PLL.PLLN       = 80;
 113              		.loc 1 79 1 is_stmt 1 view .LVU30
 114              		.loc 1 79 34 is_stmt 0 view .LVU31
 115 0064 5022     		movs	r2, #80
 116 0066 1592     		str	r2, [sp, #84]
  80:../../../init/terminal/init.c **** RCC_OscInitStruct.PLL.PLLP       = 2;
 117              		.loc 1 80 1 is_stmt 1 view .LVU32
 118              		.loc 1 80 34 is_stmt 0 view .LVU33
 119 0068 1693     		str	r3, [sp, #88]
  81:../../../init/terminal/init.c **** RCC_OscInitStruct.PLL.PLLQ       = 2;
 120              		.loc 1 81 1 is_stmt 1 view .LVU34
 121              		.loc 1 81 34 is_stmt 0 view .LVU35
 122 006a 1793     		str	r3, [sp, #92]
  82:../../../init/terminal/init.c **** RCC_OscInitStruct.PLL.PLLR       = 2;
 123              		.loc 1 82 1 is_stmt 1 view .LVU36
 124              		.loc 1 82 34 is_stmt 0 view .LVU37
 125 006c 1893     		str	r3, [sp, #96]
  83:../../../init/terminal/init.c **** RCC_OscInitStruct.PLL.PLLRGE     = RCC_PLL1VCIRANGE_3;
 126              		.loc 1 83 1 is_stmt 1 view .LVU38
 127              		.loc 1 83 34 is_stmt 0 view .LVU39
 128 006e 0C23     		movs	r3, #12
 129 0070 1993     		str	r3, [sp, #100]
  84:../../../init/terminal/init.c **** RCC_OscInitStruct.PLL.PLLVCOSEL  = RCC_PLL1VCOWIDE;
 130              		.loc 1 84 1 is_stmt 1 view .LVU40
 131              		.loc 1 84 34 is_stmt 0 view .LVU41
 132 0072 0023     		movs	r3, #0
 133 0074 1A93     		str	r3, [sp, #104]
  85:../../../init/terminal/init.c **** RCC_OscInitStruct.PLL.PLLFRACN   = 0;
 134              		.loc 1 85 1 is_stmt 1 view .LVU42
 135              		.loc 1 85 34 is_stmt 0 view .LVU43
 136 0076 1B93     		str	r3, [sp, #108]
  86:../../../init/terminal/init.c **** if (HAL_RCC_OscConfig(&RCC_OscInitStruct) != HAL_OK)
 137              		.loc 1 86 1 is_stmt 1 view .LVU44
 138              		.loc 1 86 5 is_stmt 0 view .LVU45
 139 0078 09A8     		add	r0, sp, #36
 140 007a FFF7FEFF 		bl	HAL_RCC_OscConfig
ARM GAS  C:\Users\tnguy\AppData\Local\Temp\ccYIihLb.s 			page 5


 141              	.LVL3:
 142              		.loc 1 86 4 view .LVU46
 143 007e B8B9     		cbnz	r0, .L6
 144              	.L3:
  87:../../../init/terminal/init.c **** 	{
  88:../../../init/terminal/init.c **** 	Error_Handler();
  89:../../../init/terminal/init.c **** 	}
  90:../../../init/terminal/init.c **** 
  91:../../../init/terminal/init.c **** /* Initializes the CPU, AHB and APB buses clocks */
  92:../../../init/terminal/init.c **** RCC_ClkInitStruct.ClockType      = RCC_CLOCKTYPE_HCLK    |
 145              		.loc 1 92 1 is_stmt 1 view .LVU47
 146              		.loc 1 92 34 is_stmt 0 view .LVU48
 147 0080 3F23     		movs	r3, #63
 148 0082 0193     		str	r3, [sp, #4]
  93:../../../init/terminal/init.c **** 								   RCC_CLOCKTYPE_SYSCLK  |
  94:../../../init/terminal/init.c ****                                    RCC_CLOCKTYPE_PCLK1   |
  95:../../../init/terminal/init.c **** 	                               RCC_CLOCKTYPE_PCLK2   |
  96:../../../init/terminal/init.c ****                                    RCC_CLOCKTYPE_D3PCLK1 |
  97:../../../init/terminal/init.c **** 	                               RCC_CLOCKTYPE_D1PCLK1;
  98:../../../init/terminal/init.c **** RCC_ClkInitStruct.SYSCLKSource   = RCC_SYSCLKSOURCE_PLLCLK;
 149              		.loc 1 98 1 is_stmt 1 view .LVU49
 150              		.loc 1 98 34 is_stmt 0 view .LVU50
 151 0084 0323     		movs	r3, #3
 152 0086 0293     		str	r3, [sp, #8]
  99:../../../init/terminal/init.c **** RCC_ClkInitStruct.SYSCLKDivider  = RCC_SYSCLK_DIV1;
 153              		.loc 1 99 1 is_stmt 1 view .LVU51
 154              		.loc 1 99 34 is_stmt 0 view .LVU52
 155 0088 0023     		movs	r3, #0
 156 008a 0393     		str	r3, [sp, #12]
 100:../../../init/terminal/init.c **** RCC_ClkInitStruct.AHBCLKDivider  = RCC_HCLK_DIV2;
 157              		.loc 1 100 1 is_stmt 1 view .LVU53
 158              		.loc 1 100 34 is_stmt 0 view .LVU54
 159 008c 0823     		movs	r3, #8
 160 008e 0493     		str	r3, [sp, #16]
 101:../../../init/terminal/init.c **** RCC_ClkInitStruct.APB3CLKDivider = RCC_APB3_DIV2;
 161              		.loc 1 101 1 is_stmt 1 view .LVU55
 162              		.loc 1 101 34 is_stmt 0 view .LVU56
 163 0090 4023     		movs	r3, #64
 164 0092 0593     		str	r3, [sp, #20]
 102:../../../init/terminal/init.c **** RCC_ClkInitStruct.APB1CLKDivider = RCC_APB1_DIV2;
 165              		.loc 1 102 1 is_stmt 1 view .LVU57
 166              		.loc 1 102 34 is_stmt 0 view .LVU58
 167 0094 0693     		str	r3, [sp, #24]
 103:../../../init/terminal/init.c **** RCC_ClkInitStruct.APB2CLKDivider = RCC_APB2_DIV2;
 168              		.loc 1 103 1 is_stmt 1 view .LVU59
 169              		.loc 1 103 34 is_stmt 0 view .LVU60
 170 0096 4FF48062 		mov	r2, #1024
 171 009a 0792     		str	r2, [sp, #28]
 104:../../../init/terminal/init.c **** RCC_ClkInitStruct.APB4CLKDivider = RCC_APB4_DIV2;
 172              		.loc 1 104 1 is_stmt 1 view .LVU61
 173              		.loc 1 104 34 is_stmt 0 view .LVU62
 174 009c 0893     		str	r3, [sp, #32]
 105:../../../init/terminal/init.c **** 
 106:../../../init/terminal/init.c **** if (HAL_RCC_ClockConfig(&RCC_ClkInitStruct, FLASH_LATENCY_4) != HAL_OK)
 175              		.loc 1 106 1 is_stmt 1 view .LVU63
 176              		.loc 1 106 5 is_stmt 0 view .LVU64
 177 009e 0421     		movs	r1, #4
ARM GAS  C:\Users\tnguy\AppData\Local\Temp\ccYIihLb.s 			page 6


 178 00a0 0DEB0100 		add	r0, sp, r1
 179 00a4 FFF7FEFF 		bl	HAL_RCC_ClockConfig
 180              	.LVL4:
 181              		.loc 1 106 4 view .LVU65
 182 00a8 28B9     		cbnz	r0, .L7
 183              	.L1:
 107:../../../init/terminal/init.c **** 	{
 108:../../../init/terminal/init.c **** 	Error_Handler();
 109:../../../init/terminal/init.c **** 	}
 110:../../../init/terminal/init.c **** 
 111:../../../init/terminal/init.c **** } /* SystemClock_Config */
 184              		.loc 1 111 1 view .LVU66
 185 00aa 1DB0     		add	sp, sp, #116
 186              	.LCFI2:
 187              		.cfi_remember_state
 188              		.cfi_def_cfa_offset 4
 189              		@ sp needed
 190 00ac 5DF804FB 		ldr	pc, [sp], #4
 191              	.L6:
 192              	.LCFI3:
 193              		.cfi_restore_state
  88:../../../init/terminal/init.c **** 	}
 194              		.loc 1 88 2 is_stmt 1 view .LVU67
 195 00b0 FFF7FEFF 		bl	Error_Handler
 196              	.LVL5:
 197 00b4 E4E7     		b	.L3
 198              	.L7:
 108:../../../init/terminal/init.c **** 	}
 199              		.loc 1 108 2 view .LVU68
 200 00b6 FFF7FEFF 		bl	Error_Handler
 201              	.LVL6:
 202              		.loc 1 111 1 is_stmt 0 view .LVU69
 203 00ba F6E7     		b	.L1
 204              	.L9:
 205              		.align	2
 206              	.L8:
 207 00bc 00480258 		.word	1476544512
 208 00c0 00040058 		.word	1476396032
 209              		.cfi_endproc
 210              	.LFE144:
 212              		.section	.text.PeriphCommonClock_Config,"ax",%progbits
 213              		.align	1
 214              		.global	PeriphCommonClock_Config
 215              		.syntax unified
 216              		.thumb
 217              		.thumb_func
 219              	PeriphCommonClock_Config:
 220              	.LFB145:
 112:../../../init/terminal/init.c **** 
 113:../../../init/terminal/init.c **** 
 114:../../../init/terminal/init.c **** /*******************************************************************************
 115:../../../init/terminal/init.c **** *                                                                              *
 116:../../../init/terminal/init.c **** * PROCEDURE:                                                                   *
 117:../../../init/terminal/init.c **** * 		PeriphCommonClock_Config                                               *
 118:../../../init/terminal/init.c **** *                                                                              *
 119:../../../init/terminal/init.c **** * DESCRIPTION:                                                                 *
 120:../../../init/terminal/init.c **** *       brief Peripherals Common Clock Configuration                           *
ARM GAS  C:\Users\tnguy\AppData\Local\Temp\ccYIihLb.s 			page 7


 121:../../../init/terminal/init.c **** *                                                                              *
 122:../../../init/terminal/init.c **** *******************************************************************************/
 123:../../../init/terminal/init.c **** void PeriphCommonClock_Config
 124:../../../init/terminal/init.c **** 	(
 125:../../../init/terminal/init.c **** 	void
 126:../../../init/terminal/init.c **** 	)
 127:../../../init/terminal/init.c **** {
 221              		.loc 1 127 1 is_stmt 1 view -0
 222              		.cfi_startproc
 223              		@ args = 0, pretend = 0, frame = 192
 224              		@ frame_needed = 0, uses_anonymous_args = 0
 225 0000 00B5     		push	{lr}
 226              	.LCFI4:
 227              		.cfi_def_cfa_offset 4
 228              		.cfi_offset 14, -4
 229 0002 B1B0     		sub	sp, sp, #196
 230              	.LCFI5:
 231              		.cfi_def_cfa_offset 200
 128:../../../init/terminal/init.c **** RCC_PeriphCLKInitTypeDef PeriphClkInitStruct = {0};
 232              		.loc 1 128 1 view .LVU71
 233              		.loc 1 128 26 is_stmt 0 view .LVU72
 234 0004 BC22     		movs	r2, #188
 235 0006 0021     		movs	r1, #0
 236 0008 01A8     		add	r0, sp, #4
 237 000a FFF7FEFF 		bl	memset
 238              	.LVL7:
 129:../../../init/terminal/init.c **** 
 130:../../../init/terminal/init.c **** /* Initializes the peripherals clock */
 131:../../../init/terminal/init.c **** PeriphClkInitStruct.PeriphClockSelection = RCC_PERIPHCLK_SDMMC |
 239              		.loc 1 131 1 is_stmt 1 view .LVU73
 240              		.loc 1 131 42 is_stmt 0 view .LVU74
 241 000e 4FF48833 		mov	r3, #69632
 242 0012 0193     		str	r3, [sp, #4]
 132:../../../init/terminal/init.c ****                                            RCC_PERIPHCLK_SPI2;
 133:../../../init/terminal/init.c **** PeriphClkInitStruct.PLL2.PLL2M           = 2;
 243              		.loc 1 133 1 is_stmt 1 view .LVU75
 244              		.loc 1 133 42 is_stmt 0 view .LVU76
 245 0014 0223     		movs	r3, #2
 246 0016 0293     		str	r3, [sp, #8]
 134:../../../init/terminal/init.c **** PeriphClkInitStruct.PLL2.PLL2N           = 16;
 247              		.loc 1 134 1 is_stmt 1 view .LVU77
 248              		.loc 1 134 42 is_stmt 0 view .LVU78
 249 0018 1022     		movs	r2, #16
 250 001a 0392     		str	r2, [sp, #12]
 135:../../../init/terminal/init.c **** PeriphClkInitStruct.PLL2.PLL2P           = 2;
 251              		.loc 1 135 1 is_stmt 1 view .LVU79
 252              		.loc 1 135 42 is_stmt 0 view .LVU80
 253 001c 0493     		str	r3, [sp, #16]
 136:../../../init/terminal/init.c **** PeriphClkInitStruct.PLL2.PLL2Q           = 2;
 254              		.loc 1 136 1 is_stmt 1 view .LVU81
 255              		.loc 1 136 42 is_stmt 0 view .LVU82
 256 001e 0593     		str	r3, [sp, #20]
 137:../../../init/terminal/init.c **** PeriphClkInitStruct.PLL2.PLL2R           = 2;
 257              		.loc 1 137 1 is_stmt 1 view .LVU83
 258              		.loc 1 137 42 is_stmt 0 view .LVU84
 259 0020 0693     		str	r3, [sp, #24]
 138:../../../init/terminal/init.c **** PeriphClkInitStruct.PLL2.PLL2RGE         = RCC_PLL2VCIRANGE_3;
ARM GAS  C:\Users\tnguy\AppData\Local\Temp\ccYIihLb.s 			page 8


 260              		.loc 1 138 1 is_stmt 1 view .LVU85
 261              		.loc 1 138 42 is_stmt 0 view .LVU86
 262 0022 C023     		movs	r3, #192
 263 0024 0793     		str	r3, [sp, #28]
 139:../../../init/terminal/init.c **** PeriphClkInitStruct.PLL2.PLL2VCOSEL      = RCC_PLL2VCOWIDE;
 264              		.loc 1 139 1 is_stmt 1 view .LVU87
 140:../../../init/terminal/init.c **** PeriphClkInitStruct.PLL2.PLL2FRACN       = 0;
 265              		.loc 1 140 1 view .LVU88
 141:../../../init/terminal/init.c **** PeriphClkInitStruct.SdmmcClockSelection  = RCC_SDMMCCLKSOURCE_PLL2;
 266              		.loc 1 141 1 view .LVU89
 267              		.loc 1 141 42 is_stmt 0 view .LVU90
 268 0026 4FF48033 		mov	r3, #65536
 269 002a 1493     		str	r3, [sp, #80]
 142:../../../init/terminal/init.c **** PeriphClkInitStruct.Spi123ClockSelection = RCC_SPI123CLKSOURCE_PLL2;
 270              		.loc 1 142 1 is_stmt 1 view .LVU91
 271              		.loc 1 142 42 is_stmt 0 view .LVU92
 272 002c 4FF48053 		mov	r3, #4096
 273 0030 1893     		str	r3, [sp, #96]
 143:../../../init/terminal/init.c **** if ( HAL_RCCEx_PeriphCLKConfig( &PeriphClkInitStruct ) != HAL_OK )
 274              		.loc 1 143 1 is_stmt 1 view .LVU93
 275              		.loc 1 143 6 is_stmt 0 view .LVU94
 276 0032 01A8     		add	r0, sp, #4
 277 0034 FFF7FEFF 		bl	HAL_RCCEx_PeriphCLKConfig
 278              	.LVL8:
 279              		.loc 1 143 4 view .LVU95
 280 0038 10B9     		cbnz	r0, .L13
 281              	.L10:
 144:../../../init/terminal/init.c **** 	{
 145:../../../init/terminal/init.c **** 	Error_Handler();
 146:../../../init/terminal/init.c **** 	}
 147:../../../init/terminal/init.c **** } /* PeriphCommonClock_Config */
 282              		.loc 1 147 1 view .LVU96
 283 003a 31B0     		add	sp, sp, #196
 284              	.LCFI6:
 285              		.cfi_remember_state
 286              		.cfi_def_cfa_offset 4
 287              		@ sp needed
 288 003c 5DF804FB 		ldr	pc, [sp], #4
 289              	.L13:
 290              	.LCFI7:
 291              		.cfi_restore_state
 145:../../../init/terminal/init.c **** 	}
 292              		.loc 1 145 2 is_stmt 1 view .LVU97
 293 0040 FFF7FEFF 		bl	Error_Handler
 294              	.LVL9:
 295              		.loc 1 147 1 is_stmt 0 view .LVU98
 296 0044 F9E7     		b	.L10
 297              		.cfi_endproc
 298              	.LFE145:
 300              		.section	.text.IMU_GPS_I2C_Init,"ax",%progbits
 301              		.align	1
 302              		.global	IMU_GPS_I2C_Init
 303              		.syntax unified
 304              		.thumb
 305              		.thumb_func
 307              	IMU_GPS_I2C_Init:
 308              	.LFB146:
ARM GAS  C:\Users\tnguy\AppData\Local\Temp\ccYIihLb.s 			page 9


 148:../../../init/terminal/init.c **** 
 149:../../../init/terminal/init.c **** 
 150:../../../init/terminal/init.c **** /*******************************************************************************
 151:../../../init/terminal/init.c **** *                                                                              *
 152:../../../init/terminal/init.c **** * PROCEDURE:                                                                   *
 153:../../../init/terminal/init.c **** * 		IMU_GPS_I2C_Init                                                       *
 154:../../../init/terminal/init.c **** *                                                                              *
 155:../../../init/terminal/init.c **** * DESCRIPTION:                                                                 *
 156:../../../init/terminal/init.c **** * 		Initializes the microcontroller I2C Interface for the IMU and GPS      *
 157:../../../init/terminal/init.c **** *                                                                              *
 158:../../../init/terminal/init.c **** *******************************************************************************/
 159:../../../init/terminal/init.c **** void IMU_GPS_I2C_Init
 160:../../../init/terminal/init.c **** 	(
 161:../../../init/terminal/init.c **** 	void
 162:../../../init/terminal/init.c **** 	)
 163:../../../init/terminal/init.c **** {
 309              		.loc 1 163 1 is_stmt 1 view -0
 310              		.cfi_startproc
 311              		@ args = 0, pretend = 0, frame = 0
 312              		@ frame_needed = 0, uses_anonymous_args = 0
 313 0000 08B5     		push	{r3, lr}
 314              	.LCFI8:
 315              		.cfi_def_cfa_offset 8
 316              		.cfi_offset 3, -8
 317              		.cfi_offset 14, -4
 164:../../../init/terminal/init.c **** 
 165:../../../init/terminal/init.c **** /* I2C configuration settings */
 166:../../../init/terminal/init.c **** hi2c2.Instance              = I2C2;
 318              		.loc 1 166 1 view .LVU100
 319              		.loc 1 166 29 is_stmt 0 view .LVU101
 320 0002 1548     		ldr	r0, .L22
 321 0004 154B     		ldr	r3, .L22+4
 322 0006 0360     		str	r3, [r0]
 167:../../../init/terminal/init.c **** hi2c2.Init.Timing           = 0x307075B1;
 323              		.loc 1 167 1 is_stmt 1 view .LVU102
 324              		.loc 1 167 29 is_stmt 0 view .LVU103
 325 0008 A3F17863 		sub	r3, r3, #260046848
 326 000c A3F57E23 		sub	r3, r3, #1040384
 327 0010 A3F24F23 		subw	r3, r3, #591
 328 0014 4360     		str	r3, [r0, #4]
 168:../../../init/terminal/init.c **** hi2c2.Init.OwnAddress1      = 0;
 329              		.loc 1 168 1 is_stmt 1 view .LVU104
 330              		.loc 1 168 29 is_stmt 0 view .LVU105
 331 0016 0023     		movs	r3, #0
 332 0018 8360     		str	r3, [r0, #8]
 169:../../../init/terminal/init.c **** hi2c2.Init.AddressingMode   = I2C_ADDRESSINGMODE_7BIT;
 333              		.loc 1 169 1 is_stmt 1 view .LVU106
 334              		.loc 1 169 29 is_stmt 0 view .LVU107
 335 001a 0122     		movs	r2, #1
 336 001c C260     		str	r2, [r0, #12]
 170:../../../init/terminal/init.c **** hi2c2.Init.DualAddressMode  = I2C_DUALADDRESS_DISABLE;
 337              		.loc 1 170 1 is_stmt 1 view .LVU108
 338              		.loc 1 170 29 is_stmt 0 view .LVU109
 339 001e 0361     		str	r3, [r0, #16]
 171:../../../init/terminal/init.c **** hi2c2.Init.OwnAddress2      = 0;
 340              		.loc 1 171 1 is_stmt 1 view .LVU110
 341              		.loc 1 171 29 is_stmt 0 view .LVU111
ARM GAS  C:\Users\tnguy\AppData\Local\Temp\ccYIihLb.s 			page 10


 342 0020 4361     		str	r3, [r0, #20]
 172:../../../init/terminal/init.c **** hi2c2.Init.OwnAddress2Masks = I2C_OA2_NOMASK;
 343              		.loc 1 172 1 is_stmt 1 view .LVU112
 344              		.loc 1 172 29 is_stmt 0 view .LVU113
 345 0022 8361     		str	r3, [r0, #24]
 173:../../../init/terminal/init.c **** hi2c2.Init.GeneralCallMode  = I2C_GENERALCALL_DISABLE;
 346              		.loc 1 173 1 is_stmt 1 view .LVU114
 347              		.loc 1 173 29 is_stmt 0 view .LVU115
 348 0024 C361     		str	r3, [r0, #28]
 174:../../../init/terminal/init.c **** hi2c2.Init.NoStretchMode    = I2C_NOSTRETCH_DISABLE;
 349              		.loc 1 174 1 is_stmt 1 view .LVU116
 350              		.loc 1 174 29 is_stmt 0 view .LVU117
 351 0026 0362     		str	r3, [r0, #32]
 175:../../../init/terminal/init.c **** 
 176:../../../init/terminal/init.c **** /* Apply settings */
 177:../../../init/terminal/init.c **** if (HAL_I2C_Init(&hi2c2) != HAL_OK)
 352              		.loc 1 177 1 is_stmt 1 view .LVU118
 353              		.loc 1 177 5 is_stmt 0 view .LVU119
 354 0028 FFF7FEFF 		bl	HAL_I2C_Init
 355              	.LVL10:
 356              		.loc 1 177 4 view .LVU120
 357 002c 50B9     		cbnz	r0, .L19
 358              	.L15:
 178:../../../init/terminal/init.c **** 	{
 179:../../../init/terminal/init.c **** 	Error_Handler();
 180:../../../init/terminal/init.c **** 	}
 181:../../../init/terminal/init.c **** 
 182:../../../init/terminal/init.c **** /* Configure Analogue filter */
 183:../../../init/terminal/init.c **** if (HAL_I2CEx_ConfigAnalogFilter(&hi2c2, I2C_ANALOGFILTER_ENABLE) != HAL_OK)
 359              		.loc 1 183 1 is_stmt 1 view .LVU121
 360              		.loc 1 183 5 is_stmt 0 view .LVU122
 361 002e 0021     		movs	r1, #0
 362 0030 0948     		ldr	r0, .L22
 363 0032 FFF7FEFF 		bl	HAL_I2CEx_ConfigAnalogFilter
 364              	.LVL11:
 365              		.loc 1 183 4 view .LVU123
 366 0036 40B9     		cbnz	r0, .L20
 367              	.L16:
 184:../../../init/terminal/init.c **** 	{
 185:../../../init/terminal/init.c **** 	Error_Handler();
 186:../../../init/terminal/init.c **** 	}
 187:../../../init/terminal/init.c **** 
 188:../../../init/terminal/init.c **** /* Configure Digital filter */
 189:../../../init/terminal/init.c **** if (HAL_I2CEx_ConfigDigitalFilter(&hi2c2, 0) != HAL_OK)
 368              		.loc 1 189 1 is_stmt 1 view .LVU124
 369              		.loc 1 189 5 is_stmt 0 view .LVU125
 370 0038 0021     		movs	r1, #0
 371 003a 0748     		ldr	r0, .L22
 372 003c FFF7FEFF 		bl	HAL_I2CEx_ConfigDigitalFilter
 373              	.LVL12:
 374              		.loc 1 189 4 view .LVU126
 375 0040 30B9     		cbnz	r0, .L21
 376              	.L14:
 190:../../../init/terminal/init.c **** 	{
 191:../../../init/terminal/init.c **** 	Error_Handler();
 192:../../../init/terminal/init.c **** 	}
 193:../../../init/terminal/init.c **** 
ARM GAS  C:\Users\tnguy\AppData\Local\Temp\ccYIihLb.s 			page 11


 194:../../../init/terminal/init.c **** } /* IMU_GPS_I2C_Init */
 377              		.loc 1 194 1 view .LVU127
 378 0042 08BD     		pop	{r3, pc}
 379              	.L19:
 179:../../../init/terminal/init.c **** 	}
 380              		.loc 1 179 2 is_stmt 1 view .LVU128
 381 0044 FFF7FEFF 		bl	Error_Handler
 382              	.LVL13:
 383 0048 F1E7     		b	.L15
 384              	.L20:
 185:../../../init/terminal/init.c **** 	}
 385              		.loc 1 185 2 view .LVU129
 386 004a FFF7FEFF 		bl	Error_Handler
 387              	.LVL14:
 388 004e F3E7     		b	.L16
 389              	.L21:
 191:../../../init/terminal/init.c **** 	}
 390              		.loc 1 191 2 view .LVU130
 391 0050 FFF7FEFF 		bl	Error_Handler
 392              	.LVL15:
 393              		.loc 1 194 1 is_stmt 0 view .LVU131
 394 0054 F5E7     		b	.L14
 395              	.L23:
 396 0056 00BF     		.align	2
 397              	.L22:
 398 0058 00000000 		.word	hi2c2
 399 005c 00580040 		.word	1073764352
 400              		.cfi_endproc
 401              	.LFE146:
 403              		.section	.text.Baro_I2C_Init,"ax",%progbits
 404              		.align	1
 405              		.global	Baro_I2C_Init
 406              		.syntax unified
 407              		.thumb
 408              		.thumb_func
 410              	Baro_I2C_Init:
 411              	.LFB147:
 195:../../../init/terminal/init.c **** 
 196:../../../init/terminal/init.c **** 
 197:../../../init/terminal/init.c **** /*******************************************************************************
 198:../../../init/terminal/init.c **** *                                                                              *
 199:../../../init/terminal/init.c **** * PROCEDURE:                                                                   * 
 200:../../../init/terminal/init.c **** * 		Baro_I2C_Config                                                        *
 201:../../../init/terminal/init.c **** *                                                                              *
 202:../../../init/terminal/init.c **** * DESCRIPTION:                                                                 * 
 203:../../../init/terminal/init.c **** * 		Initializes the microcontroller I2C Interface for the barometric       *
 204:../../../init/terminal/init.c **** *       pressure sensor                                                        *
 205:../../../init/terminal/init.c **** *                                                                              *
 206:../../../init/terminal/init.c **** *******************************************************************************/
 207:../../../init/terminal/init.c **** void Baro_I2C_Init
 208:../../../init/terminal/init.c **** 	(
 209:../../../init/terminal/init.c **** 	void
 210:../../../init/terminal/init.c **** 	)
 211:../../../init/terminal/init.c **** {
 412              		.loc 1 211 1 is_stmt 1 view -0
 413              		.cfi_startproc
 414              		@ args = 0, pretend = 0, frame = 0
ARM GAS  C:\Users\tnguy\AppData\Local\Temp\ccYIihLb.s 			page 12


 415              		@ frame_needed = 0, uses_anonymous_args = 0
 416 0000 08B5     		push	{r3, lr}
 417              	.LCFI9:
 418              		.cfi_def_cfa_offset 8
 419              		.cfi_offset 3, -8
 420              		.cfi_offset 14, -4
 212:../../../init/terminal/init.c **** 
 213:../../../init/terminal/init.c **** /* I2C Settings */
 214:../../../init/terminal/init.c **** hi2c1.Instance              = I2C1;
 421              		.loc 1 214 1 view .LVU133
 422              		.loc 1 214 29 is_stmt 0 view .LVU134
 423 0002 1548     		ldr	r0, .L32
 424 0004 154B     		ldr	r3, .L32+4
 425 0006 0360     		str	r3, [r0]
 215:../../../init/terminal/init.c **** hi2c1.Init.Timing           = 0x307075B1;
 426              		.loc 1 215 1 is_stmt 1 view .LVU135
 427              		.loc 1 215 29 is_stmt 0 view .LVU136
 428 0008 A3F17863 		sub	r3, r3, #260046848
 429 000c A3F57D23 		sub	r3, r3, #1036288
 430 0010 A3F64F63 		subw	r3, r3, #3663
 431 0014 4360     		str	r3, [r0, #4]
 216:../../../init/terminal/init.c **** hi2c1.Init.OwnAddress1      = 0;
 432              		.loc 1 216 1 is_stmt 1 view .LVU137
 433              		.loc 1 216 29 is_stmt 0 view .LVU138
 434 0016 0023     		movs	r3, #0
 435 0018 8360     		str	r3, [r0, #8]
 217:../../../init/terminal/init.c **** hi2c1.Init.AddressingMode   = I2C_ADDRESSINGMODE_7BIT;
 436              		.loc 1 217 1 is_stmt 1 view .LVU139
 437              		.loc 1 217 29 is_stmt 0 view .LVU140
 438 001a 0122     		movs	r2, #1
 439 001c C260     		str	r2, [r0, #12]
 218:../../../init/terminal/init.c **** hi2c1.Init.DualAddressMode  = I2C_DUALADDRESS_DISABLE;
 440              		.loc 1 218 1 is_stmt 1 view .LVU141
 441              		.loc 1 218 29 is_stmt 0 view .LVU142
 442 001e 0361     		str	r3, [r0, #16]
 219:../../../init/terminal/init.c **** hi2c1.Init.OwnAddress2      = 0;
 443              		.loc 1 219 1 is_stmt 1 view .LVU143
 444              		.loc 1 219 29 is_stmt 0 view .LVU144
 445 0020 4361     		str	r3, [r0, #20]
 220:../../../init/terminal/init.c **** hi2c1.Init.OwnAddress2Masks = I2C_OA2_NOMASK;
 446              		.loc 1 220 1 is_stmt 1 view .LVU145
 447              		.loc 1 220 29 is_stmt 0 view .LVU146
 448 0022 8361     		str	r3, [r0, #24]
 221:../../../init/terminal/init.c **** hi2c1.Init.GeneralCallMode  = I2C_GENERALCALL_DISABLE;
 449              		.loc 1 221 1 is_stmt 1 view .LVU147
 450              		.loc 1 221 29 is_stmt 0 view .LVU148
 451 0024 C361     		str	r3, [r0, #28]
 222:../../../init/terminal/init.c **** hi2c1.Init.NoStretchMode    = I2C_NOSTRETCH_DISABLE;
 452              		.loc 1 222 1 is_stmt 1 view .LVU149
 453              		.loc 1 222 29 is_stmt 0 view .LVU150
 454 0026 0362     		str	r3, [r0, #32]
 223:../../../init/terminal/init.c **** 
 224:../../../init/terminal/init.c **** /* Apply Settings */
 225:../../../init/terminal/init.c **** if ( HAL_I2C_Init(&hi2c1) != HAL_OK )
 455              		.loc 1 225 1 is_stmt 1 view .LVU151
 456              		.loc 1 225 6 is_stmt 0 view .LVU152
 457 0028 FFF7FEFF 		bl	HAL_I2C_Init
ARM GAS  C:\Users\tnguy\AppData\Local\Temp\ccYIihLb.s 			page 13


 458              	.LVL16:
 459              		.loc 1 225 4 view .LVU153
 460 002c 50B9     		cbnz	r0, .L29
 461              	.L25:
 226:../../../init/terminal/init.c **** 	{
 227:../../../init/terminal/init.c **** 	Error_Handler();
 228:../../../init/terminal/init.c **** 	}
 229:../../../init/terminal/init.c **** 
 230:../../../init/terminal/init.c **** /* Configure Analogue filter */
 231:../../../init/terminal/init.c **** if ( HAL_I2CEx_ConfigAnalogFilter(&hi2c1, I2C_ANALOGFILTER_ENABLE) != HAL_OK )
 462              		.loc 1 231 1 is_stmt 1 view .LVU154
 463              		.loc 1 231 6 is_stmt 0 view .LVU155
 464 002e 0021     		movs	r1, #0
 465 0030 0948     		ldr	r0, .L32
 466 0032 FFF7FEFF 		bl	HAL_I2CEx_ConfigAnalogFilter
 467              	.LVL17:
 468              		.loc 1 231 4 view .LVU156
 469 0036 40B9     		cbnz	r0, .L30
 470              	.L26:
 232:../../../init/terminal/init.c **** 	{
 233:../../../init/terminal/init.c **** 	Error_Handler();
 234:../../../init/terminal/init.c **** 	}
 235:../../../init/terminal/init.c **** 
 236:../../../init/terminal/init.c **** /* Configure Digital filter */
 237:../../../init/terminal/init.c **** if ( HAL_I2CEx_ConfigDigitalFilter(&hi2c1, 0) != HAL_OK )
 471              		.loc 1 237 1 is_stmt 1 view .LVU157
 472              		.loc 1 237 6 is_stmt 0 view .LVU158
 473 0038 0021     		movs	r1, #0
 474 003a 0748     		ldr	r0, .L32
 475 003c FFF7FEFF 		bl	HAL_I2CEx_ConfigDigitalFilter
 476              	.LVL18:
 477              		.loc 1 237 4 view .LVU159
 478 0040 30B9     		cbnz	r0, .L31
 479              	.L24:
 238:../../../init/terminal/init.c **** 	{
 239:../../../init/terminal/init.c **** 	Error_Handler();
 240:../../../init/terminal/init.c **** 	}
 241:../../../init/terminal/init.c **** 
 242:../../../init/terminal/init.c **** } /* Baro_I2C_Init */
 480              		.loc 1 242 1 view .LVU160
 481 0042 08BD     		pop	{r3, pc}
 482              	.L29:
 227:../../../init/terminal/init.c **** 	}
 483              		.loc 1 227 2 is_stmt 1 view .LVU161
 484 0044 FFF7FEFF 		bl	Error_Handler
 485              	.LVL19:
 486 0048 F1E7     		b	.L25
 487              	.L30:
 233:../../../init/terminal/init.c **** 	}
 488              		.loc 1 233 2 view .LVU162
 489 004a FFF7FEFF 		bl	Error_Handler
 490              	.LVL20:
 491 004e F3E7     		b	.L26
 492              	.L31:
 239:../../../init/terminal/init.c **** 	}
 493              		.loc 1 239 2 view .LVU163
 494 0050 FFF7FEFF 		bl	Error_Handler
ARM GAS  C:\Users\tnguy\AppData\Local\Temp\ccYIihLb.s 			page 14


 495              	.LVL21:
 496              		.loc 1 242 1 is_stmt 0 view .LVU164
 497 0054 F5E7     		b	.L24
 498              	.L33:
 499 0056 00BF     		.align	2
 500              	.L32:
 501 0058 00000000 		.word	hi2c1
 502 005c 00540040 		.word	1073763328
 503              		.cfi_endproc
 504              	.LFE147:
 506              		.section	.text.SD_SDMMC_Init,"ax",%progbits
 507              		.align	1
 508              		.global	SD_SDMMC_Init
 509              		.syntax unified
 510              		.thumb
 511              		.thumb_func
 513              	SD_SDMMC_Init:
 514              	.LFB148:
 243:../../../init/terminal/init.c **** 
 244:../../../init/terminal/init.c **** 
 245:../../../init/terminal/init.c **** /*******************************************************************************
 246:../../../init/terminal/init.c **** *                                                                              *
 247:../../../init/terminal/init.c **** * PROCEDURE NAME:                                                              *
 248:../../../init/terminal/init.c **** * 		SD_SDMMC_Init                                                          *
 249:../../../init/terminal/init.c **** *                                                                              *
 250:../../../init/terminal/init.c **** * DESCRIPTION:                                                                 *
 251:../../../init/terminal/init.c **** * 		Initializes the SDMMC interface used for communication with the SD     *
 252:../../../init/terminal/init.c **** *       card                                                                   *
 253:../../../init/terminal/init.c **** *                                                                              *
 254:../../../init/terminal/init.c **** *******************************************************************************/
 255:../../../init/terminal/init.c **** void SD_SDMMC_Init
 256:../../../init/terminal/init.c **** 	(
 257:../../../init/terminal/init.c **** 	void
 258:../../../init/terminal/init.c **** 	)
 259:../../../init/terminal/init.c **** {
 515              		.loc 1 259 1 is_stmt 1 view -0
 516              		.cfi_startproc
 517              		@ args = 0, pretend = 0, frame = 0
 518              		@ frame_needed = 0, uses_anonymous_args = 0
 519              		@ link register save eliminated.
 260:../../../init/terminal/init.c **** hsd1.Instance                 = SDMMC1;
 520              		.loc 1 260 1 view .LVU166
 521              		.loc 1 260 31 is_stmt 0 view .LVU167
 522 0000 064B     		ldr	r3, .L35
 523 0002 074A     		ldr	r2, .L35+4
 524 0004 1A60     		str	r2, [r3]
 261:../../../init/terminal/init.c **** hsd1.Init.ClockEdge           = SDMMC_CLOCK_EDGE_RISING;
 525              		.loc 1 261 1 is_stmt 1 view .LVU168
 526              		.loc 1 261 31 is_stmt 0 view .LVU169
 527 0006 0022     		movs	r2, #0
 528 0008 5A60     		str	r2, [r3, #4]
 262:../../../init/terminal/init.c **** hsd1.Init.ClockPowerSave      = SDMMC_CLOCK_POWER_SAVE_DISABLE;
 529              		.loc 1 262 1 is_stmt 1 view .LVU170
 530              		.loc 1 262 31 is_stmt 0 view .LVU171
 531 000a 9A60     		str	r2, [r3, #8]
 263:../../../init/terminal/init.c **** hsd1.Init.BusWide             = SDMMC_BUS_WIDE_4B;
 532              		.loc 1 263 1 is_stmt 1 view .LVU172
ARM GAS  C:\Users\tnguy\AppData\Local\Temp\ccYIihLb.s 			page 15


 533              		.loc 1 263 31 is_stmt 0 view .LVU173
 534 000c 4FF48041 		mov	r1, #16384
 535 0010 D960     		str	r1, [r3, #12]
 264:../../../init/terminal/init.c **** hsd1.Init.HardwareFlowControl = SDMMC_HARDWARE_FLOW_CONTROL_DISABLE;
 536              		.loc 1 264 1 is_stmt 1 view .LVU174
 537              		.loc 1 264 31 is_stmt 0 view .LVU175
 538 0012 1A61     		str	r2, [r3, #16]
 265:../../../init/terminal/init.c **** hsd1.Init.ClockDiv            = 2;
 539              		.loc 1 265 1 is_stmt 1 view .LVU176
 540              		.loc 1 265 31 is_stmt 0 view .LVU177
 541 0014 0222     		movs	r2, #2
 542 0016 5A61     		str	r2, [r3, #20]
 266:../../../init/terminal/init.c **** } /* SD_SDMMC_Init */
 543              		.loc 1 266 1 view .LVU178
 544 0018 7047     		bx	lr
 545              	.L36:
 546 001a 00BF     		.align	2
 547              	.L35:
 548 001c 00000000 		.word	hsd1
 549 0020 00700052 		.word	1375760384
 550              		.cfi_endproc
 551              	.LFE148:
 553              		.section	.text.FLASH_SPI_Init,"ax",%progbits
 554              		.align	1
 555              		.global	FLASH_SPI_Init
 556              		.syntax unified
 557              		.thumb
 558              		.thumb_func
 560              	FLASH_SPI_Init:
 561              	.LFB149:
 267:../../../init/terminal/init.c **** 
 268:../../../init/terminal/init.c **** 
 269:../../../init/terminal/init.c **** /*******************************************************************************
 270:../../../init/terminal/init.c **** *                                                                              *
 271:../../../init/terminal/init.c **** * PROCEDURE NAME:                                                              *
 272:../../../init/terminal/init.c **** * 		FLASH_SPI_Init                                                         *
 273:../../../init/terminal/init.c **** *                                                                              *
 274:../../../init/terminal/init.c **** * DESCRIPTION:                                                                 *
 275:../../../init/terminal/init.c **** * 		Initializes the SPI interface used for communication with the external *
 276:../../../init/terminal/init.c **** *       flash chip                                                             *
 277:../../../init/terminal/init.c **** *                                                                              *
 278:../../../init/terminal/init.c **** *******************************************************************************/
 279:../../../init/terminal/init.c **** void FLASH_SPI_Init
 280:../../../init/terminal/init.c **** 	(
 281:../../../init/terminal/init.c **** 	void
 282:../../../init/terminal/init.c **** 	)
 283:../../../init/terminal/init.c **** {
 562              		.loc 1 283 1 is_stmt 1 view -0
 563              		.cfi_startproc
 564              		@ args = 0, pretend = 0, frame = 0
 565              		@ frame_needed = 0, uses_anonymous_args = 0
 566 0000 08B5     		push	{r3, lr}
 567              	.LCFI10:
 568              		.cfi_def_cfa_offset 8
 569              		.cfi_offset 3, -8
 570              		.cfi_offset 14, -4
 284:../../../init/terminal/init.c **** 
ARM GAS  C:\Users\tnguy\AppData\Local\Temp\ccYIihLb.s 			page 16


 285:../../../init/terminal/init.c **** /* SPI2 parameter configuration*/
 286:../../../init/terminal/init.c **** hspi2.Instance                        = SPI2;
 571              		.loc 1 286 1 view .LVU180
 572              		.loc 1 286 39 is_stmt 0 view .LVU181
 573 0002 1348     		ldr	r0, .L41
 574 0004 134B     		ldr	r3, .L41+4
 575 0006 0360     		str	r3, [r0]
 287:../../../init/terminal/init.c **** hspi2.Init.Mode                       = SPI_MODE_MASTER;
 576              		.loc 1 287 1 is_stmt 1 view .LVU182
 577              		.loc 1 287 39 is_stmt 0 view .LVU183
 578 0008 4FF48003 		mov	r3, #4194304
 579 000c 4360     		str	r3, [r0, #4]
 288:../../../init/terminal/init.c **** hspi2.Init.Direction                  = SPI_DIRECTION_2LINES;
 580              		.loc 1 288 1 is_stmt 1 view .LVU184
 581              		.loc 1 288 39 is_stmt 0 view .LVU185
 582 000e 0023     		movs	r3, #0
 583 0010 8360     		str	r3, [r0, #8]
 289:../../../init/terminal/init.c **** hspi2.Init.DataSize                   = SPI_DATASIZE_8BIT;
 584              		.loc 1 289 1 is_stmt 1 view .LVU186
 585              		.loc 1 289 39 is_stmt 0 view .LVU187
 586 0012 0722     		movs	r2, #7
 587 0014 C260     		str	r2, [r0, #12]
 290:../../../init/terminal/init.c **** hspi2.Init.CLKPolarity                = SPI_POLARITY_LOW;
 588              		.loc 1 290 1 is_stmt 1 view .LVU188
 589              		.loc 1 290 39 is_stmt 0 view .LVU189
 590 0016 0361     		str	r3, [r0, #16]
 291:../../../init/terminal/init.c **** hspi2.Init.CLKPhase                   = SPI_PHASE_1EDGE;
 591              		.loc 1 291 1 is_stmt 1 view .LVU190
 592              		.loc 1 291 39 is_stmt 0 view .LVU191
 593 0018 4361     		str	r3, [r0, #20]
 292:../../../init/terminal/init.c **** hspi2.Init.NSS                        = SPI_NSS_SOFT;
 594              		.loc 1 292 1 is_stmt 1 view .LVU192
 595              		.loc 1 292 39 is_stmt 0 view .LVU193
 596 001a 4FF08062 		mov	r2, #67108864
 597 001e 8261     		str	r2, [r0, #24]
 293:../../../init/terminal/init.c **** hspi2.Init.BaudRatePrescaler          = SPI_BAUDRATEPRESCALER_2;
 598              		.loc 1 293 1 is_stmt 1 view .LVU194
 599              		.loc 1 293 39 is_stmt 0 view .LVU195
 600 0020 C361     		str	r3, [r0, #28]
 294:../../../init/terminal/init.c **** hspi2.Init.FirstBit                   = SPI_FIRSTBIT_MSB;
 601              		.loc 1 294 1 is_stmt 1 view .LVU196
 602              		.loc 1 294 39 is_stmt 0 view .LVU197
 603 0022 0362     		str	r3, [r0, #32]
 295:../../../init/terminal/init.c **** hspi2.Init.TIMode                     = SPI_TIMODE_DISABLE;
 604              		.loc 1 295 1 is_stmt 1 view .LVU198
 605              		.loc 1 295 39 is_stmt 0 view .LVU199
 606 0024 4362     		str	r3, [r0, #36]
 296:../../../init/terminal/init.c **** hspi2.Init.CRCCalculation             = SPI_CRCCALCULATION_DISABLE;
 607              		.loc 1 296 1 is_stmt 1 view .LVU200
 608              		.loc 1 296 39 is_stmt 0 view .LVU201
 609 0026 8362     		str	r3, [r0, #40]
 297:../../../init/terminal/init.c **** hspi2.Init.CRCPolynomial              = 0x0;
 610              		.loc 1 297 1 is_stmt 1 view .LVU202
 611              		.loc 1 297 39 is_stmt 0 view .LVU203
 612 0028 C362     		str	r3, [r0, #44]
 298:../../../init/terminal/init.c **** hspi2.Init.NSSPMode                   = SPI_NSS_PULSE_ENABLE;
 613              		.loc 1 298 1 is_stmt 1 view .LVU204
ARM GAS  C:\Users\tnguy\AppData\Local\Temp\ccYIihLb.s 			page 17


 614              		.loc 1 298 39 is_stmt 0 view .LVU205
 615 002a 4FF08042 		mov	r2, #1073741824
 616 002e 4263     		str	r2, [r0, #52]
 299:../../../init/terminal/init.c **** hspi2.Init.NSSPolarity                = SPI_NSS_POLARITY_LOW;
 617              		.loc 1 299 1 is_stmt 1 view .LVU206
 618              		.loc 1 299 39 is_stmt 0 view .LVU207
 619 0030 8363     		str	r3, [r0, #56]
 300:../../../init/terminal/init.c **** hspi2.Init.FifoThreshold              = SPI_FIFO_THRESHOLD_01DATA;
 620              		.loc 1 300 1 is_stmt 1 view .LVU208
 621              		.loc 1 300 39 is_stmt 0 view .LVU209
 622 0032 C363     		str	r3, [r0, #60]
 301:../../../init/terminal/init.c **** hspi2.Init.TxCRCInitializationPattern = SPI_CRC_INITIALIZATION_ALL_ZERO_PATTERN;
 623              		.loc 1 301 1 is_stmt 1 view .LVU210
 624              		.loc 1 301 39 is_stmt 0 view .LVU211
 625 0034 0364     		str	r3, [r0, #64]
 302:../../../init/terminal/init.c **** hspi2.Init.RxCRCInitializationPattern = SPI_CRC_INITIALIZATION_ALL_ZERO_PATTERN;
 626              		.loc 1 302 1 is_stmt 1 view .LVU212
 627              		.loc 1 302 39 is_stmt 0 view .LVU213
 628 0036 4364     		str	r3, [r0, #68]
 303:../../../init/terminal/init.c **** hspi2.Init.MasterSSIdleness           = SPI_MASTER_SS_IDLENESS_00CYCLE;
 629              		.loc 1 303 1 is_stmt 1 view .LVU214
 630              		.loc 1 303 39 is_stmt 0 view .LVU215
 631 0038 8364     		str	r3, [r0, #72]
 304:../../../init/terminal/init.c **** hspi2.Init.MasterInterDataIdleness    = SPI_MASTER_INTERDATA_IDLENESS_00CYCLE;
 632              		.loc 1 304 1 is_stmt 1 view .LVU216
 633              		.loc 1 304 39 is_stmt 0 view .LVU217
 634 003a C364     		str	r3, [r0, #76]
 305:../../../init/terminal/init.c **** hspi2.Init.MasterReceiverAutoSusp     = SPI_MASTER_RX_AUTOSUSP_DISABLE;
 635              		.loc 1 305 1 is_stmt 1 view .LVU218
 636              		.loc 1 305 39 is_stmt 0 view .LVU219
 637 003c 0365     		str	r3, [r0, #80]
 306:../../../init/terminal/init.c **** hspi2.Init.MasterKeepIOState          = SPI_MASTER_KEEP_IO_STATE_DISABLE;
 638              		.loc 1 306 1 is_stmt 1 view .LVU220
 639              		.loc 1 306 39 is_stmt 0 view .LVU221
 640 003e 4365     		str	r3, [r0, #84]
 307:../../../init/terminal/init.c **** hspi2.Init.IOSwap                     = SPI_IO_SWAP_DISABLE;
 641              		.loc 1 307 1 is_stmt 1 view .LVU222
 642              		.loc 1 307 39 is_stmt 0 view .LVU223
 643 0040 8365     		str	r3, [r0, #88]
 308:../../../init/terminal/init.c **** 
 309:../../../init/terminal/init.c **** /* Initialize the peripheral */
 310:../../../init/terminal/init.c **** if (HAL_SPI_Init(&hspi2) != HAL_OK)
 644              		.loc 1 310 1 is_stmt 1 view .LVU224
 645              		.loc 1 310 5 is_stmt 0 view .LVU225
 646 0042 FFF7FEFF 		bl	HAL_SPI_Init
 647              	.LVL22:
 648              		.loc 1 310 4 view .LVU226
 649 0046 00B9     		cbnz	r0, .L40
 650              	.L37:
 311:../../../init/terminal/init.c **** 	{
 312:../../../init/terminal/init.c **** 	Error_Handler();
 313:../../../init/terminal/init.c **** 	}
 314:../../../init/terminal/init.c **** 
 315:../../../init/terminal/init.c **** } /* FLASH_SPI_Init */
 651              		.loc 1 315 1 view .LVU227
 652 0048 08BD     		pop	{r3, pc}
 653              	.L40:
ARM GAS  C:\Users\tnguy\AppData\Local\Temp\ccYIihLb.s 			page 18


 312:../../../init/terminal/init.c **** 	}
 654              		.loc 1 312 2 is_stmt 1 view .LVU228
 655 004a FFF7FEFF 		bl	Error_Handler
 656              	.LVL23:
 657              		.loc 1 315 1 is_stmt 0 view .LVU229
 658 004e FBE7     		b	.L37
 659              	.L42:
 660              		.align	2
 661              	.L41:
 662 0050 00000000 		.word	hspi2
 663 0054 00380040 		.word	1073756160
 664              		.cfi_endproc
 665              	.LFE149:
 667              		.section	.text.USB_UART_Init,"ax",%progbits
 668              		.align	1
 669              		.global	USB_UART_Init
 670              		.syntax unified
 671              		.thumb
 672              		.thumb_func
 674              	USB_UART_Init:
 675              	.LFB150:
 316:../../../init/terminal/init.c **** 
 317:../../../init/terminal/init.c **** 
 318:../../../init/terminal/init.c **** /*******************************************************************************
 319:../../../init/terminal/init.c **** *                                                                              *
 320:../../../init/terminal/init.c **** * PROCEDURE NAME:                                                              *
 321:../../../init/terminal/init.c **** * 		USB_UART_Init                                                          *
 322:../../../init/terminal/init.c **** *                                                                              *
 323:../../../init/terminal/init.c **** * DESCRIPTION:                                                                 *
 324:../../../init/terminal/init.c **** * 		Initializes the UART interface used for USB communication with a host  *
 325:../../../init/terminal/init.c **** *        PC                                                                    *
 326:../../../init/terminal/init.c **** *                                                                              *
 327:../../../init/terminal/init.c **** *******************************************************************************/
 328:../../../init/terminal/init.c **** void USB_UART_Init
 329:../../../init/terminal/init.c **** 	(
 330:../../../init/terminal/init.c **** 	void
 331:../../../init/terminal/init.c **** 	)
 332:../../../init/terminal/init.c **** {
 676              		.loc 1 332 1 is_stmt 1 view -0
 677              		.cfi_startproc
 678              		@ args = 0, pretend = 0, frame = 0
 679              		@ frame_needed = 0, uses_anonymous_args = 0
 680 0000 08B5     		push	{r3, lr}
 681              	.LCFI11:
 682              		.cfi_def_cfa_offset 8
 683              		.cfi_offset 3, -8
 684              		.cfi_offset 14, -4
 333:../../../init/terminal/init.c **** /* UART handler instance */
 334:../../../init/terminal/init.c **** huart6.Instance = USART6;
 685              		.loc 1 334 1 view .LVU231
 686              		.loc 1 334 17 is_stmt 0 view .LVU232
 687 0002 1748     		ldr	r0, .L53
 688 0004 174B     		ldr	r3, .L53+4
 689 0006 0360     		str	r3, [r0]
 335:../../../init/terminal/init.c **** 
 336:../../../init/terminal/init.c **** /* Initialization settings */
 337:../../../init/terminal/init.c **** huart6.Init.BaudRate               = 921600;
ARM GAS  C:\Users\tnguy\AppData\Local\Temp\ccYIihLb.s 			page 19


 690              		.loc 1 337 1 is_stmt 1 view .LVU233
 691              		.loc 1 337 36 is_stmt 0 view .LVU234
 692 0008 4FF46123 		mov	r3, #921600
 693 000c 4360     		str	r3, [r0, #4]
 338:../../../init/terminal/init.c **** huart6.Init.WordLength             = UART_WORDLENGTH_8B;
 694              		.loc 1 338 1 is_stmt 1 view .LVU235
 695              		.loc 1 338 36 is_stmt 0 view .LVU236
 696 000e 0023     		movs	r3, #0
 697 0010 8360     		str	r3, [r0, #8]
 339:../../../init/terminal/init.c **** huart6.Init.StopBits               = UART_STOPBITS_1;
 698              		.loc 1 339 1 is_stmt 1 view .LVU237
 699              		.loc 1 339 36 is_stmt 0 view .LVU238
 700 0012 C360     		str	r3, [r0, #12]
 340:../../../init/terminal/init.c **** huart6.Init.Parity                 = UART_PARITY_NONE;
 701              		.loc 1 340 1 is_stmt 1 view .LVU239
 702              		.loc 1 340 36 is_stmt 0 view .LVU240
 703 0014 0361     		str	r3, [r0, #16]
 341:../../../init/terminal/init.c **** huart6.Init.Mode                   = UART_MODE_TX_RX;
 704              		.loc 1 341 1 is_stmt 1 view .LVU241
 705              		.loc 1 341 36 is_stmt 0 view .LVU242
 706 0016 0C22     		movs	r2, #12
 707 0018 4261     		str	r2, [r0, #20]
 342:../../../init/terminal/init.c **** huart6.Init.HwFlowCtl              = UART_HWCONTROL_NONE;
 708              		.loc 1 342 1 is_stmt 1 view .LVU243
 709              		.loc 1 342 36 is_stmt 0 view .LVU244
 710 001a 8361     		str	r3, [r0, #24]
 343:../../../init/terminal/init.c **** huart6.Init.OverSampling           = UART_OVERSAMPLING_16;
 711              		.loc 1 343 1 is_stmt 1 view .LVU245
 712              		.loc 1 343 36 is_stmt 0 view .LVU246
 713 001c C361     		str	r3, [r0, #28]
 344:../../../init/terminal/init.c **** huart6.Init.OneBitSampling         = UART_ONE_BIT_SAMPLE_DISABLE;
 714              		.loc 1 344 1 is_stmt 1 view .LVU247
 715              		.loc 1 344 36 is_stmt 0 view .LVU248
 716 001e 0362     		str	r3, [r0, #32]
 345:../../../init/terminal/init.c **** huart6.Init.ClockPrescaler         = UART_PRESCALER_DIV1;
 717              		.loc 1 345 1 is_stmt 1 view .LVU249
 718              		.loc 1 345 36 is_stmt 0 view .LVU250
 719 0020 4362     		str	r3, [r0, #36]
 346:../../../init/terminal/init.c **** huart6.AdvancedInit.AdvFeatureInit = UART_ADVFEATURE_NO_INIT;
 720              		.loc 1 346 1 is_stmt 1 view .LVU251
 721              		.loc 1 346 36 is_stmt 0 view .LVU252
 722 0022 8362     		str	r3, [r0, #40]
 347:../../../init/terminal/init.c **** 
 348:../../../init/terminal/init.c **** /* Write to registers and call error handler if initialization fails */
 349:../../../init/terminal/init.c **** if (HAL_UART_Init(&huart6) != HAL_OK)
 723              		.loc 1 349 1 is_stmt 1 view .LVU253
 724              		.loc 1 349 5 is_stmt 0 view .LVU254
 725 0024 FFF7FEFF 		bl	HAL_UART_Init
 726              	.LVL24:
 727              		.loc 1 349 4 view .LVU255
 728 0028 70B9     		cbnz	r0, .L49
 729              	.L44:
 350:../../../init/terminal/init.c **** 	{
 351:../../../init/terminal/init.c **** 	Error_Handler();
 352:../../../init/terminal/init.c **** 	}
 353:../../../init/terminal/init.c **** if (HAL_UARTEx_SetTxFifoThreshold(&huart6, UART_TXFIFO_THRESHOLD_1_8) != HAL_OK)
 730              		.loc 1 353 1 is_stmt 1 view .LVU256
ARM GAS  C:\Users\tnguy\AppData\Local\Temp\ccYIihLb.s 			page 20


 731              		.loc 1 353 5 is_stmt 0 view .LVU257
 732 002a 0021     		movs	r1, #0
 733 002c 0C48     		ldr	r0, .L53
 734 002e FFF7FEFF 		bl	HAL_UARTEx_SetTxFifoThreshold
 735              	.LVL25:
 736              		.loc 1 353 4 view .LVU258
 737 0032 60B9     		cbnz	r0, .L50
 738              	.L45:
 354:../../../init/terminal/init.c **** 	{
 355:../../../init/terminal/init.c **** 	Error_Handler();
 356:../../../init/terminal/init.c **** 	}
 357:../../../init/terminal/init.c **** if (HAL_UARTEx_SetRxFifoThreshold(&huart6, UART_RXFIFO_THRESHOLD_1_8) != HAL_OK)
 739              		.loc 1 357 1 is_stmt 1 view .LVU259
 740              		.loc 1 357 5 is_stmt 0 view .LVU260
 741 0034 0021     		movs	r1, #0
 742 0036 0A48     		ldr	r0, .L53
 743 0038 FFF7FEFF 		bl	HAL_UARTEx_SetRxFifoThreshold
 744              	.LVL26:
 745              		.loc 1 357 4 view .LVU261
 746 003c 50B9     		cbnz	r0, .L51
 747              	.L46:
 358:../../../init/terminal/init.c **** 	{
 359:../../../init/terminal/init.c **** 	Error_Handler();
 360:../../../init/terminal/init.c **** 	}
 361:../../../init/terminal/init.c **** if (HAL_UARTEx_DisableFifoMode(&huart6) != HAL_OK)
 748              		.loc 1 361 1 is_stmt 1 view .LVU262
 749              		.loc 1 361 5 is_stmt 0 view .LVU263
 750 003e 0848     		ldr	r0, .L53
 751 0040 FFF7FEFF 		bl	HAL_UARTEx_DisableFifoMode
 752              	.LVL27:
 753              		.loc 1 361 4 view .LVU264
 754 0044 48B9     		cbnz	r0, .L52
 755              	.L43:
 362:../../../init/terminal/init.c **** 	{
 363:../../../init/terminal/init.c **** 	Error_Handler();
 364:../../../init/terminal/init.c **** 	}
 365:../../../init/terminal/init.c **** } /* USB_UART_Init */
 756              		.loc 1 365 1 view .LVU265
 757 0046 08BD     		pop	{r3, pc}
 758              	.L49:
 351:../../../init/terminal/init.c **** 	}
 759              		.loc 1 351 2 is_stmt 1 view .LVU266
 760 0048 FFF7FEFF 		bl	Error_Handler
 761              	.LVL28:
 762 004c EDE7     		b	.L44
 763              	.L50:
 355:../../../init/terminal/init.c **** 	}
 764              		.loc 1 355 2 view .LVU267
 765 004e FFF7FEFF 		bl	Error_Handler
 766              	.LVL29:
 767 0052 EFE7     		b	.L45
 768              	.L51:
 359:../../../init/terminal/init.c **** 	}
 769              		.loc 1 359 2 view .LVU268
 770 0054 FFF7FEFF 		bl	Error_Handler
 771              	.LVL30:
 772 0058 F1E7     		b	.L46
ARM GAS  C:\Users\tnguy\AppData\Local\Temp\ccYIihLb.s 			page 21


 773              	.L52:
 363:../../../init/terminal/init.c **** 	}
 774              		.loc 1 363 2 view .LVU269
 775 005a FFF7FEFF 		bl	Error_Handler
 776              	.LVL31:
 777              		.loc 1 365 1 is_stmt 0 view .LVU270
 778 005e F2E7     		b	.L43
 779              	.L54:
 780              		.align	2
 781              	.L53:
 782 0060 00000000 		.word	huart6
 783 0064 00140140 		.word	1073812480
 784              		.cfi_endproc
 785              	.LFE150:
 787              		.section	.text.MX_UART4_Init,"ax",%progbits
 788              		.align	1
 789              		.global	MX_UART4_Init
 790              		.syntax unified
 791              		.thumb
 792              		.thumb_func
 794              	MX_UART4_Init:
 795              	.LFB151:
 366:../../../init/terminal/init.c **** 
 367:../../../init/terminal/init.c **** 
 368:../../../init/terminal/init.c **** void MX_UART4_Init(void)
 369:../../../init/terminal/init.c **** {
 796              		.loc 1 369 1 is_stmt 1 view -0
 797              		.cfi_startproc
 798              		@ args = 0, pretend = 0, frame = 0
 799              		@ frame_needed = 0, uses_anonymous_args = 0
 800 0000 08B5     		push	{r3, lr}
 801              	.LCFI12:
 802              		.cfi_def_cfa_offset 8
 803              		.cfi_offset 3, -8
 804              		.cfi_offset 14, -4
 370:../../../init/terminal/init.c **** 
 371:../../../init/terminal/init.c ****   /* USER CODE BEGIN UART4_Init 0 */
 372:../../../init/terminal/init.c **** 
 373:../../../init/terminal/init.c ****   /* USER CODE END UART4_Init 0 */
 374:../../../init/terminal/init.c **** 
 375:../../../init/terminal/init.c ****   /* USER CODE BEGIN UART4_Init 1 */
 376:../../../init/terminal/init.c **** 
 377:../../../init/terminal/init.c ****   /* USER CODE END UART4_Init 1 */
 378:../../../init/terminal/init.c ****   huart4.Instance = UART4;
 805              		.loc 1 378 3 view .LVU272
 806              		.loc 1 378 19 is_stmt 0 view .LVU273
 807 0002 1748     		ldr	r0, .L65
 808 0004 174B     		ldr	r3, .L65+4
 809 0006 0360     		str	r3, [r0]
 379:../../../init/terminal/init.c ****   huart4.Init.BaudRate = 9600;
 810              		.loc 1 379 3 is_stmt 1 view .LVU274
 811              		.loc 1 379 24 is_stmt 0 view .LVU275
 812 0008 4FF41653 		mov	r3, #9600
 813 000c 4360     		str	r3, [r0, #4]
 380:../../../init/terminal/init.c ****   huart4.Init.WordLength = UART_WORDLENGTH_8B;
 814              		.loc 1 380 3 is_stmt 1 view .LVU276
 815              		.loc 1 380 26 is_stmt 0 view .LVU277
ARM GAS  C:\Users\tnguy\AppData\Local\Temp\ccYIihLb.s 			page 22


 816 000e 0023     		movs	r3, #0
 817 0010 8360     		str	r3, [r0, #8]
 381:../../../init/terminal/init.c ****   huart4.Init.StopBits = UART_STOPBITS_1;
 818              		.loc 1 381 3 is_stmt 1 view .LVU278
 819              		.loc 1 381 24 is_stmt 0 view .LVU279
 820 0012 C360     		str	r3, [r0, #12]
 382:../../../init/terminal/init.c ****   huart4.Init.Parity = UART_PARITY_NONE;
 821              		.loc 1 382 3 is_stmt 1 view .LVU280
 822              		.loc 1 382 22 is_stmt 0 view .LVU281
 823 0014 0361     		str	r3, [r0, #16]
 383:../../../init/terminal/init.c ****   huart4.Init.Mode = UART_MODE_TX_RX;
 824              		.loc 1 383 3 is_stmt 1 view .LVU282
 825              		.loc 1 383 20 is_stmt 0 view .LVU283
 826 0016 0C22     		movs	r2, #12
 827 0018 4261     		str	r2, [r0, #20]
 384:../../../init/terminal/init.c ****   huart4.Init.HwFlowCtl = UART_HWCONTROL_NONE;
 828              		.loc 1 384 3 is_stmt 1 view .LVU284
 829              		.loc 1 384 25 is_stmt 0 view .LVU285
 830 001a 8361     		str	r3, [r0, #24]
 385:../../../init/terminal/init.c ****   huart4.Init.OverSampling = UART_OVERSAMPLING_16;
 831              		.loc 1 385 3 is_stmt 1 view .LVU286
 832              		.loc 1 385 28 is_stmt 0 view .LVU287
 833 001c C361     		str	r3, [r0, #28]
 386:../../../init/terminal/init.c ****   huart4.Init.OneBitSampling = UART_ONE_BIT_SAMPLE_DISABLE;
 834              		.loc 1 386 3 is_stmt 1 view .LVU288
 835              		.loc 1 386 30 is_stmt 0 view .LVU289
 836 001e 0362     		str	r3, [r0, #32]
 387:../../../init/terminal/init.c ****   huart4.Init.ClockPrescaler = UART_PRESCALER_DIV1;
 837              		.loc 1 387 3 is_stmt 1 view .LVU290
 838              		.loc 1 387 30 is_stmt 0 view .LVU291
 839 0020 4362     		str	r3, [r0, #36]
 388:../../../init/terminal/init.c ****   huart4.AdvancedInit.AdvFeatureInit = UART_ADVFEATURE_NO_INIT;
 840              		.loc 1 388 3 is_stmt 1 view .LVU292
 841              		.loc 1 388 38 is_stmt 0 view .LVU293
 842 0022 8362     		str	r3, [r0, #40]
 389:../../../init/terminal/init.c ****   if (HAL_UART_Init(&huart4) != HAL_OK)
 843              		.loc 1 389 3 is_stmt 1 view .LVU294
 844              		.loc 1 389 7 is_stmt 0 view .LVU295
 845 0024 FFF7FEFF 		bl	HAL_UART_Init
 846              	.LVL32:
 847              		.loc 1 389 6 view .LVU296
 848 0028 70B9     		cbnz	r0, .L61
 849              	.L56:
 390:../../../init/terminal/init.c ****   {
 391:../../../init/terminal/init.c ****     Error_Handler();
 392:../../../init/terminal/init.c ****   }
 393:../../../init/terminal/init.c ****   if (HAL_UARTEx_SetTxFifoThreshold(&huart4, UART_TXFIFO_THRESHOLD_1_8) != HAL_OK)
 850              		.loc 1 393 3 is_stmt 1 view .LVU297
 851              		.loc 1 393 7 is_stmt 0 view .LVU298
 852 002a 0021     		movs	r1, #0
 853 002c 0C48     		ldr	r0, .L65
 854 002e FFF7FEFF 		bl	HAL_UARTEx_SetTxFifoThreshold
 855              	.LVL33:
 856              		.loc 1 393 6 view .LVU299
 857 0032 60B9     		cbnz	r0, .L62
 858              	.L57:
 394:../../../init/terminal/init.c ****   {
ARM GAS  C:\Users\tnguy\AppData\Local\Temp\ccYIihLb.s 			page 23


 395:../../../init/terminal/init.c ****     Error_Handler();
 396:../../../init/terminal/init.c ****   }
 397:../../../init/terminal/init.c ****   if (HAL_UARTEx_SetRxFifoThreshold(&huart4, UART_RXFIFO_THRESHOLD_1_8) != HAL_OK)
 859              		.loc 1 397 3 is_stmt 1 view .LVU300
 860              		.loc 1 397 7 is_stmt 0 view .LVU301
 861 0034 0021     		movs	r1, #0
 862 0036 0A48     		ldr	r0, .L65
 863 0038 FFF7FEFF 		bl	HAL_UARTEx_SetRxFifoThreshold
 864              	.LVL34:
 865              		.loc 1 397 6 view .LVU302
 866 003c 50B9     		cbnz	r0, .L63
 867              	.L58:
 398:../../../init/terminal/init.c ****   {
 399:../../../init/terminal/init.c ****     Error_Handler();
 400:../../../init/terminal/init.c ****   }
 401:../../../init/terminal/init.c ****   if (HAL_UARTEx_DisableFifoMode(&huart4) != HAL_OK)
 868              		.loc 1 401 3 is_stmt 1 view .LVU303
 869              		.loc 1 401 7 is_stmt 0 view .LVU304
 870 003e 0848     		ldr	r0, .L65
 871 0040 FFF7FEFF 		bl	HAL_UARTEx_DisableFifoMode
 872              	.LVL35:
 873              		.loc 1 401 6 view .LVU305
 874 0044 48B9     		cbnz	r0, .L64
 875              	.L55:
 402:../../../init/terminal/init.c ****   {
 403:../../../init/terminal/init.c ****     Error_Handler();
 404:../../../init/terminal/init.c ****   }
 405:../../../init/terminal/init.c ****   /* USER CODE BEGIN UART4_Init 2 */
 406:../../../init/terminal/init.c **** 
 407:../../../init/terminal/init.c ****   /* USER CODE END UART4_Init 2 */
 408:../../../init/terminal/init.c **** 
 409:../../../init/terminal/init.c **** }
 876              		.loc 1 409 1 view .LVU306
 877 0046 08BD     		pop	{r3, pc}
 878              	.L61:
 391:../../../init/terminal/init.c ****   }
 879              		.loc 1 391 5 is_stmt 1 view .LVU307
 880 0048 FFF7FEFF 		bl	Error_Handler
 881              	.LVL36:
 882 004c EDE7     		b	.L56
 883              	.L62:
 395:../../../init/terminal/init.c ****   }
 884              		.loc 1 395 5 view .LVU308
 885 004e FFF7FEFF 		bl	Error_Handler
 886              	.LVL37:
 887 0052 EFE7     		b	.L57
 888              	.L63:
 399:../../../init/terminal/init.c ****   }
 889              		.loc 1 399 5 view .LVU309
 890 0054 FFF7FEFF 		bl	Error_Handler
 891              	.LVL38:
 892 0058 F1E7     		b	.L58
 893              	.L64:
 403:../../../init/terminal/init.c ****   }
 894              		.loc 1 403 5 view .LVU310
 895 005a FFF7FEFF 		bl	Error_Handler
 896              	.LVL39:
ARM GAS  C:\Users\tnguy\AppData\Local\Temp\ccYIihLb.s 			page 24


 897              		.loc 1 409 1 is_stmt 0 view .LVU311
 898 005e F2E7     		b	.L55
 899              	.L66:
 900              		.align	2
 901              	.L65:
 902 0060 00000000 		.word	huart4
 903 0064 004C0040 		.word	1073761280
 904              		.cfi_endproc
 905              	.LFE151:
 907              		.section	.text.BUZZER_TIM_Init,"ax",%progbits
 908              		.align	1
 909              		.global	BUZZER_TIM_Init
 910              		.syntax unified
 911              		.thumb
 912              		.thumb_func
 914              	BUZZER_TIM_Init:
 915              	.LFB152:
 410:../../../init/terminal/init.c **** 
 411:../../../init/terminal/init.c **** 
 412:../../../init/terminal/init.c **** /*******************************************************************************
 413:../../../init/terminal/init.c **** *                                                                              *
 414:../../../init/terminal/init.c **** * PROCEDURE NAME:                                                              *
 415:../../../init/terminal/init.c **** * 		BUZZER_TIM_Init                                                        *
 416:../../../init/terminal/init.c **** *                                                                              *
 417:../../../init/terminal/init.c **** * DESCRIPTION:                                                                 *
 418:../../../init/terminal/init.c **** *       Initializes the TIM4 peripheral for the buzzer                         *
 419:../../../init/terminal/init.c **** *                                                                              *
 420:../../../init/terminal/init.c **** *******************************************************************************/
 421:../../../init/terminal/init.c **** void BUZZER_TIM_Init 
 422:../../../init/terminal/init.c **** 	(
 423:../../../init/terminal/init.c **** 	void
 424:../../../init/terminal/init.c **** 	)
 425:../../../init/terminal/init.c **** {
 916              		.loc 1 425 1 is_stmt 1 view -0
 917              		.cfi_startproc
 918              		@ args = 0, pretend = 0, frame = 56
 919              		@ frame_needed = 0, uses_anonymous_args = 0
 920 0000 00B5     		push	{lr}
 921              	.LCFI13:
 922              		.cfi_def_cfa_offset 4
 923              		.cfi_offset 14, -4
 924 0002 8FB0     		sub	sp, sp, #60
 925              	.LCFI14:
 926              		.cfi_def_cfa_offset 64
 426:../../../init/terminal/init.c **** /*------------------------------------------------------------------------------
 427:../../../init/terminal/init.c ****  Local Variables 
 428:../../../init/terminal/init.c **** ------------------------------------------------------------------------------*/
 429:../../../init/terminal/init.c **** uint16_t                pwm_period;               /* Max timer count value    */
 927              		.loc 1 429 1 view .LVU313
 430:../../../init/terminal/init.c **** uint16_t                pwm_pulse_cnt;            /* Count to pwm transition  */
 928              		.loc 1 430 1 view .LVU314
 431:../../../init/terminal/init.c **** TIM_ClockConfigTypeDef  sClockSourceConfig = {0}; /* Init Structs             */
 929              		.loc 1 431 1 view .LVU315
 930              		.loc 1 431 25 is_stmt 0 view .LVU316
 931 0004 0023     		movs	r3, #0
 932 0006 0A93     		str	r3, [sp, #40]
 933 0008 0B93     		str	r3, [sp, #44]
ARM GAS  C:\Users\tnguy\AppData\Local\Temp\ccYIihLb.s 			page 25


 934 000a 0C93     		str	r3, [sp, #48]
 935 000c 0D93     		str	r3, [sp, #52]
 432:../../../init/terminal/init.c **** TIM_MasterConfigTypeDef sMasterConfig      = {0};
 936              		.loc 1 432 1 is_stmt 1 view .LVU317
 937              		.loc 1 432 25 is_stmt 0 view .LVU318
 938 000e 0793     		str	r3, [sp, #28]
 939 0010 0893     		str	r3, [sp, #32]
 940 0012 0993     		str	r3, [sp, #36]
 433:../../../init/terminal/init.c **** TIM_OC_InitTypeDef      sConfigOC          = {0};
 941              		.loc 1 433 1 is_stmt 1 view .LVU319
 942              		.loc 1 433 25 is_stmt 0 view .LVU320
 943 0014 0093     		str	r3, [sp]
 944 0016 0193     		str	r3, [sp, #4]
 945 0018 0293     		str	r3, [sp, #8]
 946 001a 0393     		str	r3, [sp, #12]
 947 001c 0493     		str	r3, [sp, #16]
 948 001e 0593     		str	r3, [sp, #20]
 949 0020 0693     		str	r3, [sp, #24]
 434:../../../init/terminal/init.c **** 
 435:../../../init/terminal/init.c **** 
 436:../../../init/terminal/init.c **** /*------------------------------------------------------------------------------
 437:../../../init/terminal/init.c ****  Initializations 
 438:../../../init/terminal/init.c **** ------------------------------------------------------------------------------*/
 439:../../../init/terminal/init.c **** pwm_period    = 40000;                          /* 6 kHz max frequency        */
 950              		.loc 1 439 1 is_stmt 1 view .LVU321
 951              	.LVL40:
 440:../../../init/terminal/init.c **** pwm_pulse_cnt = pwm_period - ( pwm_period/10 ); /* 90% Duty cycle             */
 952              		.loc 1 440 1 view .LVU322
 441:../../../init/terminal/init.c **** 
 442:../../../init/terminal/init.c **** 
 443:../../../init/terminal/init.c **** /*------------------------------------------------------------------------------
 444:../../../init/terminal/init.c ****  Setup PWM Timer
 445:../../../init/terminal/init.c **** ------------------------------------------------------------------------------*/
 446:../../../init/terminal/init.c **** 
 447:../../../init/terminal/init.c **** /* Set configuration settings and initialize */
 448:../../../init/terminal/init.c **** htim4.Instance                    = TIM4;
 953              		.loc 1 448 1 view .LVU323
 954              		.loc 1 448 35 is_stmt 0 view .LVU324
 955 0022 2248     		ldr	r0, .L79
 956 0024 224A     		ldr	r2, .L79+4
 957 0026 0260     		str	r2, [r0]
 449:../../../init/terminal/init.c **** htim4.Init.Prescaler              = 10;
 958              		.loc 1 449 1 is_stmt 1 view .LVU325
 959              		.loc 1 449 35 is_stmt 0 view .LVU326
 960 0028 0A22     		movs	r2, #10
 961 002a 4260     		str	r2, [r0, #4]
 450:../../../init/terminal/init.c **** htim4.Init.CounterMode            = TIM_COUNTERMODE_UP;
 962              		.loc 1 450 1 is_stmt 1 view .LVU327
 963              		.loc 1 450 35 is_stmt 0 view .LVU328
 964 002c 8360     		str	r3, [r0, #8]
 451:../../../init/terminal/init.c **** htim4.Init.Period                 = pwm_period;
 965              		.loc 1 451 1 is_stmt 1 view .LVU329
 966              		.loc 1 451 35 is_stmt 0 view .LVU330
 967 002e 49F64042 		movw	r2, #40000
 968 0032 C260     		str	r2, [r0, #12]
 452:../../../init/terminal/init.c **** htim4.Init.ClockDivision          = TIM_CLOCKDIVISION_DIV1;
 969              		.loc 1 452 1 is_stmt 1 view .LVU331
ARM GAS  C:\Users\tnguy\AppData\Local\Temp\ccYIihLb.s 			page 26


 970              		.loc 1 452 35 is_stmt 0 view .LVU332
 971 0034 0361     		str	r3, [r0, #16]
 453:../../../init/terminal/init.c **** htim4.Init.AutoReloadPreload      = TIM_AUTORELOAD_PRELOAD_DISABLE;
 972              		.loc 1 453 1 is_stmt 1 view .LVU333
 973              		.loc 1 453 35 is_stmt 0 view .LVU334
 974 0036 8361     		str	r3, [r0, #24]
 454:../../../init/terminal/init.c **** if ( HAL_TIM_Base_Init( &htim4 ) != HAL_OK )
 975              		.loc 1 454 1 is_stmt 1 view .LVU335
 976              		.loc 1 454 6 is_stmt 0 view .LVU336
 977 0038 FFF7FEFF 		bl	HAL_TIM_Base_Init
 978              	.LVL41:
 979              		.loc 1 454 4 view .LVU337
 980 003c 38BB     		cbnz	r0, .L74
 981              	.L68:
 455:../../../init/terminal/init.c **** 	{
 456:../../../init/terminal/init.c **** 	Error_Handler();
 457:../../../init/terminal/init.c **** 	}
 458:../../../init/terminal/init.c **** sClockSourceConfig.ClockSource    = TIM_CLOCKSOURCE_INTERNAL;
 982              		.loc 1 458 1 is_stmt 1 view .LVU338
 983              		.loc 1 458 35 is_stmt 0 view .LVU339
 984 003e 4FF48053 		mov	r3, #4096
 985 0042 0A93     		str	r3, [sp, #40]
 459:../../../init/terminal/init.c **** if ( HAL_TIM_ConfigClockSource( &htim4, &sClockSourceConfig ) != HAL_OK )
 986              		.loc 1 459 1 is_stmt 1 view .LVU340
 987              		.loc 1 459 6 is_stmt 0 view .LVU341
 988 0044 0AA9     		add	r1, sp, #40
 989 0046 1948     		ldr	r0, .L79
 990 0048 FFF7FEFF 		bl	HAL_TIM_ConfigClockSource
 991              	.LVL42:
 992              		.loc 1 459 4 view .LVU342
 993 004c 10BB     		cbnz	r0, .L75
 994              	.L69:
 460:../../../init/terminal/init.c **** 	{
 461:../../../init/terminal/init.c **** 	Error_Handler();
 462:../../../init/terminal/init.c **** 	}
 463:../../../init/terminal/init.c **** if ( HAL_TIM_PWM_Init( &htim4 ) != HAL_OK )
 995              		.loc 1 463 1 is_stmt 1 view .LVU343
 996              		.loc 1 463 6 is_stmt 0 view .LVU344
 997 004e 1748     		ldr	r0, .L79
 998 0050 FFF7FEFF 		bl	HAL_TIM_PWM_Init
 999              	.LVL43:
 1000              		.loc 1 463 4 view .LVU345
 1001 0054 08BB     		cbnz	r0, .L76
 1002              	.L70:
 464:../../../init/terminal/init.c **** 	{
 465:../../../init/terminal/init.c **** 	Error_Handler();
 466:../../../init/terminal/init.c **** 	}
 467:../../../init/terminal/init.c **** sMasterConfig.MasterOutputTrigger = TIM_TRGO_RESET;
 1003              		.loc 1 467 1 is_stmt 1 view .LVU346
 1004              		.loc 1 467 35 is_stmt 0 view .LVU347
 1005 0056 0023     		movs	r3, #0
 1006 0058 0793     		str	r3, [sp, #28]
 468:../../../init/terminal/init.c **** sMasterConfig.MasterSlaveMode     = TIM_MASTERSLAVEMODE_DISABLE;
 1007              		.loc 1 468 1 is_stmt 1 view .LVU348
 1008              		.loc 1 468 35 is_stmt 0 view .LVU349
 1009 005a 0993     		str	r3, [sp, #36]
 469:../../../init/terminal/init.c **** if ( HAL_TIMEx_MasterConfigSynchronization( &htim4, &sMasterConfig ) != HAL_OK )
ARM GAS  C:\Users\tnguy\AppData\Local\Temp\ccYIihLb.s 			page 27


 1010              		.loc 1 469 1 is_stmt 1 view .LVU350
 1011              		.loc 1 469 6 is_stmt 0 view .LVU351
 1012 005c 07A9     		add	r1, sp, #28
 1013 005e 1348     		ldr	r0, .L79
 1014 0060 FFF7FEFF 		bl	HAL_TIMEx_MasterConfigSynchronization
 1015              	.LVL44:
 1016              		.loc 1 469 4 view .LVU352
 1017 0064 E0B9     		cbnz	r0, .L77
 1018              	.L71:
 470:../../../init/terminal/init.c **** 	{
 471:../../../init/terminal/init.c **** 	Error_Handler();
 472:../../../init/terminal/init.c **** 	}
 473:../../../init/terminal/init.c **** sConfigOC.OCMode                  = TIM_OCMODE_PWM1;
 1019              		.loc 1 473 1 is_stmt 1 view .LVU353
 1020              		.loc 1 473 35 is_stmt 0 view .LVU354
 1021 0066 6023     		movs	r3, #96
 1022 0068 0093     		str	r3, [sp]
 474:../../../init/terminal/init.c **** sConfigOC.Pulse                   = pwm_pulse_cnt;
 1023              		.loc 1 474 1 is_stmt 1 view .LVU355
 1024              		.loc 1 474 35 is_stmt 0 view .LVU356
 1025 006a 48F6A043 		movw	r3, #36000
 1026 006e 0193     		str	r3, [sp, #4]
 475:../../../init/terminal/init.c **** sConfigOC.OCPolarity              = TIM_OCPOLARITY_HIGH;
 1027              		.loc 1 475 1 is_stmt 1 view .LVU357
 1028              		.loc 1 475 35 is_stmt 0 view .LVU358
 1029 0070 0023     		movs	r3, #0
 1030 0072 0293     		str	r3, [sp, #8]
 476:../../../init/terminal/init.c **** sConfigOC.OCFastMode              = TIM_OCFAST_DISABLE;
 1031              		.loc 1 476 1 is_stmt 1 view .LVU359
 1032              		.loc 1 476 35 is_stmt 0 view .LVU360
 1033 0074 0493     		str	r3, [sp, #16]
 477:../../../init/terminal/init.c **** if ( HAL_TIM_PWM_ConfigChannel( &htim4, &sConfigOC, BUZZ_TIM_CHANNEL ) != HAL_OK )
 1034              		.loc 1 477 1 is_stmt 1 view .LVU361
 1035              		.loc 1 477 6 is_stmt 0 view .LVU362
 1036 0076 0822     		movs	r2, #8
 1037 0078 6946     		mov	r1, sp
 1038 007a 0C48     		ldr	r0, .L79
 1039 007c FFF7FEFF 		bl	HAL_TIM_PWM_ConfigChannel
 1040              	.LVL45:
 1041              		.loc 1 477 4 view .LVU363
 1042 0080 88B9     		cbnz	r0, .L78
 1043              	.L72:
 478:../../../init/terminal/init.c **** 	{
 479:../../../init/terminal/init.c **** 	Error_Handler();
 480:../../../init/terminal/init.c **** 	}
 481:../../../init/terminal/init.c **** HAL_TIM_MspPostInit( &htim4 );
 1044              		.loc 1 481 1 is_stmt 1 view .LVU364
 1045 0082 0A48     		ldr	r0, .L79
 1046 0084 FFF7FEFF 		bl	HAL_TIM_MspPostInit
 1047              	.LVL46:
 482:../../../init/terminal/init.c **** 
 483:../../../init/terminal/init.c **** } /* BUZZER_TIM_Init */
 1048              		.loc 1 483 1 is_stmt 0 view .LVU365
 1049 0088 0FB0     		add	sp, sp, #60
 1050              	.LCFI15:
 1051              		.cfi_remember_state
 1052              		.cfi_def_cfa_offset 4
ARM GAS  C:\Users\tnguy\AppData\Local\Temp\ccYIihLb.s 			page 28


 1053              		@ sp needed
 1054 008a 5DF804FB 		ldr	pc, [sp], #4
 1055              	.L74:
 1056              	.LCFI16:
 1057              		.cfi_restore_state
 456:../../../init/terminal/init.c **** 	}
 1058              		.loc 1 456 2 is_stmt 1 view .LVU366
 1059 008e FFF7FEFF 		bl	Error_Handler
 1060              	.LVL47:
 1061 0092 D4E7     		b	.L68
 1062              	.L75:
 461:../../../init/terminal/init.c **** 	}
 1063              		.loc 1 461 2 view .LVU367
 1064 0094 FFF7FEFF 		bl	Error_Handler
 1065              	.LVL48:
 1066 0098 D9E7     		b	.L69
 1067              	.L76:
 465:../../../init/terminal/init.c **** 	}
 1068              		.loc 1 465 2 view .LVU368
 1069 009a FFF7FEFF 		bl	Error_Handler
 1070              	.LVL49:
 1071 009e DAE7     		b	.L70
 1072              	.L77:
 471:../../../init/terminal/init.c **** 	}
 1073              		.loc 1 471 2 view .LVU369
 1074 00a0 FFF7FEFF 		bl	Error_Handler
 1075              	.LVL50:
 1076 00a4 DFE7     		b	.L71
 1077              	.L78:
 479:../../../init/terminal/init.c **** 	}
 1078              		.loc 1 479 2 view .LVU370
 1079 00a6 FFF7FEFF 		bl	Error_Handler
 1080              	.LVL51:
 1081 00aa EAE7     		b	.L72
 1082              	.L80:
 1083              		.align	2
 1084              	.L79:
 1085 00ac 00000000 		.word	htim4
 1086 00b0 00080040 		.word	1073743872
 1087              		.cfi_endproc
 1088              	.LFE152:
 1090              		.section	.text.GPIO_Init,"ax",%progbits
 1091              		.align	1
 1092              		.global	GPIO_Init
 1093              		.syntax unified
 1094              		.thumb
 1095              		.thumb_func
 1097              	GPIO_Init:
 1098              	.LFB153:
 484:../../../init/terminal/init.c **** 
 485:../../../init/terminal/init.c **** 
 486:../../../init/terminal/init.c **** /*******************************************************************************
 487:../../../init/terminal/init.c **** *                                                                              *
 488:../../../init/terminal/init.c **** * PROCEDURE:                                                                   *
 489:../../../init/terminal/init.c **** * 		GPIO_Init                                                              * 
 490:../../../init/terminal/init.c **** *                                                                              *
 491:../../../init/terminal/init.c **** * DESCRIPTION:                                                                 * 
ARM GAS  C:\Users\tnguy\AppData\Local\Temp\ccYIihLb.s 			page 29


 492:../../../init/terminal/init.c **** * 		Initializes all GPIO pins and sets alternate functions                 *
 493:../../../init/terminal/init.c **** *                                                                              *
 494:../../../init/terminal/init.c **** *******************************************************************************/
 495:../../../init/terminal/init.c **** void GPIO_Init
 496:../../../init/terminal/init.c **** 	(
 497:../../../init/terminal/init.c ****  	void
 498:../../../init/terminal/init.c **** 	)
 499:../../../init/terminal/init.c **** {
 1099              		.loc 1 499 1 view -0
 1100              		.cfi_startproc
 1101              		@ args = 0, pretend = 0, frame = 48
 1102              		@ frame_needed = 0, uses_anonymous_args = 0
 1103 0000 2DE9F041 		push	{r4, r5, r6, r7, r8, lr}
 1104              	.LCFI17:
 1105              		.cfi_def_cfa_offset 24
 1106              		.cfi_offset 4, -24
 1107              		.cfi_offset 5, -20
 1108              		.cfi_offset 6, -16
 1109              		.cfi_offset 7, -12
 1110              		.cfi_offset 8, -8
 1111              		.cfi_offset 14, -4
 1112 0004 8CB0     		sub	sp, sp, #48
 1113              	.LCFI18:
 1114              		.cfi_def_cfa_offset 72
 500:../../../init/terminal/init.c **** /* GPIO Initialization Struct */
 501:../../../init/terminal/init.c **** GPIO_InitTypeDef GPIO_InitStruct = {0};
 1115              		.loc 1 501 1 view .LVU372
 1116              		.loc 1 501 18 is_stmt 0 view .LVU373
 1117 0006 0024     		movs	r4, #0
 1118 0008 0794     		str	r4, [sp, #28]
 1119 000a 0894     		str	r4, [sp, #32]
 1120 000c 0994     		str	r4, [sp, #36]
 1121 000e 0A94     		str	r4, [sp, #40]
 1122 0010 0B94     		str	r4, [sp, #44]
 502:../../../init/terminal/init.c **** 
 503:../../../init/terminal/init.c **** /* GPIO Ports Clock Enable */
 504:../../../init/terminal/init.c **** __HAL_RCC_GPIOA_CLK_ENABLE();
 1123              		.loc 1 504 1 is_stmt 1 view .LVU374
 1124              	.LBB3:
 1125              		.loc 1 504 1 view .LVU375
 1126              		.loc 1 504 1 view .LVU376
 1127 0012 754B     		ldr	r3, .L83
 1128 0014 D3F8E020 		ldr	r2, [r3, #224]
 1129 0018 42F00102 		orr	r2, r2, #1
 1130 001c C3F8E020 		str	r2, [r3, #224]
 1131              		.loc 1 504 1 view .LVU377
 1132 0020 D3F8E020 		ldr	r2, [r3, #224]
 1133 0024 02F00102 		and	r2, r2, #1
 1134 0028 0192     		str	r2, [sp, #4]
 1135              		.loc 1 504 1 view .LVU378
 1136 002a 019A     		ldr	r2, [sp, #4]
 1137              	.LBE3:
 1138              		.loc 1 504 1 view .LVU379
 505:../../../init/terminal/init.c **** __HAL_RCC_GPIOB_CLK_ENABLE();
 1139              		.loc 1 505 1 view .LVU380
 1140              	.LBB4:
 1141              		.loc 1 505 1 view .LVU381
ARM GAS  C:\Users\tnguy\AppData\Local\Temp\ccYIihLb.s 			page 30


 1142              		.loc 1 505 1 view .LVU382
 1143 002c D3F8E020 		ldr	r2, [r3, #224]
 1144 0030 42F00202 		orr	r2, r2, #2
 1145 0034 C3F8E020 		str	r2, [r3, #224]
 1146              		.loc 1 505 1 view .LVU383
 1147 0038 D3F8E020 		ldr	r2, [r3, #224]
 1148 003c 02F00202 		and	r2, r2, #2
 1149 0040 0292     		str	r2, [sp, #8]
 1150              		.loc 1 505 1 view .LVU384
 1151 0042 029A     		ldr	r2, [sp, #8]
 1152              	.LBE4:
 1153              		.loc 1 505 1 view .LVU385
 506:../../../init/terminal/init.c **** __HAL_RCC_GPIOC_CLK_ENABLE();
 1154              		.loc 1 506 1 view .LVU386
 1155              	.LBB5:
 1156              		.loc 1 506 1 view .LVU387
 1157              		.loc 1 506 1 view .LVU388
 1158 0044 D3F8E020 		ldr	r2, [r3, #224]
 1159 0048 42F00402 		orr	r2, r2, #4
 1160 004c C3F8E020 		str	r2, [r3, #224]
 1161              		.loc 1 506 1 view .LVU389
 1162 0050 D3F8E020 		ldr	r2, [r3, #224]
 1163 0054 02F00402 		and	r2, r2, #4
 1164 0058 0392     		str	r2, [sp, #12]
 1165              		.loc 1 506 1 view .LVU390
 1166 005a 039A     		ldr	r2, [sp, #12]
 1167              	.LBE5:
 1168              		.loc 1 506 1 view .LVU391
 507:../../../init/terminal/init.c **** __HAL_RCC_GPIOD_CLK_ENABLE();
 1169              		.loc 1 507 1 view .LVU392
 1170              	.LBB6:
 1171              		.loc 1 507 1 view .LVU393
 1172              		.loc 1 507 1 view .LVU394
 1173 005c D3F8E020 		ldr	r2, [r3, #224]
 1174 0060 42F00802 		orr	r2, r2, #8
 1175 0064 C3F8E020 		str	r2, [r3, #224]
 1176              		.loc 1 507 1 view .LVU395
 1177 0068 D3F8E020 		ldr	r2, [r3, #224]
 1178 006c 02F00802 		and	r2, r2, #8
 1179 0070 0492     		str	r2, [sp, #16]
 1180              		.loc 1 507 1 view .LVU396
 1181 0072 049A     		ldr	r2, [sp, #16]
 1182              	.LBE6:
 1183              		.loc 1 507 1 view .LVU397
 508:../../../init/terminal/init.c **** __HAL_RCC_GPIOE_CLK_ENABLE();
 1184              		.loc 1 508 1 view .LVU398
 1185              	.LBB7:
 1186              		.loc 1 508 1 view .LVU399
 1187              		.loc 1 508 1 view .LVU400
 1188 0074 D3F8E020 		ldr	r2, [r3, #224]
 1189 0078 42F01002 		orr	r2, r2, #16
 1190 007c C3F8E020 		str	r2, [r3, #224]
 1191              		.loc 1 508 1 view .LVU401
 1192 0080 D3F8E020 		ldr	r2, [r3, #224]
 1193 0084 02F01002 		and	r2, r2, #16
 1194 0088 0592     		str	r2, [sp, #20]
 1195              		.loc 1 508 1 view .LVU402
ARM GAS  C:\Users\tnguy\AppData\Local\Temp\ccYIihLb.s 			page 31


 1196 008a 059A     		ldr	r2, [sp, #20]
 1197              	.LBE7:
 1198              		.loc 1 508 1 view .LVU403
 509:../../../init/terminal/init.c **** __HAL_RCC_GPIOH_CLK_ENABLE();
 1199              		.loc 1 509 1 view .LVU404
 1200              	.LBB8:
 1201              		.loc 1 509 1 view .LVU405
 1202              		.loc 1 509 1 view .LVU406
 1203 008c D3F8E020 		ldr	r2, [r3, #224]
 1204 0090 42F08002 		orr	r2, r2, #128
 1205 0094 C3F8E020 		str	r2, [r3, #224]
 1206              		.loc 1 509 1 view .LVU407
 1207 0098 D3F8E030 		ldr	r3, [r3, #224]
 1208 009c 03F08003 		and	r3, r3, #128
 1209 00a0 0693     		str	r3, [sp, #24]
 1210              		.loc 1 509 1 view .LVU408
 1211 00a2 069B     		ldr	r3, [sp, #24]
 1212              	.LBE8:
 1213              		.loc 1 509 1 view .LVU409
 510:../../../init/terminal/init.c **** 
 511:../../../init/terminal/init.c **** 
 512:../../../init/terminal/init.c **** /*--------------------------- LED MCU PINS -----------------------------------*/
 513:../../../init/terminal/init.c **** 
 514:../../../init/terminal/init.c **** /* Configure GPIO pin Output Level */
 515:../../../init/terminal/init.c **** HAL_GPIO_WritePin(
 1214              		.loc 1 515 1 view .LVU410
 1215 00a4 514D     		ldr	r5, .L83+4
 1216 00a6 0122     		movs	r2, #1
 1217 00a8 4FF46061 		mov	r1, #3584
 1218 00ac 2846     		mov	r0, r5
 1219 00ae FFF7FEFF 		bl	HAL_GPIO_WritePin
 1220              	.LVL52:
 516:../../../init/terminal/init.c ****                  STATUS_GPIO_PORT, 
 517:../../../init/terminal/init.c ****                  STATUS_R_PIN | 
 518:../../../init/terminal/init.c ****                  STATUS_B_PIN | 
 519:../../../init/terminal/init.c ****                  STATUS_G_PIN    ,
 520:../../../init/terminal/init.c ****                  GPIO_PIN_SET
 521:../../../init/terminal/init.c ****                  );
 522:../../../init/terminal/init.c **** 
 523:../../../init/terminal/init.c **** /* Configure GPIO pin : PE2 --> Status LED pin */
 524:../../../init/terminal/init.c **** GPIO_InitStruct.Pin   = STATUS_R_PIN | 
 1221              		.loc 1 524 1 view .LVU411
 1222              		.loc 1 524 23 is_stmt 0 view .LVU412
 1223 00b2 4FF46063 		mov	r3, #3584
 1224 00b6 0793     		str	r3, [sp, #28]
 525:../../../init/terminal/init.c ****                         STATUS_B_PIN | 
 526:../../../init/terminal/init.c ****                         STATUS_G_PIN;
 527:../../../init/terminal/init.c **** GPIO_InitStruct.Mode  = GPIO_MODE_OUTPUT_OD;          /* open-drain output   */
 1225              		.loc 1 527 1 is_stmt 1 view .LVU413
 1226              		.loc 1 527 23 is_stmt 0 view .LVU414
 1227 00b8 1123     		movs	r3, #17
 1228 00ba 0893     		str	r3, [sp, #32]
 528:../../../init/terminal/init.c **** GPIO_InitStruct.Pull  = GPIO_NOPULL;                  /* no pull up resistor */
 1229              		.loc 1 528 1 is_stmt 1 view .LVU415
 1230              		.loc 1 528 23 is_stmt 0 view .LVU416
 1231 00bc 0994     		str	r4, [sp, #36]
 529:../../../init/terminal/init.c **** GPIO_InitStruct.Speed = GPIO_SPEED_FREQ_LOW;          /* Low Frequency       */
ARM GAS  C:\Users\tnguy\AppData\Local\Temp\ccYIihLb.s 			page 32


 1232              		.loc 1 529 1 is_stmt 1 view .LVU417
 1233              		.loc 1 529 23 is_stmt 0 view .LVU418
 1234 00be 0A94     		str	r4, [sp, #40]
 530:../../../init/terminal/init.c **** HAL_GPIO_Init( STATUS_GPIO_PORT, &GPIO_InitStruct );  /* Write to registers  */
 1235              		.loc 1 530 1 is_stmt 1 view .LVU419
 1236 00c0 07A9     		add	r1, sp, #28
 1237 00c2 2846     		mov	r0, r5
 1238 00c4 FFF7FEFF 		bl	HAL_GPIO_Init
 1239              	.LVL53:
 531:../../../init/terminal/init.c **** 
 532:../../../init/terminal/init.c **** /*--------------------------- FLASH MCU Pins----------------------------------*/
 533:../../../init/terminal/init.c **** 
 534:../../../init/terminal/init.c **** /* Chip select Pin */
 535:../../../init/terminal/init.c **** 
 536:../../../init/terminal/init.c **** /* Configure GPIO pin Output Level */
 537:../../../init/terminal/init.c **** HAL_GPIO_WritePin( FLASH_SS_GPIO_PORT, FLASH_SS_PIN, GPIO_PIN_SET );
 1240              		.loc 1 537 1 view .LVU420
 1241 00c8 05F58065 		add	r5, r5, #1024
 1242 00cc 0122     		movs	r2, #1
 1243 00ce 4FF48051 		mov	r1, #4096
 1244 00d2 2846     		mov	r0, r5
 1245 00d4 FFF7FEFF 		bl	HAL_GPIO_WritePin
 1246              	.LVL54:
 538:../../../init/terminal/init.c **** 
 539:../../../init/terminal/init.c **** /* Pin configuration */
 540:../../../init/terminal/init.c **** GPIO_InitStruct.Pin   = FLASH_SS_PIN;
 1247              		.loc 1 540 1 view .LVU421
 1248              		.loc 1 540 23 is_stmt 0 view .LVU422
 1249 00d8 4FF48057 		mov	r7, #4096
 1250 00dc 0797     		str	r7, [sp, #28]
 541:../../../init/terminal/init.c **** GPIO_InitStruct.Mode  = GPIO_MODE_OUTPUT_PP;
 1251              		.loc 1 541 1 is_stmt 1 view .LVU423
 1252              		.loc 1 541 23 is_stmt 0 view .LVU424
 1253 00de 0126     		movs	r6, #1
 1254 00e0 0896     		str	r6, [sp, #32]
 542:../../../init/terminal/init.c **** GPIO_InitStruct.Pull  = GPIO_NOPULL;
 1255              		.loc 1 542 1 is_stmt 1 view .LVU425
 1256              		.loc 1 542 23 is_stmt 0 view .LVU426
 1257 00e2 0994     		str	r4, [sp, #36]
 543:../../../init/terminal/init.c **** GPIO_InitStruct.Speed = GPIO_SPEED_FREQ_LOW;
 1258              		.loc 1 543 1 is_stmt 1 view .LVU427
 1259              		.loc 1 543 23 is_stmt 0 view .LVU428
 1260 00e4 0A94     		str	r4, [sp, #40]
 544:../../../init/terminal/init.c **** HAL_GPIO_Init( FLASH_SS_GPIO_PORT, &GPIO_InitStruct );
 1261              		.loc 1 544 1 is_stmt 1 view .LVU429
 1262 00e6 07A9     		add	r1, sp, #28
 1263 00e8 2846     		mov	r0, r5
 1264 00ea FFF7FEFF 		bl	HAL_GPIO_Init
 1265              	.LVL55:
 545:../../../init/terminal/init.c **** 
 546:../../../init/terminal/init.c **** /* Write Protect Pin */
 547:../../../init/terminal/init.c **** 
 548:../../../init/terminal/init.c **** /* Configure GPIO pin Output Level */
 549:../../../init/terminal/init.c **** HAL_GPIO_WritePin( FLASH_WP_GPIO_PORT, FLASH_WP_PIN, GPIO_PIN_RESET );
 1266              		.loc 1 549 1 view .LVU430
 1267 00ee 05F50065 		add	r5, r5, #2048
 1268 00f2 2246     		mov	r2, r4
ARM GAS  C:\Users\tnguy\AppData\Local\Temp\ccYIihLb.s 			page 33


 1269 00f4 3946     		mov	r1, r7
 1270 00f6 2846     		mov	r0, r5
 1271 00f8 FFF7FEFF 		bl	HAL_GPIO_WritePin
 1272              	.LVL56:
 550:../../../init/terminal/init.c **** 
 551:../../../init/terminal/init.c **** /* Pin configuration */
 552:../../../init/terminal/init.c **** GPIO_InitStruct.Pin   = FLASH_WP_PIN;
 1273              		.loc 1 552 1 view .LVU431
 1274              		.loc 1 552 23 is_stmt 0 view .LVU432
 1275 00fc 0797     		str	r7, [sp, #28]
 553:../../../init/terminal/init.c **** GPIO_InitStruct.Mode  = GPIO_MODE_OUTPUT_PP;
 1276              		.loc 1 553 1 is_stmt 1 view .LVU433
 1277              		.loc 1 553 23 is_stmt 0 view .LVU434
 1278 00fe 0896     		str	r6, [sp, #32]
 554:../../../init/terminal/init.c **** GPIO_InitStruct.Pull  = GPIO_NOPULL;
 1279              		.loc 1 554 1 is_stmt 1 view .LVU435
 1280              		.loc 1 554 23 is_stmt 0 view .LVU436
 1281 0100 0994     		str	r4, [sp, #36]
 555:../../../init/terminal/init.c **** GPIO_InitStruct.Speed = GPIO_SPEED_FREQ_LOW;
 1282              		.loc 1 555 1 is_stmt 1 view .LVU437
 1283              		.loc 1 555 23 is_stmt 0 view .LVU438
 1284 0102 0A94     		str	r4, [sp, #40]
 556:../../../init/terminal/init.c **** HAL_GPIO_Init( FLASH_WP_GPIO_PORT, &GPIO_InitStruct );
 1285              		.loc 1 556 1 is_stmt 1 view .LVU439
 1286 0104 07A9     		add	r1, sp, #28
 1287 0106 2846     		mov	r0, r5
 1288 0108 FFF7FEFF 		bl	HAL_GPIO_Init
 1289              	.LVL57:
 557:../../../init/terminal/init.c **** 
 558:../../../init/terminal/init.c **** /* Flash hold pin */
 559:../../../init/terminal/init.c **** 
 560:../../../init/terminal/init.c **** /*Configure GPIO pin Output Level */
 561:../../../init/terminal/init.c **** HAL_GPIO_WritePin(FLASH_HOLD_GPIO_PORT, FLASH_HOLD_PIN, GPIO_PIN_SET);
 1290              		.loc 1 561 1 view .LVU440
 1291 010c 3246     		mov	r2, r6
 1292 010e 4FF40051 		mov	r1, #8192
 1293 0112 2846     		mov	r0, r5
 1294 0114 FFF7FEFF 		bl	HAL_GPIO_WritePin
 1295              	.LVL58:
 562:../../../init/terminal/init.c **** 
 563:../../../init/terminal/init.c **** /*Configure GPIO pin : PD13 */
 564:../../../init/terminal/init.c **** GPIO_InitStruct.Pin   = FLASH_HOLD_PIN;
 1296              		.loc 1 564 1 view .LVU441
 1297              		.loc 1 564 23 is_stmt 0 view .LVU442
 1298 0118 4FF40058 		mov	r8, #8192
 1299 011c CDF81C80 		str	r8, [sp, #28]
 565:../../../init/terminal/init.c **** GPIO_InitStruct.Mode  = GPIO_MODE_OUTPUT_PP;
 1300              		.loc 1 565 1 is_stmt 1 view .LVU443
 1301              		.loc 1 565 23 is_stmt 0 view .LVU444
 1302 0120 0896     		str	r6, [sp, #32]
 566:../../../init/terminal/init.c **** GPIO_InitStruct.Pull  = GPIO_NOPULL;
 1303              		.loc 1 566 1 is_stmt 1 view .LVU445
 1304              		.loc 1 566 23 is_stmt 0 view .LVU446
 1305 0122 0994     		str	r4, [sp, #36]
 567:../../../init/terminal/init.c **** GPIO_InitStruct.Speed = GPIO_SPEED_FREQ_LOW;
 1306              		.loc 1 567 1 is_stmt 1 view .LVU447
 1307              		.loc 1 567 23 is_stmt 0 view .LVU448
ARM GAS  C:\Users\tnguy\AppData\Local\Temp\ccYIihLb.s 			page 34


 1308 0124 0A94     		str	r4, [sp, #40]
 568:../../../init/terminal/init.c **** HAL_GPIO_Init(FLASH_HOLD_GPIO_PORT, &GPIO_InitStruct);
 1309              		.loc 1 568 1 is_stmt 1 view .LVU449
 1310 0126 07A9     		add	r1, sp, #28
 1311 0128 2846     		mov	r0, r5
 1312 012a FFF7FEFF 		bl	HAL_GPIO_Init
 1313              	.LVL59:
 569:../../../init/terminal/init.c **** 
 570:../../../init/terminal/init.c **** /*------------------------- IGNITION MCU Pins --------------------------------*/
 571:../../../init/terminal/init.c **** 
 572:../../../init/terminal/init.c **** /* Drogue Deployment Pin */
 573:../../../init/terminal/init.c **** HAL_GPIO_WritePin( DROGUE_GPIO_PORT, DROGUE_PIN, GPIO_PIN_RESET );
 1314              		.loc 1 573 1 view .LVU450
 1315 012e 304F     		ldr	r7, .L83+8
 1316 0130 2246     		mov	r2, r4
 1317 0132 4146     		mov	r1, r8
 1318 0134 3846     		mov	r0, r7
 1319 0136 FFF7FEFF 		bl	HAL_GPIO_WritePin
 1320              	.LVL60:
 574:../../../init/terminal/init.c **** GPIO_InitStruct.Pin   = DROGUE_PIN;
 1321              		.loc 1 574 1 view .LVU451
 1322              		.loc 1 574 23 is_stmt 0 view .LVU452
 1323 013a CDF81C80 		str	r8, [sp, #28]
 575:../../../init/terminal/init.c **** GPIO_InitStruct.Mode  = GPIO_MODE_OUTPUT_PP;
 1324              		.loc 1 575 1 is_stmt 1 view .LVU453
 1325              		.loc 1 575 23 is_stmt 0 view .LVU454
 1326 013e 0896     		str	r6, [sp, #32]
 576:../../../init/terminal/init.c **** GPIO_InitStruct.Pull  = GPIO_NOPULL;
 1327              		.loc 1 576 1 is_stmt 1 view .LVU455
 1328              		.loc 1 576 23 is_stmt 0 view .LVU456
 1329 0140 0994     		str	r4, [sp, #36]
 577:../../../init/terminal/init.c **** GPIO_InitStruct.Speed = GPIO_SPEED_FREQ_LOW;
 1330              		.loc 1 577 1 is_stmt 1 view .LVU457
 1331              		.loc 1 577 23 is_stmt 0 view .LVU458
 1332 0142 0A94     		str	r4, [sp, #40]
 578:../../../init/terminal/init.c **** HAL_GPIO_Init( DROGUE_GPIO_PORT, &GPIO_InitStruct );
 1333              		.loc 1 578 1 is_stmt 1 view .LVU459
 1334 0144 07A9     		add	r1, sp, #28
 1335 0146 3846     		mov	r0, r7
 1336 0148 FFF7FEFF 		bl	HAL_GPIO_Init
 1337              	.LVL61:
 579:../../../init/terminal/init.c **** 
 580:../../../init/terminal/init.c **** /* Main Deployment Pin */
 581:../../../init/terminal/init.c **** HAL_GPIO_WritePin( MAIN_GPIO_PORT, MAIN_PIN, GPIO_PIN_RESET );
 1338              		.loc 1 581 1 view .LVU460
 1339 014c 2246     		mov	r2, r4
 1340 014e 4021     		movs	r1, #64
 1341 0150 2846     		mov	r0, r5
 1342 0152 FFF7FEFF 		bl	HAL_GPIO_WritePin
 1343              	.LVL62:
 582:../../../init/terminal/init.c **** GPIO_InitStruct.Pin   = MAIN_PIN;
 1344              		.loc 1 582 1 view .LVU461
 1345              		.loc 1 582 23 is_stmt 0 view .LVU462
 1346 0156 4023     		movs	r3, #64
 1347 0158 0793     		str	r3, [sp, #28]
 583:../../../init/terminal/init.c **** GPIO_InitStruct.Mode  = GPIO_MODE_OUTPUT_PP;
 1348              		.loc 1 583 1 is_stmt 1 view .LVU463
ARM GAS  C:\Users\tnguy\AppData\Local\Temp\ccYIihLb.s 			page 35


 1349              		.loc 1 583 23 is_stmt 0 view .LVU464
 1350 015a 0896     		str	r6, [sp, #32]
 584:../../../init/terminal/init.c **** GPIO_InitStruct.Pull  = GPIO_NOPULL;
 1351              		.loc 1 584 1 is_stmt 1 view .LVU465
 1352              		.loc 1 584 23 is_stmt 0 view .LVU466
 1353 015c 0994     		str	r4, [sp, #36]
 585:../../../init/terminal/init.c **** GPIO_InitStruct.Speed = GPIO_SPEED_FREQ_LOW;
 1354              		.loc 1 585 1 is_stmt 1 view .LVU467
 1355              		.loc 1 585 23 is_stmt 0 view .LVU468
 1356 015e 0A94     		str	r4, [sp, #40]
 586:../../../init/terminal/init.c **** HAL_GPIO_Init( MAIN_GPIO_PORT, &GPIO_InitStruct );
 1357              		.loc 1 586 1 is_stmt 1 view .LVU469
 1358 0160 07A9     		add	r1, sp, #28
 1359 0162 2846     		mov	r0, r5
 1360 0164 FFF7FEFF 		bl	HAL_GPIO_Init
 1361              	.LVL63:
 587:../../../init/terminal/init.c **** 
 588:../../../init/terminal/init.c **** /* Switch Continuity Pin */
 589:../../../init/terminal/init.c **** GPIO_InitStruct.Pin  = SWITCH_PIN;
 1362              		.loc 1 589 1 view .LVU470
 1363              		.loc 1 589 22 is_stmt 0 view .LVU471
 1364 0168 8023     		movs	r3, #128
 1365 016a 0793     		str	r3, [sp, #28]
 590:../../../init/terminal/init.c **** GPIO_InitStruct.Mode = GPIO_MODE_INPUT;
 1366              		.loc 1 590 1 is_stmt 1 view .LVU472
 1367              		.loc 1 590 22 is_stmt 0 view .LVU473
 1368 016c 0894     		str	r4, [sp, #32]
 591:../../../init/terminal/init.c **** GPIO_InitStruct.Pull = GPIO_NOPULL;
 1369              		.loc 1 591 1 is_stmt 1 view .LVU474
 1370              		.loc 1 591 22 is_stmt 0 view .LVU475
 1371 016e 0994     		str	r4, [sp, #36]
 592:../../../init/terminal/init.c **** HAL_GPIO_Init( SWITCH_GPIO_PORT, &GPIO_InitStruct );
 1372              		.loc 1 592 1 is_stmt 1 view .LVU476
 1373 0170 07A9     		add	r1, sp, #28
 1374 0172 2846     		mov	r0, r5
 1375 0174 FFF7FEFF 		bl	HAL_GPIO_Init
 1376              	.LVL64:
 593:../../../init/terminal/init.c **** 
 594:../../../init/terminal/init.c **** /* Main Continuity Pin */
 595:../../../init/terminal/init.c **** GPIO_InitStruct.Pin  = MAIN_CONT_PIN;
 1377              		.loc 1 595 1 view .LVU477
 1378              		.loc 1 595 22 is_stmt 0 view .LVU478
 1379 0178 1023     		movs	r3, #16
 1380 017a 0793     		str	r3, [sp, #28]
 596:../../../init/terminal/init.c **** GPIO_InitStruct.Mode = GPIO_MODE_INPUT;
 1381              		.loc 1 596 1 is_stmt 1 view .LVU479
 1382              		.loc 1 596 22 is_stmt 0 view .LVU480
 1383 017c 0894     		str	r4, [sp, #32]
 597:../../../init/terminal/init.c **** GPIO_InitStruct.Pull = GPIO_NOPULL;
 1384              		.loc 1 597 1 is_stmt 1 view .LVU481
 1385              		.loc 1 597 22 is_stmt 0 view .LVU482
 1386 017e 0994     		str	r4, [sp, #36]
 598:../../../init/terminal/init.c **** HAL_GPIO_Init( MAIN_CONT_GPIO_PORT, &GPIO_InitStruct );
 1387              		.loc 1 598 1 is_stmt 1 view .LVU483
 1388 0180 1C4E     		ldr	r6, .L83+12
 1389 0182 07A9     		add	r1, sp, #28
 1390 0184 3046     		mov	r0, r6
ARM GAS  C:\Users\tnguy\AppData\Local\Temp\ccYIihLb.s 			page 36


 1391 0186 FFF7FEFF 		bl	HAL_GPIO_Init
 1392              	.LVL65:
 599:../../../init/terminal/init.c **** 
 600:../../../init/terminal/init.c **** /* Drogue Continuity Pin */
 601:../../../init/terminal/init.c **** GPIO_InitStruct.Pin  = DROGUE_CONT_PIN;
 1393              		.loc 1 601 1 view .LVU484
 1394              		.loc 1 601 22 is_stmt 0 view .LVU485
 1395 018a 4FF48043 		mov	r3, #16384
 1396 018e 0793     		str	r3, [sp, #28]
 602:../../../init/terminal/init.c **** GPIO_InitStruct.Mode = GPIO_MODE_INPUT;
 1397              		.loc 1 602 1 is_stmt 1 view .LVU486
 1398              		.loc 1 602 22 is_stmt 0 view .LVU487
 1399 0190 0894     		str	r4, [sp, #32]
 603:../../../init/terminal/init.c **** GPIO_InitStruct.Pull = GPIO_NOPULL;
 1400              		.loc 1 603 1 is_stmt 1 view .LVU488
 1401              		.loc 1 603 22 is_stmt 0 view .LVU489
 1402 0192 0994     		str	r4, [sp, #36]
 604:../../../init/terminal/init.c **** HAL_GPIO_Init( DROGUE_CONT_GPIO_PORT, &GPIO_InitStruct );
 1403              		.loc 1 604 1 is_stmt 1 view .LVU490
 1404 0194 07A9     		add	r1, sp, #28
 1405 0196 3846     		mov	r0, r7
 1406 0198 FFF7FEFF 		bl	HAL_GPIO_Init
 1407              	.LVL66:
 605:../../../init/terminal/init.c **** 
 606:../../../init/terminal/init.c **** /*------------------------ BARO SENSOR PINS --------------------------------*/
 607:../../../init/terminal/init.c **** 
 608:../../../init/terminal/init.c **** /* Interrupt pin */
 609:../../../init/terminal/init.c **** GPIO_InitStruct.Pin  = BP_INT_PIN;
 1408              		.loc 1 609 1 view .LVU491
 1409              		.loc 1 609 22 is_stmt 0 view .LVU492
 1410 019c 0823     		movs	r3, #8
 1411 019e 0793     		str	r3, [sp, #28]
 610:../../../init/terminal/init.c **** GPIO_InitStruct.Mode = GPIO_MODE_INPUT;
 1412              		.loc 1 610 1 is_stmt 1 view .LVU493
 1413              		.loc 1 610 22 is_stmt 0 view .LVU494
 1414 01a0 0894     		str	r4, [sp, #32]
 611:../../../init/terminal/init.c **** GPIO_InitStruct.Pull = GPIO_PULLDOWN;
 1415              		.loc 1 611 1 is_stmt 1 view .LVU495
 1416              		.loc 1 611 22 is_stmt 0 view .LVU496
 1417 01a2 0223     		movs	r3, #2
 1418 01a4 0993     		str	r3, [sp, #36]
 612:../../../init/terminal/init.c **** HAL_GPIO_Init( BP_INT_GPIO_PORT, &GPIO_InitStruct );
 1419              		.loc 1 612 1 is_stmt 1 view .LVU497
 1420 01a6 07A9     		add	r1, sp, #28
 1421 01a8 3046     		mov	r0, r6
 1422 01aa FFF7FEFF 		bl	HAL_GPIO_Init
 1423              	.LVL67:
 613:../../../init/terminal/init.c **** 
 614:../../../init/terminal/init.c **** /*-------------------------- SD CARD PINS ----------------------------------*/
 615:../../../init/terminal/init.c **** 
 616:../../../init/terminal/init.c **** /* SD card detect pin */
 617:../../../init/terminal/init.c **** GPIO_InitStruct.Pin  = SDR_SD_DETECT_PIN;
 1424              		.loc 1 617 1 view .LVU498
 1425              		.loc 1 617 22 is_stmt 0 view .LVU499
 1426 01ae 4FF40043 		mov	r3, #32768
 1427 01b2 0793     		str	r3, [sp, #28]
 618:../../../init/terminal/init.c **** GPIO_InitStruct.Mode = GPIO_MODE_INPUT;
ARM GAS  C:\Users\tnguy\AppData\Local\Temp\ccYIihLb.s 			page 37


 1428              		.loc 1 618 1 is_stmt 1 view .LVU500
 1429              		.loc 1 618 22 is_stmt 0 view .LVU501
 1430 01b4 0894     		str	r4, [sp, #32]
 619:../../../init/terminal/init.c **** GPIO_InitStruct.Pull = GPIO_NOPULL;
 1431              		.loc 1 619 1 is_stmt 1 view .LVU502
 1432              		.loc 1 619 22 is_stmt 0 view .LVU503
 1433 01b6 0994     		str	r4, [sp, #36]
 620:../../../init/terminal/init.c **** HAL_GPIO_Init( SDR_SD_DETECT_GPIO_PORT, &GPIO_InitStruct );
 1434              		.loc 1 620 1 is_stmt 1 view .LVU504
 1435 01b8 07A9     		add	r1, sp, #28
 1436 01ba 2846     		mov	r0, r5
 1437 01bc FFF7FEFF 		bl	HAL_GPIO_Init
 1438              	.LVL68:
 621:../../../init/terminal/init.c **** 
 622:../../../init/terminal/init.c **** /*---------------------------- USB Pins ------------------------------------*/
 623:../../../init/terminal/init.c **** 
 624:../../../init/terminal/init.c **** #if defined( A0002_REV2 )
 625:../../../init/terminal/init.c **** 	/* USB Detect Pin */
 626:../../../init/terminal/init.c **** 	GPIO_InitStruct.Pin  = USB_DETECT_PIN;
 1439              		.loc 1 626 2 view .LVU505
 1440              		.loc 1 626 23 is_stmt 0 view .LVU506
 1441 01c0 4FF40076 		mov	r6, #512
 1442 01c4 0796     		str	r6, [sp, #28]
 627:../../../init/terminal/init.c **** 	GPIO_InitStruct.Mode = GPIO_MODE_INPUT;
 1443              		.loc 1 627 2 is_stmt 1 view .LVU507
 1444              		.loc 1 627 23 is_stmt 0 view .LVU508
 1445 01c6 0894     		str	r4, [sp, #32]
 628:../../../init/terminal/init.c **** 	GPIO_InitStruct.Pull = GPIO_NOPULL;
 1446              		.loc 1 628 2 is_stmt 1 view .LVU509
 1447              		.loc 1 628 23 is_stmt 0 view .LVU510
 1448 01c8 0994     		str	r4, [sp, #36]
 629:../../../init/terminal/init.c **** 	HAL_GPIO_Init( USB_DETECT_GPIO_PORT, &GPIO_InitStruct );
 1449              		.loc 1 629 2 is_stmt 1 view .LVU511
 1450 01ca 07A9     		add	r1, sp, #28
 1451 01cc 2846     		mov	r0, r5
 1452 01ce FFF7FEFF 		bl	HAL_GPIO_Init
 1453              	.LVL69:
 630:../../../init/terminal/init.c **** #endif /* #if defined( A0002_REV2 ) */
 631:../../../init/terminal/init.c **** 
 632:../../../init/terminal/init.c **** /*---------------------------- GPS Pins ------------------------------------*/
 633:../../../init/terminal/init.c **** 
 634:../../../init/terminal/init.c **** #if defined( A0002_REV2 )
 635:../../../init/terminal/init.c **** 	/* GPS Detect Pin */
 636:../../../init/terminal/init.c **** 	GPIO_InitStruct.Pin  = USB_DETECT_PIN;
 1454              		.loc 1 636 2 view .LVU512
 1455              		.loc 1 636 23 is_stmt 0 view .LVU513
 1456 01d2 0796     		str	r6, [sp, #28]
 637:../../../init/terminal/init.c **** 	GPIO_InitStruct.Mode = GPIO_MODE_INPUT;
 1457              		.loc 1 637 2 is_stmt 1 view .LVU514
 1458              		.loc 1 637 23 is_stmt 0 view .LVU515
 1459 01d4 0894     		str	r4, [sp, #32]
 638:../../../init/terminal/init.c **** 	GPIO_InitStruct.Pull = GPIO_NOPULL;
 1460              		.loc 1 638 2 is_stmt 1 view .LVU516
 1461              		.loc 1 638 23 is_stmt 0 view .LVU517
 1462 01d6 0994     		str	r4, [sp, #36]
 639:../../../init/terminal/init.c **** 	HAL_GPIO_Init( USB_DETECT_GPIO_PORT, &GPIO_InitStruct );
 1463              		.loc 1 639 2 is_stmt 1 view .LVU518
ARM GAS  C:\Users\tnguy\AppData\Local\Temp\ccYIihLb.s 			page 38


 1464 01d8 07A9     		add	r1, sp, #28
 1465 01da 2846     		mov	r0, r5
 1466 01dc FFF7FEFF 		bl	HAL_GPIO_Init
 1467              	.LVL70:
 640:../../../init/terminal/init.c **** #endif /* #if defined( A0002_REV2 ) */
 641:../../../init/terminal/init.c **** 
 642:../../../init/terminal/init.c **** } /* GPIO_Init */
 1468              		.loc 1 642 1 is_stmt 0 view .LVU519
 1469 01e0 0CB0     		add	sp, sp, #48
 1470              	.LCFI19:
 1471              		.cfi_def_cfa_offset 24
 1472              		@ sp needed
 1473 01e2 BDE8F081 		pop	{r4, r5, r6, r7, r8, pc}
 1474              	.L84:
 1475 01e6 00BF     		.align	2
 1476              	.L83:
 1477 01e8 00440258 		.word	1476543488
 1478 01ec 00000258 		.word	1476526080
 1479 01f0 00080258 		.word	1476528128
 1480 01f4 00100258 		.word	1476530176
 1481              		.cfi_endproc
 1482              	.LFE153:
 1484              		.text
 1485              	.Letext0:
 1486              		.file 2 "c:\\program files (x86)\\gnu arm embedded toolchain\\10 2021.10\\arm-none-eabi\\include\\
 1487              		.file 3 "c:\\program files (x86)\\gnu arm embedded toolchain\\10 2021.10\\arm-none-eabi\\include\\
 1488              		.file 4 "../../../lib/Drivers/CMSIS/Device/ST/STM32H7xx/Include/stm32h750xx.h"
 1489              		.file 5 "../../../lib/Drivers/STM32H7xx_HAL_Driver/Inc/stm32h7xx_hal_def.h"
 1490              		.file 6 "../../../lib/Drivers/STM32H7xx_HAL_Driver/Inc/stm32h7xx_hal_rcc.h"
 1491              		.file 7 "../../../lib/Drivers/STM32H7xx_HAL_Driver/Inc/stm32h7xx_hal_rcc_ex.h"
 1492              		.file 8 "../../../lib/Drivers/STM32H7xx_HAL_Driver/Inc/stm32h7xx_hal_gpio.h"
 1493              		.file 9 "../../../lib/Drivers/STM32H7xx_HAL_Driver/Inc/stm32h7xx_hal_dma.h"
 1494              		.file 10 "../../../lib/Drivers/STM32H7xx_HAL_Driver/Inc/stm32h7xx_hal_i2c.h"
 1495              		.file 11 "../../../lib/Drivers/STM32H7xx_HAL_Driver/Inc/stm32h7xx_ll_sdmmc.h"
 1496              		.file 12 "../../../lib/Drivers/STM32H7xx_HAL_Driver/Inc/stm32h7xx_hal_sd.h"
 1497              		.file 13 "../../../lib/Drivers/STM32H7xx_HAL_Driver/Inc/stm32h7xx_hal_spi.h"
 1498              		.file 14 "../../../lib/Drivers/STM32H7xx_HAL_Driver/Inc/stm32h7xx_hal_tim.h"
 1499              		.file 15 "../../../lib/Drivers/STM32H7xx_HAL_Driver/Inc/stm32h7xx_hal_uart.h"
 1500              		.file 16 "../../../lib/sdr_pin_defines_A0002.h"
 1501              		.file 17 "../../../lib/Drivers/STM32H7xx_HAL_Driver/Inc/stm32h7xx_hal_tim_ex.h"
 1502              		.file 18 "./main.h"
 1503              		.file 19 "../../../lib/Drivers/STM32H7xx_HAL_Driver/Inc/stm32h7xx_hal_uart_ex.h"
 1504              		.file 20 "../../../lib/Drivers/STM32H7xx_HAL_Driver/Inc/stm32h7xx_hal_i2c_ex.h"
 1505              		.file 21 "../../../lib/Drivers/STM32H7xx_HAL_Driver/Inc/stm32h7xx_hal_pwr_ex.h"
 1506              		.file 22 "<built-in>"
ARM GAS  C:\Users\tnguy\AppData\Local\Temp\ccYIihLb.s 			page 39

