ARM GAS  /tmp/ccIqHiTT.s 			page 1


   1              		.cpu cortex-m7
   2              		.arch armv7e-m
   3              		.fpu fpv5-d16
   4              		.eabi_attribute 28, 1
   5              		.eabi_attribute 20, 1
   6              		.eabi_attribute 21, 1
   7              		.eabi_attribute 23, 3
   8              		.eabi_attribute 24, 1
   9              		.eabi_attribute 25, 1
  10              		.eabi_attribute 26, 1
  11              		.eabi_attribute 30, 1
  12              		.eabi_attribute 34, 1
  13              		.eabi_attribute 18, 4
  14              		.file	"main.c"
  15              		.text
  16              	.Ltext0:
  17              		.cfi_sections	.debug_frame
  18              		.file 1 "main.c"
  19              		.section	.text.Error_Handler,"ax",%progbits
  20              		.align	1
  21              		.global	Error_Handler
  22              		.syntax unified
  23              		.thumb
  24              		.thumb_func
  26              	Error_Handler:
  27              	.LFB145:
   1:main.c        **** /*******************************************************************************
   2:main.c        **** *                                                                              *
   3:main.c        **** * FILE:                                                                        * 
   4:main.c        **** * 		main.c                                                                 *
   5:main.c        **** *                                                                              *
   6:main.c        **** * DESCRIPTION:                                                                 * 
   7:main.c        **** * 		Processes commands recieved from a host PC, provides fine control over * 
   8:main.c        **** *       flight computer hardware resources                                     *
   9:main.c        **** *                                                                              *
  10:main.c        **** *******************************************************************************/
  11:main.c        **** 
  12:main.c        **** 
  13:main.c        **** /*------------------------------------------------------------------------------
  14:main.c        ****  Standard Includes                                                                     
  15:main.c        **** ------------------------------------------------------------------------------*/
  16:main.c        **** #include <stdbool.h>
  17:main.c        **** #include "sdr_pin_defines_A0002.h"
  18:main.c        **** 
  19:main.c        **** 
  20:main.c        **** /*------------------------------------------------------------------------------
  21:main.c        ****  Project Includes                                                                     
  22:main.c        **** ------------------------------------------------------------------------------*/
  23:main.c        **** 
  24:main.c        **** /* Application Layer */
  25:main.c        **** #include "main.h"
  26:main.c        **** #include "init.h"
  27:main.c        **** #include "fatfs.h"
  28:main.c        **** 
  29:main.c        **** /* Hardware modules */
  30:main.c        **** #include "baro.h"
  31:main.c        **** #include "buzzer.h"
ARM GAS  /tmp/ccIqHiTT.s 			page 2


  32:main.c        **** #include "commands.h"
  33:main.c        **** #include "flash.h"
  34:main.c        **** #include "ignition.h"
  35:main.c        **** #include "imu.h"
  36:main.c        **** #include "led.h"
  37:main.c        **** #include "sensor.h"
  38:main.c        **** #include "usb.h"
  39:main.c        **** 
  40:main.c        **** 
  41:main.c        **** /*------------------------------------------------------------------------------
  42:main.c        ****  MCU Peripheral Handlers                                                         
  43:main.c        **** ------------------------------------------------------------------------------*/
  44:main.c        **** I2C_HandleTypeDef  hi2c1;   /* Baro sensor    */
  45:main.c        **** I2C_HandleTypeDef  hi2c2;   /* IMU and GPS    */
  46:main.c        **** SD_HandleTypeDef   hsd1;    /* SD Card        */
  47:main.c        **** SPI_HandleTypeDef  hspi2;   /* External flash */
  48:main.c        **** TIM_HandleTypeDef  htim4;   /* Buzzer Timer   */
  49:main.c        **** UART_HandleTypeDef huart6;  /* USB            */
  50:main.c        **** 
  51:main.c        **** 
  52:main.c        **** /*------------------------------------------------------------------------------
  53:main.c        ****  Application entry point                                                      
  54:main.c        **** ------------------------------------------------------------------------------*/
  55:main.c        **** int main
  56:main.c        **** 	(
  57:main.c        ****  	void
  58:main.c        **** 	)
  59:main.c        **** {
  60:main.c        **** /*------------------------------------------------------------------------------
  61:main.c        ****  Local Variables                                                                  
  62:main.c        **** ------------------------------------------------------------------------------*/
  63:main.c        **** uint8_t       rx_data;                         /* USB Incoming Data Buffer    */
  64:main.c        **** uint8_t       subcommand_code;                 /* Subcommand opcode           */
  65:main.c        **** USB_STATUS    command_status;                  /* Status of USB HAL           */
  66:main.c        **** 
  67:main.c        **** /* External Flash */
  68:main.c        **** FLASH_STATUS  flash_status;                    /* Status of flash driver      */
  69:main.c        **** HFLASH_BUFFER flash_handle;                    /* Flash API buffer handle     */
  70:main.c        **** uint8_t       flash_buffer[ DEF_FLASH_BUFFER_SIZE ]; /* Flash data buffer     */
  71:main.c        **** 
  72:main.c        **** /* Module Return Codes */
  73:main.c        **** BARO_STATUS   baro_status;                     /* Status of baro sensor       */
  74:main.c        **** BARO_CONFIG   baro_configs;                    /* Baro sensor config settings */
  75:main.c        **** IGN_STATUS    ign_status;                      /* Ignition status code        */
  76:main.c        **** 
  77:main.c        **** 
  78:main.c        **** /*------------------------------------------------------------------------------
  79:main.c        ****  MCU Initialization                                                                  
  80:main.c        **** ------------------------------------------------------------------------------*/
  81:main.c        **** HAL_Init();                 /* Reset peripherals, initialize flash interface 
  82:main.c        ****                                and Systick.                                   */
  83:main.c        **** SystemClock_Config();       /* System clock                                   */
  84:main.c        **** PeriphCommonClock_Config(); /* Common Peripherals clock                       */
  85:main.c        **** GPIO_Init();                /* GPIO                                           */
  86:main.c        **** USB_UART_Init();            /* USB UART                                       */
  87:main.c        **** Baro_I2C_Init();            /* Barometric pressure sensor                     */
  88:main.c        **** IMU_GPS_I2C_Init();         /* IMU and GPS                                    */
ARM GAS  /tmp/ccIqHiTT.s 			page 3


  89:main.c        **** FLASH_SPI_Init();           /* External flash chip                            */
  90:main.c        **** BUZZER_TIM_Init();          /* Buzzer                                         */
  91:main.c        **** SD_SDMMC_Init();            /* SD card SDMMC interface                        */
  92:main.c        **** MX_FATFS_Init();            /* FatFs file system middleware                   */
  93:main.c        **** 
  94:main.c        **** 
  95:main.c        **** /*------------------------------------------------------------------------------
  96:main.c        ****  Variable Initializations 
  97:main.c        **** ------------------------------------------------------------------------------*/
  98:main.c        **** 
  99:main.c        **** /* Flash Configuration */
 100:main.c        **** flash_handle.write_protected   = FLASH_WP_WRITE_ENABLED;
 101:main.c        **** flash_handle.num_bytes         = 0;
 102:main.c        **** flash_handle.address           = 0;
 103:main.c        **** flash_handle.pbuffer           = &flash_buffer[0];
 104:main.c        **** flash_handle.status_register   = 0xFF;
 105:main.c        **** flash_handle.bpl_bits          = FLASH_BPL_NONE;
 106:main.c        **** flash_handle.bpl_write_protect = FLASH_BPL_READ_WRITE;
 107:main.c        **** 
 108:main.c        **** /* Baro Configuration */
 109:main.c        **** baro_configs.enable            = BARO_PRESS_TEMP_ENABLED;
 110:main.c        **** baro_configs.mode              = BARO_NORMAL_MODE;
 111:main.c        **** baro_configs.press_OSR_setting = BARO_PRESS_OSR_X8;
 112:main.c        **** baro_configs.temp_OSR_setting  = BARO_TEMP_OSR_X1;
 113:main.c        **** baro_configs.ODR_setting       = BARO_ODR_50HZ;
 114:main.c        **** baro_configs.IIR_setting       = BARO_IIR_COEF_0;
 115:main.c        **** 
 116:main.c        **** /* Module return codes */
 117:main.c        **** baro_status                    = BARO_OK;
 118:main.c        **** command_status                 = USB_OK;
 119:main.c        **** flash_status                   = FLASH_OK;
 120:main.c        **** ign_status                     = IGN_OK;
 121:main.c        **** 
 122:main.c        **** 
 123:main.c        **** /*------------------------------------------------------------------------------
 124:main.c        ****  External Hardware Initializations 
 125:main.c        **** ------------------------------------------------------------------------------*/
 126:main.c        **** 
 127:main.c        **** /* Flash Chip */
 128:main.c        **** flash_status = flash_init( &flash_handle );
 129:main.c        **** if ( flash_status != FLASH_OK )
 130:main.c        **** 	{
 131:main.c        **** 	Error_Handler();
 132:main.c        **** 	}
 133:main.c        **** 
 134:main.c        **** /* Sensor Module - Sets up the sensor sizes/offsets table */
 135:main.c        **** sensor_init();
 136:main.c        **** 
 137:main.c        **** /* Barometric pressure sensor */
 138:main.c        **** baro_status = baro_init( &baro_configs );
 139:main.c        **** if ( baro_status != BARO_OK )
 140:main.c        **** 	{
 141:main.c        **** 	Error_Handler();
 142:main.c        **** 	}
 143:main.c        **** 
 144:main.c        **** /* Indicate Successful MCU and Peripheral Hardware Setup */
 145:main.c        **** led_set_color( LED_GREEN );
ARM GAS  /tmp/ccIqHiTT.s 			page 4


 146:main.c        **** 
 147:main.c        **** 
 148:main.c        **** /*------------------------------------------------------------------------------
 149:main.c        ****  Event Loop                                                                  
 150:main.c        **** ------------------------------------------------------------------------------*/
 151:main.c        **** while (1)
 152:main.c        **** 	{
 153:main.c        **** 	/* Get sdec command from USB port */
 154:main.c        **** 	command_status = usb_receive( 
 155:main.c        ****                                  &rx_data, 
 156:main.c        ****                                  sizeof( rx_data ), 
 157:main.c        ****                                  HAL_DEFAULT_TIMEOUT 
 158:main.c        ****                                 );
 159:main.c        **** 
 160:main.c        **** 	/* Parse command input if HAL_UART_Receive doesn't timeout */
 161:main.c        **** 	if ( command_status == USB_OK )
 162:main.c        **** 		{
 163:main.c        **** 		switch( rx_data )
 164:main.c        **** 			{
 165:main.c        **** 			/*------------------------- Ping Command -------------------------*/
 166:main.c        **** 			case PING_OP:
 167:main.c        **** 				{
 168:main.c        **** 				ping();
 169:main.c        **** 				break;
 170:main.c        **** 				}
 171:main.c        **** 
 172:main.c        **** 			/*------------------------ Connect Command ------------------------*/
 173:main.c        **** 			case CONNECT_OP:
 174:main.c        **** 				{
 175:main.c        **** 				ping();
 176:main.c        **** 				break;
 177:main.c        **** 				}
 178:main.c        **** 
 179:main.c        **** 			/*------------------------ Sensor Command ------------------------*/
 180:main.c        **** 			case SENSOR_OP:
 181:main.c        **** 				{
 182:main.c        **** 				/* Receive sensor subcommand  */
 183:main.c        **** 				command_status = usb_receive( &subcommand_code         ,
 184:main.c        **** 				                              sizeof( subcommand_code ),
 185:main.c        **** 				                              HAL_DEFAULT_TIMEOUT );
 186:main.c        **** 
 187:main.c        **** 				if ( command_status == USB_OK )
 188:main.c        **** 					{
 189:main.c        **** 					/* Execute sensor subcommand */
 190:main.c        **** 					sensor_cmd_execute( subcommand_code );
 191:main.c        **** 					}
 192:main.c        **** 				else
 193:main.c        **** 					{
 194:main.c        **** 					Error_Handler();
 195:main.c        **** 					}
 196:main.c        **** 				break;
 197:main.c        **** 				}
 198:main.c        **** 
 199:main.c        **** 			/*------------------------ Ignite Command -------------------------*/
 200:main.c        **** 			case IGNITE_OP:
 201:main.c        **** 				{
 202:main.c        **** 				/* Recieve ignition subcommand over USB */
ARM GAS  /tmp/ccIqHiTT.s 			page 5


 203:main.c        **** 				command_status = usb_receive( &subcommand_code         , 
 204:main.c        ****                                               sizeof( subcommand_code ),
 205:main.c        ****                                               HAL_DEFAULT_TIMEOUT );
 206:main.c        **** 
 207:main.c        **** 				/* Execute subcommand */
 208:main.c        **** 				if ( command_status == USB_OK )
 209:main.c        **** 					{
 210:main.c        **** 					/* Execute subcommand*/
 211:main.c        **** 				    ign_status = ign_cmd_execute( subcommand_code );
 212:main.c        **** 
 213:main.c        **** 					/* Return response code to terminal */
 214:main.c        **** 					usb_transmit( &ign_status, 
 215:main.c        **** 								  sizeof( ign_status ), 
 216:main.c        **** 								  HAL_DEFAULT_TIMEOUT );
 217:main.c        **** 				    }
 218:main.c        **** 				else
 219:main.c        **** 					{
 220:main.c        **** 					/* Error: no subcommand recieved */
 221:main.c        **** 				    Error_Handler();
 222:main.c        **** 				    }
 223:main.c        **** 
 224:main.c        **** 				break; 
 225:main.c        **** 				} /* IGNITE_OP */
 226:main.c        **** 
 227:main.c        **** 			/*------------------------ Flash Command --------------------------*/
 228:main.c        **** 			case FLASH_OP:
 229:main.c        **** 				{
 230:main.c        **** 				/* Recieve flash subcommand over USB */
 231:main.c        **** 				command_status = usb_receive( &subcommand_code         , 
 232:main.c        ****                                               sizeof( subcommand_code ),
 233:main.c        ****                                               HAL_DEFAULT_TIMEOUT );
 234:main.c        **** 
 235:main.c        **** 				/* Execute subcommand */
 236:main.c        **** 				if ( command_status == USB_OK )
 237:main.c        **** 					{
 238:main.c        **** 					flash_status = flash_cmd_execute( subcommand_code,
 239:main.c        **** 			                                          &flash_handle );
 240:main.c        **** 					}
 241:main.c        **** 				else
 242:main.c        **** 					{
 243:main.c        **** 					/* Subcommand code not recieved */
 244:main.c        **** 					Error_Handler();
 245:main.c        **** 					}
 246:main.c        **** 
 247:main.c        **** 				/* Transmit status code to PC */
 248:main.c        **** 				command_status = usb_transmit( &flash_status         , 
 249:main.c        ****                                                sizeof( flash_status ),
 250:main.c        ****                                                HAL_DEFAULT_TIMEOUT );
 251:main.c        **** 
 252:main.c        **** 				if ( command_status != USB_OK )
 253:main.c        **** 					{
 254:main.c        **** 					/* Status not transmitted properly */
 255:main.c        **** 					Error_Handler();
 256:main.c        **** 					}
 257:main.c        **** 
 258:main.c        **** 				break;
 259:main.c        **** 				}
ARM GAS  /tmp/ccIqHiTT.s 			page 6


 260:main.c        **** 
 261:main.c        **** 			default:
 262:main.c        **** 				{
 263:main.c        **** 				/* Unsupported command code flash the red LED */
 264:main.c        **** 				led_error_assert();
 265:main.c        **** 				}
 266:main.c        **** 			}
 267:main.c        **** 		}
 268:main.c        **** 	else /* USB connection times out */
 269:main.c        **** 		{
 270:main.c        **** 		/* Do Nothing */
 271:main.c        **** 		}
 272:main.c        **** 
 273:main.c        **** 	}
 274:main.c        **** } /* main */
 275:main.c        **** 
 276:main.c        **** 
 277:main.c        **** /*******************************************************************************
 278:main.c        **** *                                                                              *
 279:main.c        **** * PROCEDURE:                                                                   *
 280:main.c        **** *       Error_Handler                                                          * 
 281:main.c        **** *                                                                              *
 282:main.c        **** * DESCRIPTION:                                                                 * 
 283:main.c        **** *       This function is executed in case of error occurrence                  *
 284:main.c        **** *                                                                              *
 285:main.c        **** *******************************************************************************/
 286:main.c        **** void Error_Handler(void)
 287:main.c        **** {
  28              		.loc 1 287 1 view -0
  29              		.cfi_startproc
  30              		@ Volatile: function does not return.
  31              		@ args = 0, pretend = 0, frame = 0
  32              		@ frame_needed = 0, uses_anonymous_args = 0
  33 0000 08B5     		push	{r3, lr}
  34              	.LCFI0:
  35              		.cfi_def_cfa_offset 8
  36              		.cfi_offset 3, -8
  37              		.cfi_offset 14, -4
 288:main.c        ****     __disable_irq();
  38              		.loc 1 288 5 view .LVU1
  39              	.LBB4:
  40              	.LBI4:
  41              		.file 2 "../../../lib/Drivers/CMSIS/Include/cmsis_gcc.h"
   1:../../../lib/Drivers/CMSIS/Include/cmsis_gcc.h **** /**************************************************************************//**
   2:../../../lib/Drivers/CMSIS/Include/cmsis_gcc.h ****  * @file     cmsis_gcc.h
   3:../../../lib/Drivers/CMSIS/Include/cmsis_gcc.h ****  * @brief    CMSIS compiler GCC header file
   4:../../../lib/Drivers/CMSIS/Include/cmsis_gcc.h ****  * @version  V5.2.0
   5:../../../lib/Drivers/CMSIS/Include/cmsis_gcc.h ****  * @date     08. May 2019
   6:../../../lib/Drivers/CMSIS/Include/cmsis_gcc.h ****  ******************************************************************************/
   7:../../../lib/Drivers/CMSIS/Include/cmsis_gcc.h **** /*
   8:../../../lib/Drivers/CMSIS/Include/cmsis_gcc.h ****  * Copyright (c) 2009-2019 Arm Limited. All rights reserved.
   9:../../../lib/Drivers/CMSIS/Include/cmsis_gcc.h ****  *
  10:../../../lib/Drivers/CMSIS/Include/cmsis_gcc.h ****  * SPDX-License-Identifier: Apache-2.0
  11:../../../lib/Drivers/CMSIS/Include/cmsis_gcc.h ****  *
  12:../../../lib/Drivers/CMSIS/Include/cmsis_gcc.h ****  * Licensed under the Apache License, Version 2.0 (the License); you may
  13:../../../lib/Drivers/CMSIS/Include/cmsis_gcc.h ****  * not use this file except in compliance with the License.
  14:../../../lib/Drivers/CMSIS/Include/cmsis_gcc.h ****  * You may obtain a copy of the License at
ARM GAS  /tmp/ccIqHiTT.s 			page 7


  15:../../../lib/Drivers/CMSIS/Include/cmsis_gcc.h ****  *
  16:../../../lib/Drivers/CMSIS/Include/cmsis_gcc.h ****  * www.apache.org/licenses/LICENSE-2.0
  17:../../../lib/Drivers/CMSIS/Include/cmsis_gcc.h ****  *
  18:../../../lib/Drivers/CMSIS/Include/cmsis_gcc.h ****  * Unless required by applicable law or agreed to in writing, software
  19:../../../lib/Drivers/CMSIS/Include/cmsis_gcc.h ****  * distributed under the License is distributed on an AS IS BASIS, WITHOUT
  20:../../../lib/Drivers/CMSIS/Include/cmsis_gcc.h ****  * WARRANTIES OR CONDITIONS OF ANY KIND, either express or implied.
  21:../../../lib/Drivers/CMSIS/Include/cmsis_gcc.h ****  * See the License for the specific language governing permissions and
  22:../../../lib/Drivers/CMSIS/Include/cmsis_gcc.h ****  * limitations under the License.
  23:../../../lib/Drivers/CMSIS/Include/cmsis_gcc.h ****  */
  24:../../../lib/Drivers/CMSIS/Include/cmsis_gcc.h **** 
  25:../../../lib/Drivers/CMSIS/Include/cmsis_gcc.h **** #ifndef __CMSIS_GCC_H
  26:../../../lib/Drivers/CMSIS/Include/cmsis_gcc.h **** #define __CMSIS_GCC_H
  27:../../../lib/Drivers/CMSIS/Include/cmsis_gcc.h **** 
  28:../../../lib/Drivers/CMSIS/Include/cmsis_gcc.h **** /* ignore some GCC warnings */
  29:../../../lib/Drivers/CMSIS/Include/cmsis_gcc.h **** #pragma GCC diagnostic push
  30:../../../lib/Drivers/CMSIS/Include/cmsis_gcc.h **** #pragma GCC diagnostic ignored "-Wsign-conversion"
  31:../../../lib/Drivers/CMSIS/Include/cmsis_gcc.h **** #pragma GCC diagnostic ignored "-Wconversion"
  32:../../../lib/Drivers/CMSIS/Include/cmsis_gcc.h **** #pragma GCC diagnostic ignored "-Wunused-parameter"
  33:../../../lib/Drivers/CMSIS/Include/cmsis_gcc.h **** 
  34:../../../lib/Drivers/CMSIS/Include/cmsis_gcc.h **** /* Fallback for __has_builtin */
  35:../../../lib/Drivers/CMSIS/Include/cmsis_gcc.h **** #ifndef __has_builtin
  36:../../../lib/Drivers/CMSIS/Include/cmsis_gcc.h ****   #define __has_builtin(x) (0)
  37:../../../lib/Drivers/CMSIS/Include/cmsis_gcc.h **** #endif
  38:../../../lib/Drivers/CMSIS/Include/cmsis_gcc.h **** 
  39:../../../lib/Drivers/CMSIS/Include/cmsis_gcc.h **** /* CMSIS compiler specific defines */
  40:../../../lib/Drivers/CMSIS/Include/cmsis_gcc.h **** #ifndef   __ASM
  41:../../../lib/Drivers/CMSIS/Include/cmsis_gcc.h ****   #define __ASM                                  __asm
  42:../../../lib/Drivers/CMSIS/Include/cmsis_gcc.h **** #endif
  43:../../../lib/Drivers/CMSIS/Include/cmsis_gcc.h **** #ifndef   __INLINE
  44:../../../lib/Drivers/CMSIS/Include/cmsis_gcc.h ****   #define __INLINE                               inline
  45:../../../lib/Drivers/CMSIS/Include/cmsis_gcc.h **** #endif
  46:../../../lib/Drivers/CMSIS/Include/cmsis_gcc.h **** #ifndef   __STATIC_INLINE
  47:../../../lib/Drivers/CMSIS/Include/cmsis_gcc.h ****   #define __STATIC_INLINE                        static inline
  48:../../../lib/Drivers/CMSIS/Include/cmsis_gcc.h **** #endif
  49:../../../lib/Drivers/CMSIS/Include/cmsis_gcc.h **** #ifndef   __STATIC_FORCEINLINE                 
  50:../../../lib/Drivers/CMSIS/Include/cmsis_gcc.h ****   #define __STATIC_FORCEINLINE                   __attribute__((always_inline)) static inline
  51:../../../lib/Drivers/CMSIS/Include/cmsis_gcc.h **** #endif                                           
  52:../../../lib/Drivers/CMSIS/Include/cmsis_gcc.h **** #ifndef   __NO_RETURN
  53:../../../lib/Drivers/CMSIS/Include/cmsis_gcc.h ****   #define __NO_RETURN                            __attribute__((__noreturn__))
  54:../../../lib/Drivers/CMSIS/Include/cmsis_gcc.h **** #endif
  55:../../../lib/Drivers/CMSIS/Include/cmsis_gcc.h **** #ifndef   __USED
  56:../../../lib/Drivers/CMSIS/Include/cmsis_gcc.h ****   #define __USED                                 __attribute__((used))
  57:../../../lib/Drivers/CMSIS/Include/cmsis_gcc.h **** #endif
  58:../../../lib/Drivers/CMSIS/Include/cmsis_gcc.h **** #ifndef   __WEAK
  59:../../../lib/Drivers/CMSIS/Include/cmsis_gcc.h ****   #define __WEAK                                 __attribute__((weak))
  60:../../../lib/Drivers/CMSIS/Include/cmsis_gcc.h **** #endif
  61:../../../lib/Drivers/CMSIS/Include/cmsis_gcc.h **** #ifndef   __PACKED
  62:../../../lib/Drivers/CMSIS/Include/cmsis_gcc.h ****   #define __PACKED                               __attribute__((packed, aligned(1)))
  63:../../../lib/Drivers/CMSIS/Include/cmsis_gcc.h **** #endif
  64:../../../lib/Drivers/CMSIS/Include/cmsis_gcc.h **** #ifndef   __PACKED_STRUCT
  65:../../../lib/Drivers/CMSIS/Include/cmsis_gcc.h ****   #define __PACKED_STRUCT                        struct __attribute__((packed, aligned(1)))
  66:../../../lib/Drivers/CMSIS/Include/cmsis_gcc.h **** #endif
  67:../../../lib/Drivers/CMSIS/Include/cmsis_gcc.h **** #ifndef   __PACKED_UNION
  68:../../../lib/Drivers/CMSIS/Include/cmsis_gcc.h ****   #define __PACKED_UNION                         union __attribute__((packed, aligned(1)))
  69:../../../lib/Drivers/CMSIS/Include/cmsis_gcc.h **** #endif
  70:../../../lib/Drivers/CMSIS/Include/cmsis_gcc.h **** #ifndef   __UNALIGNED_UINT32        /* deprecated */
  71:../../../lib/Drivers/CMSIS/Include/cmsis_gcc.h ****   #pragma GCC diagnostic push
ARM GAS  /tmp/ccIqHiTT.s 			page 8


  72:../../../lib/Drivers/CMSIS/Include/cmsis_gcc.h ****   #pragma GCC diagnostic ignored "-Wpacked"
  73:../../../lib/Drivers/CMSIS/Include/cmsis_gcc.h ****   #pragma GCC diagnostic ignored "-Wattributes"
  74:../../../lib/Drivers/CMSIS/Include/cmsis_gcc.h ****   struct __attribute__((packed)) T_UINT32 { uint32_t v; };
  75:../../../lib/Drivers/CMSIS/Include/cmsis_gcc.h ****   #pragma GCC diagnostic pop
  76:../../../lib/Drivers/CMSIS/Include/cmsis_gcc.h ****   #define __UNALIGNED_UINT32(x)                  (((struct T_UINT32 *)(x))->v)
  77:../../../lib/Drivers/CMSIS/Include/cmsis_gcc.h **** #endif
  78:../../../lib/Drivers/CMSIS/Include/cmsis_gcc.h **** #ifndef   __UNALIGNED_UINT16_WRITE
  79:../../../lib/Drivers/CMSIS/Include/cmsis_gcc.h ****   #pragma GCC diagnostic push
  80:../../../lib/Drivers/CMSIS/Include/cmsis_gcc.h ****   #pragma GCC diagnostic ignored "-Wpacked"
  81:../../../lib/Drivers/CMSIS/Include/cmsis_gcc.h ****   #pragma GCC diagnostic ignored "-Wattributes"
  82:../../../lib/Drivers/CMSIS/Include/cmsis_gcc.h ****   __PACKED_STRUCT T_UINT16_WRITE { uint16_t v; };
  83:../../../lib/Drivers/CMSIS/Include/cmsis_gcc.h ****   #pragma GCC diagnostic pop
  84:../../../lib/Drivers/CMSIS/Include/cmsis_gcc.h ****   #define __UNALIGNED_UINT16_WRITE(addr, val)    (void)((((struct T_UINT16_WRITE *)(void *)(addr))-
  85:../../../lib/Drivers/CMSIS/Include/cmsis_gcc.h **** #endif
  86:../../../lib/Drivers/CMSIS/Include/cmsis_gcc.h **** #ifndef   __UNALIGNED_UINT16_READ
  87:../../../lib/Drivers/CMSIS/Include/cmsis_gcc.h ****   #pragma GCC diagnostic push
  88:../../../lib/Drivers/CMSIS/Include/cmsis_gcc.h ****   #pragma GCC diagnostic ignored "-Wpacked"
  89:../../../lib/Drivers/CMSIS/Include/cmsis_gcc.h ****   #pragma GCC diagnostic ignored "-Wattributes"
  90:../../../lib/Drivers/CMSIS/Include/cmsis_gcc.h ****   __PACKED_STRUCT T_UINT16_READ { uint16_t v; };
  91:../../../lib/Drivers/CMSIS/Include/cmsis_gcc.h ****   #pragma GCC diagnostic pop
  92:../../../lib/Drivers/CMSIS/Include/cmsis_gcc.h ****   #define __UNALIGNED_UINT16_READ(addr)          (((const struct T_UINT16_READ *)(const void *)(add
  93:../../../lib/Drivers/CMSIS/Include/cmsis_gcc.h **** #endif
  94:../../../lib/Drivers/CMSIS/Include/cmsis_gcc.h **** #ifndef   __UNALIGNED_UINT32_WRITE
  95:../../../lib/Drivers/CMSIS/Include/cmsis_gcc.h ****   #pragma GCC diagnostic push
  96:../../../lib/Drivers/CMSIS/Include/cmsis_gcc.h ****   #pragma GCC diagnostic ignored "-Wpacked"
  97:../../../lib/Drivers/CMSIS/Include/cmsis_gcc.h ****   #pragma GCC diagnostic ignored "-Wattributes"
  98:../../../lib/Drivers/CMSIS/Include/cmsis_gcc.h ****   __PACKED_STRUCT T_UINT32_WRITE { uint32_t v; };
  99:../../../lib/Drivers/CMSIS/Include/cmsis_gcc.h ****   #pragma GCC diagnostic pop
 100:../../../lib/Drivers/CMSIS/Include/cmsis_gcc.h ****   #define __UNALIGNED_UINT32_WRITE(addr, val)    (void)((((struct T_UINT32_WRITE *)(void *)(addr))-
 101:../../../lib/Drivers/CMSIS/Include/cmsis_gcc.h **** #endif
 102:../../../lib/Drivers/CMSIS/Include/cmsis_gcc.h **** #ifndef   __UNALIGNED_UINT32_READ
 103:../../../lib/Drivers/CMSIS/Include/cmsis_gcc.h ****   #pragma GCC diagnostic push
 104:../../../lib/Drivers/CMSIS/Include/cmsis_gcc.h ****   #pragma GCC diagnostic ignored "-Wpacked"
 105:../../../lib/Drivers/CMSIS/Include/cmsis_gcc.h ****   #pragma GCC diagnostic ignored "-Wattributes"
 106:../../../lib/Drivers/CMSIS/Include/cmsis_gcc.h ****   __PACKED_STRUCT T_UINT32_READ { uint32_t v; };
 107:../../../lib/Drivers/CMSIS/Include/cmsis_gcc.h ****   #pragma GCC diagnostic pop
 108:../../../lib/Drivers/CMSIS/Include/cmsis_gcc.h ****   #define __UNALIGNED_UINT32_READ(addr)          (((const struct T_UINT32_READ *)(const void *)(add
 109:../../../lib/Drivers/CMSIS/Include/cmsis_gcc.h **** #endif
 110:../../../lib/Drivers/CMSIS/Include/cmsis_gcc.h **** #ifndef   __ALIGNED
 111:../../../lib/Drivers/CMSIS/Include/cmsis_gcc.h ****   #define __ALIGNED(x)                           __attribute__((aligned(x)))
 112:../../../lib/Drivers/CMSIS/Include/cmsis_gcc.h **** #endif
 113:../../../lib/Drivers/CMSIS/Include/cmsis_gcc.h **** #ifndef   __RESTRICT
 114:../../../lib/Drivers/CMSIS/Include/cmsis_gcc.h ****   #define __RESTRICT                             __restrict
 115:../../../lib/Drivers/CMSIS/Include/cmsis_gcc.h **** #endif
 116:../../../lib/Drivers/CMSIS/Include/cmsis_gcc.h **** #ifndef   __COMPILER_BARRIER
 117:../../../lib/Drivers/CMSIS/Include/cmsis_gcc.h ****   #define __COMPILER_BARRIER()                   __ASM volatile("":::"memory")
 118:../../../lib/Drivers/CMSIS/Include/cmsis_gcc.h **** #endif
 119:../../../lib/Drivers/CMSIS/Include/cmsis_gcc.h **** 
 120:../../../lib/Drivers/CMSIS/Include/cmsis_gcc.h **** /* #########################  Startup and Lowlevel Init  ######################## */
 121:../../../lib/Drivers/CMSIS/Include/cmsis_gcc.h **** 
 122:../../../lib/Drivers/CMSIS/Include/cmsis_gcc.h **** #ifndef __PROGRAM_START
 123:../../../lib/Drivers/CMSIS/Include/cmsis_gcc.h **** 
 124:../../../lib/Drivers/CMSIS/Include/cmsis_gcc.h **** /**
 125:../../../lib/Drivers/CMSIS/Include/cmsis_gcc.h ****   \brief   Initializes data and bss sections
 126:../../../lib/Drivers/CMSIS/Include/cmsis_gcc.h ****   \details This default implementations initialized all data and additional bss
 127:../../../lib/Drivers/CMSIS/Include/cmsis_gcc.h ****            sections relying on .copy.table and .zero.table specified properly
 128:../../../lib/Drivers/CMSIS/Include/cmsis_gcc.h ****            in the used linker script.
ARM GAS  /tmp/ccIqHiTT.s 			page 9


 129:../../../lib/Drivers/CMSIS/Include/cmsis_gcc.h ****   
 130:../../../lib/Drivers/CMSIS/Include/cmsis_gcc.h ****  */
 131:../../../lib/Drivers/CMSIS/Include/cmsis_gcc.h **** __STATIC_FORCEINLINE __NO_RETURN void __cmsis_start(void)
 132:../../../lib/Drivers/CMSIS/Include/cmsis_gcc.h **** {
 133:../../../lib/Drivers/CMSIS/Include/cmsis_gcc.h ****   extern void _start(void) __NO_RETURN;
 134:../../../lib/Drivers/CMSIS/Include/cmsis_gcc.h ****   
 135:../../../lib/Drivers/CMSIS/Include/cmsis_gcc.h ****   typedef struct {
 136:../../../lib/Drivers/CMSIS/Include/cmsis_gcc.h ****     uint32_t const* src;
 137:../../../lib/Drivers/CMSIS/Include/cmsis_gcc.h ****     uint32_t* dest;
 138:../../../lib/Drivers/CMSIS/Include/cmsis_gcc.h ****     uint32_t  wlen;
 139:../../../lib/Drivers/CMSIS/Include/cmsis_gcc.h ****   } __copy_table_t;
 140:../../../lib/Drivers/CMSIS/Include/cmsis_gcc.h ****   
 141:../../../lib/Drivers/CMSIS/Include/cmsis_gcc.h ****   typedef struct {
 142:../../../lib/Drivers/CMSIS/Include/cmsis_gcc.h ****     uint32_t* dest;
 143:../../../lib/Drivers/CMSIS/Include/cmsis_gcc.h ****     uint32_t  wlen;
 144:../../../lib/Drivers/CMSIS/Include/cmsis_gcc.h ****   } __zero_table_t;
 145:../../../lib/Drivers/CMSIS/Include/cmsis_gcc.h ****   
 146:../../../lib/Drivers/CMSIS/Include/cmsis_gcc.h ****   extern const __copy_table_t __copy_table_start__;
 147:../../../lib/Drivers/CMSIS/Include/cmsis_gcc.h ****   extern const __copy_table_t __copy_table_end__;
 148:../../../lib/Drivers/CMSIS/Include/cmsis_gcc.h ****   extern const __zero_table_t __zero_table_start__;
 149:../../../lib/Drivers/CMSIS/Include/cmsis_gcc.h ****   extern const __zero_table_t __zero_table_end__;
 150:../../../lib/Drivers/CMSIS/Include/cmsis_gcc.h **** 
 151:../../../lib/Drivers/CMSIS/Include/cmsis_gcc.h ****   for (__copy_table_t const* pTable = &__copy_table_start__; pTable < &__copy_table_end__; ++pTable
 152:../../../lib/Drivers/CMSIS/Include/cmsis_gcc.h ****     for(uint32_t i=0u; i<pTable->wlen; ++i) {
 153:../../../lib/Drivers/CMSIS/Include/cmsis_gcc.h ****       pTable->dest[i] = pTable->src[i];
 154:../../../lib/Drivers/CMSIS/Include/cmsis_gcc.h ****     }
 155:../../../lib/Drivers/CMSIS/Include/cmsis_gcc.h ****   }
 156:../../../lib/Drivers/CMSIS/Include/cmsis_gcc.h ****  
 157:../../../lib/Drivers/CMSIS/Include/cmsis_gcc.h ****   for (__zero_table_t const* pTable = &__zero_table_start__; pTable < &__zero_table_end__; ++pTable
 158:../../../lib/Drivers/CMSIS/Include/cmsis_gcc.h ****     for(uint32_t i=0u; i<pTable->wlen; ++i) {
 159:../../../lib/Drivers/CMSIS/Include/cmsis_gcc.h ****       pTable->dest[i] = 0u;
 160:../../../lib/Drivers/CMSIS/Include/cmsis_gcc.h ****     }
 161:../../../lib/Drivers/CMSIS/Include/cmsis_gcc.h ****   }
 162:../../../lib/Drivers/CMSIS/Include/cmsis_gcc.h ****  
 163:../../../lib/Drivers/CMSIS/Include/cmsis_gcc.h ****   _start();
 164:../../../lib/Drivers/CMSIS/Include/cmsis_gcc.h **** }
 165:../../../lib/Drivers/CMSIS/Include/cmsis_gcc.h ****   
 166:../../../lib/Drivers/CMSIS/Include/cmsis_gcc.h **** #define __PROGRAM_START           __cmsis_start
 167:../../../lib/Drivers/CMSIS/Include/cmsis_gcc.h **** #endif
 168:../../../lib/Drivers/CMSIS/Include/cmsis_gcc.h **** 
 169:../../../lib/Drivers/CMSIS/Include/cmsis_gcc.h **** #ifndef __INITIAL_SP
 170:../../../lib/Drivers/CMSIS/Include/cmsis_gcc.h **** #define __INITIAL_SP              __StackTop
 171:../../../lib/Drivers/CMSIS/Include/cmsis_gcc.h **** #endif
 172:../../../lib/Drivers/CMSIS/Include/cmsis_gcc.h **** 
 173:../../../lib/Drivers/CMSIS/Include/cmsis_gcc.h **** #ifndef __STACK_LIMIT
 174:../../../lib/Drivers/CMSIS/Include/cmsis_gcc.h **** #define __STACK_LIMIT             __StackLimit
 175:../../../lib/Drivers/CMSIS/Include/cmsis_gcc.h **** #endif
 176:../../../lib/Drivers/CMSIS/Include/cmsis_gcc.h **** 
 177:../../../lib/Drivers/CMSIS/Include/cmsis_gcc.h **** #ifndef __VECTOR_TABLE
 178:../../../lib/Drivers/CMSIS/Include/cmsis_gcc.h **** #define __VECTOR_TABLE            __Vectors
 179:../../../lib/Drivers/CMSIS/Include/cmsis_gcc.h **** #endif
 180:../../../lib/Drivers/CMSIS/Include/cmsis_gcc.h **** 
 181:../../../lib/Drivers/CMSIS/Include/cmsis_gcc.h **** #ifndef __VECTOR_TABLE_ATTRIBUTE
 182:../../../lib/Drivers/CMSIS/Include/cmsis_gcc.h **** #define __VECTOR_TABLE_ATTRIBUTE  __attribute((used, section(".vectors")))
 183:../../../lib/Drivers/CMSIS/Include/cmsis_gcc.h **** #endif
 184:../../../lib/Drivers/CMSIS/Include/cmsis_gcc.h **** 
 185:../../../lib/Drivers/CMSIS/Include/cmsis_gcc.h **** /* ###########################  Core Function Access  ########################### */
ARM GAS  /tmp/ccIqHiTT.s 			page 10


 186:../../../lib/Drivers/CMSIS/Include/cmsis_gcc.h **** /** \ingroup  CMSIS_Core_FunctionInterface
 187:../../../lib/Drivers/CMSIS/Include/cmsis_gcc.h ****     \defgroup CMSIS_Core_RegAccFunctions CMSIS Core Register Access Functions
 188:../../../lib/Drivers/CMSIS/Include/cmsis_gcc.h ****   @{
 189:../../../lib/Drivers/CMSIS/Include/cmsis_gcc.h ****  */
 190:../../../lib/Drivers/CMSIS/Include/cmsis_gcc.h **** 
 191:../../../lib/Drivers/CMSIS/Include/cmsis_gcc.h **** /**
 192:../../../lib/Drivers/CMSIS/Include/cmsis_gcc.h ****   \brief   Enable IRQ Interrupts
 193:../../../lib/Drivers/CMSIS/Include/cmsis_gcc.h ****   \details Enables IRQ interrupts by clearing the I-bit in the CPSR.
 194:../../../lib/Drivers/CMSIS/Include/cmsis_gcc.h ****            Can only be executed in Privileged modes.
 195:../../../lib/Drivers/CMSIS/Include/cmsis_gcc.h ****  */
 196:../../../lib/Drivers/CMSIS/Include/cmsis_gcc.h **** __STATIC_FORCEINLINE void __enable_irq(void)
 197:../../../lib/Drivers/CMSIS/Include/cmsis_gcc.h **** {
 198:../../../lib/Drivers/CMSIS/Include/cmsis_gcc.h ****   __ASM volatile ("cpsie i" : : : "memory");
 199:../../../lib/Drivers/CMSIS/Include/cmsis_gcc.h **** }
 200:../../../lib/Drivers/CMSIS/Include/cmsis_gcc.h **** 
 201:../../../lib/Drivers/CMSIS/Include/cmsis_gcc.h **** 
 202:../../../lib/Drivers/CMSIS/Include/cmsis_gcc.h **** /**
 203:../../../lib/Drivers/CMSIS/Include/cmsis_gcc.h ****   \brief   Disable IRQ Interrupts
 204:../../../lib/Drivers/CMSIS/Include/cmsis_gcc.h ****   \details Disables IRQ interrupts by setting the I-bit in the CPSR.
 205:../../../lib/Drivers/CMSIS/Include/cmsis_gcc.h ****            Can only be executed in Privileged modes.
 206:../../../lib/Drivers/CMSIS/Include/cmsis_gcc.h ****  */
 207:../../../lib/Drivers/CMSIS/Include/cmsis_gcc.h **** __STATIC_FORCEINLINE void __disable_irq(void)
  42              		.loc 2 207 27 view .LVU2
  43              	.LBB5:
 208:../../../lib/Drivers/CMSIS/Include/cmsis_gcc.h **** {
 209:../../../lib/Drivers/CMSIS/Include/cmsis_gcc.h ****   __ASM volatile ("cpsid i" : : : "memory");
  44              		.loc 2 209 3 view .LVU3
  45              		.syntax unified
  46              	@ 209 "../../../lib/Drivers/CMSIS/Include/cmsis_gcc.h" 1
  47 0002 72B6     		cpsid i
  48              	@ 0 "" 2
  49              		.thumb
  50              		.syntax unified
  51              	.LBE5:
  52              	.LBE4:
 289:main.c        **** 	led_set_color( LED_RED );
  53              		.loc 1 289 2 view .LVU4
  54 0004 0120     		movs	r0, #1
  55 0006 FFF7FEFF 		bl	led_set_color
  56              	.LVL0:
  57              	.L2:
 290:main.c        ****     while (1)
  58              		.loc 1 290 5 discriminator 1 view .LVU5
 291:main.c        ****     {
 292:main.c        ****     }
  59              		.loc 1 292 5 discriminator 1 view .LVU6
 290:main.c        ****     while (1)
  60              		.loc 1 290 11 discriminator 1 view .LVU7
  61 000a FEE7     		b	.L2
  62              		.cfi_endproc
  63              	.LFE145:
  65              		.section	.text.main,"ax",%progbits
  66              		.align	1
  67              		.global	main
  68              		.syntax unified
  69              		.thumb
  70              		.thumb_func
ARM GAS  /tmp/ccIqHiTT.s 			page 11


  72              	main:
  73              	.LFB144:
  59:main.c        **** /*------------------------------------------------------------------------------
  74              		.loc 1 59 1 view -0
  75              		.cfi_startproc
  76              		@ args = 0, pretend = 0, frame = 64
  77              		@ frame_needed = 0, uses_anonymous_args = 0
  78 0000 00B5     		push	{lr}
  79              	.LCFI1:
  80              		.cfi_def_cfa_offset 4
  81              		.cfi_offset 14, -4
  82 0002 91B0     		sub	sp, sp, #68
  83              	.LCFI2:
  84              		.cfi_def_cfa_offset 72
  63:main.c        **** uint8_t       subcommand_code;                 /* Subcommand opcode           */
  85              		.loc 1 63 1 view .LVU9
  64:main.c        **** USB_STATUS    command_status;                  /* Status of USB HAL           */
  86              		.loc 1 64 1 view .LVU10
  65:main.c        **** 
  87              		.loc 1 65 1 view .LVU11
  68:main.c        **** HFLASH_BUFFER flash_handle;                    /* Flash API buffer handle     */
  88              		.loc 1 68 1 view .LVU12
  69:main.c        **** uint8_t       flash_buffer[ DEF_FLASH_BUFFER_SIZE ]; /* Flash data buffer     */
  89              		.loc 1 69 1 view .LVU13
  70:main.c        **** 
  90              		.loc 1 70 1 view .LVU14
  73:main.c        **** BARO_CONFIG   baro_configs;                    /* Baro sensor config settings */
  91              		.loc 1 73 1 view .LVU15
  74:main.c        **** IGN_STATUS    ign_status;                      /* Ignition status code        */
  92              		.loc 1 74 1 view .LVU16
  75:main.c        **** 
  93              		.loc 1 75 1 view .LVU17
  81:main.c        ****                                and Systick.                                   */
  94              		.loc 1 81 1 view .LVU18
  95 0004 FFF7FEFF 		bl	HAL_Init
  96              	.LVL1:
  83:main.c        **** PeriphCommonClock_Config(); /* Common Peripherals clock                       */
  97              		.loc 1 83 1 view .LVU19
  98 0008 FFF7FEFF 		bl	SystemClock_Config
  99              	.LVL2:
  84:main.c        **** GPIO_Init();                /* GPIO                                           */
 100              		.loc 1 84 1 view .LVU20
 101 000c FFF7FEFF 		bl	PeriphCommonClock_Config
 102              	.LVL3:
  85:main.c        **** USB_UART_Init();            /* USB UART                                       */
 103              		.loc 1 85 1 view .LVU21
 104 0010 FFF7FEFF 		bl	GPIO_Init
 105              	.LVL4:
  86:main.c        **** Baro_I2C_Init();            /* Barometric pressure sensor                     */
 106              		.loc 1 86 1 view .LVU22
 107 0014 FFF7FEFF 		bl	USB_UART_Init
 108              	.LVL5:
  87:main.c        **** IMU_GPS_I2C_Init();         /* IMU and GPS                                    */
 109              		.loc 1 87 1 view .LVU23
 110 0018 FFF7FEFF 		bl	Baro_I2C_Init
 111              	.LVL6:
  88:main.c        **** FLASH_SPI_Init();           /* External flash chip                            */
ARM GAS  /tmp/ccIqHiTT.s 			page 12


 112              		.loc 1 88 1 view .LVU24
 113 001c FFF7FEFF 		bl	IMU_GPS_I2C_Init
 114              	.LVL7:
  89:main.c        **** BUZZER_TIM_Init();          /* Buzzer                                         */
 115              		.loc 1 89 1 view .LVU25
 116 0020 FFF7FEFF 		bl	FLASH_SPI_Init
 117              	.LVL8:
  90:main.c        **** SD_SDMMC_Init();            /* SD card SDMMC interface                        */
 118              		.loc 1 90 1 view .LVU26
 119 0024 FFF7FEFF 		bl	BUZZER_TIM_Init
 120              	.LVL9:
  91:main.c        **** MX_FATFS_Init();            /* FatFs file system middleware                   */
 121              		.loc 1 91 1 view .LVU27
 122 0028 FFF7FEFF 		bl	SD_SDMMC_Init
 123              	.LVL10:
  92:main.c        **** 
 124              		.loc 1 92 1 view .LVU28
 125 002c FFF7FEFF 		bl	MX_FATFS_Init
 126              	.LVL11:
 100:main.c        **** flash_handle.num_bytes         = 0;
 127              		.loc 1 100 1 view .LVU29
 100:main.c        **** flash_handle.num_bytes         = 0;
 128              		.loc 1 100 32 is_stmt 0 view .LVU30
 129 0030 0023     		movs	r3, #0
 130 0032 8DF83830 		strb	r3, [sp, #56]
 101:main.c        **** flash_handle.address           = 0;
 131              		.loc 1 101 1 is_stmt 1 view .LVU31
 101:main.c        **** flash_handle.address           = 0;
 132              		.loc 1 101 32 is_stmt 0 view .LVU32
 133 0036 8DF82C30 		strb	r3, [sp, #44]
 102:main.c        **** flash_handle.pbuffer           = &flash_buffer[0];
 134              		.loc 1 102 1 is_stmt 1 view .LVU33
 102:main.c        **** flash_handle.pbuffer           = &flash_buffer[0];
 135              		.loc 1 102 32 is_stmt 0 view .LVU34
 136 003a 0C93     		str	r3, [sp, #48]
 103:main.c        **** flash_handle.status_register   = 0xFF;
 137              		.loc 1 103 1 is_stmt 1 view .LVU35
 103:main.c        **** flash_handle.status_register   = 0xFF;
 138              		.loc 1 103 32 is_stmt 0 view .LVU36
 139 003c 03AA     		add	r2, sp, #12
 140 003e 0D92     		str	r2, [sp, #52]
 104:main.c        **** flash_handle.bpl_bits          = FLASH_BPL_NONE;
 141              		.loc 1 104 1 is_stmt 1 view .LVU37
 104:main.c        **** flash_handle.bpl_bits          = FLASH_BPL_NONE;
 142              		.loc 1 104 32 is_stmt 0 view .LVU38
 143 0040 FF22     		movs	r2, #255
 144 0042 8DF83B20 		strb	r2, [sp, #59]
 105:main.c        **** flash_handle.bpl_write_protect = FLASH_BPL_READ_WRITE;
 145              		.loc 1 105 1 is_stmt 1 view .LVU39
 105:main.c        **** flash_handle.bpl_write_protect = FLASH_BPL_READ_WRITE;
 146              		.loc 1 105 32 is_stmt 0 view .LVU40
 147 0046 C322     		movs	r2, #195
 148 0048 8DF83920 		strb	r2, [sp, #57]
 106:main.c        **** 
 149              		.loc 1 106 1 is_stmt 1 view .LVU41
 106:main.c        **** 
 150              		.loc 1 106 32 is_stmt 0 view .LVU42
ARM GAS  /tmp/ccIqHiTT.s 			page 13


 151 004c 8DF83A30 		strb	r3, [sp, #58]
 109:main.c        **** baro_configs.mode              = BARO_NORMAL_MODE;
 152              		.loc 1 109 1 is_stmt 1 view .LVU43
 109:main.c        **** baro_configs.mode              = BARO_NORMAL_MODE;
 153              		.loc 1 109 32 is_stmt 0 view .LVU44
 154 0050 0322     		movs	r2, #3
 155 0052 8DF80420 		strb	r2, [sp, #4]
 110:main.c        **** baro_configs.press_OSR_setting = BARO_PRESS_OSR_X8;
 156              		.loc 1 110 1 is_stmt 1 view .LVU45
 110:main.c        **** baro_configs.press_OSR_setting = BARO_PRESS_OSR_X8;
 157              		.loc 1 110 32 is_stmt 0 view .LVU46
 158 0056 8DF80520 		strb	r2, [sp, #5]
 111:main.c        **** baro_configs.temp_OSR_setting  = BARO_TEMP_OSR_X1;
 159              		.loc 1 111 1 is_stmt 1 view .LVU47
 111:main.c        **** baro_configs.temp_OSR_setting  = BARO_TEMP_OSR_X1;
 160              		.loc 1 111 32 is_stmt 0 view .LVU48
 161 005a 8DF80620 		strb	r2, [sp, #6]
 112:main.c        **** baro_configs.ODR_setting       = BARO_ODR_50HZ;
 162              		.loc 1 112 1 is_stmt 1 view .LVU49
 112:main.c        **** baro_configs.ODR_setting       = BARO_ODR_50HZ;
 163              		.loc 1 112 32 is_stmt 0 view .LVU50
 164 005e 8DF80730 		strb	r3, [sp, #7]
 113:main.c        **** baro_configs.IIR_setting       = BARO_IIR_COEF_0;
 165              		.loc 1 113 1 is_stmt 1 view .LVU51
 113:main.c        **** baro_configs.IIR_setting       = BARO_IIR_COEF_0;
 166              		.loc 1 113 32 is_stmt 0 view .LVU52
 167 0062 0222     		movs	r2, #2
 168 0064 8DF80820 		strb	r2, [sp, #8]
 114:main.c        **** 
 169              		.loc 1 114 1 is_stmt 1 view .LVU53
 114:main.c        **** 
 170              		.loc 1 114 32 is_stmt 0 view .LVU54
 171 0068 8DF80930 		strb	r3, [sp, #9]
 117:main.c        **** command_status                 = USB_OK;
 172              		.loc 1 117 1 is_stmt 1 view .LVU55
 173              	.LVL12:
 118:main.c        **** flash_status                   = FLASH_OK;
 174              		.loc 1 118 1 view .LVU56
 119:main.c        **** ign_status                     = IGN_OK;
 175              		.loc 1 119 1 view .LVU57
 119:main.c        **** ign_status                     = IGN_OK;
 176              		.loc 1 119 32 is_stmt 0 view .LVU58
 177 006c 8DF83D30 		strb	r3, [sp, #61]
 120:main.c        **** 
 178              		.loc 1 120 1 is_stmt 1 view .LVU59
 120:main.c        **** 
 179              		.loc 1 120 32 is_stmt 0 view .LVU60
 180 0070 4023     		movs	r3, #64
 181 0072 8DF80330 		strb	r3, [sp, #3]
 128:main.c        **** if ( flash_status != FLASH_OK )
 182              		.loc 1 128 1 is_stmt 1 view .LVU61
 128:main.c        **** if ( flash_status != FLASH_OK )
 183              		.loc 1 128 16 is_stmt 0 view .LVU62
 184 0076 0BA8     		add	r0, sp, #44
 185 0078 FFF7FEFF 		bl	flash_init
 186              	.LVL13:
 128:main.c        **** if ( flash_status != FLASH_OK )
ARM GAS  /tmp/ccIqHiTT.s 			page 14


 187              		.loc 1 128 14 view .LVU63
 188 007c 8DF83D00 		strb	r0, [sp, #61]
 129:main.c        **** 	{
 189              		.loc 1 129 1 is_stmt 1 view .LVU64
 129:main.c        **** 	{
 190              		.loc 1 129 4 is_stmt 0 view .LVU65
 191 0080 08B1     		cbz	r0, .L5
 131:main.c        **** 	}
 192              		.loc 1 131 2 is_stmt 1 view .LVU66
 193 0082 FFF7FEFF 		bl	Error_Handler
 194              	.LVL14:
 195              	.L5:
 135:main.c        **** 
 196              		.loc 1 135 1 view .LVU67
 197 0086 FFF7FEFF 		bl	sensor_init
 198              	.LVL15:
 138:main.c        **** if ( baro_status != BARO_OK )
 199              		.loc 1 138 1 view .LVU68
 138:main.c        **** if ( baro_status != BARO_OK )
 200              		.loc 1 138 15 is_stmt 0 view .LVU69
 201 008a 01A8     		add	r0, sp, #4
 202 008c FFF7FEFF 		bl	baro_init
 203              	.LVL16:
 139:main.c        **** 	{
 204              		.loc 1 139 1 is_stmt 1 view .LVU70
 139:main.c        **** 	{
 205              		.loc 1 139 4 is_stmt 0 view .LVU71
 206 0090 08B1     		cbz	r0, .L6
 141:main.c        **** 	}
 207              		.loc 1 141 2 is_stmt 1 view .LVU72
 208 0092 FFF7FEFF 		bl	Error_Handler
 209              	.LVL17:
 210              	.L6:
 145:main.c        **** 
 211              		.loc 1 145 1 view .LVU73
 212 0096 0020     		movs	r0, #0
 213              	.LVL18:
 145:main.c        **** 
 214              		.loc 1 145 1 is_stmt 0 view .LVU74
 215 0098 FFF7FEFF 		bl	led_set_color
 216              	.LVL19:
 217 009c 01E0     		b	.L8
 218              	.LVL20:
 219              	.L15:
 168:main.c        **** 				break;
 220              		.loc 1 168 5 is_stmt 1 view .LVU75
 221 009e FFF7FEFF 		bl	ping
 222              	.LVL21:
 169:main.c        **** 				}
 223              		.loc 1 169 5 view .LVU76
 224              	.L8:
 151:main.c        **** 	{
 225              		.loc 1 151 1 view .LVU77
 154:main.c        ****                                  &rx_data, 
 226              		.loc 1 154 2 view .LVU78
 154:main.c        ****                                  &rx_data, 
 227              		.loc 1 154 19 is_stmt 0 view .LVU79
ARM GAS  /tmp/ccIqHiTT.s 			page 15


 228 00a2 4FF0FF32 		mov	r2, #-1
 229 00a6 0121     		movs	r1, #1
 230 00a8 0DF13F00 		add	r0, sp, #63
 231 00ac FFF7FEFF 		bl	usb_receive
 232              	.LVL22:
 161:main.c        **** 		{
 233              		.loc 1 161 2 is_stmt 1 view .LVU80
 161:main.c        **** 		{
 234              		.loc 1 161 5 is_stmt 0 view .LVU81
 235 00b0 0028     		cmp	r0, #0
 236 00b2 F6D1     		bne	.L8
 163:main.c        **** 			{
 237              		.loc 1 163 3 is_stmt 1 view .LVU82
 238 00b4 9DF83F30 		ldrb	r3, [sp, #63]	@ zero_extendqisi2
 239 00b8 013B     		subs	r3, r3, #1
 240 00ba 212B     		cmp	r3, #33
 241 00bc 00F28F80 		bhi	.L9
 242 00c0 01A2     		adr	r2, .L11
 243 00c2 52F823F0 		ldr	pc, [r2, r3, lsl #2]
 244 00c6 00BF     		.p2align 2
 245              	.L11:
 246 00c8 9F000000 		.word	.L15+1
 247 00cc 51010000 		.word	.L14+1
 248 00d0 57010000 		.word	.L13+1
 249 00d4 DF010000 		.word	.L9+1
 250 00d8 DF010000 		.word	.L9+1
 251 00dc DF010000 		.word	.L9+1
 252 00e0 DF010000 		.word	.L9+1
 253 00e4 DF010000 		.word	.L9+1
 254 00e8 DF010000 		.word	.L9+1
 255 00ec DF010000 		.word	.L9+1
 256 00f0 DF010000 		.word	.L9+1
 257 00f4 DF010000 		.word	.L9+1
 258 00f8 DF010000 		.word	.L9+1
 259 00fc DF010000 		.word	.L9+1
 260 0100 DF010000 		.word	.L9+1
 261 0104 DF010000 		.word	.L9+1
 262 0108 DF010000 		.word	.L9+1
 263 010c DF010000 		.word	.L9+1
 264 0110 DF010000 		.word	.L9+1
 265 0114 DF010000 		.word	.L9+1
 266 0118 DF010000 		.word	.L9+1
 267 011c DF010000 		.word	.L9+1
 268 0120 DF010000 		.word	.L9+1
 269 0124 DF010000 		.word	.L9+1
 270 0128 DF010000 		.word	.L9+1
 271 012c DF010000 		.word	.L9+1
 272 0130 DF010000 		.word	.L9+1
 273 0134 DF010000 		.word	.L9+1
 274 0138 DF010000 		.word	.L9+1
 275 013c DF010000 		.word	.L9+1
 276 0140 DF010000 		.word	.L9+1
 277 0144 75010000 		.word	.L12+1
 278 0148 DF010000 		.word	.L9+1
 279 014c A5010000 		.word	.L10+1
 280              		.p2align 1
 281              	.L14:
ARM GAS  /tmp/ccIqHiTT.s 			page 16


 175:main.c        **** 				break;
 282              		.loc 1 175 5 view .LVU83
 283 0150 FFF7FEFF 		bl	ping
 284              	.LVL23:
 176:main.c        **** 				}
 285              		.loc 1 176 5 view .LVU84
 286 0154 A5E7     		b	.L8
 287              	.LVL24:
 288              	.L13:
 183:main.c        **** 				                              sizeof( subcommand_code ),
 289              		.loc 1 183 5 view .LVU85
 183:main.c        **** 				                              sizeof( subcommand_code ),
 290              		.loc 1 183 22 is_stmt 0 view .LVU86
 291 0156 4FF0FF32 		mov	r2, #-1
 292 015a 0121     		movs	r1, #1
 293 015c 0DF13E00 		add	r0, sp, #62
 294              	.LVL25:
 183:main.c        **** 				                              sizeof( subcommand_code ),
 295              		.loc 1 183 22 view .LVU87
 296 0160 FFF7FEFF 		bl	usb_receive
 297              	.LVL26:
 187:main.c        **** 					{
 298              		.loc 1 187 5 is_stmt 1 view .LVU88
 187:main.c        **** 					{
 299              		.loc 1 187 8 is_stmt 0 view .LVU89
 300 0164 20B9     		cbnz	r0, .L17
 190:main.c        **** 					}
 301              		.loc 1 190 6 is_stmt 1 view .LVU90
 302 0166 9DF83E00 		ldrb	r0, [sp, #62]	@ zero_extendqisi2
 303              	.LVL27:
 190:main.c        **** 					}
 304              		.loc 1 190 6 is_stmt 0 view .LVU91
 305 016a FFF7FEFF 		bl	sensor_cmd_execute
 306              	.LVL28:
 307 016e 98E7     		b	.L8
 308              	.LVL29:
 309              	.L17:
 194:main.c        **** 					}
 310              		.loc 1 194 6 is_stmt 1 view .LVU92
 311 0170 FFF7FEFF 		bl	Error_Handler
 312              	.LVL30:
 313              	.L12:
 203:main.c        ****                                               sizeof( subcommand_code ),
 314              		.loc 1 203 5 view .LVU93
 203:main.c        ****                                               sizeof( subcommand_code ),
 315              		.loc 1 203 22 is_stmt 0 view .LVU94
 316 0174 4FF0FF32 		mov	r2, #-1
 317 0178 0121     		movs	r1, #1
 318 017a 0DF13E00 		add	r0, sp, #62
 319              	.LVL31:
 203:main.c        ****                                               sizeof( subcommand_code ),
 320              		.loc 1 203 22 view .LVU95
 321 017e FFF7FEFF 		bl	usb_receive
 322              	.LVL32:
 208:main.c        **** 					{
 323              		.loc 1 208 5 is_stmt 1 view .LVU96
 208:main.c        **** 					{
ARM GAS  /tmp/ccIqHiTT.s 			page 17


 324              		.loc 1 208 8 is_stmt 0 view .LVU97
 325 0182 68B9     		cbnz	r0, .L18
 211:main.c        **** 
 326              		.loc 1 211 9 is_stmt 1 view .LVU98
 211:main.c        **** 
 327              		.loc 1 211 22 is_stmt 0 view .LVU99
 328 0184 9DF83E00 		ldrb	r0, [sp, #62]	@ zero_extendqisi2
 329              	.LVL33:
 211:main.c        **** 
 330              		.loc 1 211 22 view .LVU100
 331 0188 FFF7FEFF 		bl	ign_cmd_execute
 332              	.LVL34:
 211:main.c        **** 
 333              		.loc 1 211 20 view .LVU101
 334 018c 8DF80300 		strb	r0, [sp, #3]
 214:main.c        **** 								  sizeof( ign_status ), 
 335              		.loc 1 214 6 is_stmt 1 view .LVU102
 336 0190 4FF0FF32 		mov	r2, #-1
 337 0194 0121     		movs	r1, #1
 338 0196 0DF10300 		add	r0, sp, #3
 339 019a FFF7FEFF 		bl	usb_transmit
 340              	.LVL35:
 341 019e 80E7     		b	.L8
 342              	.LVL36:
 343              	.L18:
 221:main.c        **** 				    }
 344              		.loc 1 221 9 view .LVU103
 345 01a0 FFF7FEFF 		bl	Error_Handler
 346              	.LVL37:
 347              	.L10:
 231:main.c        ****                                               sizeof( subcommand_code ),
 348              		.loc 1 231 5 view .LVU104
 231:main.c        ****                                               sizeof( subcommand_code ),
 349              		.loc 1 231 22 is_stmt 0 view .LVU105
 350 01a4 4FF0FF32 		mov	r2, #-1
 351 01a8 0121     		movs	r1, #1
 352 01aa 0DF13E00 		add	r0, sp, #62
 353              	.LVL38:
 231:main.c        ****                                               sizeof( subcommand_code ),
 354              		.loc 1 231 22 view .LVU106
 355 01ae FFF7FEFF 		bl	usb_receive
 356              	.LVL39:
 236:main.c        **** 					{
 357              		.loc 1 236 5 is_stmt 1 view .LVU107
 236:main.c        **** 					{
 358              		.loc 1 236 8 is_stmt 0 view .LVU108
 359 01b2 90B9     		cbnz	r0, .L19
 238:main.c        **** 			                                          &flash_handle );
 360              		.loc 1 238 6 is_stmt 1 view .LVU109
 238:main.c        **** 			                                          &flash_handle );
 361              		.loc 1 238 21 is_stmt 0 view .LVU110
 362 01b4 0BA9     		add	r1, sp, #44
 363 01b6 9DF83E00 		ldrb	r0, [sp, #62]	@ zero_extendqisi2
 364              	.LVL40:
 238:main.c        **** 			                                          &flash_handle );
 365              		.loc 1 238 21 view .LVU111
 366 01ba FFF7FEFF 		bl	flash_cmd_execute
ARM GAS  /tmp/ccIqHiTT.s 			page 18


 367              	.LVL41:
 238:main.c        **** 			                                          &flash_handle );
 368              		.loc 1 238 19 view .LVU112
 369 01be 8DF83D00 		strb	r0, [sp, #61]
 248:main.c        ****                                                sizeof( flash_status ),
 370              		.loc 1 248 5 is_stmt 1 view .LVU113
 248:main.c        ****                                                sizeof( flash_status ),
 371              		.loc 1 248 22 is_stmt 0 view .LVU114
 372 01c2 4FF0FF32 		mov	r2, #-1
 373 01c6 0121     		movs	r1, #1
 374 01c8 0DF13D00 		add	r0, sp, #61
 375 01cc FFF7FEFF 		bl	usb_transmit
 376              	.LVL42:
 252:main.c        **** 					{
 377              		.loc 1 252 5 is_stmt 1 view .LVU115
 252:main.c        **** 					{
 378              		.loc 1 252 8 is_stmt 0 view .LVU116
 379 01d0 0028     		cmp	r0, #0
 380 01d2 3FF466AF 		beq	.L8
 255:main.c        **** 					}
 381              		.loc 1 255 6 is_stmt 1 view .LVU117
 382 01d6 FFF7FEFF 		bl	Error_Handler
 383              	.LVL43:
 384              	.L19:
 244:main.c        **** 					}
 385              		.loc 1 244 6 view .LVU118
 386 01da FFF7FEFF 		bl	Error_Handler
 387              	.LVL44:
 388              	.L9:
 264:main.c        **** 				}
 389              		.loc 1 264 5 view .LVU119
 390 01de FFF7FEFF 		bl	led_error_assert
 391              	.LVL45:
 264:main.c        **** 				}
 392              		.loc 1 264 5 is_stmt 0 view .LVU120
 393 01e2 5EE7     		b	.L8
 394              		.cfi_endproc
 395              	.LFE144:
 397              		.global	huart6
 398              		.section	.bss.huart6,"aw",%nobits
 399              		.align	2
 402              	huart6:
 403 0000 00000000 		.space	144
 403      00000000 
 403      00000000 
 403      00000000 
 403      00000000 
 404              		.global	htim4
 405              		.section	.bss.htim4,"aw",%nobits
 406              		.align	2
 409              	htim4:
 410 0000 00000000 		.space	76
 410      00000000 
 410      00000000 
 410      00000000 
 410      00000000 
 411              		.global	hspi2
ARM GAS  /tmp/ccIqHiTT.s 			page 19


 412              		.section	.bss.hspi2,"aw",%nobits
 413              		.align	2
 416              	hspi2:
 417 0000 00000000 		.space	136
 417      00000000 
 417      00000000 
 417      00000000 
 417      00000000 
 418              		.global	hsd1
 419              		.section	.bss.hsd1,"aw",%nobits
 420              		.align	2
 423              	hsd1:
 424 0000 00000000 		.space	124
 424      00000000 
 424      00000000 
 424      00000000 
 424      00000000 
 425              		.global	hi2c2
 426              		.section	.bss.hi2c2,"aw",%nobits
 427              		.align	2
 430              	hi2c2:
 431 0000 00000000 		.space	76
 431      00000000 
 431      00000000 
 431      00000000 
 431      00000000 
 432              		.global	hi2c1
 433              		.section	.bss.hi2c1,"aw",%nobits
 434              		.align	2
 437              	hi2c1:
 438 0000 00000000 		.space	76
 438      00000000 
 438      00000000 
 438      00000000 
 438      00000000 
 439              		.text
 440              	.Letext0:
 441              		.file 3 "/usr/arm-none-eabi/include/machine/_default_types.h"
 442              		.file 4 "/usr/arm-none-eabi/include/sys/_stdint.h"
 443              		.file 5 "../../../lib/Drivers/CMSIS/Device/ST/STM32H7xx/Include/stm32h750xx.h"
 444              		.file 6 "/usr/lib/gcc/arm-none-eabi/12.2.0/include/stddef.h"
 445              		.file 7 "../../../lib/Drivers/STM32H7xx_HAL_Driver/Inc/stm32h7xx_hal_def.h"
 446              		.file 8 "../../../lib/Drivers/STM32H7xx_HAL_Driver/Inc/stm32h7xx_hal_dma.h"
 447              		.file 9 "../../../lib/Drivers/STM32H7xx_HAL_Driver/Inc/stm32h7xx_hal_i2c.h"
 448              		.file 10 "../../../lib/Drivers/STM32H7xx_HAL_Driver/Inc/stm32h7xx_ll_sdmmc.h"
 449              		.file 11 "../../../lib/Drivers/STM32H7xx_HAL_Driver/Inc/stm32h7xx_hal_sd.h"
 450              		.file 12 "../../../lib/Drivers/STM32H7xx_HAL_Driver/Inc/stm32h7xx_hal_spi.h"
 451              		.file 13 "../../../lib/Drivers/STM32H7xx_HAL_Driver/Inc/stm32h7xx_hal_tim.h"
 452              		.file 14 "../../../lib/Drivers/STM32H7xx_HAL_Driver/Inc/stm32h7xx_hal_uart.h"
 453              		.file 15 "../../../lib/sdr_pin_defines_A0002.h"
 454              		.file 16 "../../../mod/baro/baro.h"
 455              		.file 17 "../../../mod/sensor/sensor.h"
 456              		.file 18 "../../../mod/flash/flash.h"
 457              		.file 19 "../../../mod/ignition/ignition.h"
 458              		.file 20 "../../../mod/led/led.h"
 459              		.file 21 "../../../mod/usb/usb.h"
 460              		.file 22 "../../../mod/commands/commands.h"
ARM GAS  /tmp/ccIqHiTT.s 			page 20


 461              		.file 23 "../../../lib/FATFS/App/fatfs.h"
 462              		.file 24 "../../../init/init.h"
 463              		.file 25 "../../../lib/Drivers/STM32H7xx_HAL_Driver/Inc/stm32h7xx_hal.h"
ARM GAS  /tmp/ccIqHiTT.s 			page 21

