ARM GAS  C:\Users\tnguy\AppData\Local\Temp\cc4SxDxV.s 			page 1


   1              		.cpu cortex-m7
   2              		.arch armv7e-m
   3              		.fpu fpv5-d16
   4              		.eabi_attribute 28, 1
   5              		.eabi_attribute 20, 1
   6              		.eabi_attribute 21, 1
   7              		.eabi_attribute 23, 3
   8              		.eabi_attribute 24, 1
   9              		.eabi_attribute 25, 1
  10              		.eabi_attribute 26, 1
  11              		.eabi_attribute 30, 1
  12              		.eabi_attribute 34, 1
  13              		.eabi_attribute 18, 4
  14              		.file	"main.c"
  15              		.text
  16              	.Ltext0:
  17              		.cfi_sections	.debug_frame
  18              		.section	.text.Error_Handler,"ax",%progbits
  19              		.align	1
  20              		.global	Error_Handler
  21              		.syntax unified
  22              		.thumb
  23              		.thumb_func
  25              	Error_Handler:
  26              	.LFB145:
  27              		.file 1 "main.c"
   1:main.c        **** /*******************************************************************************
   2:main.c        **** *                                                                              *
   3:main.c        **** * FILE:                                                                        * 
   4:main.c        **** * 		main.c                                                                 *
   5:main.c        **** *                                                                              *
   6:main.c        **** * DESCRIPTION:                                                                 * 
   7:main.c        **** * 		Processes commands recieved from a host PC, provides fine control over * 
   8:main.c        **** *       flight computer hardware resources                                     *
   9:main.c        **** *                                                                              *
  10:main.c        **** *******************************************************************************/
  11:main.c        **** 
  12:main.c        **** 
  13:main.c        **** /*------------------------------------------------------------------------------
  14:main.c        ****  Standard Includes                                                                     
  15:main.c        **** ------------------------------------------------------------------------------*/
  16:main.c        **** #include <stdbool.h>
  17:main.c        **** #include "sdr_pin_defines_A0002.h"
  18:main.c        **** 
  19:main.c        **** 
  20:main.c        **** /*------------------------------------------------------------------------------
  21:main.c        ****  Project Includes                                                                     
  22:main.c        **** ------------------------------------------------------------------------------*/
  23:main.c        **** 
  24:main.c        **** /* Application Layer */
  25:main.c        **** #include "main.h"
  26:main.c        **** #include "init.h"
  27:main.c        **** #include "fatfs.h"
  28:main.c        **** 
  29:main.c        **** /* Hardware modules */
  30:main.c        **** #include "baro.h"
  31:main.c        **** #include "buzzer.h"
ARM GAS  C:\Users\tnguy\AppData\Local\Temp\cc4SxDxV.s 			page 2


  32:main.c        **** #include "commands.h"
  33:main.c        **** #include "flash.h"
  34:main.c        **** #include "ignition.h"
  35:main.c        **** #include "imu.h"
  36:main.c        **** #include "led.h"
  37:main.c        **** #include "sensor.h"
  38:main.c        **** #include "usb.h"
  39:main.c        **** #include "gps.h"
  40:main.c        **** 
  41:main.c        **** 
  42:main.c        **** /*------------------------------------------------------------------------------
  43:main.c        ****  MCU Peripheral Handlers                                                         
  44:main.c        **** ------------------------------------------------------------------------------*/
  45:main.c        **** I2C_HandleTypeDef  hi2c1;   /* Baro sensor    */
  46:main.c        **** I2C_HandleTypeDef  hi2c2;   /* IMU and GPS    */
  47:main.c        **** SD_HandleTypeDef   hsd1;    /* SD Card        */
  48:main.c        **** SPI_HandleTypeDef  hspi2;   /* External flash */
  49:main.c        **** TIM_HandleTypeDef  htim4;   /* Buzzer Timer   */
  50:main.c        **** UART_HandleTypeDef huart6;  /* USB            */
  51:main.c        **** UART_HandleTypeDef huart4;  /* GPS            */  
  52:main.c        **** 
  53:main.c        **** 
  54:main.c        **** /*------------------------------------------------------------------------------
  55:main.c        ****  Application entry point                                                      
  56:main.c        **** ------------------------------------------------------------------------------*/
  57:main.c        **** int main
  58:main.c        **** 	(
  59:main.c        ****  	void
  60:main.c        **** 	)
  61:main.c        **** {
  62:main.c        **** /*------------------------------------------------------------------------------
  63:main.c        ****  Local Variables                                                                
  64:main.c        **** ------------------------------------------------------------------------------*/
  65:main.c        **** 
  66:main.c        **** /* USB */
  67:main.c        **** uint8_t       rx_data;                         /* USB Incoming Data Buffer    */
  68:main.c        **** uint8_t       subcommand_code;                 /* Subcommand opcode           */
  69:main.c        **** USB_STATUS    command_status;                  /* Status of USB HAL           */
  70:main.c        **** 
  71:main.c        **** /* External Flash */
  72:main.c        **** FLASH_STATUS  flash_status;                    /* Status of flash driver      */
  73:main.c        **** HFLASH_BUFFER flash_handle;                    /* Flash API buffer handle     */
  74:main.c        **** uint8_t       flash_buffer[ DEF_FLASH_BUFFER_SIZE ]; /* Flash data buffer     */
  75:main.c        **** 
  76:main.c        **** /* Barometric Pressure Sensor */
  77:main.c        **** BARO_STATUS   baro_status;                     /* Status of baro sensor       */
  78:main.c        **** BARO_CONFIG   baro_configs;                    /* Baro sensor config settings */
  79:main.c        **** 
  80:main.c        **** /* IMU */
  81:main.c        **** IMU_STATUS    imu_status;                      /* IMU return codes            */
  82:main.c        **** IMU_CONFIG    imu_configs;                     /* IMU config settings         */
  83:main.c        **** 
  84:main.c        **** /* Ignition/Parachute Ejection */
  85:main.c        **** IGN_STATUS    ign_status;                      /* Ignition status code        */
  86:main.c        **** 
  87:main.c        **** /* GPS */
  88:main.c        **** GPS_STATUS	  gps_status;					   /* GPS return codes */
ARM GAS  C:\Users\tnguy\AppData\Local\Temp\cc4SxDxV.s 			page 3


  89:main.c        **** 
  90:main.c        **** 
  91:main.c        **** /*------------------------------------------------------------------------------
  92:main.c        ****  MCU/HAL Initialization                                                                  
  93:main.c        **** ------------------------------------------------------------------------------*/
  94:main.c        **** HAL_Init();                 /* Reset peripherals, initialize flash interface 
  95:main.c        ****                                and Systick.                                   */
  96:main.c        **** SystemClock_Config();       /* System clock                                   */
  97:main.c        **** PeriphCommonClock_Config(); /* Common Peripherals clock                       */
  98:main.c        **** GPIO_Init();                /* GPIO                                           */
  99:main.c        **** USB_UART_Init();            /* USB UART                                       */
 100:main.c        **** Baro_I2C_Init();            /* Barometric pressure sensor                     */
 101:main.c        **** IMU_GPS_I2C_Init();         /* IMU and GPS                                    */
 102:main.c        **** FLASH_SPI_Init();           /* External flash chip                            */
 103:main.c        **** BUZZER_TIM_Init();          /* Buzzer                                         */
 104:main.c        **** SD_SDMMC_Init();            /* SD card SDMMC interface                        */
 105:main.c        **** MX_UART4_Init();			/* GPS UART				  						  */
 106:main.c        **** // MX_FATFS_Init();            /* FatFs file system middleware                   */
 107:main.c        **** 
 108:main.c        **** 
 109:main.c        **** /*------------------------------------------------------------------------------
 110:main.c        ****  Variable Initializations 
 111:main.c        **** ------------------------------------------------------------------------------*/
 112:main.c        **** 
 113:main.c        **** /* Flash Configuration */
 114:main.c        **** flash_handle.write_protected   = FLASH_WP_WRITE_ENABLED;
 115:main.c        **** flash_handle.num_bytes         = 0;
 116:main.c        **** flash_handle.address           = 0;
 117:main.c        **** flash_handle.pbuffer           = &flash_buffer[0];
 118:main.c        **** flash_handle.status_register   = 0xFF;
 119:main.c        **** flash_handle.bpl_bits          = FLASH_BPL_NONE;
 120:main.c        **** flash_handle.bpl_write_protect = FLASH_BPL_READ_WRITE;
 121:main.c        **** 
 122:main.c        **** /* Baro Configuration */
 123:main.c        **** baro_configs.enable            = BARO_PRESS_TEMP_ENABLED;
 124:main.c        **** baro_configs.mode              = BARO_NORMAL_MODE;
 125:main.c        **** baro_configs.press_OSR_setting = BARO_PRESS_OSR_X8;
 126:main.c        **** baro_configs.temp_OSR_setting  = BARO_TEMP_OSR_X1;
 127:main.c        **** baro_configs.ODR_setting       = BARO_ODR_50HZ;
 128:main.c        **** baro_configs.IIR_setting       = BARO_IIR_COEF_0;
 129:main.c        **** 
 130:main.c        **** /* IMU Configuration */
 131:main.c        **** imu_configs.sensor_enable      = IMU_ENABLE_GYRO_ACC_TEMP;
 132:main.c        **** imu_configs.acc_odr            = IMU_ODR_100;
 133:main.c        **** imu_configs.gyro_odr           = IMU_ODR_100;
 134:main.c        **** imu_configs.mag_odr            = MAG_ODR_10HZ;
 135:main.c        **** imu_configs.acc_filter         = IMU_FILTER_NORM_AVG4;
 136:main.c        **** imu_configs.gyro_filter        = IMU_FILTER_NORM_AVG4;
 137:main.c        **** imu_configs.acc_filter_mode    = IMU_FILTER_FILTER_MODE;
 138:main.c        **** imu_configs.gyro_filter_mode   = IMU_FILTER_FILTER_MODE;
 139:main.c        **** imu_configs.acc_range          = IMU_ACC_RANGE_16G;
 140:main.c        **** imu_configs.gyro_range         = IMU_GYRO_RANGE_500;
 141:main.c        **** imu_configs.mag_op_mode        = MAG_NORMAL_MODE;
 142:main.c        **** imu_configs.mag_xy_repititions = 9; /* BMM150 Regular Preset Recomendation */
 143:main.c        **** imu_configs.mag_z_repititions  = 15;
 144:main.c        **** 
 145:main.c        **** /* Module return codes */
ARM GAS  C:\Users\tnguy\AppData\Local\Temp\cc4SxDxV.s 			page 4


 146:main.c        **** baro_status                    = BARO_OK;
 147:main.c        **** command_status                 = USB_OK;
 148:main.c        **** flash_status                   = FLASH_OK;
 149:main.c        **** ign_status                     = IGN_OK;
 150:main.c        **** imu_status                     = IMU_OK;
 151:main.c        **** gps_status					   = GPS_OK;
 152:main.c        **** 
 153:main.c        **** /*------------------------------------------------------------------------------
 154:main.c        ****  External Hardware Initializations 
 155:main.c        **** ------------------------------------------------------------------------------*/
 156:main.c        **** 
 157:main.c        **** /* Flash Chip */
 158:main.c        **** flash_status = flash_init( &flash_handle );
 159:main.c        **** if ( flash_status != FLASH_OK )
 160:main.c        **** 	{
 161:main.c        **** 	Error_Handler();
 162:main.c        **** 	}
 163:main.c        **** 
 164:main.c        **** /* Sensor Module - Sets up the sensor sizes/offsets table */
 165:main.c        **** sensor_init();
 166:main.c        **** 
 167:main.c        **** /* Barometric pressure sensor */
 168:main.c        **** baro_status = baro_init( &baro_configs );
 169:main.c        **** if ( baro_status != BARO_OK )
 170:main.c        **** 	{
 171:main.c        **** 	Error_Handler();
 172:main.c        **** 	}
 173:main.c        **** 
 174:main.c        **** /* IMU */
 175:main.c        **** imu_status = imu_init( &imu_configs );
 176:main.c        **** if ( imu_status != IMU_OK )
 177:main.c        **** 	{
 178:main.c        **** 	Error_Handler();
 179:main.c        **** 	}
 180:main.c        **** 
 181:main.c        **** /* Indicate Successful MCU and Peripheral Hardware Setup */
 182:main.c        **** led_set_color( LED_GREEN );
 183:main.c        **** 
 184:main.c        **** uint8_t gps_buffer[100];
 185:main.c        **** gps_status = GPS_Load_Config();
 186:main.c        **** if ( gps_status != GPS_FAIL )
 187:main.c        **** {
 188:main.c        **** 	gps_status = GPS_Get_ID( &gps_buffer[0], GPS_ID_UPC_BYTE );
 189:main.c        **** }
 190:main.c        **** 
 191:main.c        **** /*------------------------------------------------------------------------------
 192:main.c        ****  Event Loop                                                                  
 193:main.c        **** ------------------------------------------------------------------------------*/
 194:main.c        **** while (1)
 195:main.c        **** 	{
 196:main.c        **** 	/* Check for USB connection */
 197:main.c        **** 	if ( usb_detect() )
 198:main.c        **** 		{
 199:main.c        **** 		/* Get sdec command from USB port */
 200:main.c        **** 		command_status = usb_receive( 
 201:main.c        **** 									&rx_data, 
 202:main.c        **** 									sizeof( rx_data ), 
ARM GAS  C:\Users\tnguy\AppData\Local\Temp\cc4SxDxV.s 			page 5


 203:main.c        **** 									HAL_DEFAULT_TIMEOUT 
 204:main.c        **** 									);
 205:main.c        **** 
 206:main.c        **** 		/* Parse command input if HAL_UART_Receive doesn't timeout */
 207:main.c        **** 		if ( command_status == USB_OK )
 208:main.c        **** 			{
 209:main.c        **** 			switch( rx_data )
 210:main.c        **** 				{
 211:main.c        **** 				/*----------------------- Ping Command -----------------------*/
 212:main.c        **** 				case PING_OP:
 213:main.c        **** 					{
 214:main.c        **** 					ping();
 215:main.c        **** 					break;
 216:main.c        **** 					}
 217:main.c        **** 
 218:main.c        **** 				/*--------------------- Connect Command ----------------------*/
 219:main.c        **** 				case CONNECT_OP:
 220:main.c        **** 					{
 221:main.c        **** 					ping();
 222:main.c        **** 					break;
 223:main.c        **** 					}
 224:main.c        **** 
 225:main.c        **** 				/*---------------------- Sensor Command ----------------------*/
 226:main.c        **** 				case SENSOR_OP:
 227:main.c        **** 					{
 228:main.c        **** 					/* Receive sensor subcommand  */
 229:main.c        **** 					command_status = usb_receive( &subcommand_code         ,
 230:main.c        **** 												sizeof( subcommand_code ),
 231:main.c        **** 												HAL_DEFAULT_TIMEOUT );
 232:main.c        **** 
 233:main.c        **** 					if ( command_status == USB_OK )
 234:main.c        **** 						{
 235:main.c        **** 						/* Execute sensor subcommand */
 236:main.c        **** 						sensor_cmd_execute( subcommand_code );
 237:main.c        **** 						}
 238:main.c        **** 					else
 239:main.c        **** 						{
 240:main.c        **** 						Error_Handler();
 241:main.c        **** 						}
 242:main.c        **** 					break;
 243:main.c        **** 					}
 244:main.c        **** 
 245:main.c        **** 				/*---------------------- Ignite Command ----------------------*/
 246:main.c        **** 				case IGNITE_OP:
 247:main.c        **** 					{
 248:main.c        **** 					/* Recieve ignition subcommand over USB */
 249:main.c        **** 					command_status = usb_receive( &subcommand_code         , 
 250:main.c        **** 												sizeof( subcommand_code ),
 251:main.c        **** 												HAL_DEFAULT_TIMEOUT );
 252:main.c        **** 
 253:main.c        **** 					/* Execute subcommand */
 254:main.c        **** 					if ( command_status == USB_OK )
 255:main.c        **** 						{
 256:main.c        **** 						/* Execute subcommand*/
 257:main.c        **** 						ign_status = ign_cmd_execute( subcommand_code );
 258:main.c        **** 
 259:main.c        **** 						/* Return response code to terminal */
ARM GAS  C:\Users\tnguy\AppData\Local\Temp\cc4SxDxV.s 			page 6


 260:main.c        **** 						usb_transmit( &ign_status, 
 261:main.c        **** 									sizeof( ign_status ), 
 262:main.c        **** 									HAL_DEFAULT_TIMEOUT );
 263:main.c        **** 						}
 264:main.c        **** 					else
 265:main.c        **** 						{
 266:main.c        **** 						/* Error: no subcommand recieved */
 267:main.c        **** 						Error_Handler();
 268:main.c        **** 						}
 269:main.c        **** 
 270:main.c        **** 					break; 
 271:main.c        **** 					} /* IGNITE_OP */
 272:main.c        **** 
 273:main.c        **** 				/*---------------------- Flash Command ------------------------*/
 274:main.c        **** 				case FLASH_OP:
 275:main.c        **** 					{
 276:main.c        **** 					/* Recieve flash subcommand over USB */
 277:main.c        **** 					command_status = usb_receive( &subcommand_code         , 
 278:main.c        **** 												sizeof( subcommand_code ),
 279:main.c        **** 												HAL_DEFAULT_TIMEOUT );
 280:main.c        **** 
 281:main.c        **** 					/* Execute subcommand */
 282:main.c        **** 					if ( command_status == USB_OK )
 283:main.c        **** 						{
 284:main.c        **** 						flash_status = flash_cmd_execute( subcommand_code,
 285:main.c        **** 														&flash_handle );
 286:main.c        **** 						}
 287:main.c        **** 					else
 288:main.c        **** 						{
 289:main.c        **** 						/* Subcommand code not recieved */
 290:main.c        **** 						Error_Handler();
 291:main.c        **** 						}
 292:main.c        **** 
 293:main.c        **** 					/* Transmit status code to PC */
 294:main.c        **** 					command_status = usb_transmit( &flash_status         , 
 295:main.c        **** 												sizeof( flash_status ),
 296:main.c        **** 												HAL_DEFAULT_TIMEOUT );
 297:main.c        **** 
 298:main.c        **** 					if ( command_status != USB_OK )
 299:main.c        **** 						{
 300:main.c        **** 						/* Status not transmitted properly */
 301:main.c        **** 						Error_Handler();
 302:main.c        **** 						}
 303:main.c        **** 
 304:main.c        **** 					break;
 305:main.c        **** 					}
 306:main.c        **** 
 307:main.c        **** 				default:
 308:main.c        **** 					{
 309:main.c        **** 					/* Unsupported command code flash the red LED */
 310:main.c        **** 					Error_Handler();
 311:main.c        **** 					}
 312:main.c        **** 
 313:main.c        **** 				} /* switch( rx_data ) */
 314:main.c        **** 			} /* if ( command_status == USB_OK ) */
 315:main.c        **** 		} /* if ( usb_detect() ) */
 316:main.c        **** 	}
ARM GAS  C:\Users\tnguy\AppData\Local\Temp\cc4SxDxV.s 			page 7


 317:main.c        **** } /* main */
 318:main.c        **** 
 319:main.c        **** 
 320:main.c        **** /*******************************************************************************
 321:main.c        **** *                                                                              *
 322:main.c        **** * PROCEDURE:                                                                   *
 323:main.c        **** *       Error_Handler                                                          * 
 324:main.c        **** *                                                                              *
 325:main.c        **** * DESCRIPTION:                                                                 * 
 326:main.c        **** *       This function is executed in case of error occurrence                  *
 327:main.c        **** *                                                                              *
 328:main.c        **** *******************************************************************************/
 329:main.c        **** void Error_Handler(void)
 330:main.c        **** {
  28              		.loc 1 330 1 view -0
  29              		.cfi_startproc
  30              		@ Volatile: function does not return.
  31              		@ args = 0, pretend = 0, frame = 0
  32              		@ frame_needed = 0, uses_anonymous_args = 0
  33 0000 08B5     		push	{r3, lr}
  34              	.LCFI0:
  35              		.cfi_def_cfa_offset 8
  36              		.cfi_offset 3, -8
  37              		.cfi_offset 14, -4
 331:main.c        ****     __disable_irq();
  38              		.loc 1 331 5 view .LVU1
  39              	.LBB4:
  40              	.LBI4:
  41              		.file 2 "../../../lib/Drivers/CMSIS/Include/cmsis_gcc.h"
   1:../../../lib/Drivers/CMSIS/Include/cmsis_gcc.h **** /**************************************************************************//**
   2:../../../lib/Drivers/CMSIS/Include/cmsis_gcc.h ****  * @file     cmsis_gcc.h
   3:../../../lib/Drivers/CMSIS/Include/cmsis_gcc.h ****  * @brief    CMSIS compiler GCC header file
   4:../../../lib/Drivers/CMSIS/Include/cmsis_gcc.h ****  * @version  V5.2.0
   5:../../../lib/Drivers/CMSIS/Include/cmsis_gcc.h ****  * @date     08. May 2019
   6:../../../lib/Drivers/CMSIS/Include/cmsis_gcc.h ****  ******************************************************************************/
   7:../../../lib/Drivers/CMSIS/Include/cmsis_gcc.h **** /*
   8:../../../lib/Drivers/CMSIS/Include/cmsis_gcc.h ****  * Copyright (c) 2009-2019 Arm Limited. All rights reserved.
   9:../../../lib/Drivers/CMSIS/Include/cmsis_gcc.h ****  *
  10:../../../lib/Drivers/CMSIS/Include/cmsis_gcc.h ****  * SPDX-License-Identifier: Apache-2.0
  11:../../../lib/Drivers/CMSIS/Include/cmsis_gcc.h ****  *
  12:../../../lib/Drivers/CMSIS/Include/cmsis_gcc.h ****  * Licensed under the Apache License, Version 2.0 (the License); you may
  13:../../../lib/Drivers/CMSIS/Include/cmsis_gcc.h ****  * not use this file except in compliance with the License.
  14:../../../lib/Drivers/CMSIS/Include/cmsis_gcc.h ****  * You may obtain a copy of the License at
  15:../../../lib/Drivers/CMSIS/Include/cmsis_gcc.h ****  *
  16:../../../lib/Drivers/CMSIS/Include/cmsis_gcc.h ****  * www.apache.org/licenses/LICENSE-2.0
  17:../../../lib/Drivers/CMSIS/Include/cmsis_gcc.h ****  *
  18:../../../lib/Drivers/CMSIS/Include/cmsis_gcc.h ****  * Unless required by applicable law or agreed to in writing, software
  19:../../../lib/Drivers/CMSIS/Include/cmsis_gcc.h ****  * distributed under the License is distributed on an AS IS BASIS, WITHOUT
  20:../../../lib/Drivers/CMSIS/Include/cmsis_gcc.h ****  * WARRANTIES OR CONDITIONS OF ANY KIND, either express or implied.
  21:../../../lib/Drivers/CMSIS/Include/cmsis_gcc.h ****  * See the License for the specific language governing permissions and
  22:../../../lib/Drivers/CMSIS/Include/cmsis_gcc.h ****  * limitations under the License.
  23:../../../lib/Drivers/CMSIS/Include/cmsis_gcc.h ****  */
  24:../../../lib/Drivers/CMSIS/Include/cmsis_gcc.h **** 
  25:../../../lib/Drivers/CMSIS/Include/cmsis_gcc.h **** #ifndef __CMSIS_GCC_H
  26:../../../lib/Drivers/CMSIS/Include/cmsis_gcc.h **** #define __CMSIS_GCC_H
  27:../../../lib/Drivers/CMSIS/Include/cmsis_gcc.h **** 
  28:../../../lib/Drivers/CMSIS/Include/cmsis_gcc.h **** /* ignore some GCC warnings */
ARM GAS  C:\Users\tnguy\AppData\Local\Temp\cc4SxDxV.s 			page 8


  29:../../../lib/Drivers/CMSIS/Include/cmsis_gcc.h **** #pragma GCC diagnostic push
  30:../../../lib/Drivers/CMSIS/Include/cmsis_gcc.h **** #pragma GCC diagnostic ignored "-Wsign-conversion"
  31:../../../lib/Drivers/CMSIS/Include/cmsis_gcc.h **** #pragma GCC diagnostic ignored "-Wconversion"
  32:../../../lib/Drivers/CMSIS/Include/cmsis_gcc.h **** #pragma GCC diagnostic ignored "-Wunused-parameter"
  33:../../../lib/Drivers/CMSIS/Include/cmsis_gcc.h **** 
  34:../../../lib/Drivers/CMSIS/Include/cmsis_gcc.h **** /* Fallback for __has_builtin */
  35:../../../lib/Drivers/CMSIS/Include/cmsis_gcc.h **** #ifndef __has_builtin
  36:../../../lib/Drivers/CMSIS/Include/cmsis_gcc.h ****   #define __has_builtin(x) (0)
  37:../../../lib/Drivers/CMSIS/Include/cmsis_gcc.h **** #endif
  38:../../../lib/Drivers/CMSIS/Include/cmsis_gcc.h **** 
  39:../../../lib/Drivers/CMSIS/Include/cmsis_gcc.h **** /* CMSIS compiler specific defines */
  40:../../../lib/Drivers/CMSIS/Include/cmsis_gcc.h **** #ifndef   __ASM
  41:../../../lib/Drivers/CMSIS/Include/cmsis_gcc.h ****   #define __ASM                                  __asm
  42:../../../lib/Drivers/CMSIS/Include/cmsis_gcc.h **** #endif
  43:../../../lib/Drivers/CMSIS/Include/cmsis_gcc.h **** #ifndef   __INLINE
  44:../../../lib/Drivers/CMSIS/Include/cmsis_gcc.h ****   #define __INLINE                               inline
  45:../../../lib/Drivers/CMSIS/Include/cmsis_gcc.h **** #endif
  46:../../../lib/Drivers/CMSIS/Include/cmsis_gcc.h **** #ifndef   __STATIC_INLINE
  47:../../../lib/Drivers/CMSIS/Include/cmsis_gcc.h ****   #define __STATIC_INLINE                        static inline
  48:../../../lib/Drivers/CMSIS/Include/cmsis_gcc.h **** #endif
  49:../../../lib/Drivers/CMSIS/Include/cmsis_gcc.h **** #ifndef   __STATIC_FORCEINLINE                 
  50:../../../lib/Drivers/CMSIS/Include/cmsis_gcc.h ****   #define __STATIC_FORCEINLINE                   __attribute__((always_inline)) static inline
  51:../../../lib/Drivers/CMSIS/Include/cmsis_gcc.h **** #endif                                           
  52:../../../lib/Drivers/CMSIS/Include/cmsis_gcc.h **** #ifndef   __NO_RETURN
  53:../../../lib/Drivers/CMSIS/Include/cmsis_gcc.h ****   #define __NO_RETURN                            __attribute__((__noreturn__))
  54:../../../lib/Drivers/CMSIS/Include/cmsis_gcc.h **** #endif
  55:../../../lib/Drivers/CMSIS/Include/cmsis_gcc.h **** #ifndef   __USED
  56:../../../lib/Drivers/CMSIS/Include/cmsis_gcc.h ****   #define __USED                                 __attribute__((used))
  57:../../../lib/Drivers/CMSIS/Include/cmsis_gcc.h **** #endif
  58:../../../lib/Drivers/CMSIS/Include/cmsis_gcc.h **** #ifndef   __WEAK
  59:../../../lib/Drivers/CMSIS/Include/cmsis_gcc.h ****   #define __WEAK                                 __attribute__((weak))
  60:../../../lib/Drivers/CMSIS/Include/cmsis_gcc.h **** #endif
  61:../../../lib/Drivers/CMSIS/Include/cmsis_gcc.h **** #ifndef   __PACKED
  62:../../../lib/Drivers/CMSIS/Include/cmsis_gcc.h ****   #define __PACKED                               __attribute__((packed, aligned(1)))
  63:../../../lib/Drivers/CMSIS/Include/cmsis_gcc.h **** #endif
  64:../../../lib/Drivers/CMSIS/Include/cmsis_gcc.h **** #ifndef   __PACKED_STRUCT
  65:../../../lib/Drivers/CMSIS/Include/cmsis_gcc.h ****   #define __PACKED_STRUCT                        struct __attribute__((packed, aligned(1)))
  66:../../../lib/Drivers/CMSIS/Include/cmsis_gcc.h **** #endif
  67:../../../lib/Drivers/CMSIS/Include/cmsis_gcc.h **** #ifndef   __PACKED_UNION
  68:../../../lib/Drivers/CMSIS/Include/cmsis_gcc.h ****   #define __PACKED_UNION                         union __attribute__((packed, aligned(1)))
  69:../../../lib/Drivers/CMSIS/Include/cmsis_gcc.h **** #endif
  70:../../../lib/Drivers/CMSIS/Include/cmsis_gcc.h **** #ifndef   __UNALIGNED_UINT32        /* deprecated */
  71:../../../lib/Drivers/CMSIS/Include/cmsis_gcc.h ****   #pragma GCC diagnostic push
  72:../../../lib/Drivers/CMSIS/Include/cmsis_gcc.h ****   #pragma GCC diagnostic ignored "-Wpacked"
  73:../../../lib/Drivers/CMSIS/Include/cmsis_gcc.h ****   #pragma GCC diagnostic ignored "-Wattributes"
  74:../../../lib/Drivers/CMSIS/Include/cmsis_gcc.h ****   struct __attribute__((packed)) T_UINT32 { uint32_t v; };
  75:../../../lib/Drivers/CMSIS/Include/cmsis_gcc.h ****   #pragma GCC diagnostic pop
  76:../../../lib/Drivers/CMSIS/Include/cmsis_gcc.h ****   #define __UNALIGNED_UINT32(x)                  (((struct T_UINT32 *)(x))->v)
  77:../../../lib/Drivers/CMSIS/Include/cmsis_gcc.h **** #endif
  78:../../../lib/Drivers/CMSIS/Include/cmsis_gcc.h **** #ifndef   __UNALIGNED_UINT16_WRITE
  79:../../../lib/Drivers/CMSIS/Include/cmsis_gcc.h ****   #pragma GCC diagnostic push
  80:../../../lib/Drivers/CMSIS/Include/cmsis_gcc.h ****   #pragma GCC diagnostic ignored "-Wpacked"
  81:../../../lib/Drivers/CMSIS/Include/cmsis_gcc.h ****   #pragma GCC diagnostic ignored "-Wattributes"
  82:../../../lib/Drivers/CMSIS/Include/cmsis_gcc.h ****   __PACKED_STRUCT T_UINT16_WRITE { uint16_t v; };
  83:../../../lib/Drivers/CMSIS/Include/cmsis_gcc.h ****   #pragma GCC diagnostic pop
  84:../../../lib/Drivers/CMSIS/Include/cmsis_gcc.h ****   #define __UNALIGNED_UINT16_WRITE(addr, val)    (void)((((struct T_UINT16_WRITE *)(void *)(addr))-
  85:../../../lib/Drivers/CMSIS/Include/cmsis_gcc.h **** #endif
ARM GAS  C:\Users\tnguy\AppData\Local\Temp\cc4SxDxV.s 			page 9


  86:../../../lib/Drivers/CMSIS/Include/cmsis_gcc.h **** #ifndef   __UNALIGNED_UINT16_READ
  87:../../../lib/Drivers/CMSIS/Include/cmsis_gcc.h ****   #pragma GCC diagnostic push
  88:../../../lib/Drivers/CMSIS/Include/cmsis_gcc.h ****   #pragma GCC diagnostic ignored "-Wpacked"
  89:../../../lib/Drivers/CMSIS/Include/cmsis_gcc.h ****   #pragma GCC diagnostic ignored "-Wattributes"
  90:../../../lib/Drivers/CMSIS/Include/cmsis_gcc.h ****   __PACKED_STRUCT T_UINT16_READ { uint16_t v; };
  91:../../../lib/Drivers/CMSIS/Include/cmsis_gcc.h ****   #pragma GCC diagnostic pop
  92:../../../lib/Drivers/CMSIS/Include/cmsis_gcc.h ****   #define __UNALIGNED_UINT16_READ(addr)          (((const struct T_UINT16_READ *)(const void *)(add
  93:../../../lib/Drivers/CMSIS/Include/cmsis_gcc.h **** #endif
  94:../../../lib/Drivers/CMSIS/Include/cmsis_gcc.h **** #ifndef   __UNALIGNED_UINT32_WRITE
  95:../../../lib/Drivers/CMSIS/Include/cmsis_gcc.h ****   #pragma GCC diagnostic push
  96:../../../lib/Drivers/CMSIS/Include/cmsis_gcc.h ****   #pragma GCC diagnostic ignored "-Wpacked"
  97:../../../lib/Drivers/CMSIS/Include/cmsis_gcc.h ****   #pragma GCC diagnostic ignored "-Wattributes"
  98:../../../lib/Drivers/CMSIS/Include/cmsis_gcc.h ****   __PACKED_STRUCT T_UINT32_WRITE { uint32_t v; };
  99:../../../lib/Drivers/CMSIS/Include/cmsis_gcc.h ****   #pragma GCC diagnostic pop
 100:../../../lib/Drivers/CMSIS/Include/cmsis_gcc.h ****   #define __UNALIGNED_UINT32_WRITE(addr, val)    (void)((((struct T_UINT32_WRITE *)(void *)(addr))-
 101:../../../lib/Drivers/CMSIS/Include/cmsis_gcc.h **** #endif
 102:../../../lib/Drivers/CMSIS/Include/cmsis_gcc.h **** #ifndef   __UNALIGNED_UINT32_READ
 103:../../../lib/Drivers/CMSIS/Include/cmsis_gcc.h ****   #pragma GCC diagnostic push
 104:../../../lib/Drivers/CMSIS/Include/cmsis_gcc.h ****   #pragma GCC diagnostic ignored "-Wpacked"
 105:../../../lib/Drivers/CMSIS/Include/cmsis_gcc.h ****   #pragma GCC diagnostic ignored "-Wattributes"
 106:../../../lib/Drivers/CMSIS/Include/cmsis_gcc.h ****   __PACKED_STRUCT T_UINT32_READ { uint32_t v; };
 107:../../../lib/Drivers/CMSIS/Include/cmsis_gcc.h ****   #pragma GCC diagnostic pop
 108:../../../lib/Drivers/CMSIS/Include/cmsis_gcc.h ****   #define __UNALIGNED_UINT32_READ(addr)          (((const struct T_UINT32_READ *)(const void *)(add
 109:../../../lib/Drivers/CMSIS/Include/cmsis_gcc.h **** #endif
 110:../../../lib/Drivers/CMSIS/Include/cmsis_gcc.h **** #ifndef   __ALIGNED
 111:../../../lib/Drivers/CMSIS/Include/cmsis_gcc.h ****   #define __ALIGNED(x)                           __attribute__((aligned(x)))
 112:../../../lib/Drivers/CMSIS/Include/cmsis_gcc.h **** #endif
 113:../../../lib/Drivers/CMSIS/Include/cmsis_gcc.h **** #ifndef   __RESTRICT
 114:../../../lib/Drivers/CMSIS/Include/cmsis_gcc.h ****   #define __RESTRICT                             __restrict
 115:../../../lib/Drivers/CMSIS/Include/cmsis_gcc.h **** #endif
 116:../../../lib/Drivers/CMSIS/Include/cmsis_gcc.h **** #ifndef   __COMPILER_BARRIER
 117:../../../lib/Drivers/CMSIS/Include/cmsis_gcc.h ****   #define __COMPILER_BARRIER()                   __ASM volatile("":::"memory")
 118:../../../lib/Drivers/CMSIS/Include/cmsis_gcc.h **** #endif
 119:../../../lib/Drivers/CMSIS/Include/cmsis_gcc.h **** 
 120:../../../lib/Drivers/CMSIS/Include/cmsis_gcc.h **** /* #########################  Startup and Lowlevel Init  ######################## */
 121:../../../lib/Drivers/CMSIS/Include/cmsis_gcc.h **** 
 122:../../../lib/Drivers/CMSIS/Include/cmsis_gcc.h **** #ifndef __PROGRAM_START
 123:../../../lib/Drivers/CMSIS/Include/cmsis_gcc.h **** 
 124:../../../lib/Drivers/CMSIS/Include/cmsis_gcc.h **** /**
 125:../../../lib/Drivers/CMSIS/Include/cmsis_gcc.h ****   \brief   Initializes data and bss sections
 126:../../../lib/Drivers/CMSIS/Include/cmsis_gcc.h ****   \details This default implementations initialized all data and additional bss
 127:../../../lib/Drivers/CMSIS/Include/cmsis_gcc.h ****            sections relying on .copy.table and .zero.table specified properly
 128:../../../lib/Drivers/CMSIS/Include/cmsis_gcc.h ****            in the used linker script.
 129:../../../lib/Drivers/CMSIS/Include/cmsis_gcc.h ****   
 130:../../../lib/Drivers/CMSIS/Include/cmsis_gcc.h ****  */
 131:../../../lib/Drivers/CMSIS/Include/cmsis_gcc.h **** __STATIC_FORCEINLINE __NO_RETURN void __cmsis_start(void)
 132:../../../lib/Drivers/CMSIS/Include/cmsis_gcc.h **** {
 133:../../../lib/Drivers/CMSIS/Include/cmsis_gcc.h ****   extern void _start(void) __NO_RETURN;
 134:../../../lib/Drivers/CMSIS/Include/cmsis_gcc.h ****   
 135:../../../lib/Drivers/CMSIS/Include/cmsis_gcc.h ****   typedef struct {
 136:../../../lib/Drivers/CMSIS/Include/cmsis_gcc.h ****     uint32_t const* src;
 137:../../../lib/Drivers/CMSIS/Include/cmsis_gcc.h ****     uint32_t* dest;
 138:../../../lib/Drivers/CMSIS/Include/cmsis_gcc.h ****     uint32_t  wlen;
 139:../../../lib/Drivers/CMSIS/Include/cmsis_gcc.h ****   } __copy_table_t;
 140:../../../lib/Drivers/CMSIS/Include/cmsis_gcc.h ****   
 141:../../../lib/Drivers/CMSIS/Include/cmsis_gcc.h ****   typedef struct {
 142:../../../lib/Drivers/CMSIS/Include/cmsis_gcc.h ****     uint32_t* dest;
ARM GAS  C:\Users\tnguy\AppData\Local\Temp\cc4SxDxV.s 			page 10


 143:../../../lib/Drivers/CMSIS/Include/cmsis_gcc.h ****     uint32_t  wlen;
 144:../../../lib/Drivers/CMSIS/Include/cmsis_gcc.h ****   } __zero_table_t;
 145:../../../lib/Drivers/CMSIS/Include/cmsis_gcc.h ****   
 146:../../../lib/Drivers/CMSIS/Include/cmsis_gcc.h ****   extern const __copy_table_t __copy_table_start__;
 147:../../../lib/Drivers/CMSIS/Include/cmsis_gcc.h ****   extern const __copy_table_t __copy_table_end__;
 148:../../../lib/Drivers/CMSIS/Include/cmsis_gcc.h ****   extern const __zero_table_t __zero_table_start__;
 149:../../../lib/Drivers/CMSIS/Include/cmsis_gcc.h ****   extern const __zero_table_t __zero_table_end__;
 150:../../../lib/Drivers/CMSIS/Include/cmsis_gcc.h **** 
 151:../../../lib/Drivers/CMSIS/Include/cmsis_gcc.h ****   for (__copy_table_t const* pTable = &__copy_table_start__; pTable < &__copy_table_end__; ++pTable
 152:../../../lib/Drivers/CMSIS/Include/cmsis_gcc.h ****     for(uint32_t i=0u; i<pTable->wlen; ++i) {
 153:../../../lib/Drivers/CMSIS/Include/cmsis_gcc.h ****       pTable->dest[i] = pTable->src[i];
 154:../../../lib/Drivers/CMSIS/Include/cmsis_gcc.h ****     }
 155:../../../lib/Drivers/CMSIS/Include/cmsis_gcc.h ****   }
 156:../../../lib/Drivers/CMSIS/Include/cmsis_gcc.h ****  
 157:../../../lib/Drivers/CMSIS/Include/cmsis_gcc.h ****   for (__zero_table_t const* pTable = &__zero_table_start__; pTable < &__zero_table_end__; ++pTable
 158:../../../lib/Drivers/CMSIS/Include/cmsis_gcc.h ****     for(uint32_t i=0u; i<pTable->wlen; ++i) {
 159:../../../lib/Drivers/CMSIS/Include/cmsis_gcc.h ****       pTable->dest[i] = 0u;
 160:../../../lib/Drivers/CMSIS/Include/cmsis_gcc.h ****     }
 161:../../../lib/Drivers/CMSIS/Include/cmsis_gcc.h ****   }
 162:../../../lib/Drivers/CMSIS/Include/cmsis_gcc.h ****  
 163:../../../lib/Drivers/CMSIS/Include/cmsis_gcc.h ****   _start();
 164:../../../lib/Drivers/CMSIS/Include/cmsis_gcc.h **** }
 165:../../../lib/Drivers/CMSIS/Include/cmsis_gcc.h ****   
 166:../../../lib/Drivers/CMSIS/Include/cmsis_gcc.h **** #define __PROGRAM_START           __cmsis_start
 167:../../../lib/Drivers/CMSIS/Include/cmsis_gcc.h **** #endif
 168:../../../lib/Drivers/CMSIS/Include/cmsis_gcc.h **** 
 169:../../../lib/Drivers/CMSIS/Include/cmsis_gcc.h **** #ifndef __INITIAL_SP
 170:../../../lib/Drivers/CMSIS/Include/cmsis_gcc.h **** #define __INITIAL_SP              __StackTop
 171:../../../lib/Drivers/CMSIS/Include/cmsis_gcc.h **** #endif
 172:../../../lib/Drivers/CMSIS/Include/cmsis_gcc.h **** 
 173:../../../lib/Drivers/CMSIS/Include/cmsis_gcc.h **** #ifndef __STACK_LIMIT
 174:../../../lib/Drivers/CMSIS/Include/cmsis_gcc.h **** #define __STACK_LIMIT             __StackLimit
 175:../../../lib/Drivers/CMSIS/Include/cmsis_gcc.h **** #endif
 176:../../../lib/Drivers/CMSIS/Include/cmsis_gcc.h **** 
 177:../../../lib/Drivers/CMSIS/Include/cmsis_gcc.h **** #ifndef __VECTOR_TABLE
 178:../../../lib/Drivers/CMSIS/Include/cmsis_gcc.h **** #define __VECTOR_TABLE            __Vectors
 179:../../../lib/Drivers/CMSIS/Include/cmsis_gcc.h **** #endif
 180:../../../lib/Drivers/CMSIS/Include/cmsis_gcc.h **** 
 181:../../../lib/Drivers/CMSIS/Include/cmsis_gcc.h **** #ifndef __VECTOR_TABLE_ATTRIBUTE
 182:../../../lib/Drivers/CMSIS/Include/cmsis_gcc.h **** #define __VECTOR_TABLE_ATTRIBUTE  __attribute((used, section(".vectors")))
 183:../../../lib/Drivers/CMSIS/Include/cmsis_gcc.h **** #endif
 184:../../../lib/Drivers/CMSIS/Include/cmsis_gcc.h **** 
 185:../../../lib/Drivers/CMSIS/Include/cmsis_gcc.h **** /* ###########################  Core Function Access  ########################### */
 186:../../../lib/Drivers/CMSIS/Include/cmsis_gcc.h **** /** \ingroup  CMSIS_Core_FunctionInterface
 187:../../../lib/Drivers/CMSIS/Include/cmsis_gcc.h ****     \defgroup CMSIS_Core_RegAccFunctions CMSIS Core Register Access Functions
 188:../../../lib/Drivers/CMSIS/Include/cmsis_gcc.h ****   @{
 189:../../../lib/Drivers/CMSIS/Include/cmsis_gcc.h ****  */
 190:../../../lib/Drivers/CMSIS/Include/cmsis_gcc.h **** 
 191:../../../lib/Drivers/CMSIS/Include/cmsis_gcc.h **** /**
 192:../../../lib/Drivers/CMSIS/Include/cmsis_gcc.h ****   \brief   Enable IRQ Interrupts
 193:../../../lib/Drivers/CMSIS/Include/cmsis_gcc.h ****   \details Enables IRQ interrupts by clearing the I-bit in the CPSR.
 194:../../../lib/Drivers/CMSIS/Include/cmsis_gcc.h ****            Can only be executed in Privileged modes.
 195:../../../lib/Drivers/CMSIS/Include/cmsis_gcc.h ****  */
 196:../../../lib/Drivers/CMSIS/Include/cmsis_gcc.h **** __STATIC_FORCEINLINE void __enable_irq(void)
 197:../../../lib/Drivers/CMSIS/Include/cmsis_gcc.h **** {
 198:../../../lib/Drivers/CMSIS/Include/cmsis_gcc.h ****   __ASM volatile ("cpsie i" : : : "memory");
 199:../../../lib/Drivers/CMSIS/Include/cmsis_gcc.h **** }
ARM GAS  C:\Users\tnguy\AppData\Local\Temp\cc4SxDxV.s 			page 11


 200:../../../lib/Drivers/CMSIS/Include/cmsis_gcc.h **** 
 201:../../../lib/Drivers/CMSIS/Include/cmsis_gcc.h **** 
 202:../../../lib/Drivers/CMSIS/Include/cmsis_gcc.h **** /**
 203:../../../lib/Drivers/CMSIS/Include/cmsis_gcc.h ****   \brief   Disable IRQ Interrupts
 204:../../../lib/Drivers/CMSIS/Include/cmsis_gcc.h ****   \details Disables IRQ interrupts by setting the I-bit in the CPSR.
 205:../../../lib/Drivers/CMSIS/Include/cmsis_gcc.h ****            Can only be executed in Privileged modes.
 206:../../../lib/Drivers/CMSIS/Include/cmsis_gcc.h ****  */
 207:../../../lib/Drivers/CMSIS/Include/cmsis_gcc.h **** __STATIC_FORCEINLINE void __disable_irq(void)
  42              		.loc 2 207 27 view .LVU2
  43              	.LBB5:
 208:../../../lib/Drivers/CMSIS/Include/cmsis_gcc.h **** {
 209:../../../lib/Drivers/CMSIS/Include/cmsis_gcc.h ****   __ASM volatile ("cpsid i" : : : "memory");
  44              		.loc 2 209 3 view .LVU3
  45              		.syntax unified
  46              	@ 209 "../../../lib/Drivers/CMSIS/Include/cmsis_gcc.h" 1
  47 0002 72B6     		cpsid i
  48              	@ 0 "" 2
  49              		.thumb
  50              		.syntax unified
  51              	.LBE5:
  52              	.LBE4:
 332:main.c        **** 	led_set_color( LED_RED );
  53              		.loc 1 332 2 view .LVU4
  54 0004 0220     		movs	r0, #2
  55 0006 FFF7FEFF 		bl	led_set_color
  56              	.LVL0:
  57              	.L2:
 333:main.c        ****     while (1)
  58              		.loc 1 333 5 discriminator 1 view .LVU5
 334:main.c        ****     {
 335:main.c        ****     }
  59              		.loc 1 335 5 discriminator 1 view .LVU6
 333:main.c        ****     while (1)
  60              		.loc 1 333 11 discriminator 1 view .LVU7
  61 000a FEE7     		b	.L2
  62              		.cfi_endproc
  63              	.LFE145:
  65              		.section	.text.main,"ax",%progbits
  66              		.align	1
  67              		.global	main
  68              		.syntax unified
  69              		.thumb
  70              		.thumb_func
  72              	main:
  73              	.LFB144:
  61:main.c        **** /*------------------------------------------------------------------------------
  74              		.loc 1 61 1 view -0
  75              		.cfi_startproc
  76              		@ args = 0, pretend = 0, frame = 184
  77              		@ frame_needed = 0, uses_anonymous_args = 0
  78 0000 00B5     		push	{lr}
  79              	.LCFI1:
  80              		.cfi_def_cfa_offset 4
  81              		.cfi_offset 14, -4
  82 0002 AFB0     		sub	sp, sp, #188
  83              	.LCFI2:
  84              		.cfi_def_cfa_offset 192
ARM GAS  C:\Users\tnguy\AppData\Local\Temp\cc4SxDxV.s 			page 12


  67:main.c        **** uint8_t       subcommand_code;                 /* Subcommand opcode           */
  85              		.loc 1 67 1 view .LVU9
  68:main.c        **** USB_STATUS    command_status;                  /* Status of USB HAL           */
  86              		.loc 1 68 1 view .LVU10
  69:main.c        **** 
  87              		.loc 1 69 1 view .LVU11
  72:main.c        **** HFLASH_BUFFER flash_handle;                    /* Flash API buffer handle     */
  88              		.loc 1 72 1 view .LVU12
  73:main.c        **** uint8_t       flash_buffer[ DEF_FLASH_BUFFER_SIZE ]; /* Flash data buffer     */
  89              		.loc 1 73 1 view .LVU13
  74:main.c        **** 
  90              		.loc 1 74 1 view .LVU14
  77:main.c        **** BARO_CONFIG   baro_configs;                    /* Baro sensor config settings */
  91              		.loc 1 77 1 view .LVU15
  78:main.c        **** 
  92              		.loc 1 78 1 view .LVU16
  81:main.c        **** IMU_CONFIG    imu_configs;                     /* IMU config settings         */
  93              		.loc 1 81 1 view .LVU17
  82:main.c        **** 
  94              		.loc 1 82 1 view .LVU18
  85:main.c        **** 
  95              		.loc 1 85 1 view .LVU19
  88:main.c        **** 
  96              		.loc 1 88 1 view .LVU20
  94:main.c        ****                                and Systick.                                   */
  97              		.loc 1 94 1 view .LVU21
  98 0004 FFF7FEFF 		bl	HAL_Init
  99              	.LVL1:
  96:main.c        **** PeriphCommonClock_Config(); /* Common Peripherals clock                       */
 100              		.loc 1 96 1 view .LVU22
 101 0008 FFF7FEFF 		bl	SystemClock_Config
 102              	.LVL2:
  97:main.c        **** GPIO_Init();                /* GPIO                                           */
 103              		.loc 1 97 1 view .LVU23
 104 000c FFF7FEFF 		bl	PeriphCommonClock_Config
 105              	.LVL3:
  98:main.c        **** USB_UART_Init();            /* USB UART                                       */
 106              		.loc 1 98 1 view .LVU24
 107 0010 FFF7FEFF 		bl	GPIO_Init
 108              	.LVL4:
  99:main.c        **** Baro_I2C_Init();            /* Barometric pressure sensor                     */
 109              		.loc 1 99 1 view .LVU25
 110 0014 FFF7FEFF 		bl	USB_UART_Init
 111              	.LVL5:
 100:main.c        **** IMU_GPS_I2C_Init();         /* IMU and GPS                                    */
 112              		.loc 1 100 1 view .LVU26
 113 0018 FFF7FEFF 		bl	Baro_I2C_Init
 114              	.LVL6:
 101:main.c        **** FLASH_SPI_Init();           /* External flash chip                            */
 115              		.loc 1 101 1 view .LVU27
 116 001c FFF7FEFF 		bl	IMU_GPS_I2C_Init
 117              	.LVL7:
 102:main.c        **** BUZZER_TIM_Init();          /* Buzzer                                         */
 118              		.loc 1 102 1 view .LVU28
 119 0020 FFF7FEFF 		bl	FLASH_SPI_Init
 120              	.LVL8:
 103:main.c        **** SD_SDMMC_Init();            /* SD card SDMMC interface                        */
ARM GAS  C:\Users\tnguy\AppData\Local\Temp\cc4SxDxV.s 			page 13


 121              		.loc 1 103 1 view .LVU29
 122 0024 FFF7FEFF 		bl	BUZZER_TIM_Init
 123              	.LVL9:
 104:main.c        **** MX_UART4_Init();			/* GPS UART				  						  */
 124              		.loc 1 104 1 view .LVU30
 125 0028 FFF7FEFF 		bl	SD_SDMMC_Init
 126              	.LVL10:
 105:main.c        **** // MX_FATFS_Init();            /* FatFs file system middleware                   */
 127              		.loc 1 105 1 view .LVU31
 128 002c FFF7FEFF 		bl	MX_UART4_Init
 129              	.LVL11:
 114:main.c        **** flash_handle.num_bytes         = 0;
 130              		.loc 1 114 1 view .LVU32
 114:main.c        **** flash_handle.num_bytes         = 0;
 131              		.loc 1 114 32 is_stmt 0 view .LVU33
 132 0030 0023     		movs	r3, #0
 133 0032 8DF8B030 		strb	r3, [sp, #176]
 115:main.c        **** flash_handle.address           = 0;
 134              		.loc 1 115 1 is_stmt 1 view .LVU34
 115:main.c        **** flash_handle.address           = 0;
 135              		.loc 1 115 32 is_stmt 0 view .LVU35
 136 0036 2993     		str	r3, [sp, #164]
 116:main.c        **** flash_handle.pbuffer           = &flash_buffer[0];
 137              		.loc 1 116 1 is_stmt 1 view .LVU36
 116:main.c        **** flash_handle.pbuffer           = &flash_buffer[0];
 138              		.loc 1 116 32 is_stmt 0 view .LVU37
 139 0038 2A93     		str	r3, [sp, #168]
 117:main.c        **** flash_handle.status_register   = 0xFF;
 140              		.loc 1 117 1 is_stmt 1 view .LVU38
 117:main.c        **** flash_handle.status_register   = 0xFF;
 141              		.loc 1 117 32 is_stmt 0 view .LVU39
 142 003a 21AA     		add	r2, sp, #132
 143 003c 2B92     		str	r2, [sp, #172]
 118:main.c        **** flash_handle.bpl_bits          = FLASH_BPL_NONE;
 144              		.loc 1 118 1 is_stmt 1 view .LVU40
 118:main.c        **** flash_handle.bpl_bits          = FLASH_BPL_NONE;
 145              		.loc 1 118 32 is_stmt 0 view .LVU41
 146 003e FF22     		movs	r2, #255
 147 0040 8DF8B320 		strb	r2, [sp, #179]
 119:main.c        **** flash_handle.bpl_write_protect = FLASH_BPL_READ_WRITE;
 148              		.loc 1 119 1 is_stmt 1 view .LVU42
 119:main.c        **** flash_handle.bpl_write_protect = FLASH_BPL_READ_WRITE;
 149              		.loc 1 119 32 is_stmt 0 view .LVU43
 150 0044 C322     		movs	r2, #195
 151 0046 8DF8B120 		strb	r2, [sp, #177]
 120:main.c        **** 
 152              		.loc 1 120 1 is_stmt 1 view .LVU44
 120:main.c        **** 
 153              		.loc 1 120 32 is_stmt 0 view .LVU45
 154 004a 8DF8B230 		strb	r3, [sp, #178]
 123:main.c        **** baro_configs.mode              = BARO_NORMAL_MODE;
 155              		.loc 1 123 1 is_stmt 1 view .LVU46
 123:main.c        **** baro_configs.mode              = BARO_NORMAL_MODE;
 156              		.loc 1 123 32 is_stmt 0 view .LVU47
 157 004e 0322     		movs	r2, #3
 158 0050 8DF87C20 		strb	r2, [sp, #124]
 124:main.c        **** baro_configs.press_OSR_setting = BARO_PRESS_OSR_X8;
ARM GAS  C:\Users\tnguy\AppData\Local\Temp\cc4SxDxV.s 			page 14


 159              		.loc 1 124 1 is_stmt 1 view .LVU48
 124:main.c        **** baro_configs.press_OSR_setting = BARO_PRESS_OSR_X8;
 160              		.loc 1 124 32 is_stmt 0 view .LVU49
 161 0054 8DF87D20 		strb	r2, [sp, #125]
 125:main.c        **** baro_configs.temp_OSR_setting  = BARO_TEMP_OSR_X1;
 162              		.loc 1 125 1 is_stmt 1 view .LVU50
 125:main.c        **** baro_configs.temp_OSR_setting  = BARO_TEMP_OSR_X1;
 163              		.loc 1 125 32 is_stmt 0 view .LVU51
 164 0058 8DF87E20 		strb	r2, [sp, #126]
 126:main.c        **** baro_configs.ODR_setting       = BARO_ODR_50HZ;
 165              		.loc 1 126 1 is_stmt 1 view .LVU52
 126:main.c        **** baro_configs.ODR_setting       = BARO_ODR_50HZ;
 166              		.loc 1 126 32 is_stmt 0 view .LVU53
 167 005c 8DF87F30 		strb	r3, [sp, #127]
 127:main.c        **** baro_configs.IIR_setting       = BARO_IIR_COEF_0;
 168              		.loc 1 127 1 is_stmt 1 view .LVU54
 127:main.c        **** baro_configs.IIR_setting       = BARO_IIR_COEF_0;
 169              		.loc 1 127 32 is_stmt 0 view .LVU55
 170 0060 0221     		movs	r1, #2
 171 0062 8DF88010 		strb	r1, [sp, #128]
 128:main.c        **** 
 172              		.loc 1 128 1 is_stmt 1 view .LVU56
 128:main.c        **** 
 173              		.loc 1 128 32 is_stmt 0 view .LVU57
 174 0066 8DF88130 		strb	r3, [sp, #129]
 131:main.c        **** imu_configs.acc_odr            = IMU_ODR_100;
 175              		.loc 1 131 1 is_stmt 1 view .LVU58
 131:main.c        **** imu_configs.acc_odr            = IMU_ODR_100;
 176              		.loc 1 131 32 is_stmt 0 view .LVU59
 177 006a 0E20     		movs	r0, #14
 178 006c 8DF86C00 		strb	r0, [sp, #108]
 132:main.c        **** imu_configs.gyro_odr           = IMU_ODR_100;
 179              		.loc 1 132 1 is_stmt 1 view .LVU60
 132:main.c        **** imu_configs.gyro_odr           = IMU_ODR_100;
 180              		.loc 1 132 32 is_stmt 0 view .LVU61
 181 0070 0820     		movs	r0, #8
 182 0072 8DF86D00 		strb	r0, [sp, #109]
 133:main.c        **** imu_configs.mag_odr            = MAG_ODR_10HZ;
 183              		.loc 1 133 1 is_stmt 1 view .LVU62
 133:main.c        **** imu_configs.mag_odr            = MAG_ODR_10HZ;
 184              		.loc 1 133 32 is_stmt 0 view .LVU63
 185 0076 8DF86E00 		strb	r0, [sp, #110]
 134:main.c        **** imu_configs.acc_filter         = IMU_FILTER_NORM_AVG4;
 186              		.loc 1 134 1 is_stmt 1 view .LVU64
 134:main.c        **** imu_configs.acc_filter         = IMU_FILTER_NORM_AVG4;
 187              		.loc 1 134 32 is_stmt 0 view .LVU65
 188 007a 8DF86F30 		strb	r3, [sp, #111]
 135:main.c        **** imu_configs.gyro_filter        = IMU_FILTER_NORM_AVG4;
 189              		.loc 1 135 1 is_stmt 1 view .LVU66
 135:main.c        **** imu_configs.gyro_filter        = IMU_FILTER_NORM_AVG4;
 190              		.loc 1 135 32 is_stmt 0 view .LVU67
 191 007e 2020     		movs	r0, #32
 192 0080 8DF87000 		strb	r0, [sp, #112]
 136:main.c        **** imu_configs.acc_filter_mode    = IMU_FILTER_FILTER_MODE;
 193              		.loc 1 136 1 is_stmt 1 view .LVU68
 136:main.c        **** imu_configs.acc_filter_mode    = IMU_FILTER_FILTER_MODE;
 194              		.loc 1 136 32 is_stmt 0 view .LVU69
ARM GAS  C:\Users\tnguy\AppData\Local\Temp\cc4SxDxV.s 			page 15


 195 0084 8DF87100 		strb	r0, [sp, #113]
 137:main.c        **** imu_configs.gyro_filter_mode   = IMU_FILTER_FILTER_MODE;
 196              		.loc 1 137 1 is_stmt 1 view .LVU70
 137:main.c        **** imu_configs.gyro_filter_mode   = IMU_FILTER_FILTER_MODE;
 197              		.loc 1 137 32 is_stmt 0 view .LVU71
 198 0088 8020     		movs	r0, #128
 199 008a 8DF87200 		strb	r0, [sp, #114]
 138:main.c        **** imu_configs.acc_range          = IMU_ACC_RANGE_16G;
 200              		.loc 1 138 1 is_stmt 1 view .LVU72
 138:main.c        **** imu_configs.acc_range          = IMU_ACC_RANGE_16G;
 201              		.loc 1 138 32 is_stmt 0 view .LVU73
 202 008e 8DF87300 		strb	r0, [sp, #115]
 139:main.c        **** imu_configs.gyro_range         = IMU_GYRO_RANGE_500;
 203              		.loc 1 139 1 is_stmt 1 view .LVU74
 139:main.c        **** imu_configs.gyro_range         = IMU_GYRO_RANGE_500;
 204              		.loc 1 139 32 is_stmt 0 view .LVU75
 205 0092 8DF87420 		strb	r2, [sp, #116]
 140:main.c        **** imu_configs.mag_op_mode        = MAG_NORMAL_MODE;
 206              		.loc 1 140 1 is_stmt 1 view .LVU76
 140:main.c        **** imu_configs.mag_op_mode        = MAG_NORMAL_MODE;
 207              		.loc 1 140 32 is_stmt 0 view .LVU77
 208 0096 8DF87510 		strb	r1, [sp, #117]
 141:main.c        **** imu_configs.mag_xy_repititions = 9; /* BMM150 Regular Preset Recomendation */
 209              		.loc 1 141 1 is_stmt 1 view .LVU78
 141:main.c        **** imu_configs.mag_xy_repititions = 9; /* BMM150 Regular Preset Recomendation */
 210              		.loc 1 141 32 is_stmt 0 view .LVU79
 211 009a 8DF87630 		strb	r3, [sp, #118]
 142:main.c        **** imu_configs.mag_z_repititions  = 15;
 212              		.loc 1 142 1 is_stmt 1 view .LVU80
 142:main.c        **** imu_configs.mag_z_repititions  = 15;
 213              		.loc 1 142 32 is_stmt 0 view .LVU81
 214 009e 0922     		movs	r2, #9
 215 00a0 8DF87720 		strb	r2, [sp, #119]
 143:main.c        **** 
 216              		.loc 1 143 1 is_stmt 1 view .LVU82
 143:main.c        **** 
 217              		.loc 1 143 32 is_stmt 0 view .LVU83
 218 00a4 0F22     		movs	r2, #15
 219 00a6 8DF87820 		strb	r2, [sp, #120]
 146:main.c        **** command_status                 = USB_OK;
 220              		.loc 1 146 1 is_stmt 1 view .LVU84
 221              	.LVL12:
 147:main.c        **** flash_status                   = FLASH_OK;
 222              		.loc 1 147 1 view .LVU85
 148:main.c        **** ign_status                     = IGN_OK;
 223              		.loc 1 148 1 view .LVU86
 148:main.c        **** ign_status                     = IGN_OK;
 224              		.loc 1 148 32 is_stmt 0 view .LVU87
 225 00aa 8DF8B530 		strb	r3, [sp, #181]
 149:main.c        **** imu_status                     = IMU_OK;
 226              		.loc 1 149 1 is_stmt 1 view .LVU88
 149:main.c        **** imu_status                     = IMU_OK;
 227              		.loc 1 149 32 is_stmt 0 view .LVU89
 228 00ae 4023     		movs	r3, #64
 229 00b0 8DF86B30 		strb	r3, [sp, #107]
 150:main.c        **** gps_status					   = GPS_OK;
 230              		.loc 1 150 1 is_stmt 1 view .LVU90
ARM GAS  C:\Users\tnguy\AppData\Local\Temp\cc4SxDxV.s 			page 16


 231              	.LVL13:
 151:main.c        **** 
 232              		.loc 1 151 1 view .LVU91
 158:main.c        **** if ( flash_status != FLASH_OK )
 233              		.loc 1 158 1 view .LVU92
 158:main.c        **** if ( flash_status != FLASH_OK )
 234              		.loc 1 158 16 is_stmt 0 view .LVU93
 235 00b4 29A8     		add	r0, sp, #164
 236 00b6 FFF7FEFF 		bl	flash_init
 237              	.LVL14:
 158:main.c        **** if ( flash_status != FLASH_OK )
 238              		.loc 1 158 14 view .LVU94
 239 00ba 8DF8B500 		strb	r0, [sp, #181]
 159:main.c        **** 	{
 240              		.loc 1 159 1 is_stmt 1 view .LVU95
 159:main.c        **** 	{
 241              		.loc 1 159 4 is_stmt 0 view .LVU96
 242 00be 08B1     		cbz	r0, .L5
 161:main.c        **** 	}
 243              		.loc 1 161 2 is_stmt 1 view .LVU97
 244 00c0 FFF7FEFF 		bl	Error_Handler
 245              	.LVL15:
 246              	.L5:
 165:main.c        **** 
 247              		.loc 1 165 1 view .LVU98
 248 00c4 FFF7FEFF 		bl	sensor_init
 249              	.LVL16:
 168:main.c        **** if ( baro_status != BARO_OK )
 250              		.loc 1 168 1 view .LVU99
 168:main.c        **** if ( baro_status != BARO_OK )
 251              		.loc 1 168 15 is_stmt 0 view .LVU100
 252 00c8 1FA8     		add	r0, sp, #124
 253 00ca FFF7FEFF 		bl	baro_init
 254              	.LVL17:
 169:main.c        **** 	{
 255              		.loc 1 169 1 is_stmt 1 view .LVU101
 169:main.c        **** 	{
 256              		.loc 1 169 4 is_stmt 0 view .LVU102
 257 00ce 08B1     		cbz	r0, .L6
 171:main.c        **** 	}
 258              		.loc 1 171 2 is_stmt 1 view .LVU103
 259 00d0 FFF7FEFF 		bl	Error_Handler
 260              	.LVL18:
 261              	.L6:
 175:main.c        **** if ( imu_status != IMU_OK )
 262              		.loc 1 175 1 view .LVU104
 175:main.c        **** if ( imu_status != IMU_OK )
 263              		.loc 1 175 14 is_stmt 0 view .LVU105
 264 00d4 1BA8     		add	r0, sp, #108
 265              	.LVL19:
 175:main.c        **** if ( imu_status != IMU_OK )
 266              		.loc 1 175 14 view .LVU106
 267 00d6 FFF7FEFF 		bl	imu_init
 268              	.LVL20:
 176:main.c        **** 	{
 269              		.loc 1 176 1 is_stmt 1 view .LVU107
 176:main.c        **** 	{
ARM GAS  C:\Users\tnguy\AppData\Local\Temp\cc4SxDxV.s 			page 17


 270              		.loc 1 176 4 is_stmt 0 view .LVU108
 271 00da 08B1     		cbz	r0, .L7
 178:main.c        **** 	}
 272              		.loc 1 178 2 is_stmt 1 view .LVU109
 273 00dc FFF7FEFF 		bl	Error_Handler
 274              	.LVL21:
 275              	.L7:
 182:main.c        **** 
 276              		.loc 1 182 1 view .LVU110
 277 00e0 0120     		movs	r0, #1
 278              	.LVL22:
 182:main.c        **** 
 279              		.loc 1 182 1 is_stmt 0 view .LVU111
 280 00e2 FFF7FEFF 		bl	led_set_color
 281              	.LVL23:
 184:main.c        **** gps_status = GPS_Load_Config();
 282              		.loc 1 184 1 is_stmt 1 view .LVU112
 185:main.c        **** if ( gps_status != GPS_FAIL )
 283              		.loc 1 185 1 view .LVU113
 185:main.c        **** if ( gps_status != GPS_FAIL )
 284              		.loc 1 185 14 is_stmt 0 view .LVU114
 285 00e6 FFF7FEFF 		bl	GPS_Load_Config
 286              	.LVL24:
 186:main.c        **** {
 287              		.loc 1 186 1 is_stmt 1 view .LVU115
 186:main.c        **** {
 288              		.loc 1 186 4 is_stmt 0 view .LVU116
 289 00ea 0128     		cmp	r0, #1
 290 00ec 06D0     		beq	.L10
 188:main.c        **** }
 291              		.loc 1 188 2 is_stmt 1 view .LVU117
 188:main.c        **** }
 292              		.loc 1 188 15 is_stmt 0 view .LVU118
 293 00ee 1121     		movs	r1, #17
 294 00f0 01A8     		add	r0, sp, #4
 295              	.LVL25:
 188:main.c        **** }
 296              		.loc 1 188 15 view .LVU119
 297 00f2 FFF7FEFF 		bl	GPS_Get_ID
 298              	.LVL26:
 188:main.c        **** }
 299              		.loc 1 188 15 view .LVU120
 300 00f6 01E0     		b	.L10
 301              	.LVL27:
 302              	.L18:
 214:main.c        **** 					break;
 303              		.loc 1 214 6 is_stmt 1 view .LVU121
 304 00f8 FFF7FEFF 		bl	ping
 305              	.LVL28:
 215:main.c        **** 					}
 306              		.loc 1 215 6 view .LVU122
 307              	.L10:
 194:main.c        **** 	{
 308              		.loc 1 194 1 view .LVU123
 197:main.c        **** 		{
 309              		.loc 1 197 2 view .LVU124
 197:main.c        **** 		{
ARM GAS  C:\Users\tnguy\AppData\Local\Temp\cc4SxDxV.s 			page 18


 310              		.loc 1 197 7 is_stmt 0 view .LVU125
 311 00fc FFF7FEFF 		bl	usb_detect
 312              	.LVL29:
 197:main.c        **** 		{
 313              		.loc 1 197 5 view .LVU126
 314 0100 0028     		cmp	r0, #0
 315 0102 FBD0     		beq	.L10
 200:main.c        **** 									&rx_data, 
 316              		.loc 1 200 3 is_stmt 1 view .LVU127
 200:main.c        **** 									&rx_data, 
 317              		.loc 1 200 20 is_stmt 0 view .LVU128
 318 0104 0A22     		movs	r2, #10
 319 0106 0121     		movs	r1, #1
 320 0108 0DF1B700 		add	r0, sp, #183
 321 010c FFF7FEFF 		bl	usb_receive
 322              	.LVL30:
 207:main.c        **** 			{
 323              		.loc 1 207 3 is_stmt 1 view .LVU129
 207:main.c        **** 			{
 324              		.loc 1 207 6 is_stmt 0 view .LVU130
 325 0110 0028     		cmp	r0, #0
 326 0112 F3D1     		bne	.L10
 209:main.c        **** 				{
 327              		.loc 1 209 4 is_stmt 1 view .LVU131
 328 0114 9DF8B730 		ldrb	r3, [sp, #183]	@ zero_extendqisi2
 329 0118 013B     		subs	r3, r3, #1
 330 011a 212B     		cmp	r3, #33
 331 011c 00F28A80 		bhi	.L12
 332 0120 01A2     		adr	r2, .L14
 333 0122 52F823F0 		ldr	pc, [r2, r3, lsl #2]
 334 0126 00BF     		.p2align 2
 335              	.L14:
 336 0128 F9000000 		.word	.L18+1
 337 012c B1010000 		.word	.L17+1
 338 0130 B7010000 		.word	.L16+1
 339 0134 35020000 		.word	.L12+1
 340 0138 35020000 		.word	.L12+1
 341 013c 35020000 		.word	.L12+1
 342 0140 35020000 		.word	.L12+1
 343 0144 35020000 		.word	.L12+1
 344 0148 35020000 		.word	.L12+1
 345 014c 35020000 		.word	.L12+1
 346 0150 35020000 		.word	.L12+1
 347 0154 35020000 		.word	.L12+1
 348 0158 35020000 		.word	.L12+1
 349 015c 35020000 		.word	.L12+1
 350 0160 35020000 		.word	.L12+1
 351 0164 35020000 		.word	.L12+1
 352 0168 35020000 		.word	.L12+1
 353 016c 35020000 		.word	.L12+1
 354 0170 35020000 		.word	.L12+1
 355 0174 35020000 		.word	.L12+1
 356 0178 35020000 		.word	.L12+1
 357 017c 35020000 		.word	.L12+1
 358 0180 35020000 		.word	.L12+1
 359 0184 35020000 		.word	.L12+1
 360 0188 35020000 		.word	.L12+1
ARM GAS  C:\Users\tnguy\AppData\Local\Temp\cc4SxDxV.s 			page 19


 361 018c 35020000 		.word	.L12+1
 362 0190 35020000 		.word	.L12+1
 363 0194 35020000 		.word	.L12+1
 364 0198 35020000 		.word	.L12+1
 365 019c 35020000 		.word	.L12+1
 366 01a0 35020000 		.word	.L12+1
 367 01a4 D3010000 		.word	.L15+1
 368 01a8 35020000 		.word	.L12+1
 369 01ac FF010000 		.word	.L13+1
 370              		.p2align 1
 371              	.L17:
 221:main.c        **** 					break;
 372              		.loc 1 221 6 view .LVU132
 373 01b0 FFF7FEFF 		bl	ping
 374              	.LVL31:
 222:main.c        **** 					}
 375              		.loc 1 222 6 view .LVU133
 376 01b4 A2E7     		b	.L10
 377              	.LVL32:
 378              	.L16:
 229:main.c        **** 												sizeof( subcommand_code ),
 379              		.loc 1 229 6 view .LVU134
 229:main.c        **** 												sizeof( subcommand_code ),
 380              		.loc 1 229 23 is_stmt 0 view .LVU135
 381 01b6 0A22     		movs	r2, #10
 382 01b8 0121     		movs	r1, #1
 383 01ba 0DF1B600 		add	r0, sp, #182
 384              	.LVL33:
 229:main.c        **** 												sizeof( subcommand_code ),
 385              		.loc 1 229 23 view .LVU136
 386 01be FFF7FEFF 		bl	usb_receive
 387              	.LVL34:
 233:main.c        **** 						{
 388              		.loc 1 233 6 is_stmt 1 view .LVU137
 233:main.c        **** 						{
 389              		.loc 1 233 9 is_stmt 0 view .LVU138
 390 01c2 20B9     		cbnz	r0, .L20
 236:main.c        **** 						}
 391              		.loc 1 236 7 is_stmt 1 view .LVU139
 392 01c4 9DF8B600 		ldrb	r0, [sp, #182]	@ zero_extendqisi2
 393              	.LVL35:
 236:main.c        **** 						}
 394              		.loc 1 236 7 is_stmt 0 view .LVU140
 395 01c8 FFF7FEFF 		bl	sensor_cmd_execute
 396              	.LVL36:
 397 01cc 96E7     		b	.L10
 398              	.LVL37:
 399              	.L20:
 240:main.c        **** 						}
 400              		.loc 1 240 7 is_stmt 1 view .LVU141
 401 01ce FFF7FEFF 		bl	Error_Handler
 402              	.LVL38:
 403              	.L15:
 249:main.c        **** 												sizeof( subcommand_code ),
 404              		.loc 1 249 6 view .LVU142
 249:main.c        **** 												sizeof( subcommand_code ),
 405              		.loc 1 249 23 is_stmt 0 view .LVU143
ARM GAS  C:\Users\tnguy\AppData\Local\Temp\cc4SxDxV.s 			page 20


 406 01d2 0A22     		movs	r2, #10
 407 01d4 0121     		movs	r1, #1
 408 01d6 0DF1B600 		add	r0, sp, #182
 409              	.LVL39:
 249:main.c        **** 												sizeof( subcommand_code ),
 410              		.loc 1 249 23 view .LVU144
 411 01da FFF7FEFF 		bl	usb_receive
 412              	.LVL40:
 254:main.c        **** 						{
 413              		.loc 1 254 6 is_stmt 1 view .LVU145
 254:main.c        **** 						{
 414              		.loc 1 254 9 is_stmt 0 view .LVU146
 415 01de 60B9     		cbnz	r0, .L21
 257:main.c        **** 
 416              		.loc 1 257 7 is_stmt 1 view .LVU147
 257:main.c        **** 
 417              		.loc 1 257 20 is_stmt 0 view .LVU148
 418 01e0 9DF8B600 		ldrb	r0, [sp, #182]	@ zero_extendqisi2
 419              	.LVL41:
 257:main.c        **** 
 420              		.loc 1 257 20 view .LVU149
 421 01e4 FFF7FEFF 		bl	ign_cmd_execute
 422              	.LVL42:
 257:main.c        **** 
 423              		.loc 1 257 18 view .LVU150
 424 01e8 8DF86B00 		strb	r0, [sp, #107]
 260:main.c        **** 									sizeof( ign_status ), 
 425              		.loc 1 260 7 is_stmt 1 view .LVU151
 426 01ec 0A22     		movs	r2, #10
 427 01ee 0121     		movs	r1, #1
 428 01f0 0DF16B00 		add	r0, sp, #107
 429 01f4 FFF7FEFF 		bl	usb_transmit
 430              	.LVL43:
 431 01f8 80E7     		b	.L10
 432              	.LVL44:
 433              	.L21:
 267:main.c        **** 						}
 434              		.loc 1 267 7 view .LVU152
 435 01fa FFF7FEFF 		bl	Error_Handler
 436              	.LVL45:
 437              	.L13:
 277:main.c        **** 												sizeof( subcommand_code ),
 438              		.loc 1 277 6 view .LVU153
 277:main.c        **** 												sizeof( subcommand_code ),
 439              		.loc 1 277 23 is_stmt 0 view .LVU154
 440 01fe 0A22     		movs	r2, #10
 441 0200 0121     		movs	r1, #1
 442 0202 0DF1B600 		add	r0, sp, #182
 443              	.LVL46:
 277:main.c        **** 												sizeof( subcommand_code ),
 444              		.loc 1 277 23 view .LVU155
 445 0206 FFF7FEFF 		bl	usb_receive
 446              	.LVL47:
 282:main.c        **** 						{
 447              		.loc 1 282 6 is_stmt 1 view .LVU156
 282:main.c        **** 						{
 448              		.loc 1 282 9 is_stmt 0 view .LVU157
ARM GAS  C:\Users\tnguy\AppData\Local\Temp\cc4SxDxV.s 			page 21


 449 020a 88B9     		cbnz	r0, .L22
 284:main.c        **** 														&flash_handle );
 450              		.loc 1 284 7 is_stmt 1 view .LVU158
 284:main.c        **** 														&flash_handle );
 451              		.loc 1 284 22 is_stmt 0 view .LVU159
 452 020c 29A9     		add	r1, sp, #164
 453 020e 9DF8B600 		ldrb	r0, [sp, #182]	@ zero_extendqisi2
 454              	.LVL48:
 284:main.c        **** 														&flash_handle );
 455              		.loc 1 284 22 view .LVU160
 456 0212 FFF7FEFF 		bl	flash_cmd_execute
 457              	.LVL49:
 284:main.c        **** 														&flash_handle );
 458              		.loc 1 284 20 view .LVU161
 459 0216 8DF8B500 		strb	r0, [sp, #181]
 294:main.c        **** 												sizeof( flash_status ),
 460              		.loc 1 294 6 is_stmt 1 view .LVU162
 294:main.c        **** 												sizeof( flash_status ),
 461              		.loc 1 294 23 is_stmt 0 view .LVU163
 462 021a 0A22     		movs	r2, #10
 463 021c 0121     		movs	r1, #1
 464 021e 0DF1B500 		add	r0, sp, #181
 465 0222 FFF7FEFF 		bl	usb_transmit
 466              	.LVL50:
 298:main.c        **** 						{
 467              		.loc 1 298 6 is_stmt 1 view .LVU164
 298:main.c        **** 						{
 468              		.loc 1 298 9 is_stmt 0 view .LVU165
 469 0226 0028     		cmp	r0, #0
 470 0228 3FF468AF 		beq	.L10
 301:main.c        **** 						}
 471              		.loc 1 301 7 is_stmt 1 view .LVU166
 472 022c FFF7FEFF 		bl	Error_Handler
 473              	.LVL51:
 474              	.L22:
 290:main.c        **** 						}
 475              		.loc 1 290 7 view .LVU167
 476 0230 FFF7FEFF 		bl	Error_Handler
 477              	.LVL52:
 478              	.L12:
 310:main.c        **** 					}
 479              		.loc 1 310 6 view .LVU168
 480 0234 FFF7FEFF 		bl	Error_Handler
 481              	.LVL53:
 310:main.c        **** 					}
 482              		.loc 1 310 6 is_stmt 0 view .LVU169
 483              		.cfi_endproc
 484              	.LFE144:
 486              		.global	huart4
 487              		.global	huart6
 488              		.global	htim4
 489              		.global	hspi2
 490              		.global	hsd1
 491              		.global	hi2c2
 492              		.global	hi2c1
 493              		.section	.bss.hi2c1,"aw",%nobits
 494              		.align	2
ARM GAS  C:\Users\tnguy\AppData\Local\Temp\cc4SxDxV.s 			page 22


 497              	hi2c1:
 498 0000 00000000 		.space	76
 498      00000000 
 498      00000000 
 498      00000000 
 498      00000000 
 499              		.section	.bss.hi2c2,"aw",%nobits
 500              		.align	2
 503              	hi2c2:
 504 0000 00000000 		.space	76
 504      00000000 
 504      00000000 
 504      00000000 
 504      00000000 
 505              		.section	.bss.hsd1,"aw",%nobits
 506              		.align	2
 509              	hsd1:
 510 0000 00000000 		.space	124
 510      00000000 
 510      00000000 
 510      00000000 
 510      00000000 
 511              		.section	.bss.hspi2,"aw",%nobits
 512              		.align	2
 515              	hspi2:
 516 0000 00000000 		.space	136
 516      00000000 
 516      00000000 
 516      00000000 
 516      00000000 
 517              		.section	.bss.htim4,"aw",%nobits
 518              		.align	2
 521              	htim4:
 522 0000 00000000 		.space	76
 522      00000000 
 522      00000000 
 522      00000000 
 522      00000000 
 523              		.section	.bss.huart4,"aw",%nobits
 524              		.align	2
 527              	huart4:
 528 0000 00000000 		.space	144
 528      00000000 
 528      00000000 
 528      00000000 
 528      00000000 
 529              		.section	.bss.huart6,"aw",%nobits
 530              		.align	2
 533              	huart6:
 534 0000 00000000 		.space	144
 534      00000000 
 534      00000000 
 534      00000000 
 534      00000000 
 535              		.text
 536              	.Letext0:
 537              		.file 3 "c:\\program files (x86)\\gnu arm embedded toolchain\\10 2021.10\\arm-none-eabi\\include\\
ARM GAS  C:\Users\tnguy\AppData\Local\Temp\cc4SxDxV.s 			page 23


 538              		.file 4 "c:\\program files (x86)\\gnu arm embedded toolchain\\10 2021.10\\arm-none-eabi\\include\\
 539              		.file 5 "../../../lib/Drivers/CMSIS/Device/ST/STM32H7xx/Include/stm32h750xx.h"
 540              		.file 6 "../../../lib/Drivers/STM32H7xx_HAL_Driver/Inc/stm32h7xx_hal_def.h"
 541              		.file 7 "../../../lib/Drivers/STM32H7xx_HAL_Driver/Inc/stm32h7xx_hal_dma.h"
 542              		.file 8 "../../../lib/Drivers/STM32H7xx_HAL_Driver/Inc/stm32h7xx_hal_i2c.h"
 543              		.file 9 "../../../lib/Drivers/STM32H7xx_HAL_Driver/Inc/stm32h7xx_ll_sdmmc.h"
 544              		.file 10 "../../../lib/Drivers/STM32H7xx_HAL_Driver/Inc/stm32h7xx_hal_sd.h"
 545              		.file 11 "../../../lib/Drivers/STM32H7xx_HAL_Driver/Inc/stm32h7xx_hal_spi.h"
 546              		.file 12 "../../../lib/Drivers/STM32H7xx_HAL_Driver/Inc/stm32h7xx_hal_tim.h"
 547              		.file 13 "../../../lib/Drivers/STM32H7xx_HAL_Driver/Inc/stm32h7xx_hal_uart.h"
 548              		.file 14 "../../../lib/sdr_pin_defines_A0002.h"
 549              		.file 15 "../../../mod/baro/baro.h"
 550              		.file 16 "../../../mod/imu/imu.h"
 551              		.file 17 "../../../mod/flash/flash.h"
 552              		.file 18 "../../../mod/ignition/ignition.h"
 553              		.file 19 "../../../mod/led/led.h"
 554              		.file 20 "../../../mod/usb/usb.h"
 555              		.file 21 "../../../mod/gps/gps.h"
 556              		.file 22 "../../../lib/Drivers/STM32H7xx_HAL_Driver/Inc/stm32h7xx_hal.h"
 557              		.file 23 "../../../init/terminal/init.h"
 558              		.file 24 "../../../mod/sensor/sensor.h"
 559              		.file 25 "../../../mod/commands/commands.h"
ARM GAS  C:\Users\tnguy\AppData\Local\Temp\cc4SxDxV.s 			page 24


DEFINED SYMBOLS
                            *ABS*:00000000 main.c
C:\Users\tnguy\AppData\Local\Temp\cc4SxDxV.s:19     .text.Error_Handler:00000000 $t
C:\Users\tnguy\AppData\Local\Temp\cc4SxDxV.s:25     .text.Error_Handler:00000000 Error_Handler
C:\Users\tnguy\AppData\Local\Temp\cc4SxDxV.s:66     .text.main:00000000 $t
C:\Users\tnguy\AppData\Local\Temp\cc4SxDxV.s:72     .text.main:00000000 main
C:\Users\tnguy\AppData\Local\Temp\cc4SxDxV.s:336    .text.main:00000128 $d
C:\Users\tnguy\AppData\Local\Temp\cc4SxDxV.s:370    .text.main:000001b0 $t
C:\Users\tnguy\AppData\Local\Temp\cc4SxDxV.s:527    .bss.huart4:00000000 huart4
C:\Users\tnguy\AppData\Local\Temp\cc4SxDxV.s:533    .bss.huart6:00000000 huart6
C:\Users\tnguy\AppData\Local\Temp\cc4SxDxV.s:521    .bss.htim4:00000000 htim4
C:\Users\tnguy\AppData\Local\Temp\cc4SxDxV.s:515    .bss.hspi2:00000000 hspi2
C:\Users\tnguy\AppData\Local\Temp\cc4SxDxV.s:509    .bss.hsd1:00000000 hsd1
C:\Users\tnguy\AppData\Local\Temp\cc4SxDxV.s:503    .bss.hi2c2:00000000 hi2c2
C:\Users\tnguy\AppData\Local\Temp\cc4SxDxV.s:497    .bss.hi2c1:00000000 hi2c1
C:\Users\tnguy\AppData\Local\Temp\cc4SxDxV.s:494    .bss.hi2c1:00000000 $d
C:\Users\tnguy\AppData\Local\Temp\cc4SxDxV.s:500    .bss.hi2c2:00000000 $d
C:\Users\tnguy\AppData\Local\Temp\cc4SxDxV.s:506    .bss.hsd1:00000000 $d
C:\Users\tnguy\AppData\Local\Temp\cc4SxDxV.s:512    .bss.hspi2:00000000 $d
C:\Users\tnguy\AppData\Local\Temp\cc4SxDxV.s:518    .bss.htim4:00000000 $d
C:\Users\tnguy\AppData\Local\Temp\cc4SxDxV.s:524    .bss.huart4:00000000 $d
C:\Users\tnguy\AppData\Local\Temp\cc4SxDxV.s:530    .bss.huart6:00000000 $d

UNDEFINED SYMBOLS
led_set_color
HAL_Init
SystemClock_Config
PeriphCommonClock_Config
GPIO_Init
USB_UART_Init
Baro_I2C_Init
IMU_GPS_I2C_Init
FLASH_SPI_Init
BUZZER_TIM_Init
SD_SDMMC_Init
MX_UART4_Init
flash_init
sensor_init
baro_init
imu_init
GPS_Load_Config
GPS_Get_ID
ping
usb_detect
usb_receive
sensor_cmd_execute
ign_cmd_execute
usb_transmit
flash_cmd_execute
