ARM GAS  C:\Users\tnguy\AppData\Local\Temp\ccH3JJU2.s 			page 1


   1              		.cpu cortex-m7
   2              		.arch armv7e-m
   3              		.fpu fpv5-d16
   4              		.eabi_attribute 28, 1
   5              		.eabi_attribute 20, 1
   6              		.eabi_attribute 21, 1
   7              		.eabi_attribute 23, 3
   8              		.eabi_attribute 24, 1
   9              		.eabi_attribute 25, 1
  10              		.eabi_attribute 26, 1
  11              		.eabi_attribute 30, 1
  12              		.eabi_attribute 34, 1
  13              		.eabi_attribute 18, 4
  14              		.file	"stm32h7xx_hal_dma_ex.c"
  15              		.text
  16              	.Ltext0:
  17              		.cfi_sections	.debug_frame
  18              		.section	.text.DMA_MultiBufferSetConfig,"ax",%progbits
  19              		.align	1
  20              		.syntax unified
  21              		.thumb
  22              		.thumb_func
  24              	DMA_MultiBufferSetConfig:
  25              	.LVL0:
  26              	.LFB152:
  27              		.file 1 "../../../lib/Drivers/STM32H7xx_HAL_Driver/Src/stm32h7xx_hal_dma_ex.c"
   1:../../../lib/Drivers/STM32H7xx_HAL_Driver/Src/stm32h7xx_hal_dma_ex.c **** /**
   2:../../../lib/Drivers/STM32H7xx_HAL_Driver/Src/stm32h7xx_hal_dma_ex.c ****   ******************************************************************************
   3:../../../lib/Drivers/STM32H7xx_HAL_Driver/Src/stm32h7xx_hal_dma_ex.c ****   * @file    stm32h7xx_hal_dma_ex.c
   4:../../../lib/Drivers/STM32H7xx_HAL_Driver/Src/stm32h7xx_hal_dma_ex.c ****   * @author  MCD Application Team
   5:../../../lib/Drivers/STM32H7xx_HAL_Driver/Src/stm32h7xx_hal_dma_ex.c ****   * @brief   DMA Extension HAL module driver
   6:../../../lib/Drivers/STM32H7xx_HAL_Driver/Src/stm32h7xx_hal_dma_ex.c ****   *          This file provides firmware functions to manage the following
   7:../../../lib/Drivers/STM32H7xx_HAL_Driver/Src/stm32h7xx_hal_dma_ex.c ****   *          functionalities of the DMA Extension peripheral:
   8:../../../lib/Drivers/STM32H7xx_HAL_Driver/Src/stm32h7xx_hal_dma_ex.c ****   *           + Extended features functions
   9:../../../lib/Drivers/STM32H7xx_HAL_Driver/Src/stm32h7xx_hal_dma_ex.c ****   *
  10:../../../lib/Drivers/STM32H7xx_HAL_Driver/Src/stm32h7xx_hal_dma_ex.c ****   @verbatim
  11:../../../lib/Drivers/STM32H7xx_HAL_Driver/Src/stm32h7xx_hal_dma_ex.c ****   ==============================================================================
  12:../../../lib/Drivers/STM32H7xx_HAL_Driver/Src/stm32h7xx_hal_dma_ex.c ****                         ##### How to use this driver #####
  13:../../../lib/Drivers/STM32H7xx_HAL_Driver/Src/stm32h7xx_hal_dma_ex.c ****   ==============================================================================
  14:../../../lib/Drivers/STM32H7xx_HAL_Driver/Src/stm32h7xx_hal_dma_ex.c ****   [..]
  15:../../../lib/Drivers/STM32H7xx_HAL_Driver/Src/stm32h7xx_hal_dma_ex.c ****   The DMA Extension HAL driver can be used as follows:
  16:../../../lib/Drivers/STM32H7xx_HAL_Driver/Src/stm32h7xx_hal_dma_ex.c ****    (+) Start a multi buffer transfer using the HAL_DMA_MultiBufferStart() function
  17:../../../lib/Drivers/STM32H7xx_HAL_Driver/Src/stm32h7xx_hal_dma_ex.c ****        for polling mode or HAL_DMA_MultiBufferStart_IT() for interrupt mode.
  18:../../../lib/Drivers/STM32H7xx_HAL_Driver/Src/stm32h7xx_hal_dma_ex.c **** 
  19:../../../lib/Drivers/STM32H7xx_HAL_Driver/Src/stm32h7xx_hal_dma_ex.c ****    (+) Configure the DMA_MUX Synchronization Block using HAL_DMAEx_ConfigMuxSync function.
  20:../../../lib/Drivers/STM32H7xx_HAL_Driver/Src/stm32h7xx_hal_dma_ex.c ****    (+) Configure the DMA_MUX Request Generator Block using HAL_DMAEx_ConfigMuxRequestGenerator func
  21:../../../lib/Drivers/STM32H7xx_HAL_Driver/Src/stm32h7xx_hal_dma_ex.c ****        Functions HAL_DMAEx_EnableMuxRequestGenerator and HAL_DMAEx_DisableMuxRequestGenerator can t
  22:../../../lib/Drivers/STM32H7xx_HAL_Driver/Src/stm32h7xx_hal_dma_ex.c ****        to respectively enable/disable the request generator.
  23:../../../lib/Drivers/STM32H7xx_HAL_Driver/Src/stm32h7xx_hal_dma_ex.c **** 
  24:../../../lib/Drivers/STM32H7xx_HAL_Driver/Src/stm32h7xx_hal_dma_ex.c ****    (+) To handle the DMAMUX Interrupts, the function  HAL_DMAEx_MUX_IRQHandler should be called fro
  25:../../../lib/Drivers/STM32H7xx_HAL_Driver/Src/stm32h7xx_hal_dma_ex.c ****        the DMAMUX IRQ handler i.e DMAMUX1_OVR_IRQHandler or DMAMUX2_OVR_IRQHandler .
  26:../../../lib/Drivers/STM32H7xx_HAL_Driver/Src/stm32h7xx_hal_dma_ex.c ****        As only one interrupt line is available for all DMAMUX channels and request generators , HAL
  27:../../../lib/Drivers/STM32H7xx_HAL_Driver/Src/stm32h7xx_hal_dma_ex.c ****        called with, as parameter, the appropriate DMA handle as many as used DMAs in the user proje
  28:../../../lib/Drivers/STM32H7xx_HAL_Driver/Src/stm32h7xx_hal_dma_ex.c ****       (exception done if a given DMA is not using the DMAMUX SYNC block neither a request generator
  29:../../../lib/Drivers/STM32H7xx_HAL_Driver/Src/stm32h7xx_hal_dma_ex.c **** 
  30:../../../lib/Drivers/STM32H7xx_HAL_Driver/Src/stm32h7xx_hal_dma_ex.c ****      -@-  In Memory-to-Memory transfer mode, Multi (Double) Buffer mode is not allowed.
  31:../../../lib/Drivers/STM32H7xx_HAL_Driver/Src/stm32h7xx_hal_dma_ex.c ****      -@-  When Multi (Double) Buffer mode is enabled, the transfer is circular by default.
ARM GAS  C:\Users\tnguy\AppData\Local\Temp\ccH3JJU2.s 			page 2


  32:../../../lib/Drivers/STM32H7xx_HAL_Driver/Src/stm32h7xx_hal_dma_ex.c ****      -@-  In Multi (Double) buffer mode, it is possible to update the base address for
  33:../../../lib/Drivers/STM32H7xx_HAL_Driver/Src/stm32h7xx_hal_dma_ex.c ****           the AHB memory port on the fly (DMA_SxM0AR or DMA_SxM1AR) when the stream is enabled.
  34:../../../lib/Drivers/STM32H7xx_HAL_Driver/Src/stm32h7xx_hal_dma_ex.c ****      -@-  Multi (Double) buffer mode is possible with DMA and BDMA instances.
  35:../../../lib/Drivers/STM32H7xx_HAL_Driver/Src/stm32h7xx_hal_dma_ex.c **** 
  36:../../../lib/Drivers/STM32H7xx_HAL_Driver/Src/stm32h7xx_hal_dma_ex.c ****   @endverbatim
  37:../../../lib/Drivers/STM32H7xx_HAL_Driver/Src/stm32h7xx_hal_dma_ex.c ****   ******************************************************************************
  38:../../../lib/Drivers/STM32H7xx_HAL_Driver/Src/stm32h7xx_hal_dma_ex.c ****   * @attention
  39:../../../lib/Drivers/STM32H7xx_HAL_Driver/Src/stm32h7xx_hal_dma_ex.c ****   *
  40:../../../lib/Drivers/STM32H7xx_HAL_Driver/Src/stm32h7xx_hal_dma_ex.c ****   * Copyright (c) 2017 STMicroelectronics.
  41:../../../lib/Drivers/STM32H7xx_HAL_Driver/Src/stm32h7xx_hal_dma_ex.c ****   * All rights reserved.
  42:../../../lib/Drivers/STM32H7xx_HAL_Driver/Src/stm32h7xx_hal_dma_ex.c ****   *
  43:../../../lib/Drivers/STM32H7xx_HAL_Driver/Src/stm32h7xx_hal_dma_ex.c ****   * This software is licensed under terms that can be found in the LICENSE file
  44:../../../lib/Drivers/STM32H7xx_HAL_Driver/Src/stm32h7xx_hal_dma_ex.c ****   * in the root directory of this software component.
  45:../../../lib/Drivers/STM32H7xx_HAL_Driver/Src/stm32h7xx_hal_dma_ex.c ****   * If no LICENSE file comes with this software, it is provided AS-IS.
  46:../../../lib/Drivers/STM32H7xx_HAL_Driver/Src/stm32h7xx_hal_dma_ex.c ****   *
  47:../../../lib/Drivers/STM32H7xx_HAL_Driver/Src/stm32h7xx_hal_dma_ex.c ****   ******************************************************************************
  48:../../../lib/Drivers/STM32H7xx_HAL_Driver/Src/stm32h7xx_hal_dma_ex.c ****   */
  49:../../../lib/Drivers/STM32H7xx_HAL_Driver/Src/stm32h7xx_hal_dma_ex.c **** 
  50:../../../lib/Drivers/STM32H7xx_HAL_Driver/Src/stm32h7xx_hal_dma_ex.c **** /* Includes ------------------------------------------------------------------*/
  51:../../../lib/Drivers/STM32H7xx_HAL_Driver/Src/stm32h7xx_hal_dma_ex.c **** #include "stm32h7xx_hal.h"
  52:../../../lib/Drivers/STM32H7xx_HAL_Driver/Src/stm32h7xx_hal_dma_ex.c **** 
  53:../../../lib/Drivers/STM32H7xx_HAL_Driver/Src/stm32h7xx_hal_dma_ex.c **** /** @addtogroup STM32H7xx_HAL_Driver
  54:../../../lib/Drivers/STM32H7xx_HAL_Driver/Src/stm32h7xx_hal_dma_ex.c ****   * @{
  55:../../../lib/Drivers/STM32H7xx_HAL_Driver/Src/stm32h7xx_hal_dma_ex.c ****   */
  56:../../../lib/Drivers/STM32H7xx_HAL_Driver/Src/stm32h7xx_hal_dma_ex.c **** 
  57:../../../lib/Drivers/STM32H7xx_HAL_Driver/Src/stm32h7xx_hal_dma_ex.c **** /** @defgroup DMAEx DMAEx
  58:../../../lib/Drivers/STM32H7xx_HAL_Driver/Src/stm32h7xx_hal_dma_ex.c ****   * @brief DMA Extended HAL module driver
  59:../../../lib/Drivers/STM32H7xx_HAL_Driver/Src/stm32h7xx_hal_dma_ex.c ****   * @{
  60:../../../lib/Drivers/STM32H7xx_HAL_Driver/Src/stm32h7xx_hal_dma_ex.c ****   */
  61:../../../lib/Drivers/STM32H7xx_HAL_Driver/Src/stm32h7xx_hal_dma_ex.c **** 
  62:../../../lib/Drivers/STM32H7xx_HAL_Driver/Src/stm32h7xx_hal_dma_ex.c **** #ifdef HAL_DMA_MODULE_ENABLED
  63:../../../lib/Drivers/STM32H7xx_HAL_Driver/Src/stm32h7xx_hal_dma_ex.c **** 
  64:../../../lib/Drivers/STM32H7xx_HAL_Driver/Src/stm32h7xx_hal_dma_ex.c **** /* Private types -------------------------------------------------------------*/
  65:../../../lib/Drivers/STM32H7xx_HAL_Driver/Src/stm32h7xx_hal_dma_ex.c **** /* Private variables ---------------------------------------------------------*/
  66:../../../lib/Drivers/STM32H7xx_HAL_Driver/Src/stm32h7xx_hal_dma_ex.c **** /* Private Constants ---------------------------------------------------------*/
  67:../../../lib/Drivers/STM32H7xx_HAL_Driver/Src/stm32h7xx_hal_dma_ex.c **** /* Private macros ------------------------------------------------------------*/
  68:../../../lib/Drivers/STM32H7xx_HAL_Driver/Src/stm32h7xx_hal_dma_ex.c **** /* Private functions ---------------------------------------------------------*/
  69:../../../lib/Drivers/STM32H7xx_HAL_Driver/Src/stm32h7xx_hal_dma_ex.c **** /** @addtogroup DMAEx_Private_Functions
  70:../../../lib/Drivers/STM32H7xx_HAL_Driver/Src/stm32h7xx_hal_dma_ex.c ****   * @{
  71:../../../lib/Drivers/STM32H7xx_HAL_Driver/Src/stm32h7xx_hal_dma_ex.c ****   */
  72:../../../lib/Drivers/STM32H7xx_HAL_Driver/Src/stm32h7xx_hal_dma_ex.c **** 
  73:../../../lib/Drivers/STM32H7xx_HAL_Driver/Src/stm32h7xx_hal_dma_ex.c **** static void DMA_MultiBufferSetConfig(DMA_HandleTypeDef *hdma, uint32_t SrcAddress, uint32_t DstAddr
  74:../../../lib/Drivers/STM32H7xx_HAL_Driver/Src/stm32h7xx_hal_dma_ex.c **** 
  75:../../../lib/Drivers/STM32H7xx_HAL_Driver/Src/stm32h7xx_hal_dma_ex.c **** /**
  76:../../../lib/Drivers/STM32H7xx_HAL_Driver/Src/stm32h7xx_hal_dma_ex.c ****   * @}
  77:../../../lib/Drivers/STM32H7xx_HAL_Driver/Src/stm32h7xx_hal_dma_ex.c ****   */
  78:../../../lib/Drivers/STM32H7xx_HAL_Driver/Src/stm32h7xx_hal_dma_ex.c **** 
  79:../../../lib/Drivers/STM32H7xx_HAL_Driver/Src/stm32h7xx_hal_dma_ex.c **** /* Exported functions ---------------------------------------------------------*/
  80:../../../lib/Drivers/STM32H7xx_HAL_Driver/Src/stm32h7xx_hal_dma_ex.c **** 
  81:../../../lib/Drivers/STM32H7xx_HAL_Driver/Src/stm32h7xx_hal_dma_ex.c **** /** @addtogroup DMAEx_Exported_Functions
  82:../../../lib/Drivers/STM32H7xx_HAL_Driver/Src/stm32h7xx_hal_dma_ex.c ****   * @{
  83:../../../lib/Drivers/STM32H7xx_HAL_Driver/Src/stm32h7xx_hal_dma_ex.c ****   */
  84:../../../lib/Drivers/STM32H7xx_HAL_Driver/Src/stm32h7xx_hal_dma_ex.c **** 
  85:../../../lib/Drivers/STM32H7xx_HAL_Driver/Src/stm32h7xx_hal_dma_ex.c **** 
  86:../../../lib/Drivers/STM32H7xx_HAL_Driver/Src/stm32h7xx_hal_dma_ex.c **** /** @addtogroup DMAEx_Exported_Functions_Group1
  87:../../../lib/Drivers/STM32H7xx_HAL_Driver/Src/stm32h7xx_hal_dma_ex.c ****   *
  88:../../../lib/Drivers/STM32H7xx_HAL_Driver/Src/stm32h7xx_hal_dma_ex.c **** @verbatim
ARM GAS  C:\Users\tnguy\AppData\Local\Temp\ccH3JJU2.s 			page 3


  89:../../../lib/Drivers/STM32H7xx_HAL_Driver/Src/stm32h7xx_hal_dma_ex.c ****  ===============================================================================
  90:../../../lib/Drivers/STM32H7xx_HAL_Driver/Src/stm32h7xx_hal_dma_ex.c ****                 #####  Extended features functions  #####
  91:../../../lib/Drivers/STM32H7xx_HAL_Driver/Src/stm32h7xx_hal_dma_ex.c ****  ===============================================================================
  92:../../../lib/Drivers/STM32H7xx_HAL_Driver/Src/stm32h7xx_hal_dma_ex.c ****     [..]  This section provides functions allowing to:
  93:../../../lib/Drivers/STM32H7xx_HAL_Driver/Src/stm32h7xx_hal_dma_ex.c ****       (+) Configure the source, destination address and data length and
  94:../../../lib/Drivers/STM32H7xx_HAL_Driver/Src/stm32h7xx_hal_dma_ex.c ****           Start MultiBuffer DMA transfer
  95:../../../lib/Drivers/STM32H7xx_HAL_Driver/Src/stm32h7xx_hal_dma_ex.c ****       (+) Configure the source, destination address and data length and
  96:../../../lib/Drivers/STM32H7xx_HAL_Driver/Src/stm32h7xx_hal_dma_ex.c ****           Start MultiBuffer DMA transfer with interrupt
  97:../../../lib/Drivers/STM32H7xx_HAL_Driver/Src/stm32h7xx_hal_dma_ex.c ****       (+) Change on the fly the memory0 or memory1 address.
  98:../../../lib/Drivers/STM32H7xx_HAL_Driver/Src/stm32h7xx_hal_dma_ex.c ****       (+) Configure the DMA_MUX Synchronization Block using HAL_DMAEx_ConfigMuxSync function.
  99:../../../lib/Drivers/STM32H7xx_HAL_Driver/Src/stm32h7xx_hal_dma_ex.c ****       (+) Configure the DMA_MUX Request Generator Block using HAL_DMAEx_ConfigMuxRequestGenerator f
 100:../../../lib/Drivers/STM32H7xx_HAL_Driver/Src/stm32h7xx_hal_dma_ex.c ****       (+) Functions HAL_DMAEx_EnableMuxRequestGenerator and HAL_DMAEx_DisableMuxRequestGenerator ca
 101:../../../lib/Drivers/STM32H7xx_HAL_Driver/Src/stm32h7xx_hal_dma_ex.c ****           to respectively enable/disable the request generator.
 102:../../../lib/Drivers/STM32H7xx_HAL_Driver/Src/stm32h7xx_hal_dma_ex.c ****       (+) Handle DMAMUX interrupts using HAL_DMAEx_MUX_IRQHandler : should be called from
 103:../../../lib/Drivers/STM32H7xx_HAL_Driver/Src/stm32h7xx_hal_dma_ex.c ****           the DMAMUX IRQ handler i.e DMAMUX1_OVR_IRQHandler or DMAMUX2_OVR_IRQHandler
 104:../../../lib/Drivers/STM32H7xx_HAL_Driver/Src/stm32h7xx_hal_dma_ex.c **** 
 105:../../../lib/Drivers/STM32H7xx_HAL_Driver/Src/stm32h7xx_hal_dma_ex.c **** @endverbatim
 106:../../../lib/Drivers/STM32H7xx_HAL_Driver/Src/stm32h7xx_hal_dma_ex.c ****   * @{
 107:../../../lib/Drivers/STM32H7xx_HAL_Driver/Src/stm32h7xx_hal_dma_ex.c ****   */
 108:../../../lib/Drivers/STM32H7xx_HAL_Driver/Src/stm32h7xx_hal_dma_ex.c **** 
 109:../../../lib/Drivers/STM32H7xx_HAL_Driver/Src/stm32h7xx_hal_dma_ex.c **** 
 110:../../../lib/Drivers/STM32H7xx_HAL_Driver/Src/stm32h7xx_hal_dma_ex.c **** /**
 111:../../../lib/Drivers/STM32H7xx_HAL_Driver/Src/stm32h7xx_hal_dma_ex.c ****   * @brief  Starts the multi_buffer DMA Transfer.
 112:../../../lib/Drivers/STM32H7xx_HAL_Driver/Src/stm32h7xx_hal_dma_ex.c ****   * @param  hdma      : pointer to a DMA_HandleTypeDef structure that contains
 113:../../../lib/Drivers/STM32H7xx_HAL_Driver/Src/stm32h7xx_hal_dma_ex.c ****   *                     the configuration information for the specified DMA Stream.
 114:../../../lib/Drivers/STM32H7xx_HAL_Driver/Src/stm32h7xx_hal_dma_ex.c ****   * @param  SrcAddress: The source memory Buffer address
 115:../../../lib/Drivers/STM32H7xx_HAL_Driver/Src/stm32h7xx_hal_dma_ex.c ****   * @param  DstAddress: The destination memory Buffer address
 116:../../../lib/Drivers/STM32H7xx_HAL_Driver/Src/stm32h7xx_hal_dma_ex.c ****   * @param  SecondMemAddress: The second memory Buffer address in case of multi buffer Transfer
 117:../../../lib/Drivers/STM32H7xx_HAL_Driver/Src/stm32h7xx_hal_dma_ex.c ****   * @param  DataLength: The length of data to be transferred from source to destination
 118:../../../lib/Drivers/STM32H7xx_HAL_Driver/Src/stm32h7xx_hal_dma_ex.c ****   * @retval HAL status
 119:../../../lib/Drivers/STM32H7xx_HAL_Driver/Src/stm32h7xx_hal_dma_ex.c ****   */
 120:../../../lib/Drivers/STM32H7xx_HAL_Driver/Src/stm32h7xx_hal_dma_ex.c **** HAL_StatusTypeDef HAL_DMAEx_MultiBufferStart(DMA_HandleTypeDef *hdma, uint32_t SrcAddress, uint32_t
 121:../../../lib/Drivers/STM32H7xx_HAL_Driver/Src/stm32h7xx_hal_dma_ex.c **** {
 122:../../../lib/Drivers/STM32H7xx_HAL_Driver/Src/stm32h7xx_hal_dma_ex.c ****   HAL_StatusTypeDef status = HAL_OK;
 123:../../../lib/Drivers/STM32H7xx_HAL_Driver/Src/stm32h7xx_hal_dma_ex.c ****   __IO uint32_t *ifcRegister_Base; /* DMA Stream Interrupt Clear register */
 124:../../../lib/Drivers/STM32H7xx_HAL_Driver/Src/stm32h7xx_hal_dma_ex.c **** 
 125:../../../lib/Drivers/STM32H7xx_HAL_Driver/Src/stm32h7xx_hal_dma_ex.c ****   /* Check the parameters */
 126:../../../lib/Drivers/STM32H7xx_HAL_Driver/Src/stm32h7xx_hal_dma_ex.c ****   assert_param(IS_DMA_BUFFER_SIZE(DataLength));
 127:../../../lib/Drivers/STM32H7xx_HAL_Driver/Src/stm32h7xx_hal_dma_ex.c ****   assert_param(IS_DMA_ALL_INSTANCE(hdma->Instance));
 128:../../../lib/Drivers/STM32H7xx_HAL_Driver/Src/stm32h7xx_hal_dma_ex.c **** 
 129:../../../lib/Drivers/STM32H7xx_HAL_Driver/Src/stm32h7xx_hal_dma_ex.c ****   /* Memory-to-memory transfer not supported in double buffering mode */
 130:../../../lib/Drivers/STM32H7xx_HAL_Driver/Src/stm32h7xx_hal_dma_ex.c ****   if (hdma->Init.Direction == DMA_MEMORY_TO_MEMORY)
 131:../../../lib/Drivers/STM32H7xx_HAL_Driver/Src/stm32h7xx_hal_dma_ex.c ****   {
 132:../../../lib/Drivers/STM32H7xx_HAL_Driver/Src/stm32h7xx_hal_dma_ex.c ****     hdma->ErrorCode = HAL_DMA_ERROR_NOT_SUPPORTED;
 133:../../../lib/Drivers/STM32H7xx_HAL_Driver/Src/stm32h7xx_hal_dma_ex.c ****     status = HAL_ERROR;
 134:../../../lib/Drivers/STM32H7xx_HAL_Driver/Src/stm32h7xx_hal_dma_ex.c ****   }
 135:../../../lib/Drivers/STM32H7xx_HAL_Driver/Src/stm32h7xx_hal_dma_ex.c ****   else
 136:../../../lib/Drivers/STM32H7xx_HAL_Driver/Src/stm32h7xx_hal_dma_ex.c ****   {
 137:../../../lib/Drivers/STM32H7xx_HAL_Driver/Src/stm32h7xx_hal_dma_ex.c ****     /* Process Locked */
 138:../../../lib/Drivers/STM32H7xx_HAL_Driver/Src/stm32h7xx_hal_dma_ex.c ****     __HAL_LOCK(hdma);
 139:../../../lib/Drivers/STM32H7xx_HAL_Driver/Src/stm32h7xx_hal_dma_ex.c **** 
 140:../../../lib/Drivers/STM32H7xx_HAL_Driver/Src/stm32h7xx_hal_dma_ex.c ****     if(HAL_DMA_STATE_READY == hdma->State)
 141:../../../lib/Drivers/STM32H7xx_HAL_Driver/Src/stm32h7xx_hal_dma_ex.c ****     {
 142:../../../lib/Drivers/STM32H7xx_HAL_Driver/Src/stm32h7xx_hal_dma_ex.c ****       /* Change DMA peripheral state */
 143:../../../lib/Drivers/STM32H7xx_HAL_Driver/Src/stm32h7xx_hal_dma_ex.c ****       hdma->State = HAL_DMA_STATE_BUSY;
 144:../../../lib/Drivers/STM32H7xx_HAL_Driver/Src/stm32h7xx_hal_dma_ex.c **** 
 145:../../../lib/Drivers/STM32H7xx_HAL_Driver/Src/stm32h7xx_hal_dma_ex.c ****       /* Initialize the error code */
ARM GAS  C:\Users\tnguy\AppData\Local\Temp\ccH3JJU2.s 			page 4


 146:../../../lib/Drivers/STM32H7xx_HAL_Driver/Src/stm32h7xx_hal_dma_ex.c ****       hdma->ErrorCode = HAL_DMA_ERROR_NONE;
 147:../../../lib/Drivers/STM32H7xx_HAL_Driver/Src/stm32h7xx_hal_dma_ex.c **** 
 148:../../../lib/Drivers/STM32H7xx_HAL_Driver/Src/stm32h7xx_hal_dma_ex.c ****       if(IS_DMA_STREAM_INSTANCE(hdma->Instance) != 0U) /* DMA1 or DMA2 instance */
 149:../../../lib/Drivers/STM32H7xx_HAL_Driver/Src/stm32h7xx_hal_dma_ex.c ****       {
 150:../../../lib/Drivers/STM32H7xx_HAL_Driver/Src/stm32h7xx_hal_dma_ex.c ****         /* Enable the Double buffer mode */
 151:../../../lib/Drivers/STM32H7xx_HAL_Driver/Src/stm32h7xx_hal_dma_ex.c ****         ((DMA_Stream_TypeDef   *)hdma->Instance)->CR |= DMA_SxCR_DBM;
 152:../../../lib/Drivers/STM32H7xx_HAL_Driver/Src/stm32h7xx_hal_dma_ex.c **** 
 153:../../../lib/Drivers/STM32H7xx_HAL_Driver/Src/stm32h7xx_hal_dma_ex.c ****         /* Configure DMA Stream destination address */
 154:../../../lib/Drivers/STM32H7xx_HAL_Driver/Src/stm32h7xx_hal_dma_ex.c ****         ((DMA_Stream_TypeDef   *)hdma->Instance)->M1AR = SecondMemAddress;
 155:../../../lib/Drivers/STM32H7xx_HAL_Driver/Src/stm32h7xx_hal_dma_ex.c **** 
 156:../../../lib/Drivers/STM32H7xx_HAL_Driver/Src/stm32h7xx_hal_dma_ex.c ****         /* Calculate the interrupt clear flag register (IFCR) base address  */
 157:../../../lib/Drivers/STM32H7xx_HAL_Driver/Src/stm32h7xx_hal_dma_ex.c ****         ifcRegister_Base = (uint32_t *)((uint32_t)(hdma->StreamBaseAddress + 8U));
 158:../../../lib/Drivers/STM32H7xx_HAL_Driver/Src/stm32h7xx_hal_dma_ex.c **** 
 159:../../../lib/Drivers/STM32H7xx_HAL_Driver/Src/stm32h7xx_hal_dma_ex.c ****         /* Clear all flags */
 160:../../../lib/Drivers/STM32H7xx_HAL_Driver/Src/stm32h7xx_hal_dma_ex.c ****         *ifcRegister_Base = 0x3FUL << (hdma->StreamIndex & 0x1FU);
 161:../../../lib/Drivers/STM32H7xx_HAL_Driver/Src/stm32h7xx_hal_dma_ex.c ****       }
 162:../../../lib/Drivers/STM32H7xx_HAL_Driver/Src/stm32h7xx_hal_dma_ex.c ****       else /* BDMA instance(s) */
 163:../../../lib/Drivers/STM32H7xx_HAL_Driver/Src/stm32h7xx_hal_dma_ex.c ****       {
 164:../../../lib/Drivers/STM32H7xx_HAL_Driver/Src/stm32h7xx_hal_dma_ex.c ****         /* Enable the Double buffer mode */
 165:../../../lib/Drivers/STM32H7xx_HAL_Driver/Src/stm32h7xx_hal_dma_ex.c ****         ((BDMA_Channel_TypeDef   *)hdma->Instance)->CCR |= (BDMA_CCR_DBM | BDMA_CCR_CIRC);
 166:../../../lib/Drivers/STM32H7xx_HAL_Driver/Src/stm32h7xx_hal_dma_ex.c **** 
 167:../../../lib/Drivers/STM32H7xx_HAL_Driver/Src/stm32h7xx_hal_dma_ex.c ****         /* Configure DMA Stream destination address */
 168:../../../lib/Drivers/STM32H7xx_HAL_Driver/Src/stm32h7xx_hal_dma_ex.c ****         ((BDMA_Channel_TypeDef   *)hdma->Instance)->CM1AR = SecondMemAddress;
 169:../../../lib/Drivers/STM32H7xx_HAL_Driver/Src/stm32h7xx_hal_dma_ex.c **** 
 170:../../../lib/Drivers/STM32H7xx_HAL_Driver/Src/stm32h7xx_hal_dma_ex.c ****         /* Calculate the interrupt clear flag register (IFCR) base address  */
 171:../../../lib/Drivers/STM32H7xx_HAL_Driver/Src/stm32h7xx_hal_dma_ex.c ****         ifcRegister_Base = (uint32_t *)((uint32_t)(hdma->StreamBaseAddress + 4U));
 172:../../../lib/Drivers/STM32H7xx_HAL_Driver/Src/stm32h7xx_hal_dma_ex.c **** 
 173:../../../lib/Drivers/STM32H7xx_HAL_Driver/Src/stm32h7xx_hal_dma_ex.c ****         /* Clear all flags */
 174:../../../lib/Drivers/STM32H7xx_HAL_Driver/Src/stm32h7xx_hal_dma_ex.c ****         *ifcRegister_Base = (BDMA_ISR_GIF0) << (hdma->StreamIndex & 0x1FU);
 175:../../../lib/Drivers/STM32H7xx_HAL_Driver/Src/stm32h7xx_hal_dma_ex.c ****       }
 176:../../../lib/Drivers/STM32H7xx_HAL_Driver/Src/stm32h7xx_hal_dma_ex.c **** 
 177:../../../lib/Drivers/STM32H7xx_HAL_Driver/Src/stm32h7xx_hal_dma_ex.c ****       if(IS_DMA_DMAMUX_ALL_INSTANCE(hdma->Instance) != 0U) /* No DMAMUX available for BDMA1 */
 178:../../../lib/Drivers/STM32H7xx_HAL_Driver/Src/stm32h7xx_hal_dma_ex.c ****       {
 179:../../../lib/Drivers/STM32H7xx_HAL_Driver/Src/stm32h7xx_hal_dma_ex.c ****         /* Configure the source, destination address and the data length */
 180:../../../lib/Drivers/STM32H7xx_HAL_Driver/Src/stm32h7xx_hal_dma_ex.c ****         DMA_MultiBufferSetConfig(hdma, SrcAddress, DstAddress, DataLength);
 181:../../../lib/Drivers/STM32H7xx_HAL_Driver/Src/stm32h7xx_hal_dma_ex.c **** 
 182:../../../lib/Drivers/STM32H7xx_HAL_Driver/Src/stm32h7xx_hal_dma_ex.c ****         /* Clear the DMAMUX synchro overrun flag */
 183:../../../lib/Drivers/STM32H7xx_HAL_Driver/Src/stm32h7xx_hal_dma_ex.c ****         hdma->DMAmuxChannelStatus->CFR = hdma->DMAmuxChannelStatusMask;
 184:../../../lib/Drivers/STM32H7xx_HAL_Driver/Src/stm32h7xx_hal_dma_ex.c **** 
 185:../../../lib/Drivers/STM32H7xx_HAL_Driver/Src/stm32h7xx_hal_dma_ex.c ****         if(hdma->DMAmuxRequestGen != 0U)
 186:../../../lib/Drivers/STM32H7xx_HAL_Driver/Src/stm32h7xx_hal_dma_ex.c ****         {
 187:../../../lib/Drivers/STM32H7xx_HAL_Driver/Src/stm32h7xx_hal_dma_ex.c ****           /* Clear the DMAMUX request generator overrun flag */
 188:../../../lib/Drivers/STM32H7xx_HAL_Driver/Src/stm32h7xx_hal_dma_ex.c ****           hdma->DMAmuxRequestGenStatus->RGCFR = hdma->DMAmuxRequestGenStatusMask;
 189:../../../lib/Drivers/STM32H7xx_HAL_Driver/Src/stm32h7xx_hal_dma_ex.c ****         }
 190:../../../lib/Drivers/STM32H7xx_HAL_Driver/Src/stm32h7xx_hal_dma_ex.c ****       }
 191:../../../lib/Drivers/STM32H7xx_HAL_Driver/Src/stm32h7xx_hal_dma_ex.c **** 
 192:../../../lib/Drivers/STM32H7xx_HAL_Driver/Src/stm32h7xx_hal_dma_ex.c ****       /* Enable the peripheral */
 193:../../../lib/Drivers/STM32H7xx_HAL_Driver/Src/stm32h7xx_hal_dma_ex.c ****       __HAL_DMA_ENABLE(hdma);
 194:../../../lib/Drivers/STM32H7xx_HAL_Driver/Src/stm32h7xx_hal_dma_ex.c ****     }
 195:../../../lib/Drivers/STM32H7xx_HAL_Driver/Src/stm32h7xx_hal_dma_ex.c ****     else
 196:../../../lib/Drivers/STM32H7xx_HAL_Driver/Src/stm32h7xx_hal_dma_ex.c ****     {
 197:../../../lib/Drivers/STM32H7xx_HAL_Driver/Src/stm32h7xx_hal_dma_ex.c ****       /* Set the error code to busy */
 198:../../../lib/Drivers/STM32H7xx_HAL_Driver/Src/stm32h7xx_hal_dma_ex.c ****       hdma->ErrorCode = HAL_DMA_ERROR_BUSY;
 199:../../../lib/Drivers/STM32H7xx_HAL_Driver/Src/stm32h7xx_hal_dma_ex.c **** 
 200:../../../lib/Drivers/STM32H7xx_HAL_Driver/Src/stm32h7xx_hal_dma_ex.c ****       /* Return error status */
 201:../../../lib/Drivers/STM32H7xx_HAL_Driver/Src/stm32h7xx_hal_dma_ex.c ****       status = HAL_ERROR;
 202:../../../lib/Drivers/STM32H7xx_HAL_Driver/Src/stm32h7xx_hal_dma_ex.c ****     }
ARM GAS  C:\Users\tnguy\AppData\Local\Temp\ccH3JJU2.s 			page 5


 203:../../../lib/Drivers/STM32H7xx_HAL_Driver/Src/stm32h7xx_hal_dma_ex.c ****   }
 204:../../../lib/Drivers/STM32H7xx_HAL_Driver/Src/stm32h7xx_hal_dma_ex.c ****   return status;
 205:../../../lib/Drivers/STM32H7xx_HAL_Driver/Src/stm32h7xx_hal_dma_ex.c **** }
 206:../../../lib/Drivers/STM32H7xx_HAL_Driver/Src/stm32h7xx_hal_dma_ex.c **** 
 207:../../../lib/Drivers/STM32H7xx_HAL_Driver/Src/stm32h7xx_hal_dma_ex.c **** /**
 208:../../../lib/Drivers/STM32H7xx_HAL_Driver/Src/stm32h7xx_hal_dma_ex.c ****   * @brief  Starts the multi_buffer DMA Transfer with interrupt enabled.
 209:../../../lib/Drivers/STM32H7xx_HAL_Driver/Src/stm32h7xx_hal_dma_ex.c ****   * @param  hdma:       pointer to a DMA_HandleTypeDef structure that contains
 210:../../../lib/Drivers/STM32H7xx_HAL_Driver/Src/stm32h7xx_hal_dma_ex.c ****   *                     the configuration information for the specified DMA Stream.
 211:../../../lib/Drivers/STM32H7xx_HAL_Driver/Src/stm32h7xx_hal_dma_ex.c ****   * @param  SrcAddress: The source memory Buffer address
 212:../../../lib/Drivers/STM32H7xx_HAL_Driver/Src/stm32h7xx_hal_dma_ex.c ****   * @param  DstAddress: The destination memory Buffer address
 213:../../../lib/Drivers/STM32H7xx_HAL_Driver/Src/stm32h7xx_hal_dma_ex.c ****   * @param  SecondMemAddress: The second memory Buffer address in case of multi buffer Transfer
 214:../../../lib/Drivers/STM32H7xx_HAL_Driver/Src/stm32h7xx_hal_dma_ex.c ****   * @param  DataLength: The length of data to be transferred from source to destination
 215:../../../lib/Drivers/STM32H7xx_HAL_Driver/Src/stm32h7xx_hal_dma_ex.c ****   * @retval HAL status
 216:../../../lib/Drivers/STM32H7xx_HAL_Driver/Src/stm32h7xx_hal_dma_ex.c ****   */
 217:../../../lib/Drivers/STM32H7xx_HAL_Driver/Src/stm32h7xx_hal_dma_ex.c **** HAL_StatusTypeDef HAL_DMAEx_MultiBufferStart_IT(DMA_HandleTypeDef *hdma, uint32_t SrcAddress, uint3
 218:../../../lib/Drivers/STM32H7xx_HAL_Driver/Src/stm32h7xx_hal_dma_ex.c **** {
 219:../../../lib/Drivers/STM32H7xx_HAL_Driver/Src/stm32h7xx_hal_dma_ex.c ****   HAL_StatusTypeDef status = HAL_OK;
 220:../../../lib/Drivers/STM32H7xx_HAL_Driver/Src/stm32h7xx_hal_dma_ex.c ****   __IO uint32_t *ifcRegister_Base; /* DMA Stream Interrupt Clear register */
 221:../../../lib/Drivers/STM32H7xx_HAL_Driver/Src/stm32h7xx_hal_dma_ex.c **** 
 222:../../../lib/Drivers/STM32H7xx_HAL_Driver/Src/stm32h7xx_hal_dma_ex.c ****   /* Check the parameters */
 223:../../../lib/Drivers/STM32H7xx_HAL_Driver/Src/stm32h7xx_hal_dma_ex.c ****   assert_param(IS_DMA_BUFFER_SIZE(DataLength));
 224:../../../lib/Drivers/STM32H7xx_HAL_Driver/Src/stm32h7xx_hal_dma_ex.c ****   assert_param(IS_DMA_ALL_INSTANCE(hdma->Instance));
 225:../../../lib/Drivers/STM32H7xx_HAL_Driver/Src/stm32h7xx_hal_dma_ex.c **** 
 226:../../../lib/Drivers/STM32H7xx_HAL_Driver/Src/stm32h7xx_hal_dma_ex.c ****   /* Memory-to-memory transfer not supported in double buffering mode */
 227:../../../lib/Drivers/STM32H7xx_HAL_Driver/Src/stm32h7xx_hal_dma_ex.c ****   if(hdma->Init.Direction == DMA_MEMORY_TO_MEMORY)
 228:../../../lib/Drivers/STM32H7xx_HAL_Driver/Src/stm32h7xx_hal_dma_ex.c ****   {
 229:../../../lib/Drivers/STM32H7xx_HAL_Driver/Src/stm32h7xx_hal_dma_ex.c ****     hdma->ErrorCode = HAL_DMA_ERROR_NOT_SUPPORTED;
 230:../../../lib/Drivers/STM32H7xx_HAL_Driver/Src/stm32h7xx_hal_dma_ex.c ****     return HAL_ERROR;
 231:../../../lib/Drivers/STM32H7xx_HAL_Driver/Src/stm32h7xx_hal_dma_ex.c ****   }
 232:../../../lib/Drivers/STM32H7xx_HAL_Driver/Src/stm32h7xx_hal_dma_ex.c **** 
 233:../../../lib/Drivers/STM32H7xx_HAL_Driver/Src/stm32h7xx_hal_dma_ex.c ****   /* Process locked */
 234:../../../lib/Drivers/STM32H7xx_HAL_Driver/Src/stm32h7xx_hal_dma_ex.c ****   __HAL_LOCK(hdma);
 235:../../../lib/Drivers/STM32H7xx_HAL_Driver/Src/stm32h7xx_hal_dma_ex.c **** 
 236:../../../lib/Drivers/STM32H7xx_HAL_Driver/Src/stm32h7xx_hal_dma_ex.c ****   if(HAL_DMA_STATE_READY == hdma->State)
 237:../../../lib/Drivers/STM32H7xx_HAL_Driver/Src/stm32h7xx_hal_dma_ex.c ****   {
 238:../../../lib/Drivers/STM32H7xx_HAL_Driver/Src/stm32h7xx_hal_dma_ex.c ****     /* Change DMA peripheral state */
 239:../../../lib/Drivers/STM32H7xx_HAL_Driver/Src/stm32h7xx_hal_dma_ex.c ****     hdma->State = HAL_DMA_STATE_BUSY;
 240:../../../lib/Drivers/STM32H7xx_HAL_Driver/Src/stm32h7xx_hal_dma_ex.c **** 
 241:../../../lib/Drivers/STM32H7xx_HAL_Driver/Src/stm32h7xx_hal_dma_ex.c ****     /* Initialize the error code */
 242:../../../lib/Drivers/STM32H7xx_HAL_Driver/Src/stm32h7xx_hal_dma_ex.c ****     hdma->ErrorCode = HAL_DMA_ERROR_NONE;
 243:../../../lib/Drivers/STM32H7xx_HAL_Driver/Src/stm32h7xx_hal_dma_ex.c **** 
 244:../../../lib/Drivers/STM32H7xx_HAL_Driver/Src/stm32h7xx_hal_dma_ex.c ****     if(IS_DMA_STREAM_INSTANCE(hdma->Instance) != 0U) /* DMA1 or DMA2 instance */
 245:../../../lib/Drivers/STM32H7xx_HAL_Driver/Src/stm32h7xx_hal_dma_ex.c ****     {
 246:../../../lib/Drivers/STM32H7xx_HAL_Driver/Src/stm32h7xx_hal_dma_ex.c ****       /* Enable the Double buffer mode */
 247:../../../lib/Drivers/STM32H7xx_HAL_Driver/Src/stm32h7xx_hal_dma_ex.c ****       ((DMA_Stream_TypeDef   *)hdma->Instance)->CR |= DMA_SxCR_DBM;
 248:../../../lib/Drivers/STM32H7xx_HAL_Driver/Src/stm32h7xx_hal_dma_ex.c **** 
 249:../../../lib/Drivers/STM32H7xx_HAL_Driver/Src/stm32h7xx_hal_dma_ex.c ****       /* Configure DMA Stream destination address */
 250:../../../lib/Drivers/STM32H7xx_HAL_Driver/Src/stm32h7xx_hal_dma_ex.c ****       ((DMA_Stream_TypeDef   *)hdma->Instance)->M1AR = SecondMemAddress;
 251:../../../lib/Drivers/STM32H7xx_HAL_Driver/Src/stm32h7xx_hal_dma_ex.c **** 
 252:../../../lib/Drivers/STM32H7xx_HAL_Driver/Src/stm32h7xx_hal_dma_ex.c ****       /* Calculate the interrupt clear flag register (IFCR) base address  */
 253:../../../lib/Drivers/STM32H7xx_HAL_Driver/Src/stm32h7xx_hal_dma_ex.c ****       ifcRegister_Base = (uint32_t *)((uint32_t)(hdma->StreamBaseAddress + 8U));
 254:../../../lib/Drivers/STM32H7xx_HAL_Driver/Src/stm32h7xx_hal_dma_ex.c **** 
 255:../../../lib/Drivers/STM32H7xx_HAL_Driver/Src/stm32h7xx_hal_dma_ex.c ****       /* Clear all flags */
 256:../../../lib/Drivers/STM32H7xx_HAL_Driver/Src/stm32h7xx_hal_dma_ex.c ****       *ifcRegister_Base = 0x3FUL << (hdma->StreamIndex & 0x1FU);
 257:../../../lib/Drivers/STM32H7xx_HAL_Driver/Src/stm32h7xx_hal_dma_ex.c ****     }
 258:../../../lib/Drivers/STM32H7xx_HAL_Driver/Src/stm32h7xx_hal_dma_ex.c ****     else /* BDMA instance(s) */
 259:../../../lib/Drivers/STM32H7xx_HAL_Driver/Src/stm32h7xx_hal_dma_ex.c ****     {
ARM GAS  C:\Users\tnguy\AppData\Local\Temp\ccH3JJU2.s 			page 6


 260:../../../lib/Drivers/STM32H7xx_HAL_Driver/Src/stm32h7xx_hal_dma_ex.c ****       /* Enable the Double buffer mode */
 261:../../../lib/Drivers/STM32H7xx_HAL_Driver/Src/stm32h7xx_hal_dma_ex.c ****       ((BDMA_Channel_TypeDef   *)hdma->Instance)->CCR |= (BDMA_CCR_DBM | BDMA_CCR_CIRC);
 262:../../../lib/Drivers/STM32H7xx_HAL_Driver/Src/stm32h7xx_hal_dma_ex.c **** 
 263:../../../lib/Drivers/STM32H7xx_HAL_Driver/Src/stm32h7xx_hal_dma_ex.c ****       /* Configure DMA Stream destination address */
 264:../../../lib/Drivers/STM32H7xx_HAL_Driver/Src/stm32h7xx_hal_dma_ex.c ****       ((BDMA_Channel_TypeDef   *)hdma->Instance)->CM1AR = SecondMemAddress;
 265:../../../lib/Drivers/STM32H7xx_HAL_Driver/Src/stm32h7xx_hal_dma_ex.c **** 
 266:../../../lib/Drivers/STM32H7xx_HAL_Driver/Src/stm32h7xx_hal_dma_ex.c ****       /* Calculate the interrupt clear flag register (IFCR) base address  */
 267:../../../lib/Drivers/STM32H7xx_HAL_Driver/Src/stm32h7xx_hal_dma_ex.c ****       ifcRegister_Base = (uint32_t *)((uint32_t)(hdma->StreamBaseAddress + 4U));
 268:../../../lib/Drivers/STM32H7xx_HAL_Driver/Src/stm32h7xx_hal_dma_ex.c **** 
 269:../../../lib/Drivers/STM32H7xx_HAL_Driver/Src/stm32h7xx_hal_dma_ex.c ****       /* Clear all flags */
 270:../../../lib/Drivers/STM32H7xx_HAL_Driver/Src/stm32h7xx_hal_dma_ex.c ****       *ifcRegister_Base = (BDMA_ISR_GIF0) << (hdma->StreamIndex & 0x1FU);
 271:../../../lib/Drivers/STM32H7xx_HAL_Driver/Src/stm32h7xx_hal_dma_ex.c ****     }
 272:../../../lib/Drivers/STM32H7xx_HAL_Driver/Src/stm32h7xx_hal_dma_ex.c **** 
 273:../../../lib/Drivers/STM32H7xx_HAL_Driver/Src/stm32h7xx_hal_dma_ex.c ****     /* Configure the source, destination address and the data length */
 274:../../../lib/Drivers/STM32H7xx_HAL_Driver/Src/stm32h7xx_hal_dma_ex.c ****     DMA_MultiBufferSetConfig(hdma, SrcAddress, DstAddress, DataLength);
 275:../../../lib/Drivers/STM32H7xx_HAL_Driver/Src/stm32h7xx_hal_dma_ex.c **** 
 276:../../../lib/Drivers/STM32H7xx_HAL_Driver/Src/stm32h7xx_hal_dma_ex.c ****     if(IS_DMA_DMAMUX_ALL_INSTANCE(hdma->Instance) != 0U) /* No DMAMUX available for BDMA1 */
 277:../../../lib/Drivers/STM32H7xx_HAL_Driver/Src/stm32h7xx_hal_dma_ex.c ****     {
 278:../../../lib/Drivers/STM32H7xx_HAL_Driver/Src/stm32h7xx_hal_dma_ex.c ****       /* Clear the DMAMUX synchro overrun flag */
 279:../../../lib/Drivers/STM32H7xx_HAL_Driver/Src/stm32h7xx_hal_dma_ex.c ****       hdma->DMAmuxChannelStatus->CFR = hdma->DMAmuxChannelStatusMask;
 280:../../../lib/Drivers/STM32H7xx_HAL_Driver/Src/stm32h7xx_hal_dma_ex.c **** 
 281:../../../lib/Drivers/STM32H7xx_HAL_Driver/Src/stm32h7xx_hal_dma_ex.c ****       if(hdma->DMAmuxRequestGen != 0U)
 282:../../../lib/Drivers/STM32H7xx_HAL_Driver/Src/stm32h7xx_hal_dma_ex.c ****       {
 283:../../../lib/Drivers/STM32H7xx_HAL_Driver/Src/stm32h7xx_hal_dma_ex.c ****         /* Clear the DMAMUX request generator overrun flag */
 284:../../../lib/Drivers/STM32H7xx_HAL_Driver/Src/stm32h7xx_hal_dma_ex.c ****         hdma->DMAmuxRequestGenStatus->RGCFR = hdma->DMAmuxRequestGenStatusMask;
 285:../../../lib/Drivers/STM32H7xx_HAL_Driver/Src/stm32h7xx_hal_dma_ex.c ****       }
 286:../../../lib/Drivers/STM32H7xx_HAL_Driver/Src/stm32h7xx_hal_dma_ex.c ****     }
 287:../../../lib/Drivers/STM32H7xx_HAL_Driver/Src/stm32h7xx_hal_dma_ex.c **** 
 288:../../../lib/Drivers/STM32H7xx_HAL_Driver/Src/stm32h7xx_hal_dma_ex.c ****     if(IS_DMA_STREAM_INSTANCE(hdma->Instance) != 0U) /* DMA1 or DMA2 instance */
 289:../../../lib/Drivers/STM32H7xx_HAL_Driver/Src/stm32h7xx_hal_dma_ex.c ****     {
 290:../../../lib/Drivers/STM32H7xx_HAL_Driver/Src/stm32h7xx_hal_dma_ex.c ****       /* Enable Common interrupts*/
 291:../../../lib/Drivers/STM32H7xx_HAL_Driver/Src/stm32h7xx_hal_dma_ex.c ****       MODIFY_REG(((DMA_Stream_TypeDef   *)hdma->Instance)->CR, (DMA_IT_TC | DMA_IT_TE | DMA_IT_DME 
 292:../../../lib/Drivers/STM32H7xx_HAL_Driver/Src/stm32h7xx_hal_dma_ex.c ****       ((DMA_Stream_TypeDef   *)hdma->Instance)->FCR |= DMA_IT_FE;
 293:../../../lib/Drivers/STM32H7xx_HAL_Driver/Src/stm32h7xx_hal_dma_ex.c **** 
 294:../../../lib/Drivers/STM32H7xx_HAL_Driver/Src/stm32h7xx_hal_dma_ex.c ****       if((hdma->XferHalfCpltCallback != NULL) || (hdma->XferM1HalfCpltCallback != NULL))
 295:../../../lib/Drivers/STM32H7xx_HAL_Driver/Src/stm32h7xx_hal_dma_ex.c ****       {
 296:../../../lib/Drivers/STM32H7xx_HAL_Driver/Src/stm32h7xx_hal_dma_ex.c ****         /*Enable Half Transfer IT if corresponding Callback is set*/
 297:../../../lib/Drivers/STM32H7xx_HAL_Driver/Src/stm32h7xx_hal_dma_ex.c ****         ((DMA_Stream_TypeDef   *)hdma->Instance)->CR  |= DMA_IT_HT;
 298:../../../lib/Drivers/STM32H7xx_HAL_Driver/Src/stm32h7xx_hal_dma_ex.c ****       }
 299:../../../lib/Drivers/STM32H7xx_HAL_Driver/Src/stm32h7xx_hal_dma_ex.c ****     }
 300:../../../lib/Drivers/STM32H7xx_HAL_Driver/Src/stm32h7xx_hal_dma_ex.c ****     else /* BDMA instance(s) */
 301:../../../lib/Drivers/STM32H7xx_HAL_Driver/Src/stm32h7xx_hal_dma_ex.c ****     {
 302:../../../lib/Drivers/STM32H7xx_HAL_Driver/Src/stm32h7xx_hal_dma_ex.c ****       /* Enable Common interrupts*/
 303:../../../lib/Drivers/STM32H7xx_HAL_Driver/Src/stm32h7xx_hal_dma_ex.c ****       MODIFY_REG(((BDMA_Channel_TypeDef   *)hdma->Instance)->CCR, (BDMA_CCR_TCIE | BDMA_CCR_HTIE | 
 304:../../../lib/Drivers/STM32H7xx_HAL_Driver/Src/stm32h7xx_hal_dma_ex.c **** 
 305:../../../lib/Drivers/STM32H7xx_HAL_Driver/Src/stm32h7xx_hal_dma_ex.c ****       if((hdma->XferHalfCpltCallback != NULL) || (hdma->XferM1HalfCpltCallback != NULL))
 306:../../../lib/Drivers/STM32H7xx_HAL_Driver/Src/stm32h7xx_hal_dma_ex.c ****       {
 307:../../../lib/Drivers/STM32H7xx_HAL_Driver/Src/stm32h7xx_hal_dma_ex.c ****         /*Enable Half Transfer IT if corresponding Callback is set*/
 308:../../../lib/Drivers/STM32H7xx_HAL_Driver/Src/stm32h7xx_hal_dma_ex.c ****         ((BDMA_Channel_TypeDef   *)hdma->Instance)->CCR  |= BDMA_CCR_HTIE;
 309:../../../lib/Drivers/STM32H7xx_HAL_Driver/Src/stm32h7xx_hal_dma_ex.c ****       }
 310:../../../lib/Drivers/STM32H7xx_HAL_Driver/Src/stm32h7xx_hal_dma_ex.c ****     }
 311:../../../lib/Drivers/STM32H7xx_HAL_Driver/Src/stm32h7xx_hal_dma_ex.c **** 
 312:../../../lib/Drivers/STM32H7xx_HAL_Driver/Src/stm32h7xx_hal_dma_ex.c ****     if(IS_DMA_DMAMUX_ALL_INSTANCE(hdma->Instance) != 0U) /* No DMAMUX available for BDMA1 */
 313:../../../lib/Drivers/STM32H7xx_HAL_Driver/Src/stm32h7xx_hal_dma_ex.c ****     {
 314:../../../lib/Drivers/STM32H7xx_HAL_Driver/Src/stm32h7xx_hal_dma_ex.c ****       /* Check if DMAMUX Synchronization is enabled*/
 315:../../../lib/Drivers/STM32H7xx_HAL_Driver/Src/stm32h7xx_hal_dma_ex.c ****       if((hdma->DMAmuxChannel->CCR & DMAMUX_CxCR_SE) != 0U)
 316:../../../lib/Drivers/STM32H7xx_HAL_Driver/Src/stm32h7xx_hal_dma_ex.c ****       {
ARM GAS  C:\Users\tnguy\AppData\Local\Temp\ccH3JJU2.s 			page 7


 317:../../../lib/Drivers/STM32H7xx_HAL_Driver/Src/stm32h7xx_hal_dma_ex.c ****         /* Enable DMAMUX sync overrun IT*/
 318:../../../lib/Drivers/STM32H7xx_HAL_Driver/Src/stm32h7xx_hal_dma_ex.c ****         hdma->DMAmuxChannel->CCR |= DMAMUX_CxCR_SOIE;
 319:../../../lib/Drivers/STM32H7xx_HAL_Driver/Src/stm32h7xx_hal_dma_ex.c ****       }
 320:../../../lib/Drivers/STM32H7xx_HAL_Driver/Src/stm32h7xx_hal_dma_ex.c **** 
 321:../../../lib/Drivers/STM32H7xx_HAL_Driver/Src/stm32h7xx_hal_dma_ex.c ****       if(hdma->DMAmuxRequestGen != 0U)
 322:../../../lib/Drivers/STM32H7xx_HAL_Driver/Src/stm32h7xx_hal_dma_ex.c ****       {
 323:../../../lib/Drivers/STM32H7xx_HAL_Driver/Src/stm32h7xx_hal_dma_ex.c ****         /* if using DMAMUX request generator, enable the DMAMUX request generator overrun IT*/
 324:../../../lib/Drivers/STM32H7xx_HAL_Driver/Src/stm32h7xx_hal_dma_ex.c ****         /* enable the request gen overrun IT*/
 325:../../../lib/Drivers/STM32H7xx_HAL_Driver/Src/stm32h7xx_hal_dma_ex.c ****         hdma->DMAmuxRequestGen->RGCR |= DMAMUX_RGxCR_OIE;
 326:../../../lib/Drivers/STM32H7xx_HAL_Driver/Src/stm32h7xx_hal_dma_ex.c ****       }
 327:../../../lib/Drivers/STM32H7xx_HAL_Driver/Src/stm32h7xx_hal_dma_ex.c ****     }
 328:../../../lib/Drivers/STM32H7xx_HAL_Driver/Src/stm32h7xx_hal_dma_ex.c **** 
 329:../../../lib/Drivers/STM32H7xx_HAL_Driver/Src/stm32h7xx_hal_dma_ex.c ****     /* Enable the peripheral */
 330:../../../lib/Drivers/STM32H7xx_HAL_Driver/Src/stm32h7xx_hal_dma_ex.c ****     __HAL_DMA_ENABLE(hdma);
 331:../../../lib/Drivers/STM32H7xx_HAL_Driver/Src/stm32h7xx_hal_dma_ex.c ****   }
 332:../../../lib/Drivers/STM32H7xx_HAL_Driver/Src/stm32h7xx_hal_dma_ex.c ****   else
 333:../../../lib/Drivers/STM32H7xx_HAL_Driver/Src/stm32h7xx_hal_dma_ex.c ****   {
 334:../../../lib/Drivers/STM32H7xx_HAL_Driver/Src/stm32h7xx_hal_dma_ex.c ****     /* Set the error code to busy */
 335:../../../lib/Drivers/STM32H7xx_HAL_Driver/Src/stm32h7xx_hal_dma_ex.c ****     hdma->ErrorCode = HAL_DMA_ERROR_BUSY;
 336:../../../lib/Drivers/STM32H7xx_HAL_Driver/Src/stm32h7xx_hal_dma_ex.c **** 
 337:../../../lib/Drivers/STM32H7xx_HAL_Driver/Src/stm32h7xx_hal_dma_ex.c ****     /* Return error status */
 338:../../../lib/Drivers/STM32H7xx_HAL_Driver/Src/stm32h7xx_hal_dma_ex.c ****     status = HAL_ERROR;
 339:../../../lib/Drivers/STM32H7xx_HAL_Driver/Src/stm32h7xx_hal_dma_ex.c ****   }
 340:../../../lib/Drivers/STM32H7xx_HAL_Driver/Src/stm32h7xx_hal_dma_ex.c ****   return status;
 341:../../../lib/Drivers/STM32H7xx_HAL_Driver/Src/stm32h7xx_hal_dma_ex.c **** }
 342:../../../lib/Drivers/STM32H7xx_HAL_Driver/Src/stm32h7xx_hal_dma_ex.c **** 
 343:../../../lib/Drivers/STM32H7xx_HAL_Driver/Src/stm32h7xx_hal_dma_ex.c **** /**
 344:../../../lib/Drivers/STM32H7xx_HAL_Driver/Src/stm32h7xx_hal_dma_ex.c ****   * @brief  Change the memory0 or memory1 address on the fly.
 345:../../../lib/Drivers/STM32H7xx_HAL_Driver/Src/stm32h7xx_hal_dma_ex.c ****   * @param  hdma:       pointer to a DMA_HandleTypeDef structure that contains
 346:../../../lib/Drivers/STM32H7xx_HAL_Driver/Src/stm32h7xx_hal_dma_ex.c ****   *                     the configuration information for the specified DMA Stream.
 347:../../../lib/Drivers/STM32H7xx_HAL_Driver/Src/stm32h7xx_hal_dma_ex.c ****   * @param  Address:    The new address
 348:../../../lib/Drivers/STM32H7xx_HAL_Driver/Src/stm32h7xx_hal_dma_ex.c ****   * @param  memory:     the memory to be changed, This parameter can be one of
 349:../../../lib/Drivers/STM32H7xx_HAL_Driver/Src/stm32h7xx_hal_dma_ex.c ****   *                     the following values:
 350:../../../lib/Drivers/STM32H7xx_HAL_Driver/Src/stm32h7xx_hal_dma_ex.c ****   *                      MEMORY0 /
 351:../../../lib/Drivers/STM32H7xx_HAL_Driver/Src/stm32h7xx_hal_dma_ex.c ****   *                      MEMORY1
 352:../../../lib/Drivers/STM32H7xx_HAL_Driver/Src/stm32h7xx_hal_dma_ex.c ****   * @note   The MEMORY0 address can be changed only when the current transfer use
 353:../../../lib/Drivers/STM32H7xx_HAL_Driver/Src/stm32h7xx_hal_dma_ex.c ****   *         MEMORY1 and the MEMORY1 address can be changed only when the current
 354:../../../lib/Drivers/STM32H7xx_HAL_Driver/Src/stm32h7xx_hal_dma_ex.c ****   *         transfer use MEMORY0.
 355:../../../lib/Drivers/STM32H7xx_HAL_Driver/Src/stm32h7xx_hal_dma_ex.c ****   * @retval HAL status
 356:../../../lib/Drivers/STM32H7xx_HAL_Driver/Src/stm32h7xx_hal_dma_ex.c ****   */
 357:../../../lib/Drivers/STM32H7xx_HAL_Driver/Src/stm32h7xx_hal_dma_ex.c **** HAL_StatusTypeDef HAL_DMAEx_ChangeMemory(DMA_HandleTypeDef *hdma, uint32_t Address, HAL_DMA_MemoryT
 358:../../../lib/Drivers/STM32H7xx_HAL_Driver/Src/stm32h7xx_hal_dma_ex.c **** {
 359:../../../lib/Drivers/STM32H7xx_HAL_Driver/Src/stm32h7xx_hal_dma_ex.c ****   if(IS_DMA_STREAM_INSTANCE(hdma->Instance) != 0U) /* DMA1 or DMA2 instance */
 360:../../../lib/Drivers/STM32H7xx_HAL_Driver/Src/stm32h7xx_hal_dma_ex.c ****   {
 361:../../../lib/Drivers/STM32H7xx_HAL_Driver/Src/stm32h7xx_hal_dma_ex.c ****     if(memory == MEMORY0)
 362:../../../lib/Drivers/STM32H7xx_HAL_Driver/Src/stm32h7xx_hal_dma_ex.c ****     {
 363:../../../lib/Drivers/STM32H7xx_HAL_Driver/Src/stm32h7xx_hal_dma_ex.c ****       /* change the memory0 address */
 364:../../../lib/Drivers/STM32H7xx_HAL_Driver/Src/stm32h7xx_hal_dma_ex.c ****       ((DMA_Stream_TypeDef   *)hdma->Instance)->M0AR = Address;
 365:../../../lib/Drivers/STM32H7xx_HAL_Driver/Src/stm32h7xx_hal_dma_ex.c ****     }
 366:../../../lib/Drivers/STM32H7xx_HAL_Driver/Src/stm32h7xx_hal_dma_ex.c ****     else
 367:../../../lib/Drivers/STM32H7xx_HAL_Driver/Src/stm32h7xx_hal_dma_ex.c ****     {
 368:../../../lib/Drivers/STM32H7xx_HAL_Driver/Src/stm32h7xx_hal_dma_ex.c ****       /* change the memory1 address */
 369:../../../lib/Drivers/STM32H7xx_HAL_Driver/Src/stm32h7xx_hal_dma_ex.c ****       ((DMA_Stream_TypeDef   *)hdma->Instance)->M1AR = Address;
 370:../../../lib/Drivers/STM32H7xx_HAL_Driver/Src/stm32h7xx_hal_dma_ex.c ****     }
 371:../../../lib/Drivers/STM32H7xx_HAL_Driver/Src/stm32h7xx_hal_dma_ex.c ****   }
 372:../../../lib/Drivers/STM32H7xx_HAL_Driver/Src/stm32h7xx_hal_dma_ex.c ****   else /* BDMA instance(s) */
 373:../../../lib/Drivers/STM32H7xx_HAL_Driver/Src/stm32h7xx_hal_dma_ex.c ****   {
ARM GAS  C:\Users\tnguy\AppData\Local\Temp\ccH3JJU2.s 			page 8


 374:../../../lib/Drivers/STM32H7xx_HAL_Driver/Src/stm32h7xx_hal_dma_ex.c ****     if(memory == MEMORY0)
 375:../../../lib/Drivers/STM32H7xx_HAL_Driver/Src/stm32h7xx_hal_dma_ex.c ****     {
 376:../../../lib/Drivers/STM32H7xx_HAL_Driver/Src/stm32h7xx_hal_dma_ex.c ****       /* change the memory0 address */
 377:../../../lib/Drivers/STM32H7xx_HAL_Driver/Src/stm32h7xx_hal_dma_ex.c ****       ((BDMA_Channel_TypeDef   *)hdma->Instance)->CM0AR = Address;
 378:../../../lib/Drivers/STM32H7xx_HAL_Driver/Src/stm32h7xx_hal_dma_ex.c ****     }
 379:../../../lib/Drivers/STM32H7xx_HAL_Driver/Src/stm32h7xx_hal_dma_ex.c ****     else
 380:../../../lib/Drivers/STM32H7xx_HAL_Driver/Src/stm32h7xx_hal_dma_ex.c ****     {
 381:../../../lib/Drivers/STM32H7xx_HAL_Driver/Src/stm32h7xx_hal_dma_ex.c ****       /* change the memory1 address */
 382:../../../lib/Drivers/STM32H7xx_HAL_Driver/Src/stm32h7xx_hal_dma_ex.c ****       ((BDMA_Channel_TypeDef   *)hdma->Instance)->CM1AR = Address;
 383:../../../lib/Drivers/STM32H7xx_HAL_Driver/Src/stm32h7xx_hal_dma_ex.c ****     }
 384:../../../lib/Drivers/STM32H7xx_HAL_Driver/Src/stm32h7xx_hal_dma_ex.c ****   }
 385:../../../lib/Drivers/STM32H7xx_HAL_Driver/Src/stm32h7xx_hal_dma_ex.c **** 
 386:../../../lib/Drivers/STM32H7xx_HAL_Driver/Src/stm32h7xx_hal_dma_ex.c ****   return HAL_OK;
 387:../../../lib/Drivers/STM32H7xx_HAL_Driver/Src/stm32h7xx_hal_dma_ex.c **** }
 388:../../../lib/Drivers/STM32H7xx_HAL_Driver/Src/stm32h7xx_hal_dma_ex.c **** 
 389:../../../lib/Drivers/STM32H7xx_HAL_Driver/Src/stm32h7xx_hal_dma_ex.c **** /**
 390:../../../lib/Drivers/STM32H7xx_HAL_Driver/Src/stm32h7xx_hal_dma_ex.c ****   * @brief  Configure the DMAMUX synchronization parameters for a given DMA stream (instance).
 391:../../../lib/Drivers/STM32H7xx_HAL_Driver/Src/stm32h7xx_hal_dma_ex.c ****   * @param  hdma:       pointer to a DMA_HandleTypeDef structure that contains
 392:../../../lib/Drivers/STM32H7xx_HAL_Driver/Src/stm32h7xx_hal_dma_ex.c ****   *                     the configuration information for the specified DMA Stream.
 393:../../../lib/Drivers/STM32H7xx_HAL_Driver/Src/stm32h7xx_hal_dma_ex.c ****   * @param  pSyncConfig : pointer to HAL_DMA_MuxSyncConfigTypeDef : contains the DMAMUX synchroniza
 394:../../../lib/Drivers/STM32H7xx_HAL_Driver/Src/stm32h7xx_hal_dma_ex.c ****   * @retval HAL status
 395:../../../lib/Drivers/STM32H7xx_HAL_Driver/Src/stm32h7xx_hal_dma_ex.c ****   */
 396:../../../lib/Drivers/STM32H7xx_HAL_Driver/Src/stm32h7xx_hal_dma_ex.c **** HAL_StatusTypeDef HAL_DMAEx_ConfigMuxSync(DMA_HandleTypeDef *hdma, HAL_DMA_MuxSyncConfigTypeDef *pS
 397:../../../lib/Drivers/STM32H7xx_HAL_Driver/Src/stm32h7xx_hal_dma_ex.c **** {
 398:../../../lib/Drivers/STM32H7xx_HAL_Driver/Src/stm32h7xx_hal_dma_ex.c ****   uint32_t syncSignalID = 0;
 399:../../../lib/Drivers/STM32H7xx_HAL_Driver/Src/stm32h7xx_hal_dma_ex.c ****   uint32_t syncPolarity = 0;
 400:../../../lib/Drivers/STM32H7xx_HAL_Driver/Src/stm32h7xx_hal_dma_ex.c **** 
 401:../../../lib/Drivers/STM32H7xx_HAL_Driver/Src/stm32h7xx_hal_dma_ex.c ****   /* Check the parameters */
 402:../../../lib/Drivers/STM32H7xx_HAL_Driver/Src/stm32h7xx_hal_dma_ex.c ****   assert_param(IS_DMA_DMAMUX_ALL_INSTANCE(hdma->Instance));
 403:../../../lib/Drivers/STM32H7xx_HAL_Driver/Src/stm32h7xx_hal_dma_ex.c ****   assert_param(IS_DMAMUX_SYNC_STATE(pSyncConfig->SyncEnable));
 404:../../../lib/Drivers/STM32H7xx_HAL_Driver/Src/stm32h7xx_hal_dma_ex.c ****   assert_param(IS_DMAMUX_SYNC_EVENT(pSyncConfig->EventEnable));
 405:../../../lib/Drivers/STM32H7xx_HAL_Driver/Src/stm32h7xx_hal_dma_ex.c ****   assert_param(IS_DMAMUX_SYNC_REQUEST_NUMBER(pSyncConfig->RequestNumber));
 406:../../../lib/Drivers/STM32H7xx_HAL_Driver/Src/stm32h7xx_hal_dma_ex.c **** 
 407:../../../lib/Drivers/STM32H7xx_HAL_Driver/Src/stm32h7xx_hal_dma_ex.c ****   if(pSyncConfig->SyncEnable == ENABLE)
 408:../../../lib/Drivers/STM32H7xx_HAL_Driver/Src/stm32h7xx_hal_dma_ex.c ****   {
 409:../../../lib/Drivers/STM32H7xx_HAL_Driver/Src/stm32h7xx_hal_dma_ex.c ****     assert_param(IS_DMAMUX_SYNC_POLARITY(pSyncConfig->SyncPolarity));
 410:../../../lib/Drivers/STM32H7xx_HAL_Driver/Src/stm32h7xx_hal_dma_ex.c **** 
 411:../../../lib/Drivers/STM32H7xx_HAL_Driver/Src/stm32h7xx_hal_dma_ex.c ****     if(IS_DMA_STREAM_INSTANCE(hdma->Instance) != 0U) /* DMA1 or DMA2 instance */
 412:../../../lib/Drivers/STM32H7xx_HAL_Driver/Src/stm32h7xx_hal_dma_ex.c ****     {
 413:../../../lib/Drivers/STM32H7xx_HAL_Driver/Src/stm32h7xx_hal_dma_ex.c ****       assert_param(IS_DMA_DMAMUX_SYNC_SIGNAL_ID(pSyncConfig->SyncSignalID));
 414:../../../lib/Drivers/STM32H7xx_HAL_Driver/Src/stm32h7xx_hal_dma_ex.c ****     }
 415:../../../lib/Drivers/STM32H7xx_HAL_Driver/Src/stm32h7xx_hal_dma_ex.c ****     else
 416:../../../lib/Drivers/STM32H7xx_HAL_Driver/Src/stm32h7xx_hal_dma_ex.c ****     {
 417:../../../lib/Drivers/STM32H7xx_HAL_Driver/Src/stm32h7xx_hal_dma_ex.c ****       assert_param(IS_BDMA_DMAMUX_SYNC_SIGNAL_ID(pSyncConfig->SyncSignalID));
 418:../../../lib/Drivers/STM32H7xx_HAL_Driver/Src/stm32h7xx_hal_dma_ex.c ****     }
 419:../../../lib/Drivers/STM32H7xx_HAL_Driver/Src/stm32h7xx_hal_dma_ex.c ****     syncSignalID = pSyncConfig->SyncSignalID;
 420:../../../lib/Drivers/STM32H7xx_HAL_Driver/Src/stm32h7xx_hal_dma_ex.c ****     syncPolarity = pSyncConfig->SyncPolarity;
 421:../../../lib/Drivers/STM32H7xx_HAL_Driver/Src/stm32h7xx_hal_dma_ex.c ****   }
 422:../../../lib/Drivers/STM32H7xx_HAL_Driver/Src/stm32h7xx_hal_dma_ex.c **** 
 423:../../../lib/Drivers/STM32H7xx_HAL_Driver/Src/stm32h7xx_hal_dma_ex.c ****   /*Check if the DMA state is ready */
 424:../../../lib/Drivers/STM32H7xx_HAL_Driver/Src/stm32h7xx_hal_dma_ex.c ****   if(hdma->State == HAL_DMA_STATE_READY)
 425:../../../lib/Drivers/STM32H7xx_HAL_Driver/Src/stm32h7xx_hal_dma_ex.c ****   {
 426:../../../lib/Drivers/STM32H7xx_HAL_Driver/Src/stm32h7xx_hal_dma_ex.c ****     /* Process Locked */
 427:../../../lib/Drivers/STM32H7xx_HAL_Driver/Src/stm32h7xx_hal_dma_ex.c ****     __HAL_LOCK(hdma);
 428:../../../lib/Drivers/STM32H7xx_HAL_Driver/Src/stm32h7xx_hal_dma_ex.c **** 
 429:../../../lib/Drivers/STM32H7xx_HAL_Driver/Src/stm32h7xx_hal_dma_ex.c ****     /* Disable the synchronization and event generation before applying a new config */
 430:../../../lib/Drivers/STM32H7xx_HAL_Driver/Src/stm32h7xx_hal_dma_ex.c ****     CLEAR_BIT(hdma->DMAmuxChannel->CCR,(DMAMUX_CxCR_SE | DMAMUX_CxCR_EGE));
ARM GAS  C:\Users\tnguy\AppData\Local\Temp\ccH3JJU2.s 			page 9


 431:../../../lib/Drivers/STM32H7xx_HAL_Driver/Src/stm32h7xx_hal_dma_ex.c **** 
 432:../../../lib/Drivers/STM32H7xx_HAL_Driver/Src/stm32h7xx_hal_dma_ex.c ****     /* Set the new synchronization parameters (and keep the request ID filled during the Init)*/
 433:../../../lib/Drivers/STM32H7xx_HAL_Driver/Src/stm32h7xx_hal_dma_ex.c ****     MODIFY_REG( hdma->DMAmuxChannel->CCR, \
 434:../../../lib/Drivers/STM32H7xx_HAL_Driver/Src/stm32h7xx_hal_dma_ex.c ****                (~DMAMUX_CxCR_DMAREQ_ID) , \
 435:../../../lib/Drivers/STM32H7xx_HAL_Driver/Src/stm32h7xx_hal_dma_ex.c ****                (syncSignalID << DMAMUX_CxCR_SYNC_ID_Pos)       | \
 436:../../../lib/Drivers/STM32H7xx_HAL_Driver/Src/stm32h7xx_hal_dma_ex.c ****                ((pSyncConfig->RequestNumber - 1U) << DMAMUX_CxCR_NBREQ_Pos) | \
 437:../../../lib/Drivers/STM32H7xx_HAL_Driver/Src/stm32h7xx_hal_dma_ex.c ****                syncPolarity | ((uint32_t)pSyncConfig->SyncEnable << DMAMUX_CxCR_SE_Pos)    | \
 438:../../../lib/Drivers/STM32H7xx_HAL_Driver/Src/stm32h7xx_hal_dma_ex.c ****                ((uint32_t)pSyncConfig->EventEnable << DMAMUX_CxCR_EGE_Pos));
 439:../../../lib/Drivers/STM32H7xx_HAL_Driver/Src/stm32h7xx_hal_dma_ex.c **** 
 440:../../../lib/Drivers/STM32H7xx_HAL_Driver/Src/stm32h7xx_hal_dma_ex.c ****       /* Process Locked */
 441:../../../lib/Drivers/STM32H7xx_HAL_Driver/Src/stm32h7xx_hal_dma_ex.c ****     __HAL_UNLOCK(hdma);
 442:../../../lib/Drivers/STM32H7xx_HAL_Driver/Src/stm32h7xx_hal_dma_ex.c **** 
 443:../../../lib/Drivers/STM32H7xx_HAL_Driver/Src/stm32h7xx_hal_dma_ex.c ****     return HAL_OK;
 444:../../../lib/Drivers/STM32H7xx_HAL_Driver/Src/stm32h7xx_hal_dma_ex.c ****   }
 445:../../../lib/Drivers/STM32H7xx_HAL_Driver/Src/stm32h7xx_hal_dma_ex.c ****   else
 446:../../../lib/Drivers/STM32H7xx_HAL_Driver/Src/stm32h7xx_hal_dma_ex.c ****   {
 447:../../../lib/Drivers/STM32H7xx_HAL_Driver/Src/stm32h7xx_hal_dma_ex.c ****     /* Set the error code to busy */
 448:../../../lib/Drivers/STM32H7xx_HAL_Driver/Src/stm32h7xx_hal_dma_ex.c ****     hdma->ErrorCode = HAL_DMA_ERROR_BUSY;
 449:../../../lib/Drivers/STM32H7xx_HAL_Driver/Src/stm32h7xx_hal_dma_ex.c **** 
 450:../../../lib/Drivers/STM32H7xx_HAL_Driver/Src/stm32h7xx_hal_dma_ex.c ****     /* Return error status */
 451:../../../lib/Drivers/STM32H7xx_HAL_Driver/Src/stm32h7xx_hal_dma_ex.c ****     return HAL_ERROR;
 452:../../../lib/Drivers/STM32H7xx_HAL_Driver/Src/stm32h7xx_hal_dma_ex.c ****   }
 453:../../../lib/Drivers/STM32H7xx_HAL_Driver/Src/stm32h7xx_hal_dma_ex.c **** }
 454:../../../lib/Drivers/STM32H7xx_HAL_Driver/Src/stm32h7xx_hal_dma_ex.c **** 
 455:../../../lib/Drivers/STM32H7xx_HAL_Driver/Src/stm32h7xx_hal_dma_ex.c **** /**
 456:../../../lib/Drivers/STM32H7xx_HAL_Driver/Src/stm32h7xx_hal_dma_ex.c ****   * @brief  Configure the DMAMUX request generator block used by the given DMA stream (instance).
 457:../../../lib/Drivers/STM32H7xx_HAL_Driver/Src/stm32h7xx_hal_dma_ex.c ****   * @param  hdma:       pointer to a DMA_HandleTypeDef structure that contains
 458:../../../lib/Drivers/STM32H7xx_HAL_Driver/Src/stm32h7xx_hal_dma_ex.c ****   *                     the configuration information for the specified DMA Stream.
 459:../../../lib/Drivers/STM32H7xx_HAL_Driver/Src/stm32h7xx_hal_dma_ex.c ****   * @param  pRequestGeneratorConfig : pointer to HAL_DMA_MuxRequestGeneratorConfigTypeDef :
 460:../../../lib/Drivers/STM32H7xx_HAL_Driver/Src/stm32h7xx_hal_dma_ex.c ****   *         contains the request generator parameters.
 461:../../../lib/Drivers/STM32H7xx_HAL_Driver/Src/stm32h7xx_hal_dma_ex.c ****   *
 462:../../../lib/Drivers/STM32H7xx_HAL_Driver/Src/stm32h7xx_hal_dma_ex.c ****   * @retval HAL status
 463:../../../lib/Drivers/STM32H7xx_HAL_Driver/Src/stm32h7xx_hal_dma_ex.c ****   */
 464:../../../lib/Drivers/STM32H7xx_HAL_Driver/Src/stm32h7xx_hal_dma_ex.c **** HAL_StatusTypeDef HAL_DMAEx_ConfigMuxRequestGenerator (DMA_HandleTypeDef *hdma, HAL_DMA_MuxRequestG
 465:../../../lib/Drivers/STM32H7xx_HAL_Driver/Src/stm32h7xx_hal_dma_ex.c **** {
 466:../../../lib/Drivers/STM32H7xx_HAL_Driver/Src/stm32h7xx_hal_dma_ex.c ****   HAL_StatusTypeDef status;
 467:../../../lib/Drivers/STM32H7xx_HAL_Driver/Src/stm32h7xx_hal_dma_ex.c ****   HAL_DMA_StateTypeDef temp_state = hdma->State;
 468:../../../lib/Drivers/STM32H7xx_HAL_Driver/Src/stm32h7xx_hal_dma_ex.c **** 
 469:../../../lib/Drivers/STM32H7xx_HAL_Driver/Src/stm32h7xx_hal_dma_ex.c ****   /* Check the parameters */
 470:../../../lib/Drivers/STM32H7xx_HAL_Driver/Src/stm32h7xx_hal_dma_ex.c ****   assert_param(IS_DMA_DMAMUX_ALL_INSTANCE(hdma->Instance));
 471:../../../lib/Drivers/STM32H7xx_HAL_Driver/Src/stm32h7xx_hal_dma_ex.c **** 
 472:../../../lib/Drivers/STM32H7xx_HAL_Driver/Src/stm32h7xx_hal_dma_ex.c ****   if(IS_DMA_STREAM_INSTANCE(hdma->Instance) != 0U) /* DMA1 or DMA2 instance */
 473:../../../lib/Drivers/STM32H7xx_HAL_Driver/Src/stm32h7xx_hal_dma_ex.c ****   {
 474:../../../lib/Drivers/STM32H7xx_HAL_Driver/Src/stm32h7xx_hal_dma_ex.c ****     assert_param(IS_DMA_DMAMUX_REQUEST_GEN_SIGNAL_ID(pRequestGeneratorConfig->SignalID));
 475:../../../lib/Drivers/STM32H7xx_HAL_Driver/Src/stm32h7xx_hal_dma_ex.c ****   }
 476:../../../lib/Drivers/STM32H7xx_HAL_Driver/Src/stm32h7xx_hal_dma_ex.c ****   else
 477:../../../lib/Drivers/STM32H7xx_HAL_Driver/Src/stm32h7xx_hal_dma_ex.c ****   {
 478:../../../lib/Drivers/STM32H7xx_HAL_Driver/Src/stm32h7xx_hal_dma_ex.c ****     assert_param(IS_BDMA_DMAMUX_REQUEST_GEN_SIGNAL_ID(pRequestGeneratorConfig->SignalID));
 479:../../../lib/Drivers/STM32H7xx_HAL_Driver/Src/stm32h7xx_hal_dma_ex.c ****   }
 480:../../../lib/Drivers/STM32H7xx_HAL_Driver/Src/stm32h7xx_hal_dma_ex.c **** 
 481:../../../lib/Drivers/STM32H7xx_HAL_Driver/Src/stm32h7xx_hal_dma_ex.c **** 
 482:../../../lib/Drivers/STM32H7xx_HAL_Driver/Src/stm32h7xx_hal_dma_ex.c ****   assert_param(IS_DMAMUX_REQUEST_GEN_POLARITY(pRequestGeneratorConfig->Polarity));
 483:../../../lib/Drivers/STM32H7xx_HAL_Driver/Src/stm32h7xx_hal_dma_ex.c ****   assert_param(IS_DMAMUX_REQUEST_GEN_REQUEST_NUMBER(pRequestGeneratorConfig->RequestNumber));
 484:../../../lib/Drivers/STM32H7xx_HAL_Driver/Src/stm32h7xx_hal_dma_ex.c **** 
 485:../../../lib/Drivers/STM32H7xx_HAL_Driver/Src/stm32h7xx_hal_dma_ex.c ****   /* check if the DMA state is ready
 486:../../../lib/Drivers/STM32H7xx_HAL_Driver/Src/stm32h7xx_hal_dma_ex.c ****      and DMA is using a DMAMUX request generator block
 487:../../../lib/Drivers/STM32H7xx_HAL_Driver/Src/stm32h7xx_hal_dma_ex.c ****   */
ARM GAS  C:\Users\tnguy\AppData\Local\Temp\ccH3JJU2.s 			page 10


 488:../../../lib/Drivers/STM32H7xx_HAL_Driver/Src/stm32h7xx_hal_dma_ex.c ****   if(hdma->DMAmuxRequestGen == 0U)
 489:../../../lib/Drivers/STM32H7xx_HAL_Driver/Src/stm32h7xx_hal_dma_ex.c ****   {
 490:../../../lib/Drivers/STM32H7xx_HAL_Driver/Src/stm32h7xx_hal_dma_ex.c ****     /* Set the error code to busy */
 491:../../../lib/Drivers/STM32H7xx_HAL_Driver/Src/stm32h7xx_hal_dma_ex.c ****     hdma->ErrorCode = HAL_DMA_ERROR_PARAM;
 492:../../../lib/Drivers/STM32H7xx_HAL_Driver/Src/stm32h7xx_hal_dma_ex.c **** 
 493:../../../lib/Drivers/STM32H7xx_HAL_Driver/Src/stm32h7xx_hal_dma_ex.c ****     /* error status */
 494:../../../lib/Drivers/STM32H7xx_HAL_Driver/Src/stm32h7xx_hal_dma_ex.c ****     status = HAL_ERROR;
 495:../../../lib/Drivers/STM32H7xx_HAL_Driver/Src/stm32h7xx_hal_dma_ex.c ****   }
 496:../../../lib/Drivers/STM32H7xx_HAL_Driver/Src/stm32h7xx_hal_dma_ex.c ****   else if(((hdma->DMAmuxRequestGen->RGCR & DMAMUX_RGxCR_GE) == 0U) && (temp_state == HAL_DMA_STATE_
 497:../../../lib/Drivers/STM32H7xx_HAL_Driver/Src/stm32h7xx_hal_dma_ex.c ****   {
 498:../../../lib/Drivers/STM32H7xx_HAL_Driver/Src/stm32h7xx_hal_dma_ex.c ****     /* RequestGenerator must be disable prior to the configuration i.e GE bit is 0 */
 499:../../../lib/Drivers/STM32H7xx_HAL_Driver/Src/stm32h7xx_hal_dma_ex.c **** 
 500:../../../lib/Drivers/STM32H7xx_HAL_Driver/Src/stm32h7xx_hal_dma_ex.c ****     /* Process Locked */
 501:../../../lib/Drivers/STM32H7xx_HAL_Driver/Src/stm32h7xx_hal_dma_ex.c ****     __HAL_LOCK(hdma);
 502:../../../lib/Drivers/STM32H7xx_HAL_Driver/Src/stm32h7xx_hal_dma_ex.c **** 
 503:../../../lib/Drivers/STM32H7xx_HAL_Driver/Src/stm32h7xx_hal_dma_ex.c ****     /* Set the request generator new parameters */
 504:../../../lib/Drivers/STM32H7xx_HAL_Driver/Src/stm32h7xx_hal_dma_ex.c ****     hdma->DMAmuxRequestGen->RGCR = pRequestGeneratorConfig->SignalID | \
 505:../../../lib/Drivers/STM32H7xx_HAL_Driver/Src/stm32h7xx_hal_dma_ex.c ****                                   ((pRequestGeneratorConfig->RequestNumber - 1U) << DMAMUX_RGxCR_GN
 506:../../../lib/Drivers/STM32H7xx_HAL_Driver/Src/stm32h7xx_hal_dma_ex.c ****                                   pRequestGeneratorConfig->Polarity;
 507:../../../lib/Drivers/STM32H7xx_HAL_Driver/Src/stm32h7xx_hal_dma_ex.c ****     /* Process Locked */
 508:../../../lib/Drivers/STM32H7xx_HAL_Driver/Src/stm32h7xx_hal_dma_ex.c ****     __HAL_UNLOCK(hdma);
 509:../../../lib/Drivers/STM32H7xx_HAL_Driver/Src/stm32h7xx_hal_dma_ex.c **** 
 510:../../../lib/Drivers/STM32H7xx_HAL_Driver/Src/stm32h7xx_hal_dma_ex.c ****     return HAL_OK;
 511:../../../lib/Drivers/STM32H7xx_HAL_Driver/Src/stm32h7xx_hal_dma_ex.c ****   }
 512:../../../lib/Drivers/STM32H7xx_HAL_Driver/Src/stm32h7xx_hal_dma_ex.c ****   else
 513:../../../lib/Drivers/STM32H7xx_HAL_Driver/Src/stm32h7xx_hal_dma_ex.c ****   {
 514:../../../lib/Drivers/STM32H7xx_HAL_Driver/Src/stm32h7xx_hal_dma_ex.c ****     /* Set the error code to busy */
 515:../../../lib/Drivers/STM32H7xx_HAL_Driver/Src/stm32h7xx_hal_dma_ex.c ****     hdma->ErrorCode = HAL_DMA_ERROR_BUSY;
 516:../../../lib/Drivers/STM32H7xx_HAL_Driver/Src/stm32h7xx_hal_dma_ex.c **** 
 517:../../../lib/Drivers/STM32H7xx_HAL_Driver/Src/stm32h7xx_hal_dma_ex.c ****     /* error status */
 518:../../../lib/Drivers/STM32H7xx_HAL_Driver/Src/stm32h7xx_hal_dma_ex.c ****     status = HAL_ERROR;
 519:../../../lib/Drivers/STM32H7xx_HAL_Driver/Src/stm32h7xx_hal_dma_ex.c ****   }
 520:../../../lib/Drivers/STM32H7xx_HAL_Driver/Src/stm32h7xx_hal_dma_ex.c **** 
 521:../../../lib/Drivers/STM32H7xx_HAL_Driver/Src/stm32h7xx_hal_dma_ex.c ****   return status;
 522:../../../lib/Drivers/STM32H7xx_HAL_Driver/Src/stm32h7xx_hal_dma_ex.c **** }
 523:../../../lib/Drivers/STM32H7xx_HAL_Driver/Src/stm32h7xx_hal_dma_ex.c **** 
 524:../../../lib/Drivers/STM32H7xx_HAL_Driver/Src/stm32h7xx_hal_dma_ex.c **** /**
 525:../../../lib/Drivers/STM32H7xx_HAL_Driver/Src/stm32h7xx_hal_dma_ex.c ****   * @brief  Enable the DMAMUX request generator block used by the given DMA stream (instance).
 526:../../../lib/Drivers/STM32H7xx_HAL_Driver/Src/stm32h7xx_hal_dma_ex.c ****   * @param  hdma:       pointer to a DMA_HandleTypeDef structure that contains
 527:../../../lib/Drivers/STM32H7xx_HAL_Driver/Src/stm32h7xx_hal_dma_ex.c ****   *                     the configuration information for the specified DMA Stream.
 528:../../../lib/Drivers/STM32H7xx_HAL_Driver/Src/stm32h7xx_hal_dma_ex.c ****   * @retval HAL status
 529:../../../lib/Drivers/STM32H7xx_HAL_Driver/Src/stm32h7xx_hal_dma_ex.c ****   */
 530:../../../lib/Drivers/STM32H7xx_HAL_Driver/Src/stm32h7xx_hal_dma_ex.c **** HAL_StatusTypeDef HAL_DMAEx_EnableMuxRequestGenerator (DMA_HandleTypeDef *hdma)
 531:../../../lib/Drivers/STM32H7xx_HAL_Driver/Src/stm32h7xx_hal_dma_ex.c **** {
 532:../../../lib/Drivers/STM32H7xx_HAL_Driver/Src/stm32h7xx_hal_dma_ex.c ****   /* Check the parameters */
 533:../../../lib/Drivers/STM32H7xx_HAL_Driver/Src/stm32h7xx_hal_dma_ex.c ****   assert_param(IS_DMA_DMAMUX_ALL_INSTANCE(hdma->Instance));
 534:../../../lib/Drivers/STM32H7xx_HAL_Driver/Src/stm32h7xx_hal_dma_ex.c **** 
 535:../../../lib/Drivers/STM32H7xx_HAL_Driver/Src/stm32h7xx_hal_dma_ex.c ****   /* check if the DMA state is ready
 536:../../../lib/Drivers/STM32H7xx_HAL_Driver/Src/stm32h7xx_hal_dma_ex.c ****      and DMA is using a DMAMUX request generator block */
 537:../../../lib/Drivers/STM32H7xx_HAL_Driver/Src/stm32h7xx_hal_dma_ex.c ****   if((hdma->State != HAL_DMA_STATE_RESET) && (hdma->DMAmuxRequestGen != 0U))
 538:../../../lib/Drivers/STM32H7xx_HAL_Driver/Src/stm32h7xx_hal_dma_ex.c ****   {
 539:../../../lib/Drivers/STM32H7xx_HAL_Driver/Src/stm32h7xx_hal_dma_ex.c ****     /* Enable the request generator*/
 540:../../../lib/Drivers/STM32H7xx_HAL_Driver/Src/stm32h7xx_hal_dma_ex.c ****     hdma->DMAmuxRequestGen->RGCR |= DMAMUX_RGxCR_GE;
 541:../../../lib/Drivers/STM32H7xx_HAL_Driver/Src/stm32h7xx_hal_dma_ex.c **** 
 542:../../../lib/Drivers/STM32H7xx_HAL_Driver/Src/stm32h7xx_hal_dma_ex.c ****    return HAL_OK;
 543:../../../lib/Drivers/STM32H7xx_HAL_Driver/Src/stm32h7xx_hal_dma_ex.c ****  }
 544:../../../lib/Drivers/STM32H7xx_HAL_Driver/Src/stm32h7xx_hal_dma_ex.c ****  else
ARM GAS  C:\Users\tnguy\AppData\Local\Temp\ccH3JJU2.s 			page 11


 545:../../../lib/Drivers/STM32H7xx_HAL_Driver/Src/stm32h7xx_hal_dma_ex.c ****  {
 546:../../../lib/Drivers/STM32H7xx_HAL_Driver/Src/stm32h7xx_hal_dma_ex.c ****    return HAL_ERROR;
 547:../../../lib/Drivers/STM32H7xx_HAL_Driver/Src/stm32h7xx_hal_dma_ex.c ****  }
 548:../../../lib/Drivers/STM32H7xx_HAL_Driver/Src/stm32h7xx_hal_dma_ex.c **** }
 549:../../../lib/Drivers/STM32H7xx_HAL_Driver/Src/stm32h7xx_hal_dma_ex.c **** 
 550:../../../lib/Drivers/STM32H7xx_HAL_Driver/Src/stm32h7xx_hal_dma_ex.c **** /**
 551:../../../lib/Drivers/STM32H7xx_HAL_Driver/Src/stm32h7xx_hal_dma_ex.c ****   * @brief  Disable the DMAMUX request generator block used by the given DMA stream (instance).
 552:../../../lib/Drivers/STM32H7xx_HAL_Driver/Src/stm32h7xx_hal_dma_ex.c ****   * @param  hdma:       pointer to a DMA_HandleTypeDef structure that contains
 553:../../../lib/Drivers/STM32H7xx_HAL_Driver/Src/stm32h7xx_hal_dma_ex.c ****   *                     the configuration information for the specified DMA Stream.
 554:../../../lib/Drivers/STM32H7xx_HAL_Driver/Src/stm32h7xx_hal_dma_ex.c ****   * @retval HAL status
 555:../../../lib/Drivers/STM32H7xx_HAL_Driver/Src/stm32h7xx_hal_dma_ex.c ****   */
 556:../../../lib/Drivers/STM32H7xx_HAL_Driver/Src/stm32h7xx_hal_dma_ex.c **** HAL_StatusTypeDef HAL_DMAEx_DisableMuxRequestGenerator (DMA_HandleTypeDef *hdma)
 557:../../../lib/Drivers/STM32H7xx_HAL_Driver/Src/stm32h7xx_hal_dma_ex.c **** {
 558:../../../lib/Drivers/STM32H7xx_HAL_Driver/Src/stm32h7xx_hal_dma_ex.c ****   /* Check the parameters */
 559:../../../lib/Drivers/STM32H7xx_HAL_Driver/Src/stm32h7xx_hal_dma_ex.c ****   assert_param(IS_DMA_DMAMUX_ALL_INSTANCE(hdma->Instance));
 560:../../../lib/Drivers/STM32H7xx_HAL_Driver/Src/stm32h7xx_hal_dma_ex.c **** 
 561:../../../lib/Drivers/STM32H7xx_HAL_Driver/Src/stm32h7xx_hal_dma_ex.c ****   /* check if the DMA state is ready
 562:../../../lib/Drivers/STM32H7xx_HAL_Driver/Src/stm32h7xx_hal_dma_ex.c ****      and DMA is using a DMAMUX request generator block */
 563:../../../lib/Drivers/STM32H7xx_HAL_Driver/Src/stm32h7xx_hal_dma_ex.c ****   if((hdma->State != HAL_DMA_STATE_RESET) && (hdma->DMAmuxRequestGen != 0U))
 564:../../../lib/Drivers/STM32H7xx_HAL_Driver/Src/stm32h7xx_hal_dma_ex.c ****   {
 565:../../../lib/Drivers/STM32H7xx_HAL_Driver/Src/stm32h7xx_hal_dma_ex.c ****     /* Disable the request generator*/
 566:../../../lib/Drivers/STM32H7xx_HAL_Driver/Src/stm32h7xx_hal_dma_ex.c ****     hdma->DMAmuxRequestGen->RGCR &= ~DMAMUX_RGxCR_GE;
 567:../../../lib/Drivers/STM32H7xx_HAL_Driver/Src/stm32h7xx_hal_dma_ex.c **** 
 568:../../../lib/Drivers/STM32H7xx_HAL_Driver/Src/stm32h7xx_hal_dma_ex.c ****    return HAL_OK;
 569:../../../lib/Drivers/STM32H7xx_HAL_Driver/Src/stm32h7xx_hal_dma_ex.c ****  }
 570:../../../lib/Drivers/STM32H7xx_HAL_Driver/Src/stm32h7xx_hal_dma_ex.c ****  else
 571:../../../lib/Drivers/STM32H7xx_HAL_Driver/Src/stm32h7xx_hal_dma_ex.c ****  {
 572:../../../lib/Drivers/STM32H7xx_HAL_Driver/Src/stm32h7xx_hal_dma_ex.c ****    return HAL_ERROR;
 573:../../../lib/Drivers/STM32H7xx_HAL_Driver/Src/stm32h7xx_hal_dma_ex.c ****  }
 574:../../../lib/Drivers/STM32H7xx_HAL_Driver/Src/stm32h7xx_hal_dma_ex.c **** }
 575:../../../lib/Drivers/STM32H7xx_HAL_Driver/Src/stm32h7xx_hal_dma_ex.c **** 
 576:../../../lib/Drivers/STM32H7xx_HAL_Driver/Src/stm32h7xx_hal_dma_ex.c **** /**
 577:../../../lib/Drivers/STM32H7xx_HAL_Driver/Src/stm32h7xx_hal_dma_ex.c ****   * @brief  Handles DMAMUX interrupt request.
 578:../../../lib/Drivers/STM32H7xx_HAL_Driver/Src/stm32h7xx_hal_dma_ex.c ****   * @param  hdma: pointer to a DMA_HandleTypeDef structure that contains
 579:../../../lib/Drivers/STM32H7xx_HAL_Driver/Src/stm32h7xx_hal_dma_ex.c ****   *               the configuration information for the specified DMA Stream.
 580:../../../lib/Drivers/STM32H7xx_HAL_Driver/Src/stm32h7xx_hal_dma_ex.c ****   * @retval None
 581:../../../lib/Drivers/STM32H7xx_HAL_Driver/Src/stm32h7xx_hal_dma_ex.c ****   */
 582:../../../lib/Drivers/STM32H7xx_HAL_Driver/Src/stm32h7xx_hal_dma_ex.c **** void HAL_DMAEx_MUX_IRQHandler(DMA_HandleTypeDef *hdma)
 583:../../../lib/Drivers/STM32H7xx_HAL_Driver/Src/stm32h7xx_hal_dma_ex.c **** {
 584:../../../lib/Drivers/STM32H7xx_HAL_Driver/Src/stm32h7xx_hal_dma_ex.c ****   /* Check for DMAMUX Synchronization overrun */
 585:../../../lib/Drivers/STM32H7xx_HAL_Driver/Src/stm32h7xx_hal_dma_ex.c ****   if((hdma->DMAmuxChannelStatus->CSR & hdma->DMAmuxChannelStatusMask) != 0U)
 586:../../../lib/Drivers/STM32H7xx_HAL_Driver/Src/stm32h7xx_hal_dma_ex.c ****   {
 587:../../../lib/Drivers/STM32H7xx_HAL_Driver/Src/stm32h7xx_hal_dma_ex.c ****     /* Disable the synchro overrun interrupt */
 588:../../../lib/Drivers/STM32H7xx_HAL_Driver/Src/stm32h7xx_hal_dma_ex.c ****     hdma->DMAmuxChannel->CCR &= ~DMAMUX_CxCR_SOIE;
 589:../../../lib/Drivers/STM32H7xx_HAL_Driver/Src/stm32h7xx_hal_dma_ex.c **** 
 590:../../../lib/Drivers/STM32H7xx_HAL_Driver/Src/stm32h7xx_hal_dma_ex.c ****     /* Clear the DMAMUX synchro overrun flag */
 591:../../../lib/Drivers/STM32H7xx_HAL_Driver/Src/stm32h7xx_hal_dma_ex.c ****     hdma->DMAmuxChannelStatus->CFR = hdma->DMAmuxChannelStatusMask;
 592:../../../lib/Drivers/STM32H7xx_HAL_Driver/Src/stm32h7xx_hal_dma_ex.c **** 
 593:../../../lib/Drivers/STM32H7xx_HAL_Driver/Src/stm32h7xx_hal_dma_ex.c ****     /* Update error code */
 594:../../../lib/Drivers/STM32H7xx_HAL_Driver/Src/stm32h7xx_hal_dma_ex.c ****     hdma->ErrorCode |= HAL_DMA_ERROR_SYNC;
 595:../../../lib/Drivers/STM32H7xx_HAL_Driver/Src/stm32h7xx_hal_dma_ex.c **** 
 596:../../../lib/Drivers/STM32H7xx_HAL_Driver/Src/stm32h7xx_hal_dma_ex.c ****     if(hdma->XferErrorCallback != NULL)
 597:../../../lib/Drivers/STM32H7xx_HAL_Driver/Src/stm32h7xx_hal_dma_ex.c ****     {
 598:../../../lib/Drivers/STM32H7xx_HAL_Driver/Src/stm32h7xx_hal_dma_ex.c ****       /* Transfer error callback */
 599:../../../lib/Drivers/STM32H7xx_HAL_Driver/Src/stm32h7xx_hal_dma_ex.c ****       hdma->XferErrorCallback(hdma);
 600:../../../lib/Drivers/STM32H7xx_HAL_Driver/Src/stm32h7xx_hal_dma_ex.c ****     }
 601:../../../lib/Drivers/STM32H7xx_HAL_Driver/Src/stm32h7xx_hal_dma_ex.c ****   }
ARM GAS  C:\Users\tnguy\AppData\Local\Temp\ccH3JJU2.s 			page 12


 602:../../../lib/Drivers/STM32H7xx_HAL_Driver/Src/stm32h7xx_hal_dma_ex.c **** 
 603:../../../lib/Drivers/STM32H7xx_HAL_Driver/Src/stm32h7xx_hal_dma_ex.c ****   if(hdma->DMAmuxRequestGen != 0)
 604:../../../lib/Drivers/STM32H7xx_HAL_Driver/Src/stm32h7xx_hal_dma_ex.c ****   {
 605:../../../lib/Drivers/STM32H7xx_HAL_Driver/Src/stm32h7xx_hal_dma_ex.c ****    /* if using a DMAMUX request generator block Check for DMAMUX request generator overrun */
 606:../../../lib/Drivers/STM32H7xx_HAL_Driver/Src/stm32h7xx_hal_dma_ex.c ****     if((hdma->DMAmuxRequestGenStatus->RGSR & hdma->DMAmuxRequestGenStatusMask) != 0U)
 607:../../../lib/Drivers/STM32H7xx_HAL_Driver/Src/stm32h7xx_hal_dma_ex.c ****     {
 608:../../../lib/Drivers/STM32H7xx_HAL_Driver/Src/stm32h7xx_hal_dma_ex.c ****       /* Disable the request gen overrun interrupt */
 609:../../../lib/Drivers/STM32H7xx_HAL_Driver/Src/stm32h7xx_hal_dma_ex.c ****       hdma->DMAmuxRequestGen->RGCR &= ~DMAMUX_RGxCR_OIE;
 610:../../../lib/Drivers/STM32H7xx_HAL_Driver/Src/stm32h7xx_hal_dma_ex.c **** 
 611:../../../lib/Drivers/STM32H7xx_HAL_Driver/Src/stm32h7xx_hal_dma_ex.c ****       /* Clear the DMAMUX request generator overrun flag */
 612:../../../lib/Drivers/STM32H7xx_HAL_Driver/Src/stm32h7xx_hal_dma_ex.c ****       hdma->DMAmuxRequestGenStatus->RGCFR = hdma->DMAmuxRequestGenStatusMask;
 613:../../../lib/Drivers/STM32H7xx_HAL_Driver/Src/stm32h7xx_hal_dma_ex.c **** 
 614:../../../lib/Drivers/STM32H7xx_HAL_Driver/Src/stm32h7xx_hal_dma_ex.c ****       /* Update error code */
 615:../../../lib/Drivers/STM32H7xx_HAL_Driver/Src/stm32h7xx_hal_dma_ex.c ****       hdma->ErrorCode |= HAL_DMA_ERROR_REQGEN;
 616:../../../lib/Drivers/STM32H7xx_HAL_Driver/Src/stm32h7xx_hal_dma_ex.c **** 
 617:../../../lib/Drivers/STM32H7xx_HAL_Driver/Src/stm32h7xx_hal_dma_ex.c ****       if(hdma->XferErrorCallback != NULL)
 618:../../../lib/Drivers/STM32H7xx_HAL_Driver/Src/stm32h7xx_hal_dma_ex.c ****       {
 619:../../../lib/Drivers/STM32H7xx_HAL_Driver/Src/stm32h7xx_hal_dma_ex.c ****         /* Transfer error callback */
 620:../../../lib/Drivers/STM32H7xx_HAL_Driver/Src/stm32h7xx_hal_dma_ex.c ****         hdma->XferErrorCallback(hdma);
 621:../../../lib/Drivers/STM32H7xx_HAL_Driver/Src/stm32h7xx_hal_dma_ex.c ****       }
 622:../../../lib/Drivers/STM32H7xx_HAL_Driver/Src/stm32h7xx_hal_dma_ex.c ****     }
 623:../../../lib/Drivers/STM32H7xx_HAL_Driver/Src/stm32h7xx_hal_dma_ex.c ****   }
 624:../../../lib/Drivers/STM32H7xx_HAL_Driver/Src/stm32h7xx_hal_dma_ex.c **** }
 625:../../../lib/Drivers/STM32H7xx_HAL_Driver/Src/stm32h7xx_hal_dma_ex.c **** 
 626:../../../lib/Drivers/STM32H7xx_HAL_Driver/Src/stm32h7xx_hal_dma_ex.c **** 
 627:../../../lib/Drivers/STM32H7xx_HAL_Driver/Src/stm32h7xx_hal_dma_ex.c **** /**
 628:../../../lib/Drivers/STM32H7xx_HAL_Driver/Src/stm32h7xx_hal_dma_ex.c ****   * @}
 629:../../../lib/Drivers/STM32H7xx_HAL_Driver/Src/stm32h7xx_hal_dma_ex.c ****   */
 630:../../../lib/Drivers/STM32H7xx_HAL_Driver/Src/stm32h7xx_hal_dma_ex.c **** 
 631:../../../lib/Drivers/STM32H7xx_HAL_Driver/Src/stm32h7xx_hal_dma_ex.c **** /**
 632:../../../lib/Drivers/STM32H7xx_HAL_Driver/Src/stm32h7xx_hal_dma_ex.c ****   * @}
 633:../../../lib/Drivers/STM32H7xx_HAL_Driver/Src/stm32h7xx_hal_dma_ex.c ****   */
 634:../../../lib/Drivers/STM32H7xx_HAL_Driver/Src/stm32h7xx_hal_dma_ex.c **** 
 635:../../../lib/Drivers/STM32H7xx_HAL_Driver/Src/stm32h7xx_hal_dma_ex.c **** /** @addtogroup DMAEx_Private_Functions
 636:../../../lib/Drivers/STM32H7xx_HAL_Driver/Src/stm32h7xx_hal_dma_ex.c ****   * @{
 637:../../../lib/Drivers/STM32H7xx_HAL_Driver/Src/stm32h7xx_hal_dma_ex.c ****   */
 638:../../../lib/Drivers/STM32H7xx_HAL_Driver/Src/stm32h7xx_hal_dma_ex.c **** 
 639:../../../lib/Drivers/STM32H7xx_HAL_Driver/Src/stm32h7xx_hal_dma_ex.c **** /**
 640:../../../lib/Drivers/STM32H7xx_HAL_Driver/Src/stm32h7xx_hal_dma_ex.c ****   * @brief  Set the DMA Transfer parameter.
 641:../../../lib/Drivers/STM32H7xx_HAL_Driver/Src/stm32h7xx_hal_dma_ex.c ****   * @param  hdma:       pointer to a DMA_HandleTypeDef structure that contains
 642:../../../lib/Drivers/STM32H7xx_HAL_Driver/Src/stm32h7xx_hal_dma_ex.c ****   *                     the configuration information for the specified DMA Stream.
 643:../../../lib/Drivers/STM32H7xx_HAL_Driver/Src/stm32h7xx_hal_dma_ex.c ****   * @param  SrcAddress: The source memory Buffer address
 644:../../../lib/Drivers/STM32H7xx_HAL_Driver/Src/stm32h7xx_hal_dma_ex.c ****   * @param  DstAddress: The destination memory Buffer address
 645:../../../lib/Drivers/STM32H7xx_HAL_Driver/Src/stm32h7xx_hal_dma_ex.c ****   * @param  DataLength: The length of data to be transferred from source to destination
 646:../../../lib/Drivers/STM32H7xx_HAL_Driver/Src/stm32h7xx_hal_dma_ex.c ****   * @retval HAL status
 647:../../../lib/Drivers/STM32H7xx_HAL_Driver/Src/stm32h7xx_hal_dma_ex.c ****   */
 648:../../../lib/Drivers/STM32H7xx_HAL_Driver/Src/stm32h7xx_hal_dma_ex.c **** static void DMA_MultiBufferSetConfig(DMA_HandleTypeDef *hdma, uint32_t SrcAddress, uint32_t DstAddr
 649:../../../lib/Drivers/STM32H7xx_HAL_Driver/Src/stm32h7xx_hal_dma_ex.c **** {
  28              		.loc 1 649 1 view -0
  29              		.cfi_startproc
  30              		@ args = 0, pretend = 0, frame = 0
  31              		@ frame_needed = 0, uses_anonymous_args = 0
  32              		@ link register save eliminated.
  33              		.loc 1 649 1 is_stmt 0 view .LVU1
  34 0000 70B4     		push	{r4, r5, r6}
  35              	.LCFI0:
  36              		.cfi_def_cfa_offset 12
ARM GAS  C:\Users\tnguy\AppData\Local\Temp\ccH3JJU2.s 			page 13


  37              		.cfi_offset 4, -12
  38              		.cfi_offset 5, -8
  39              		.cfi_offset 6, -4
 650:../../../lib/Drivers/STM32H7xx_HAL_Driver/Src/stm32h7xx_hal_dma_ex.c ****   if(IS_DMA_STREAM_INSTANCE(hdma->Instance) != 0U) /* DMA1 or DMA2 instance */
  40              		.loc 1 650 3 is_stmt 1 view .LVU2
  41              		.loc 1 650 6 is_stmt 0 view .LVU3
  42 0002 0468     		ldr	r4, [r0]
  43 0004 264E     		ldr	r6, .L11
  44 0006 274D     		ldr	r5, .L11+4
  45 0008 AC42     		cmp	r4, r5
  46 000a 18BF     		it	ne
  47 000c B442     		cmpne	r4, r6
  48 000e 33D0     		beq	.L2
  49              		.loc 1 650 6 discriminator 2 view .LVU4
  50 0010 1835     		adds	r5, r5, #24
  51 0012 AC42     		cmp	r4, r5
  52 0014 30D0     		beq	.L2
  53              		.loc 1 650 6 discriminator 4 view .LVU5
  54 0016 1835     		adds	r5, r5, #24
  55 0018 AC42     		cmp	r4, r5
  56 001a 2DD0     		beq	.L2
  57              		.loc 1 650 6 discriminator 6 view .LVU6
  58 001c 1835     		adds	r5, r5, #24
  59 001e AC42     		cmp	r4, r5
  60 0020 2AD0     		beq	.L2
  61              		.loc 1 650 6 discriminator 8 view .LVU7
  62 0022 1835     		adds	r5, r5, #24
  63 0024 AC42     		cmp	r4, r5
  64 0026 27D0     		beq	.L2
  65              		.loc 1 650 6 discriminator 10 view .LVU8
  66 0028 1835     		adds	r5, r5, #24
  67 002a AC42     		cmp	r4, r5
  68 002c 24D0     		beq	.L2
  69              		.loc 1 650 6 discriminator 12 view .LVU9
  70 002e 1835     		adds	r5, r5, #24
  71 0030 AC42     		cmp	r4, r5
  72 0032 21D0     		beq	.L2
  73              		.loc 1 650 6 discriminator 14 view .LVU10
  74 0034 05F55675 		add	r5, r5, #856
  75 0038 AC42     		cmp	r4, r5
  76 003a 1DD0     		beq	.L2
  77              		.loc 1 650 6 discriminator 16 view .LVU11
  78 003c 1835     		adds	r5, r5, #24
  79 003e AC42     		cmp	r4, r5
  80 0040 1AD0     		beq	.L2
  81              		.loc 1 650 6 discriminator 18 view .LVU12
  82 0042 1835     		adds	r5, r5, #24
  83 0044 AC42     		cmp	r4, r5
  84 0046 17D0     		beq	.L2
  85              		.loc 1 650 6 discriminator 20 view .LVU13
  86 0048 1835     		adds	r5, r5, #24
  87 004a AC42     		cmp	r4, r5
  88 004c 14D0     		beq	.L2
  89              		.loc 1 650 6 discriminator 22 view .LVU14
  90 004e 1835     		adds	r5, r5, #24
  91 0050 AC42     		cmp	r4, r5
  92 0052 11D0     		beq	.L2
ARM GAS  C:\Users\tnguy\AppData\Local\Temp\ccH3JJU2.s 			page 14


  93              		.loc 1 650 6 discriminator 24 view .LVU15
  94 0054 1835     		adds	r5, r5, #24
  95 0056 AC42     		cmp	r4, r5
  96 0058 0ED0     		beq	.L2
  97              		.loc 1 650 6 discriminator 26 view .LVU16
  98 005a 1835     		adds	r5, r5, #24
  99 005c AC42     		cmp	r4, r5
 100 005e 0BD0     		beq	.L2
 101              		.loc 1 650 6 discriminator 28 view .LVU17
 102 0060 1835     		adds	r5, r5, #24
 103 0062 AC42     		cmp	r4, r5
 104 0064 08D0     		beq	.L2
 651:../../../lib/Drivers/STM32H7xx_HAL_Driver/Src/stm32h7xx_hal_dma_ex.c ****   {
 652:../../../lib/Drivers/STM32H7xx_HAL_Driver/Src/stm32h7xx_hal_dma_ex.c ****     /* Configure DMA Stream data length */
 653:../../../lib/Drivers/STM32H7xx_HAL_Driver/Src/stm32h7xx_hal_dma_ex.c ****     ((DMA_Stream_TypeDef   *)hdma->Instance)->NDTR = DataLength;
 654:../../../lib/Drivers/STM32H7xx_HAL_Driver/Src/stm32h7xx_hal_dma_ex.c **** 
 655:../../../lib/Drivers/STM32H7xx_HAL_Driver/Src/stm32h7xx_hal_dma_ex.c ****     /* Peripheral to Memory */
 656:../../../lib/Drivers/STM32H7xx_HAL_Driver/Src/stm32h7xx_hal_dma_ex.c ****     if((hdma->Init.Direction) == DMA_MEMORY_TO_PERIPH)
 657:../../../lib/Drivers/STM32H7xx_HAL_Driver/Src/stm32h7xx_hal_dma_ex.c ****     {
 658:../../../lib/Drivers/STM32H7xx_HAL_Driver/Src/stm32h7xx_hal_dma_ex.c ****       /* Configure DMA Stream destination address */
 659:../../../lib/Drivers/STM32H7xx_HAL_Driver/Src/stm32h7xx_hal_dma_ex.c ****       ((DMA_Stream_TypeDef   *)hdma->Instance)->PAR = DstAddress;
 660:../../../lib/Drivers/STM32H7xx_HAL_Driver/Src/stm32h7xx_hal_dma_ex.c **** 
 661:../../../lib/Drivers/STM32H7xx_HAL_Driver/Src/stm32h7xx_hal_dma_ex.c ****       /* Configure DMA Stream source address */
 662:../../../lib/Drivers/STM32H7xx_HAL_Driver/Src/stm32h7xx_hal_dma_ex.c ****       ((DMA_Stream_TypeDef   *)hdma->Instance)->M0AR = SrcAddress;
 663:../../../lib/Drivers/STM32H7xx_HAL_Driver/Src/stm32h7xx_hal_dma_ex.c ****     }
 664:../../../lib/Drivers/STM32H7xx_HAL_Driver/Src/stm32h7xx_hal_dma_ex.c ****     /* Memory to Peripheral */
 665:../../../lib/Drivers/STM32H7xx_HAL_Driver/Src/stm32h7xx_hal_dma_ex.c ****     else
 666:../../../lib/Drivers/STM32H7xx_HAL_Driver/Src/stm32h7xx_hal_dma_ex.c ****     {
 667:../../../lib/Drivers/STM32H7xx_HAL_Driver/Src/stm32h7xx_hal_dma_ex.c ****       /* Configure DMA Stream source address */
 668:../../../lib/Drivers/STM32H7xx_HAL_Driver/Src/stm32h7xx_hal_dma_ex.c ****       ((DMA_Stream_TypeDef   *)hdma->Instance)->PAR = SrcAddress;
 669:../../../lib/Drivers/STM32H7xx_HAL_Driver/Src/stm32h7xx_hal_dma_ex.c **** 
 670:../../../lib/Drivers/STM32H7xx_HAL_Driver/Src/stm32h7xx_hal_dma_ex.c ****       /* Configure DMA Stream destination address */
 671:../../../lib/Drivers/STM32H7xx_HAL_Driver/Src/stm32h7xx_hal_dma_ex.c ****       ((DMA_Stream_TypeDef   *)hdma->Instance)->M0AR = DstAddress;
 672:../../../lib/Drivers/STM32H7xx_HAL_Driver/Src/stm32h7xx_hal_dma_ex.c ****     }
 673:../../../lib/Drivers/STM32H7xx_HAL_Driver/Src/stm32h7xx_hal_dma_ex.c ****   }
 674:../../../lib/Drivers/STM32H7xx_HAL_Driver/Src/stm32h7xx_hal_dma_ex.c ****   else /* BDMA instance(s) */
 675:../../../lib/Drivers/STM32H7xx_HAL_Driver/Src/stm32h7xx_hal_dma_ex.c ****   {
 676:../../../lib/Drivers/STM32H7xx_HAL_Driver/Src/stm32h7xx_hal_dma_ex.c ****     /* Configure DMA Stream data length */
 677:../../../lib/Drivers/STM32H7xx_HAL_Driver/Src/stm32h7xx_hal_dma_ex.c ****     ((BDMA_Channel_TypeDef   *)hdma->Instance)->CNDTR = DataLength;
 105              		.loc 1 677 5 is_stmt 1 view .LVU18
 106              		.loc 1 677 55 is_stmt 0 view .LVU19
 107 0066 6360     		str	r3, [r4, #4]
 678:../../../lib/Drivers/STM32H7xx_HAL_Driver/Src/stm32h7xx_hal_dma_ex.c **** 
 679:../../../lib/Drivers/STM32H7xx_HAL_Driver/Src/stm32h7xx_hal_dma_ex.c ****     /* Peripheral to Memory */
 680:../../../lib/Drivers/STM32H7xx_HAL_Driver/Src/stm32h7xx_hal_dma_ex.c ****     if((hdma->Init.Direction) == DMA_MEMORY_TO_PERIPH)
 108              		.loc 1 680 5 is_stmt 1 view .LVU20
 109              		.loc 1 680 19 is_stmt 0 view .LVU21
 110 0068 8368     		ldr	r3, [r0, #8]
 111              	.LVL1:
 112              		.loc 1 680 7 view .LVU22
 113 006a 402B     		cmp	r3, #64
 114 006c 13D0     		beq	.L9
 681:../../../lib/Drivers/STM32H7xx_HAL_Driver/Src/stm32h7xx_hal_dma_ex.c ****     {
 682:../../../lib/Drivers/STM32H7xx_HAL_Driver/Src/stm32h7xx_hal_dma_ex.c ****       /* Configure DMA Stream destination address */
 683:../../../lib/Drivers/STM32H7xx_HAL_Driver/Src/stm32h7xx_hal_dma_ex.c ****       ((BDMA_Channel_TypeDef   *)hdma->Instance)->CPAR = DstAddress;
 684:../../../lib/Drivers/STM32H7xx_HAL_Driver/Src/stm32h7xx_hal_dma_ex.c **** 
 685:../../../lib/Drivers/STM32H7xx_HAL_Driver/Src/stm32h7xx_hal_dma_ex.c ****       /* Configure DMA Stream source address */
ARM GAS  C:\Users\tnguy\AppData\Local\Temp\ccH3JJU2.s 			page 15


 686:../../../lib/Drivers/STM32H7xx_HAL_Driver/Src/stm32h7xx_hal_dma_ex.c ****       ((BDMA_Channel_TypeDef   *)hdma->Instance)->CM0AR = SrcAddress;
 687:../../../lib/Drivers/STM32H7xx_HAL_Driver/Src/stm32h7xx_hal_dma_ex.c ****     }
 688:../../../lib/Drivers/STM32H7xx_HAL_Driver/Src/stm32h7xx_hal_dma_ex.c ****     /* Memory to Peripheral */
 689:../../../lib/Drivers/STM32H7xx_HAL_Driver/Src/stm32h7xx_hal_dma_ex.c ****     else
 690:../../../lib/Drivers/STM32H7xx_HAL_Driver/Src/stm32h7xx_hal_dma_ex.c ****     {
 691:../../../lib/Drivers/STM32H7xx_HAL_Driver/Src/stm32h7xx_hal_dma_ex.c ****       /* Configure DMA Stream source address */
 692:../../../lib/Drivers/STM32H7xx_HAL_Driver/Src/stm32h7xx_hal_dma_ex.c ****       ((BDMA_Channel_TypeDef   *)hdma->Instance)->CPAR = SrcAddress;
 115              		.loc 1 692 7 is_stmt 1 view .LVU23
 116              		.loc 1 692 38 is_stmt 0 view .LVU24
 117 006e 0368     		ldr	r3, [r0]
 118              		.loc 1 692 56 view .LVU25
 119 0070 9960     		str	r1, [r3, #8]
 120              	.LVL2:
 693:../../../lib/Drivers/STM32H7xx_HAL_Driver/Src/stm32h7xx_hal_dma_ex.c **** 
 694:../../../lib/Drivers/STM32H7xx_HAL_Driver/Src/stm32h7xx_hal_dma_ex.c ****       /* Configure DMA Stream destination address */
 695:../../../lib/Drivers/STM32H7xx_HAL_Driver/Src/stm32h7xx_hal_dma_ex.c ****       ((BDMA_Channel_TypeDef   *)hdma->Instance)->CM0AR = DstAddress;
 121              		.loc 1 695 7 is_stmt 1 view .LVU26
 122              		.loc 1 695 38 is_stmt 0 view .LVU27
 123 0072 0368     		ldr	r3, [r0]
 124              		.loc 1 695 57 view .LVU28
 125 0074 DA60     		str	r2, [r3, #12]
 696:../../../lib/Drivers/STM32H7xx_HAL_Driver/Src/stm32h7xx_hal_dma_ex.c ****     }
 697:../../../lib/Drivers/STM32H7xx_HAL_Driver/Src/stm32h7xx_hal_dma_ex.c ****   }
 698:../../../lib/Drivers/STM32H7xx_HAL_Driver/Src/stm32h7xx_hal_dma_ex.c **** }
 126              		.loc 1 698 1 view .LVU29
 127 0076 07E0     		b	.L1
 128              	.LVL3:
 129              	.L2:
 653:../../../lib/Drivers/STM32H7xx_HAL_Driver/Src/stm32h7xx_hal_dma_ex.c **** 
 130              		.loc 1 653 5 is_stmt 1 view .LVU30
 653:../../../lib/Drivers/STM32H7xx_HAL_Driver/Src/stm32h7xx_hal_dma_ex.c **** 
 131              		.loc 1 653 52 is_stmt 0 view .LVU31
 132 0078 6360     		str	r3, [r4, #4]
 656:../../../lib/Drivers/STM32H7xx_HAL_Driver/Src/stm32h7xx_hal_dma_ex.c ****     {
 133              		.loc 1 656 5 is_stmt 1 view .LVU32
 656:../../../lib/Drivers/STM32H7xx_HAL_Driver/Src/stm32h7xx_hal_dma_ex.c ****     {
 134              		.loc 1 656 19 is_stmt 0 view .LVU33
 135 007a 8368     		ldr	r3, [r0, #8]
 136              	.LVL4:
 656:../../../lib/Drivers/STM32H7xx_HAL_Driver/Src/stm32h7xx_hal_dma_ex.c ****     {
 137              		.loc 1 656 7 view .LVU34
 138 007c 402B     		cmp	r3, #64
 139 007e 05D0     		beq	.L10
 668:../../../lib/Drivers/STM32H7xx_HAL_Driver/Src/stm32h7xx_hal_dma_ex.c **** 
 140              		.loc 1 668 7 is_stmt 1 view .LVU35
 668:../../../lib/Drivers/STM32H7xx_HAL_Driver/Src/stm32h7xx_hal_dma_ex.c **** 
 141              		.loc 1 668 36 is_stmt 0 view .LVU36
 142 0080 0368     		ldr	r3, [r0]
 668:../../../lib/Drivers/STM32H7xx_HAL_Driver/Src/stm32h7xx_hal_dma_ex.c **** 
 143              		.loc 1 668 53 view .LVU37
 144 0082 9960     		str	r1, [r3, #8]
 145              	.LVL5:
 671:../../../lib/Drivers/STM32H7xx_HAL_Driver/Src/stm32h7xx_hal_dma_ex.c ****     }
 146              		.loc 1 671 7 is_stmt 1 view .LVU38
 671:../../../lib/Drivers/STM32H7xx_HAL_Driver/Src/stm32h7xx_hal_dma_ex.c ****     }
 147              		.loc 1 671 36 is_stmt 0 view .LVU39
 148 0084 0368     		ldr	r3, [r0]
ARM GAS  C:\Users\tnguy\AppData\Local\Temp\ccH3JJU2.s 			page 16


 671:../../../lib/Drivers/STM32H7xx_HAL_Driver/Src/stm32h7xx_hal_dma_ex.c ****     }
 149              		.loc 1 671 54 view .LVU40
 150 0086 DA60     		str	r2, [r3, #12]
 151              	.L1:
 152              		.loc 1 698 1 view .LVU41
 153 0088 70BC     		pop	{r4, r5, r6}
 154              	.LCFI1:
 155              		.cfi_remember_state
 156              		.cfi_restore 6
 157              		.cfi_restore 5
 158              		.cfi_restore 4
 159              		.cfi_def_cfa_offset 0
 160 008a 7047     		bx	lr
 161              	.LVL6:
 162              	.L10:
 163              	.LCFI2:
 164              		.cfi_restore_state
 659:../../../lib/Drivers/STM32H7xx_HAL_Driver/Src/stm32h7xx_hal_dma_ex.c **** 
 165              		.loc 1 659 7 is_stmt 1 view .LVU42
 659:../../../lib/Drivers/STM32H7xx_HAL_Driver/Src/stm32h7xx_hal_dma_ex.c **** 
 166              		.loc 1 659 36 is_stmt 0 view .LVU43
 167 008c 0368     		ldr	r3, [r0]
 659:../../../lib/Drivers/STM32H7xx_HAL_Driver/Src/stm32h7xx_hal_dma_ex.c **** 
 168              		.loc 1 659 53 view .LVU44
 169 008e 9A60     		str	r2, [r3, #8]
 170              	.LVL7:
 662:../../../lib/Drivers/STM32H7xx_HAL_Driver/Src/stm32h7xx_hal_dma_ex.c ****     }
 171              		.loc 1 662 7 is_stmt 1 view .LVU45
 662:../../../lib/Drivers/STM32H7xx_HAL_Driver/Src/stm32h7xx_hal_dma_ex.c ****     }
 172              		.loc 1 662 36 is_stmt 0 view .LVU46
 173 0090 0368     		ldr	r3, [r0]
 662:../../../lib/Drivers/STM32H7xx_HAL_Driver/Src/stm32h7xx_hal_dma_ex.c ****     }
 174              		.loc 1 662 54 view .LVU47
 175 0092 D960     		str	r1, [r3, #12]
 176 0094 F8E7     		b	.L1
 177              	.LVL8:
 178              	.L9:
 683:../../../lib/Drivers/STM32H7xx_HAL_Driver/Src/stm32h7xx_hal_dma_ex.c **** 
 179              		.loc 1 683 7 is_stmt 1 view .LVU48
 683:../../../lib/Drivers/STM32H7xx_HAL_Driver/Src/stm32h7xx_hal_dma_ex.c **** 
 180              		.loc 1 683 38 is_stmt 0 view .LVU49
 181 0096 0368     		ldr	r3, [r0]
 683:../../../lib/Drivers/STM32H7xx_HAL_Driver/Src/stm32h7xx_hal_dma_ex.c **** 
 182              		.loc 1 683 56 view .LVU50
 183 0098 9A60     		str	r2, [r3, #8]
 184              	.LVL9:
 686:../../../lib/Drivers/STM32H7xx_HAL_Driver/Src/stm32h7xx_hal_dma_ex.c ****     }
 185              		.loc 1 686 7 is_stmt 1 view .LVU51
 686:../../../lib/Drivers/STM32H7xx_HAL_Driver/Src/stm32h7xx_hal_dma_ex.c ****     }
 186              		.loc 1 686 38 is_stmt 0 view .LVU52
 187 009a 0368     		ldr	r3, [r0]
 686:../../../lib/Drivers/STM32H7xx_HAL_Driver/Src/stm32h7xx_hal_dma_ex.c ****     }
 188              		.loc 1 686 57 view .LVU53
 189 009c D960     		str	r1, [r3, #12]
 190 009e F3E7     		b	.L1
 191              	.L12:
 192              		.align	2
ARM GAS  C:\Users\tnguy\AppData\Local\Temp\ccH3JJU2.s 			page 17


 193              	.L11:
 194 00a0 10000240 		.word	1073872912
 195 00a4 28000240 		.word	1073872936
 196              		.cfi_endproc
 197              	.LFE152:
 199              		.section	.text.HAL_DMAEx_MultiBufferStart,"ax",%progbits
 200              		.align	1
 201              		.global	HAL_DMAEx_MultiBufferStart
 202              		.syntax unified
 203              		.thumb
 204              		.thumb_func
 206              	HAL_DMAEx_MultiBufferStart:
 207              	.LVL10:
 208              	.LFB144:
 121:../../../lib/Drivers/STM32H7xx_HAL_Driver/Src/stm32h7xx_hal_dma_ex.c ****   HAL_StatusTypeDef status = HAL_OK;
 209              		.loc 1 121 1 is_stmt 1 view -0
 210              		.cfi_startproc
 211              		@ args = 4, pretend = 0, frame = 0
 212              		@ frame_needed = 0, uses_anonymous_args = 0
 121:../../../lib/Drivers/STM32H7xx_HAL_Driver/Src/stm32h7xx_hal_dma_ex.c ****   HAL_StatusTypeDef status = HAL_OK;
 213              		.loc 1 121 1 is_stmt 0 view .LVU55
 214 0000 70B5     		push	{r4, r5, r6, lr}
 215              	.LCFI3:
 216              		.cfi_def_cfa_offset 16
 217              		.cfi_offset 4, -16
 218              		.cfi_offset 5, -12
 219              		.cfi_offset 6, -8
 220              		.cfi_offset 14, -4
 221 0002 0446     		mov	r4, r0
 122:../../../lib/Drivers/STM32H7xx_HAL_Driver/Src/stm32h7xx_hal_dma_ex.c ****   __IO uint32_t *ifcRegister_Base; /* DMA Stream Interrupt Clear register */
 222              		.loc 1 122 3 is_stmt 1 view .LVU56
 223              	.LVL11:
 123:../../../lib/Drivers/STM32H7xx_HAL_Driver/Src/stm32h7xx_hal_dma_ex.c **** 
 224              		.loc 1 123 3 view .LVU57
 126:../../../lib/Drivers/STM32H7xx_HAL_Driver/Src/stm32h7xx_hal_dma_ex.c ****   assert_param(IS_DMA_ALL_INSTANCE(hdma->Instance));
 225              		.loc 1 126 3 view .LVU58
 127:../../../lib/Drivers/STM32H7xx_HAL_Driver/Src/stm32h7xx_hal_dma_ex.c **** 
 226              		.loc 1 127 3 view .LVU59
 130:../../../lib/Drivers/STM32H7xx_HAL_Driver/Src/stm32h7xx_hal_dma_ex.c ****   {
 227              		.loc 1 130 3 view .LVU60
 130:../../../lib/Drivers/STM32H7xx_HAL_Driver/Src/stm32h7xx_hal_dma_ex.c ****   {
 228              		.loc 1 130 17 is_stmt 0 view .LVU61
 229 0004 8068     		ldr	r0, [r0, #8]
 230              	.LVL12:
 130:../../../lib/Drivers/STM32H7xx_HAL_Driver/Src/stm32h7xx_hal_dma_ex.c ****   {
 231              		.loc 1 130 6 view .LVU62
 232 0006 8028     		cmp	r0, #128
 233 0008 11D0     		beq	.L25
 138:../../../lib/Drivers/STM32H7xx_HAL_Driver/Src/stm32h7xx_hal_dma_ex.c **** 
 234              		.loc 1 138 5 is_stmt 1 view .LVU63
 138:../../../lib/Drivers/STM32H7xx_HAL_Driver/Src/stm32h7xx_hal_dma_ex.c **** 
 235              		.loc 1 138 5 view .LVU64
 236 000a 94F83400 		ldrb	r0, [r4, #52]	@ zero_extendqisi2
 237 000e 0128     		cmp	r0, #1
 238 0010 00F0F980 		beq	.L23
 138:../../../lib/Drivers/STM32H7xx_HAL_Driver/Src/stm32h7xx_hal_dma_ex.c **** 
 239              		.loc 1 138 5 discriminator 2 view .LVU65
ARM GAS  C:\Users\tnguy\AppData\Local\Temp\ccH3JJU2.s 			page 18


 240 0014 0120     		movs	r0, #1
 241 0016 84F83400 		strb	r0, [r4, #52]
 138:../../../lib/Drivers/STM32H7xx_HAL_Driver/Src/stm32h7xx_hal_dma_ex.c **** 
 242              		.loc 1 138 5 discriminator 2 view .LVU66
 140:../../../lib/Drivers/STM32H7xx_HAL_Driver/Src/stm32h7xx_hal_dma_ex.c ****     {
 243              		.loc 1 140 5 discriminator 2 view .LVU67
 140:../../../lib/Drivers/STM32H7xx_HAL_Driver/Src/stm32h7xx_hal_dma_ex.c ****     {
 244              		.loc 1 140 35 is_stmt 0 discriminator 2 view .LVU68
 245 001a 94F83500 		ldrb	r0, [r4, #53]	@ zero_extendqisi2
 246 001e C0B2     		uxtb	r0, r0
 140:../../../lib/Drivers/STM32H7xx_HAL_Driver/Src/stm32h7xx_hal_dma_ex.c ****     {
 247              		.loc 1 140 7 discriminator 2 view .LVU69
 248 0020 0128     		cmp	r0, #1
 249 0022 09D0     		beq	.L26
 198:../../../lib/Drivers/STM32H7xx_HAL_Driver/Src/stm32h7xx_hal_dma_ex.c **** 
 250              		.loc 1 198 7 is_stmt 1 view .LVU70
 198:../../../lib/Drivers/STM32H7xx_HAL_Driver/Src/stm32h7xx_hal_dma_ex.c **** 
 251              		.loc 1 198 23 is_stmt 0 view .LVU71
 252 0024 4FF40063 		mov	r3, #2048
 253              	.LVL13:
 198:../../../lib/Drivers/STM32H7xx_HAL_Driver/Src/stm32h7xx_hal_dma_ex.c **** 
 254              		.loc 1 198 23 view .LVU72
 255 0028 6365     		str	r3, [r4, #84]
 201:../../../lib/Drivers/STM32H7xx_HAL_Driver/Src/stm32h7xx_hal_dma_ex.c ****     }
 256              		.loc 1 201 7 is_stmt 1 view .LVU73
 257              	.LVL14:
 201:../../../lib/Drivers/STM32H7xx_HAL_Driver/Src/stm32h7xx_hal_dma_ex.c ****     }
 258              		.loc 1 201 14 is_stmt 0 view .LVU74
 259 002a 0120     		movs	r0, #1
 260              	.LVL15:
 261              	.L15:
 205:../../../lib/Drivers/STM32H7xx_HAL_Driver/Src/stm32h7xx_hal_dma_ex.c **** 
 262              		.loc 1 205 1 view .LVU75
 263 002c 70BD     		pop	{r4, r5, r6, pc}
 264              	.LVL16:
 265              	.L25:
 132:../../../lib/Drivers/STM32H7xx_HAL_Driver/Src/stm32h7xx_hal_dma_ex.c ****     status = HAL_ERROR;
 266              		.loc 1 132 5 is_stmt 1 view .LVU76
 132:../../../lib/Drivers/STM32H7xx_HAL_Driver/Src/stm32h7xx_hal_dma_ex.c ****     status = HAL_ERROR;
 267              		.loc 1 132 21 is_stmt 0 view .LVU77
 268 002e 4FF48073 		mov	r3, #256
 269              	.LVL17:
 132:../../../lib/Drivers/STM32H7xx_HAL_Driver/Src/stm32h7xx_hal_dma_ex.c ****     status = HAL_ERROR;
 270              		.loc 1 132 21 view .LVU78
 271 0032 6365     		str	r3, [r4, #84]
 133:../../../lib/Drivers/STM32H7xx_HAL_Driver/Src/stm32h7xx_hal_dma_ex.c ****   }
 272              		.loc 1 133 5 is_stmt 1 view .LVU79
 273              	.LVL18:
 133:../../../lib/Drivers/STM32H7xx_HAL_Driver/Src/stm32h7xx_hal_dma_ex.c ****   }
 274              		.loc 1 133 12 is_stmt 0 view .LVU80
 275 0034 0120     		movs	r0, #1
 276 0036 F9E7     		b	.L15
 277              	.LVL19:
 278              	.L26:
 143:../../../lib/Drivers/STM32H7xx_HAL_Driver/Src/stm32h7xx_hal_dma_ex.c **** 
 279              		.loc 1 143 7 is_stmt 1 view .LVU81
 143:../../../lib/Drivers/STM32H7xx_HAL_Driver/Src/stm32h7xx_hal_dma_ex.c **** 
ARM GAS  C:\Users\tnguy\AppData\Local\Temp\ccH3JJU2.s 			page 19


 280              		.loc 1 143 19 is_stmt 0 view .LVU82
 281 0038 0220     		movs	r0, #2
 282 003a 84F83500 		strb	r0, [r4, #53]
 146:../../../lib/Drivers/STM32H7xx_HAL_Driver/Src/stm32h7xx_hal_dma_ex.c **** 
 283              		.loc 1 146 7 is_stmt 1 view .LVU83
 146:../../../lib/Drivers/STM32H7xx_HAL_Driver/Src/stm32h7xx_hal_dma_ex.c **** 
 284              		.loc 1 146 23 is_stmt 0 view .LVU84
 285 003e 0020     		movs	r0, #0
 286 0040 6065     		str	r0, [r4, #84]
 148:../../../lib/Drivers/STM32H7xx_HAL_Driver/Src/stm32h7xx_hal_dma_ex.c ****       {
 287              		.loc 1 148 7 is_stmt 1 view .LVU85
 148:../../../lib/Drivers/STM32H7xx_HAL_Driver/Src/stm32h7xx_hal_dma_ex.c ****       {
 288              		.loc 1 148 10 is_stmt 0 view .LVU86
 289 0042 2068     		ldr	r0, [r4]
 290 0044 714E     		ldr	r6, .L27
 291 0046 724D     		ldr	r5, .L27+4
 292 0048 A842     		cmp	r0, r5
 293 004a 18BF     		it	ne
 294 004c B042     		cmpne	r0, r6
 295 004e 39D0     		beq	.L17
 148:../../../lib/Drivers/STM32H7xx_HAL_Driver/Src/stm32h7xx_hal_dma_ex.c ****       {
 296              		.loc 1 148 10 discriminator 2 view .LVU87
 297 0050 1835     		adds	r5, r5, #24
 298 0052 A842     		cmp	r0, r5
 299 0054 36D0     		beq	.L17
 148:../../../lib/Drivers/STM32H7xx_HAL_Driver/Src/stm32h7xx_hal_dma_ex.c ****       {
 300              		.loc 1 148 10 discriminator 4 view .LVU88
 301 0056 1835     		adds	r5, r5, #24
 302 0058 A842     		cmp	r0, r5
 303 005a 33D0     		beq	.L17
 148:../../../lib/Drivers/STM32H7xx_HAL_Driver/Src/stm32h7xx_hal_dma_ex.c ****       {
 304              		.loc 1 148 10 discriminator 6 view .LVU89
 305 005c 1835     		adds	r5, r5, #24
 306 005e A842     		cmp	r0, r5
 307 0060 30D0     		beq	.L17
 148:../../../lib/Drivers/STM32H7xx_HAL_Driver/Src/stm32h7xx_hal_dma_ex.c ****       {
 308              		.loc 1 148 10 discriminator 8 view .LVU90
 309 0062 1835     		adds	r5, r5, #24
 310 0064 A842     		cmp	r0, r5
 311 0066 2DD0     		beq	.L17
 148:../../../lib/Drivers/STM32H7xx_HAL_Driver/Src/stm32h7xx_hal_dma_ex.c ****       {
 312              		.loc 1 148 10 discriminator 10 view .LVU91
 313 0068 1835     		adds	r5, r5, #24
 314 006a A842     		cmp	r0, r5
 315 006c 2AD0     		beq	.L17
 148:../../../lib/Drivers/STM32H7xx_HAL_Driver/Src/stm32h7xx_hal_dma_ex.c ****       {
 316              		.loc 1 148 10 discriminator 12 view .LVU92
 317 006e 1835     		adds	r5, r5, #24
 318 0070 A842     		cmp	r0, r5
 319 0072 27D0     		beq	.L17
 148:../../../lib/Drivers/STM32H7xx_HAL_Driver/Src/stm32h7xx_hal_dma_ex.c ****       {
 320              		.loc 1 148 10 discriminator 14 view .LVU93
 321 0074 05F55675 		add	r5, r5, #856
 322 0078 A842     		cmp	r0, r5
 323 007a 23D0     		beq	.L17
 148:../../../lib/Drivers/STM32H7xx_HAL_Driver/Src/stm32h7xx_hal_dma_ex.c ****       {
 324              		.loc 1 148 10 discriminator 16 view .LVU94
ARM GAS  C:\Users\tnguy\AppData\Local\Temp\ccH3JJU2.s 			page 20


 325 007c 1835     		adds	r5, r5, #24
 326 007e A842     		cmp	r0, r5
 327 0080 20D0     		beq	.L17
 148:../../../lib/Drivers/STM32H7xx_HAL_Driver/Src/stm32h7xx_hal_dma_ex.c ****       {
 328              		.loc 1 148 10 discriminator 18 view .LVU95
 329 0082 1835     		adds	r5, r5, #24
 330 0084 A842     		cmp	r0, r5
 331 0086 1DD0     		beq	.L17
 148:../../../lib/Drivers/STM32H7xx_HAL_Driver/Src/stm32h7xx_hal_dma_ex.c ****       {
 332              		.loc 1 148 10 discriminator 20 view .LVU96
 333 0088 1835     		adds	r5, r5, #24
 334 008a A842     		cmp	r0, r5
 335 008c 1AD0     		beq	.L17
 148:../../../lib/Drivers/STM32H7xx_HAL_Driver/Src/stm32h7xx_hal_dma_ex.c ****       {
 336              		.loc 1 148 10 discriminator 22 view .LVU97
 337 008e 1835     		adds	r5, r5, #24
 338 0090 A842     		cmp	r0, r5
 339 0092 17D0     		beq	.L17
 148:../../../lib/Drivers/STM32H7xx_HAL_Driver/Src/stm32h7xx_hal_dma_ex.c ****       {
 340              		.loc 1 148 10 discriminator 24 view .LVU98
 341 0094 1835     		adds	r5, r5, #24
 342 0096 A842     		cmp	r0, r5
 343 0098 14D0     		beq	.L17
 148:../../../lib/Drivers/STM32H7xx_HAL_Driver/Src/stm32h7xx_hal_dma_ex.c ****       {
 344              		.loc 1 148 10 discriminator 26 view .LVU99
 345 009a 1835     		adds	r5, r5, #24
 346 009c A842     		cmp	r0, r5
 347 009e 11D0     		beq	.L17
 148:../../../lib/Drivers/STM32H7xx_HAL_Driver/Src/stm32h7xx_hal_dma_ex.c ****       {
 348              		.loc 1 148 10 discriminator 28 view .LVU100
 349 00a0 1835     		adds	r5, r5, #24
 350 00a2 A842     		cmp	r0, r5
 351 00a4 0ED0     		beq	.L17
 165:../../../lib/Drivers/STM32H7xx_HAL_Driver/Src/stm32h7xx_hal_dma_ex.c **** 
 352              		.loc 1 165 9 is_stmt 1 view .LVU101
 165:../../../lib/Drivers/STM32H7xx_HAL_Driver/Src/stm32h7xx_hal_dma_ex.c **** 
 353              		.loc 1 165 57 is_stmt 0 view .LVU102
 354 00a6 0668     		ldr	r6, [r0]
 355 00a8 48F22005 		movw	r5, #32800
 356 00ac 3543     		orrs	r5, r5, r6
 357 00ae 0560     		str	r5, [r0]
 168:../../../lib/Drivers/STM32H7xx_HAL_Driver/Src/stm32h7xx_hal_dma_ex.c **** 
 358              		.loc 1 168 9 is_stmt 1 view .LVU103
 168:../../../lib/Drivers/STM32H7xx_HAL_Driver/Src/stm32h7xx_hal_dma_ex.c **** 
 359              		.loc 1 168 40 is_stmt 0 view .LVU104
 360 00b0 2068     		ldr	r0, [r4]
 168:../../../lib/Drivers/STM32H7xx_HAL_Driver/Src/stm32h7xx_hal_dma_ex.c **** 
 361              		.loc 1 168 59 view .LVU105
 362 00b2 0361     		str	r3, [r0, #16]
 171:../../../lib/Drivers/STM32H7xx_HAL_Driver/Src/stm32h7xx_hal_dma_ex.c **** 
 363              		.loc 1 171 9 is_stmt 1 view .LVU106
 171:../../../lib/Drivers/STM32H7xx_HAL_Driver/Src/stm32h7xx_hal_dma_ex.c **** 
 364              		.loc 1 171 56 is_stmt 0 view .LVU107
 365 00b4 A56D     		ldr	r5, [r4, #88]
 366              	.LVL20:
 174:../../../lib/Drivers/STM32H7xx_HAL_Driver/Src/stm32h7xx_hal_dma_ex.c ****       }
 367              		.loc 1 174 9 is_stmt 1 view .LVU108
ARM GAS  C:\Users\tnguy\AppData\Local\Temp\ccH3JJU2.s 			page 21


 174:../../../lib/Drivers/STM32H7xx_HAL_Driver/Src/stm32h7xx_hal_dma_ex.c ****       }
 368              		.loc 1 174 53 is_stmt 0 view .LVU109
 369 00b6 E36D     		ldr	r3, [r4, #92]
 370              	.LVL21:
 174:../../../lib/Drivers/STM32H7xx_HAL_Driver/Src/stm32h7xx_hal_dma_ex.c ****       }
 371              		.loc 1 174 67 view .LVU110
 372 00b8 03F01F00 		and	r0, r3, #31
 373              	.LVL22:
 174:../../../lib/Drivers/STM32H7xx_HAL_Driver/Src/stm32h7xx_hal_dma_ex.c ****       }
 374              		.loc 1 174 45 view .LVU111
 375 00bc 0123     		movs	r3, #1
 376 00be 8340     		lsls	r3, r3, r0
 174:../../../lib/Drivers/STM32H7xx_HAL_Driver/Src/stm32h7xx_hal_dma_ex.c ****       }
 377              		.loc 1 174 27 view .LVU112
 378 00c0 6B60     		str	r3, [r5, #4]
 379 00c2 0CE0     		b	.L18
 380              	.LVL23:
 381              	.L17:
 151:../../../lib/Drivers/STM32H7xx_HAL_Driver/Src/stm32h7xx_hal_dma_ex.c **** 
 382              		.loc 1 151 9 is_stmt 1 view .LVU113
 151:../../../lib/Drivers/STM32H7xx_HAL_Driver/Src/stm32h7xx_hal_dma_ex.c **** 
 383              		.loc 1 151 54 is_stmt 0 view .LVU114
 384 00c4 0568     		ldr	r5, [r0]
 385 00c6 45F48025 		orr	r5, r5, #262144
 386 00ca 0560     		str	r5, [r0]
 154:../../../lib/Drivers/STM32H7xx_HAL_Driver/Src/stm32h7xx_hal_dma_ex.c **** 
 387              		.loc 1 154 9 is_stmt 1 view .LVU115
 154:../../../lib/Drivers/STM32H7xx_HAL_Driver/Src/stm32h7xx_hal_dma_ex.c **** 
 388              		.loc 1 154 38 is_stmt 0 view .LVU116
 389 00cc 2068     		ldr	r0, [r4]
 154:../../../lib/Drivers/STM32H7xx_HAL_Driver/Src/stm32h7xx_hal_dma_ex.c **** 
 390              		.loc 1 154 56 view .LVU117
 391 00ce 0361     		str	r3, [r0, #16]
 157:../../../lib/Drivers/STM32H7xx_HAL_Driver/Src/stm32h7xx_hal_dma_ex.c **** 
 392              		.loc 1 157 9 is_stmt 1 view .LVU118
 157:../../../lib/Drivers/STM32H7xx_HAL_Driver/Src/stm32h7xx_hal_dma_ex.c **** 
 393              		.loc 1 157 56 is_stmt 0 view .LVU119
 394 00d0 A56D     		ldr	r5, [r4, #88]
 395              	.LVL24:
 160:../../../lib/Drivers/STM32H7xx_HAL_Driver/Src/stm32h7xx_hal_dma_ex.c ****       }
 396              		.loc 1 160 9 is_stmt 1 view .LVU120
 160:../../../lib/Drivers/STM32H7xx_HAL_Driver/Src/stm32h7xx_hal_dma_ex.c ****       }
 397              		.loc 1 160 44 is_stmt 0 view .LVU121
 398 00d2 E36D     		ldr	r3, [r4, #92]
 399              	.LVL25:
 160:../../../lib/Drivers/STM32H7xx_HAL_Driver/Src/stm32h7xx_hal_dma_ex.c ****       }
 400              		.loc 1 160 58 view .LVU122
 401 00d4 03F01F00 		and	r0, r3, #31
 402              	.LVL26:
 160:../../../lib/Drivers/STM32H7xx_HAL_Driver/Src/stm32h7xx_hal_dma_ex.c ****       }
 403              		.loc 1 160 36 view .LVU123
 404 00d8 3F23     		movs	r3, #63
 405 00da 8340     		lsls	r3, r3, r0
 160:../../../lib/Drivers/STM32H7xx_HAL_Driver/Src/stm32h7xx_hal_dma_ex.c ****       }
 406              		.loc 1 160 27 view .LVU124
 407 00dc AB60     		str	r3, [r5, #8]
 408              	.LVL27:
ARM GAS  C:\Users\tnguy\AppData\Local\Temp\ccH3JJU2.s 			page 22


 409              	.L18:
 177:../../../lib/Drivers/STM32H7xx_HAL_Driver/Src/stm32h7xx_hal_dma_ex.c ****       {
 410              		.loc 1 177 7 is_stmt 1 view .LVU125
 177:../../../lib/Drivers/STM32H7xx_HAL_Driver/Src/stm32h7xx_hal_dma_ex.c ****       {
 411              		.loc 1 177 10 is_stmt 0 view .LVU126
 412 00de 2368     		ldr	r3, [r4]
 413 00e0 4A4D     		ldr	r5, .L27
 414 00e2 4B48     		ldr	r0, .L27+4
 415 00e4 8342     		cmp	r3, r0
 416 00e6 18BF     		it	ne
 417 00e8 AB42     		cmpne	r3, r5
 418 00ea 42D0     		beq	.L19
 177:../../../lib/Drivers/STM32H7xx_HAL_Driver/Src/stm32h7xx_hal_dma_ex.c ****       {
 419              		.loc 1 177 10 discriminator 2 view .LVU127
 420 00ec 1830     		adds	r0, r0, #24
 421 00ee 8342     		cmp	r3, r0
 422 00f0 3FD0     		beq	.L19
 177:../../../lib/Drivers/STM32H7xx_HAL_Driver/Src/stm32h7xx_hal_dma_ex.c ****       {
 423              		.loc 1 177 10 discriminator 4 view .LVU128
 424 00f2 1830     		adds	r0, r0, #24
 425 00f4 8342     		cmp	r3, r0
 426 00f6 3CD0     		beq	.L19
 177:../../../lib/Drivers/STM32H7xx_HAL_Driver/Src/stm32h7xx_hal_dma_ex.c ****       {
 427              		.loc 1 177 10 discriminator 6 view .LVU129
 428 00f8 1830     		adds	r0, r0, #24
 429 00fa 8342     		cmp	r3, r0
 430 00fc 39D0     		beq	.L19
 177:../../../lib/Drivers/STM32H7xx_HAL_Driver/Src/stm32h7xx_hal_dma_ex.c ****       {
 431              		.loc 1 177 10 discriminator 8 view .LVU130
 432 00fe 1830     		adds	r0, r0, #24
 433 0100 8342     		cmp	r3, r0
 434 0102 36D0     		beq	.L19
 177:../../../lib/Drivers/STM32H7xx_HAL_Driver/Src/stm32h7xx_hal_dma_ex.c ****       {
 435              		.loc 1 177 10 discriminator 10 view .LVU131
 436 0104 1830     		adds	r0, r0, #24
 437 0106 8342     		cmp	r3, r0
 438 0108 33D0     		beq	.L19
 177:../../../lib/Drivers/STM32H7xx_HAL_Driver/Src/stm32h7xx_hal_dma_ex.c ****       {
 439              		.loc 1 177 10 discriminator 12 view .LVU132
 440 010a 1830     		adds	r0, r0, #24
 441 010c 8342     		cmp	r3, r0
 442 010e 30D0     		beq	.L19
 177:../../../lib/Drivers/STM32H7xx_HAL_Driver/Src/stm32h7xx_hal_dma_ex.c ****       {
 443              		.loc 1 177 10 discriminator 14 view .LVU133
 444 0110 00F55670 		add	r0, r0, #856
 445 0114 8342     		cmp	r3, r0
 446 0116 2CD0     		beq	.L19
 177:../../../lib/Drivers/STM32H7xx_HAL_Driver/Src/stm32h7xx_hal_dma_ex.c ****       {
 447              		.loc 1 177 10 discriminator 16 view .LVU134
 448 0118 1830     		adds	r0, r0, #24
 449 011a 8342     		cmp	r3, r0
 450 011c 29D0     		beq	.L19
 177:../../../lib/Drivers/STM32H7xx_HAL_Driver/Src/stm32h7xx_hal_dma_ex.c ****       {
 451              		.loc 1 177 10 discriminator 18 view .LVU135
 452 011e 1830     		adds	r0, r0, #24
 453 0120 8342     		cmp	r3, r0
 454 0122 26D0     		beq	.L19
ARM GAS  C:\Users\tnguy\AppData\Local\Temp\ccH3JJU2.s 			page 23


 177:../../../lib/Drivers/STM32H7xx_HAL_Driver/Src/stm32h7xx_hal_dma_ex.c ****       {
 455              		.loc 1 177 10 discriminator 20 view .LVU136
 456 0124 1830     		adds	r0, r0, #24
 457 0126 8342     		cmp	r3, r0
 458 0128 23D0     		beq	.L19
 177:../../../lib/Drivers/STM32H7xx_HAL_Driver/Src/stm32h7xx_hal_dma_ex.c ****       {
 459              		.loc 1 177 10 discriminator 22 view .LVU137
 460 012a 1830     		adds	r0, r0, #24
 461 012c 8342     		cmp	r3, r0
 462 012e 20D0     		beq	.L19
 177:../../../lib/Drivers/STM32H7xx_HAL_Driver/Src/stm32h7xx_hal_dma_ex.c ****       {
 463              		.loc 1 177 10 discriminator 24 view .LVU138
 464 0130 1830     		adds	r0, r0, #24
 465 0132 8342     		cmp	r3, r0
 466 0134 1DD0     		beq	.L19
 177:../../../lib/Drivers/STM32H7xx_HAL_Driver/Src/stm32h7xx_hal_dma_ex.c ****       {
 467              		.loc 1 177 10 discriminator 26 view .LVU139
 468 0136 1830     		adds	r0, r0, #24
 469 0138 8342     		cmp	r3, r0
 470 013a 1AD0     		beq	.L19
 177:../../../lib/Drivers/STM32H7xx_HAL_Driver/Src/stm32h7xx_hal_dma_ex.c ****       {
 471              		.loc 1 177 10 discriminator 28 view .LVU140
 472 013c 1830     		adds	r0, r0, #24
 473 013e 8342     		cmp	r3, r0
 474 0140 17D0     		beq	.L19
 177:../../../lib/Drivers/STM32H7xx_HAL_Driver/Src/stm32h7xx_hal_dma_ex.c ****       {
 475              		.loc 1 177 10 discriminator 30 view .LVU141
 476 0142 3448     		ldr	r0, .L27+8
 477 0144 8342     		cmp	r3, r0
 478 0146 14D0     		beq	.L19
 177:../../../lib/Drivers/STM32H7xx_HAL_Driver/Src/stm32h7xx_hal_dma_ex.c ****       {
 479              		.loc 1 177 10 discriminator 32 view .LVU142
 480 0148 1430     		adds	r0, r0, #20
 481 014a 8342     		cmp	r3, r0
 482 014c 11D0     		beq	.L19
 177:../../../lib/Drivers/STM32H7xx_HAL_Driver/Src/stm32h7xx_hal_dma_ex.c ****       {
 483              		.loc 1 177 10 discriminator 34 view .LVU143
 484 014e 1430     		adds	r0, r0, #20
 485 0150 8342     		cmp	r3, r0
 486 0152 0ED0     		beq	.L19
 177:../../../lib/Drivers/STM32H7xx_HAL_Driver/Src/stm32h7xx_hal_dma_ex.c ****       {
 487              		.loc 1 177 10 discriminator 36 view .LVU144
 488 0154 1430     		adds	r0, r0, #20
 489 0156 8342     		cmp	r3, r0
 490 0158 0BD0     		beq	.L19
 177:../../../lib/Drivers/STM32H7xx_HAL_Driver/Src/stm32h7xx_hal_dma_ex.c ****       {
 491              		.loc 1 177 10 discriminator 38 view .LVU145
 492 015a 1430     		adds	r0, r0, #20
 493 015c 8342     		cmp	r3, r0
 494 015e 08D0     		beq	.L19
 177:../../../lib/Drivers/STM32H7xx_HAL_Driver/Src/stm32h7xx_hal_dma_ex.c ****       {
 495              		.loc 1 177 10 discriminator 40 view .LVU146
 496 0160 1430     		adds	r0, r0, #20
 497 0162 8342     		cmp	r3, r0
 498 0164 05D0     		beq	.L19
 177:../../../lib/Drivers/STM32H7xx_HAL_Driver/Src/stm32h7xx_hal_dma_ex.c ****       {
 499              		.loc 1 177 10 discriminator 42 view .LVU147
ARM GAS  C:\Users\tnguy\AppData\Local\Temp\ccH3JJU2.s 			page 24


 500 0166 1430     		adds	r0, r0, #20
 501 0168 8342     		cmp	r3, r0
 502 016a 02D0     		beq	.L19
 177:../../../lib/Drivers/STM32H7xx_HAL_Driver/Src/stm32h7xx_hal_dma_ex.c ****       {
 503              		.loc 1 177 10 discriminator 44 view .LVU148
 504 016c 1430     		adds	r0, r0, #20
 505 016e 8342     		cmp	r3, r0
 506 0170 0BD1     		bne	.L20
 507              	.L19:
 180:../../../lib/Drivers/STM32H7xx_HAL_Driver/Src/stm32h7xx_hal_dma_ex.c **** 
 508              		.loc 1 180 9 is_stmt 1 view .LVU149
 509 0172 049B     		ldr	r3, [sp, #16]
 510 0174 2046     		mov	r0, r4
 511 0176 FFF7FEFF 		bl	DMA_MultiBufferSetConfig
 512              	.LVL28:
 183:../../../lib/Drivers/STM32H7xx_HAL_Driver/Src/stm32h7xx_hal_dma_ex.c **** 
 513              		.loc 1 183 9 view .LVU150
 183:../../../lib/Drivers/STM32H7xx_HAL_Driver/Src/stm32h7xx_hal_dma_ex.c **** 
 514              		.loc 1 183 13 is_stmt 0 view .LVU151
 515 017a 636E     		ldr	r3, [r4, #100]
 183:../../../lib/Drivers/STM32H7xx_HAL_Driver/Src/stm32h7xx_hal_dma_ex.c **** 
 516              		.loc 1 183 46 view .LVU152
 517 017c A26E     		ldr	r2, [r4, #104]
 183:../../../lib/Drivers/STM32H7xx_HAL_Driver/Src/stm32h7xx_hal_dma_ex.c **** 
 518              		.loc 1 183 40 view .LVU153
 519 017e 5A60     		str	r2, [r3, #4]
 185:../../../lib/Drivers/STM32H7xx_HAL_Driver/Src/stm32h7xx_hal_dma_ex.c ****         {
 520              		.loc 1 185 9 is_stmt 1 view .LVU154
 185:../../../lib/Drivers/STM32H7xx_HAL_Driver/Src/stm32h7xx_hal_dma_ex.c ****         {
 521              		.loc 1 185 16 is_stmt 0 view .LVU155
 522 0180 E36E     		ldr	r3, [r4, #108]
 185:../../../lib/Drivers/STM32H7xx_HAL_Driver/Src/stm32h7xx_hal_dma_ex.c ****         {
 523              		.loc 1 185 11 view .LVU156
 524 0182 13B1     		cbz	r3, .L20
 188:../../../lib/Drivers/STM32H7xx_HAL_Driver/Src/stm32h7xx_hal_dma_ex.c ****         }
 525              		.loc 1 188 11 is_stmt 1 view .LVU157
 188:../../../lib/Drivers/STM32H7xx_HAL_Driver/Src/stm32h7xx_hal_dma_ex.c ****         }
 526              		.loc 1 188 15 is_stmt 0 view .LVU158
 527 0184 236F     		ldr	r3, [r4, #112]
 188:../../../lib/Drivers/STM32H7xx_HAL_Driver/Src/stm32h7xx_hal_dma_ex.c ****         }
 528              		.loc 1 188 53 view .LVU159
 529 0186 626F     		ldr	r2, [r4, #116]
 188:../../../lib/Drivers/STM32H7xx_HAL_Driver/Src/stm32h7xx_hal_dma_ex.c ****         }
 530              		.loc 1 188 47 view .LVU160
 531 0188 5A60     		str	r2, [r3, #4]
 532              	.L20:
 193:../../../lib/Drivers/STM32H7xx_HAL_Driver/Src/stm32h7xx_hal_dma_ex.c ****     }
 533              		.loc 1 193 7 is_stmt 1 view .LVU161
 534 018a 2368     		ldr	r3, [r4]
 535 018c 1F49     		ldr	r1, .L27
 536 018e 204A     		ldr	r2, .L27+4
 537 0190 9342     		cmp	r3, r2
 538 0192 18BF     		it	ne
 539 0194 8B42     		cmpne	r3, r1
 540 0196 30D0     		beq	.L21
 193:../../../lib/Drivers/STM32H7xx_HAL_Driver/Src/stm32h7xx_hal_dma_ex.c ****     }
 541              		.loc 1 193 7 is_stmt 0 discriminator 2 view .LVU162
ARM GAS  C:\Users\tnguy\AppData\Local\Temp\ccH3JJU2.s 			page 25


 542 0198 1832     		adds	r2, r2, #24
 543 019a 9342     		cmp	r3, r2
 544 019c 2DD0     		beq	.L21
 193:../../../lib/Drivers/STM32H7xx_HAL_Driver/Src/stm32h7xx_hal_dma_ex.c ****     }
 545              		.loc 1 193 7 discriminator 4 view .LVU163
 546 019e 1832     		adds	r2, r2, #24
 547 01a0 9342     		cmp	r3, r2
 548 01a2 2AD0     		beq	.L21
 193:../../../lib/Drivers/STM32H7xx_HAL_Driver/Src/stm32h7xx_hal_dma_ex.c ****     }
 549              		.loc 1 193 7 discriminator 6 view .LVU164
 550 01a4 1832     		adds	r2, r2, #24
 551 01a6 9342     		cmp	r3, r2
 552 01a8 27D0     		beq	.L21
 193:../../../lib/Drivers/STM32H7xx_HAL_Driver/Src/stm32h7xx_hal_dma_ex.c ****     }
 553              		.loc 1 193 7 discriminator 8 view .LVU165
 554 01aa 1832     		adds	r2, r2, #24
 555 01ac 9342     		cmp	r3, r2
 556 01ae 24D0     		beq	.L21
 193:../../../lib/Drivers/STM32H7xx_HAL_Driver/Src/stm32h7xx_hal_dma_ex.c ****     }
 557              		.loc 1 193 7 discriminator 10 view .LVU166
 558 01b0 1832     		adds	r2, r2, #24
 559 01b2 9342     		cmp	r3, r2
 560 01b4 21D0     		beq	.L21
 193:../../../lib/Drivers/STM32H7xx_HAL_Driver/Src/stm32h7xx_hal_dma_ex.c ****     }
 561              		.loc 1 193 7 discriminator 12 view .LVU167
 562 01b6 1832     		adds	r2, r2, #24
 563 01b8 9342     		cmp	r3, r2
 564 01ba 1ED0     		beq	.L21
 193:../../../lib/Drivers/STM32H7xx_HAL_Driver/Src/stm32h7xx_hal_dma_ex.c ****     }
 565              		.loc 1 193 7 discriminator 14 view .LVU168
 566 01bc 02F55672 		add	r2, r2, #856
 567 01c0 9342     		cmp	r3, r2
 568 01c2 1AD0     		beq	.L21
 193:../../../lib/Drivers/STM32H7xx_HAL_Driver/Src/stm32h7xx_hal_dma_ex.c ****     }
 569              		.loc 1 193 7 discriminator 16 view .LVU169
 570 01c4 1832     		adds	r2, r2, #24
 571 01c6 9342     		cmp	r3, r2
 572 01c8 17D0     		beq	.L21
 193:../../../lib/Drivers/STM32H7xx_HAL_Driver/Src/stm32h7xx_hal_dma_ex.c ****     }
 573              		.loc 1 193 7 discriminator 18 view .LVU170
 574 01ca 1832     		adds	r2, r2, #24
 575 01cc 9342     		cmp	r3, r2
 576 01ce 14D0     		beq	.L21
 193:../../../lib/Drivers/STM32H7xx_HAL_Driver/Src/stm32h7xx_hal_dma_ex.c ****     }
 577              		.loc 1 193 7 discriminator 20 view .LVU171
 578 01d0 1832     		adds	r2, r2, #24
 579 01d2 9342     		cmp	r3, r2
 580 01d4 11D0     		beq	.L21
 193:../../../lib/Drivers/STM32H7xx_HAL_Driver/Src/stm32h7xx_hal_dma_ex.c ****     }
 581              		.loc 1 193 7 discriminator 22 view .LVU172
 582 01d6 1832     		adds	r2, r2, #24
 583 01d8 9342     		cmp	r3, r2
 584 01da 0ED0     		beq	.L21
 193:../../../lib/Drivers/STM32H7xx_HAL_Driver/Src/stm32h7xx_hal_dma_ex.c ****     }
 585              		.loc 1 193 7 discriminator 24 view .LVU173
 586 01dc 1832     		adds	r2, r2, #24
 587 01de 9342     		cmp	r3, r2
ARM GAS  C:\Users\tnguy\AppData\Local\Temp\ccH3JJU2.s 			page 26


 588 01e0 0BD0     		beq	.L21
 193:../../../lib/Drivers/STM32H7xx_HAL_Driver/Src/stm32h7xx_hal_dma_ex.c ****     }
 589              		.loc 1 193 7 discriminator 26 view .LVU174
 590 01e2 1832     		adds	r2, r2, #24
 591 01e4 9342     		cmp	r3, r2
 592 01e6 08D0     		beq	.L21
 193:../../../lib/Drivers/STM32H7xx_HAL_Driver/Src/stm32h7xx_hal_dma_ex.c ****     }
 593              		.loc 1 193 7 discriminator 28 view .LVU175
 594 01e8 1832     		adds	r2, r2, #24
 595 01ea 9342     		cmp	r3, r2
 596 01ec 05D0     		beq	.L21
 193:../../../lib/Drivers/STM32H7xx_HAL_Driver/Src/stm32h7xx_hal_dma_ex.c ****     }
 597              		.loc 1 193 7 discriminator 30 view .LVU176
 598 01ee 1A68     		ldr	r2, [r3]
 599 01f0 42F00102 		orr	r2, r2, #1
 600 01f4 1A60     		str	r2, [r3]
 122:../../../lib/Drivers/STM32H7xx_HAL_Driver/Src/stm32h7xx_hal_dma_ex.c ****   __IO uint32_t *ifcRegister_Base; /* DMA Stream Interrupt Clear register */
 601              		.loc 1 122 21 discriminator 30 view .LVU177
 602 01f6 0020     		movs	r0, #0
 603 01f8 18E7     		b	.L15
 604              	.L21:
 193:../../../lib/Drivers/STM32H7xx_HAL_Driver/Src/stm32h7xx_hal_dma_ex.c ****     }
 605              		.loc 1 193 7 discriminator 29 view .LVU178
 606 01fa 1A68     		ldr	r2, [r3]
 607 01fc 42F00102 		orr	r2, r2, #1
 608 0200 1A60     		str	r2, [r3]
 122:../../../lib/Drivers/STM32H7xx_HAL_Driver/Src/stm32h7xx_hal_dma_ex.c ****   __IO uint32_t *ifcRegister_Base; /* DMA Stream Interrupt Clear register */
 609              		.loc 1 122 21 discriminator 29 view .LVU179
 610 0202 0020     		movs	r0, #0
 193:../../../lib/Drivers/STM32H7xx_HAL_Driver/Src/stm32h7xx_hal_dma_ex.c ****     }
 611              		.loc 1 193 7 discriminator 29 view .LVU180
 612 0204 12E7     		b	.L15
 613              	.LVL29:
 614              	.L23:
 138:../../../lib/Drivers/STM32H7xx_HAL_Driver/Src/stm32h7xx_hal_dma_ex.c **** 
 615              		.loc 1 138 5 view .LVU181
 616 0206 0220     		movs	r0, #2
 617 0208 10E7     		b	.L15
 618              	.L28:
 619 020a 00BF     		.align	2
 620              	.L27:
 621 020c 10000240 		.word	1073872912
 622 0210 28000240 		.word	1073872936
 623 0214 08540258 		.word	1476547592
 624              		.cfi_endproc
 625              	.LFE144:
 627              		.section	.text.HAL_DMAEx_MultiBufferStart_IT,"ax",%progbits
 628              		.align	1
 629              		.global	HAL_DMAEx_MultiBufferStart_IT
 630              		.syntax unified
 631              		.thumb
 632              		.thumb_func
 634              	HAL_DMAEx_MultiBufferStart_IT:
 635              	.LVL30:
 636              	.LFB145:
 218:../../../lib/Drivers/STM32H7xx_HAL_Driver/Src/stm32h7xx_hal_dma_ex.c ****   HAL_StatusTypeDef status = HAL_OK;
 637              		.loc 1 218 1 is_stmt 1 view -0
ARM GAS  C:\Users\tnguy\AppData\Local\Temp\ccH3JJU2.s 			page 27


 638              		.cfi_startproc
 639              		@ args = 4, pretend = 0, frame = 0
 640              		@ frame_needed = 0, uses_anonymous_args = 0
 218:../../../lib/Drivers/STM32H7xx_HAL_Driver/Src/stm32h7xx_hal_dma_ex.c ****   HAL_StatusTypeDef status = HAL_OK;
 641              		.loc 1 218 1 is_stmt 0 view .LVU183
 642 0000 70B5     		push	{r4, r5, r6, lr}
 643              	.LCFI4:
 644              		.cfi_def_cfa_offset 16
 645              		.cfi_offset 4, -16
 646              		.cfi_offset 5, -12
 647              		.cfi_offset 6, -8
 648              		.cfi_offset 14, -4
 649 0002 0446     		mov	r4, r0
 219:../../../lib/Drivers/STM32H7xx_HAL_Driver/Src/stm32h7xx_hal_dma_ex.c ****   __IO uint32_t *ifcRegister_Base; /* DMA Stream Interrupt Clear register */
 650              		.loc 1 219 3 is_stmt 1 view .LVU184
 651              	.LVL31:
 220:../../../lib/Drivers/STM32H7xx_HAL_Driver/Src/stm32h7xx_hal_dma_ex.c **** 
 652              		.loc 1 220 3 view .LVU185
 223:../../../lib/Drivers/STM32H7xx_HAL_Driver/Src/stm32h7xx_hal_dma_ex.c ****   assert_param(IS_DMA_ALL_INSTANCE(hdma->Instance));
 653              		.loc 1 223 3 view .LVU186
 224:../../../lib/Drivers/STM32H7xx_HAL_Driver/Src/stm32h7xx_hal_dma_ex.c **** 
 654              		.loc 1 224 3 view .LVU187
 227:../../../lib/Drivers/STM32H7xx_HAL_Driver/Src/stm32h7xx_hal_dma_ex.c ****   {
 655              		.loc 1 227 3 view .LVU188
 227:../../../lib/Drivers/STM32H7xx_HAL_Driver/Src/stm32h7xx_hal_dma_ex.c ****   {
 656              		.loc 1 227 16 is_stmt 0 view .LVU189
 657 0004 8068     		ldr	r0, [r0, #8]
 658              	.LVL32:
 227:../../../lib/Drivers/STM32H7xx_HAL_Driver/Src/stm32h7xx_hal_dma_ex.c ****   {
 659              		.loc 1 227 5 view .LVU190
 660 0006 8028     		cmp	r0, #128
 661 0008 11D0     		beq	.L50
 234:../../../lib/Drivers/STM32H7xx_HAL_Driver/Src/stm32h7xx_hal_dma_ex.c **** 
 662              		.loc 1 234 3 is_stmt 1 view .LVU191
 234:../../../lib/Drivers/STM32H7xx_HAL_Driver/Src/stm32h7xx_hal_dma_ex.c **** 
 663              		.loc 1 234 3 view .LVU192
 664 000a 94F83400 		ldrb	r0, [r4, #52]	@ zero_extendqisi2
 665 000e 0128     		cmp	r0, #1
 666 0010 00F0B981 		beq	.L47
 234:../../../lib/Drivers/STM32H7xx_HAL_Driver/Src/stm32h7xx_hal_dma_ex.c **** 
 667              		.loc 1 234 3 discriminator 2 view .LVU193
 668 0014 0120     		movs	r0, #1
 669 0016 84F83400 		strb	r0, [r4, #52]
 234:../../../lib/Drivers/STM32H7xx_HAL_Driver/Src/stm32h7xx_hal_dma_ex.c **** 
 670              		.loc 1 234 3 discriminator 2 view .LVU194
 236:../../../lib/Drivers/STM32H7xx_HAL_Driver/Src/stm32h7xx_hal_dma_ex.c ****   {
 671              		.loc 1 236 3 discriminator 2 view .LVU195
 236:../../../lib/Drivers/STM32H7xx_HAL_Driver/Src/stm32h7xx_hal_dma_ex.c ****   {
 672              		.loc 1 236 33 is_stmt 0 discriminator 2 view .LVU196
 673 001a 94F83500 		ldrb	r0, [r4, #53]	@ zero_extendqisi2
 674 001e C0B2     		uxtb	r0, r0
 236:../../../lib/Drivers/STM32H7xx_HAL_Driver/Src/stm32h7xx_hal_dma_ex.c ****   {
 675              		.loc 1 236 5 discriminator 2 view .LVU197
 676 0020 0128     		cmp	r0, #1
 677 0022 09D0     		beq	.L51
 335:../../../lib/Drivers/STM32H7xx_HAL_Driver/Src/stm32h7xx_hal_dma_ex.c **** 
 678              		.loc 1 335 5 is_stmt 1 view .LVU198
ARM GAS  C:\Users\tnguy\AppData\Local\Temp\ccH3JJU2.s 			page 28


 335:../../../lib/Drivers/STM32H7xx_HAL_Driver/Src/stm32h7xx_hal_dma_ex.c **** 
 679              		.loc 1 335 21 is_stmt 0 view .LVU199
 680 0024 4FF40063 		mov	r3, #2048
 681              	.LVL33:
 335:../../../lib/Drivers/STM32H7xx_HAL_Driver/Src/stm32h7xx_hal_dma_ex.c **** 
 682              		.loc 1 335 21 view .LVU200
 683 0028 6365     		str	r3, [r4, #84]
 338:../../../lib/Drivers/STM32H7xx_HAL_Driver/Src/stm32h7xx_hal_dma_ex.c ****   }
 684              		.loc 1 338 5 is_stmt 1 view .LVU201
 685              	.LVL34:
 338:../../../lib/Drivers/STM32H7xx_HAL_Driver/Src/stm32h7xx_hal_dma_ex.c ****   }
 686              		.loc 1 338 12 is_stmt 0 view .LVU202
 687 002a 0120     		movs	r0, #1
 688              	.LVL35:
 689              	.L31:
 341:../../../lib/Drivers/STM32H7xx_HAL_Driver/Src/stm32h7xx_hal_dma_ex.c **** 
 690              		.loc 1 341 1 view .LVU203
 691 002c 70BD     		pop	{r4, r5, r6, pc}
 692              	.LVL36:
 693              	.L50:
 229:../../../lib/Drivers/STM32H7xx_HAL_Driver/Src/stm32h7xx_hal_dma_ex.c ****     return HAL_ERROR;
 694              		.loc 1 229 5 is_stmt 1 view .LVU204
 229:../../../lib/Drivers/STM32H7xx_HAL_Driver/Src/stm32h7xx_hal_dma_ex.c ****     return HAL_ERROR;
 695              		.loc 1 229 21 is_stmt 0 view .LVU205
 696 002e 4FF48073 		mov	r3, #256
 697              	.LVL37:
 229:../../../lib/Drivers/STM32H7xx_HAL_Driver/Src/stm32h7xx_hal_dma_ex.c ****     return HAL_ERROR;
 698              		.loc 1 229 21 view .LVU206
 699 0032 6365     		str	r3, [r4, #84]
 230:../../../lib/Drivers/STM32H7xx_HAL_Driver/Src/stm32h7xx_hal_dma_ex.c ****   }
 700              		.loc 1 230 5 is_stmt 1 view .LVU207
 230:../../../lib/Drivers/STM32H7xx_HAL_Driver/Src/stm32h7xx_hal_dma_ex.c ****   }
 701              		.loc 1 230 12 is_stmt 0 view .LVU208
 702 0034 0120     		movs	r0, #1
 703 0036 F9E7     		b	.L31
 704              	.LVL38:
 705              	.L51:
 239:../../../lib/Drivers/STM32H7xx_HAL_Driver/Src/stm32h7xx_hal_dma_ex.c **** 
 706              		.loc 1 239 5 is_stmt 1 view .LVU209
 239:../../../lib/Drivers/STM32H7xx_HAL_Driver/Src/stm32h7xx_hal_dma_ex.c **** 
 707              		.loc 1 239 17 is_stmt 0 view .LVU210
 708 0038 0220     		movs	r0, #2
 709 003a 84F83500 		strb	r0, [r4, #53]
 242:../../../lib/Drivers/STM32H7xx_HAL_Driver/Src/stm32h7xx_hal_dma_ex.c **** 
 710              		.loc 1 242 5 is_stmt 1 view .LVU211
 242:../../../lib/Drivers/STM32H7xx_HAL_Driver/Src/stm32h7xx_hal_dma_ex.c **** 
 711              		.loc 1 242 21 is_stmt 0 view .LVU212
 712 003e 0020     		movs	r0, #0
 713 0040 6065     		str	r0, [r4, #84]
 244:../../../lib/Drivers/STM32H7xx_HAL_Driver/Src/stm32h7xx_hal_dma_ex.c ****     {
 714              		.loc 1 244 5 is_stmt 1 view .LVU213
 244:../../../lib/Drivers/STM32H7xx_HAL_Driver/Src/stm32h7xx_hal_dma_ex.c ****     {
 715              		.loc 1 244 8 is_stmt 0 view .LVU214
 716 0042 2068     		ldr	r0, [r4]
 717 0044 724E     		ldr	r6, .L54
 718 0046 734D     		ldr	r5, .L54+4
 719 0048 A842     		cmp	r0, r5
ARM GAS  C:\Users\tnguy\AppData\Local\Temp\ccH3JJU2.s 			page 29


 720 004a 18BF     		it	ne
 721 004c B042     		cmpne	r0, r6
 722 004e 39D0     		beq	.L33
 244:../../../lib/Drivers/STM32H7xx_HAL_Driver/Src/stm32h7xx_hal_dma_ex.c ****     {
 723              		.loc 1 244 8 discriminator 2 view .LVU215
 724 0050 1835     		adds	r5, r5, #24
 725 0052 A842     		cmp	r0, r5
 726 0054 36D0     		beq	.L33
 244:../../../lib/Drivers/STM32H7xx_HAL_Driver/Src/stm32h7xx_hal_dma_ex.c ****     {
 727              		.loc 1 244 8 discriminator 4 view .LVU216
 728 0056 1835     		adds	r5, r5, #24
 729 0058 A842     		cmp	r0, r5
 730 005a 33D0     		beq	.L33
 244:../../../lib/Drivers/STM32H7xx_HAL_Driver/Src/stm32h7xx_hal_dma_ex.c ****     {
 731              		.loc 1 244 8 discriminator 6 view .LVU217
 732 005c 1835     		adds	r5, r5, #24
 733 005e A842     		cmp	r0, r5
 734 0060 30D0     		beq	.L33
 244:../../../lib/Drivers/STM32H7xx_HAL_Driver/Src/stm32h7xx_hal_dma_ex.c ****     {
 735              		.loc 1 244 8 discriminator 8 view .LVU218
 736 0062 1835     		adds	r5, r5, #24
 737 0064 A842     		cmp	r0, r5
 738 0066 2DD0     		beq	.L33
 244:../../../lib/Drivers/STM32H7xx_HAL_Driver/Src/stm32h7xx_hal_dma_ex.c ****     {
 739              		.loc 1 244 8 discriminator 10 view .LVU219
 740 0068 1835     		adds	r5, r5, #24
 741 006a A842     		cmp	r0, r5
 742 006c 2AD0     		beq	.L33
 244:../../../lib/Drivers/STM32H7xx_HAL_Driver/Src/stm32h7xx_hal_dma_ex.c ****     {
 743              		.loc 1 244 8 discriminator 12 view .LVU220
 744 006e 1835     		adds	r5, r5, #24
 745 0070 A842     		cmp	r0, r5
 746 0072 27D0     		beq	.L33
 244:../../../lib/Drivers/STM32H7xx_HAL_Driver/Src/stm32h7xx_hal_dma_ex.c ****     {
 747              		.loc 1 244 8 discriminator 14 view .LVU221
 748 0074 05F55675 		add	r5, r5, #856
 749 0078 A842     		cmp	r0, r5
 750 007a 23D0     		beq	.L33
 244:../../../lib/Drivers/STM32H7xx_HAL_Driver/Src/stm32h7xx_hal_dma_ex.c ****     {
 751              		.loc 1 244 8 discriminator 16 view .LVU222
 752 007c 1835     		adds	r5, r5, #24
 753 007e A842     		cmp	r0, r5
 754 0080 20D0     		beq	.L33
 244:../../../lib/Drivers/STM32H7xx_HAL_Driver/Src/stm32h7xx_hal_dma_ex.c ****     {
 755              		.loc 1 244 8 discriminator 18 view .LVU223
 756 0082 1835     		adds	r5, r5, #24
 757 0084 A842     		cmp	r0, r5
 758 0086 1DD0     		beq	.L33
 244:../../../lib/Drivers/STM32H7xx_HAL_Driver/Src/stm32h7xx_hal_dma_ex.c ****     {
 759              		.loc 1 244 8 discriminator 20 view .LVU224
 760 0088 1835     		adds	r5, r5, #24
 761 008a A842     		cmp	r0, r5
 762 008c 1AD0     		beq	.L33
 244:../../../lib/Drivers/STM32H7xx_HAL_Driver/Src/stm32h7xx_hal_dma_ex.c ****     {
 763              		.loc 1 244 8 discriminator 22 view .LVU225
 764 008e 1835     		adds	r5, r5, #24
 765 0090 A842     		cmp	r0, r5
ARM GAS  C:\Users\tnguy\AppData\Local\Temp\ccH3JJU2.s 			page 30


 766 0092 17D0     		beq	.L33
 244:../../../lib/Drivers/STM32H7xx_HAL_Driver/Src/stm32h7xx_hal_dma_ex.c ****     {
 767              		.loc 1 244 8 discriminator 24 view .LVU226
 768 0094 1835     		adds	r5, r5, #24
 769 0096 A842     		cmp	r0, r5
 770 0098 14D0     		beq	.L33
 244:../../../lib/Drivers/STM32H7xx_HAL_Driver/Src/stm32h7xx_hal_dma_ex.c ****     {
 771              		.loc 1 244 8 discriminator 26 view .LVU227
 772 009a 1835     		adds	r5, r5, #24
 773 009c A842     		cmp	r0, r5
 774 009e 11D0     		beq	.L33
 244:../../../lib/Drivers/STM32H7xx_HAL_Driver/Src/stm32h7xx_hal_dma_ex.c ****     {
 775              		.loc 1 244 8 discriminator 28 view .LVU228
 776 00a0 1835     		adds	r5, r5, #24
 777 00a2 A842     		cmp	r0, r5
 778 00a4 0ED0     		beq	.L33
 261:../../../lib/Drivers/STM32H7xx_HAL_Driver/Src/stm32h7xx_hal_dma_ex.c **** 
 779              		.loc 1 261 7 is_stmt 1 view .LVU229
 261:../../../lib/Drivers/STM32H7xx_HAL_Driver/Src/stm32h7xx_hal_dma_ex.c **** 
 780              		.loc 1 261 55 is_stmt 0 view .LVU230
 781 00a6 0668     		ldr	r6, [r0]
 782 00a8 48F22005 		movw	r5, #32800
 783 00ac 3543     		orrs	r5, r5, r6
 784 00ae 0560     		str	r5, [r0]
 264:../../../lib/Drivers/STM32H7xx_HAL_Driver/Src/stm32h7xx_hal_dma_ex.c **** 
 785              		.loc 1 264 7 is_stmt 1 view .LVU231
 264:../../../lib/Drivers/STM32H7xx_HAL_Driver/Src/stm32h7xx_hal_dma_ex.c **** 
 786              		.loc 1 264 38 is_stmt 0 view .LVU232
 787 00b0 2068     		ldr	r0, [r4]
 264:../../../lib/Drivers/STM32H7xx_HAL_Driver/Src/stm32h7xx_hal_dma_ex.c **** 
 788              		.loc 1 264 57 view .LVU233
 789 00b2 0361     		str	r3, [r0, #16]
 267:../../../lib/Drivers/STM32H7xx_HAL_Driver/Src/stm32h7xx_hal_dma_ex.c **** 
 790              		.loc 1 267 7 is_stmt 1 view .LVU234
 267:../../../lib/Drivers/STM32H7xx_HAL_Driver/Src/stm32h7xx_hal_dma_ex.c **** 
 791              		.loc 1 267 54 is_stmt 0 view .LVU235
 792 00b4 A56D     		ldr	r5, [r4, #88]
 793              	.LVL39:
 270:../../../lib/Drivers/STM32H7xx_HAL_Driver/Src/stm32h7xx_hal_dma_ex.c ****     }
 794              		.loc 1 270 7 is_stmt 1 view .LVU236
 270:../../../lib/Drivers/STM32H7xx_HAL_Driver/Src/stm32h7xx_hal_dma_ex.c ****     }
 795              		.loc 1 270 51 is_stmt 0 view .LVU237
 796 00b6 E36D     		ldr	r3, [r4, #92]
 797              	.LVL40:
 270:../../../lib/Drivers/STM32H7xx_HAL_Driver/Src/stm32h7xx_hal_dma_ex.c ****     }
 798              		.loc 1 270 65 view .LVU238
 799 00b8 03F01F00 		and	r0, r3, #31
 800              	.LVL41:
 270:../../../lib/Drivers/STM32H7xx_HAL_Driver/Src/stm32h7xx_hal_dma_ex.c ****     }
 801              		.loc 1 270 43 view .LVU239
 802 00bc 0123     		movs	r3, #1
 803 00be 8340     		lsls	r3, r3, r0
 270:../../../lib/Drivers/STM32H7xx_HAL_Driver/Src/stm32h7xx_hal_dma_ex.c ****     }
 804              		.loc 1 270 25 view .LVU240
 805 00c0 6B60     		str	r3, [r5, #4]
 806 00c2 0CE0     		b	.L34
 807              	.LVL42:
ARM GAS  C:\Users\tnguy\AppData\Local\Temp\ccH3JJU2.s 			page 31


 808              	.L33:
 247:../../../lib/Drivers/STM32H7xx_HAL_Driver/Src/stm32h7xx_hal_dma_ex.c **** 
 809              		.loc 1 247 7 is_stmt 1 view .LVU241
 247:../../../lib/Drivers/STM32H7xx_HAL_Driver/Src/stm32h7xx_hal_dma_ex.c **** 
 810              		.loc 1 247 52 is_stmt 0 view .LVU242
 811 00c4 0568     		ldr	r5, [r0]
 812 00c6 45F48025 		orr	r5, r5, #262144
 813 00ca 0560     		str	r5, [r0]
 250:../../../lib/Drivers/STM32H7xx_HAL_Driver/Src/stm32h7xx_hal_dma_ex.c **** 
 814              		.loc 1 250 7 is_stmt 1 view .LVU243
 250:../../../lib/Drivers/STM32H7xx_HAL_Driver/Src/stm32h7xx_hal_dma_ex.c **** 
 815              		.loc 1 250 36 is_stmt 0 view .LVU244
 816 00cc 2068     		ldr	r0, [r4]
 250:../../../lib/Drivers/STM32H7xx_HAL_Driver/Src/stm32h7xx_hal_dma_ex.c **** 
 817              		.loc 1 250 54 view .LVU245
 818 00ce 0361     		str	r3, [r0, #16]
 253:../../../lib/Drivers/STM32H7xx_HAL_Driver/Src/stm32h7xx_hal_dma_ex.c **** 
 819              		.loc 1 253 7 is_stmt 1 view .LVU246
 253:../../../lib/Drivers/STM32H7xx_HAL_Driver/Src/stm32h7xx_hal_dma_ex.c **** 
 820              		.loc 1 253 54 is_stmt 0 view .LVU247
 821 00d0 A56D     		ldr	r5, [r4, #88]
 822              	.LVL43:
 256:../../../lib/Drivers/STM32H7xx_HAL_Driver/Src/stm32h7xx_hal_dma_ex.c ****     }
 823              		.loc 1 256 7 is_stmt 1 view .LVU248
 256:../../../lib/Drivers/STM32H7xx_HAL_Driver/Src/stm32h7xx_hal_dma_ex.c ****     }
 824              		.loc 1 256 42 is_stmt 0 view .LVU249
 825 00d2 E36D     		ldr	r3, [r4, #92]
 826              	.LVL44:
 256:../../../lib/Drivers/STM32H7xx_HAL_Driver/Src/stm32h7xx_hal_dma_ex.c ****     }
 827              		.loc 1 256 56 view .LVU250
 828 00d4 03F01F00 		and	r0, r3, #31
 829              	.LVL45:
 256:../../../lib/Drivers/STM32H7xx_HAL_Driver/Src/stm32h7xx_hal_dma_ex.c ****     }
 830              		.loc 1 256 34 view .LVU251
 831 00d8 3F23     		movs	r3, #63
 832 00da 8340     		lsls	r3, r3, r0
 256:../../../lib/Drivers/STM32H7xx_HAL_Driver/Src/stm32h7xx_hal_dma_ex.c ****     }
 833              		.loc 1 256 25 view .LVU252
 834 00dc AB60     		str	r3, [r5, #8]
 835              	.LVL46:
 836              	.L34:
 274:../../../lib/Drivers/STM32H7xx_HAL_Driver/Src/stm32h7xx_hal_dma_ex.c **** 
 837              		.loc 1 274 5 is_stmt 1 view .LVU253
 838 00de 049B     		ldr	r3, [sp, #16]
 839 00e0 2046     		mov	r0, r4
 840 00e2 FFF7FEFF 		bl	DMA_MultiBufferSetConfig
 841              	.LVL47:
 276:../../../lib/Drivers/STM32H7xx_HAL_Driver/Src/stm32h7xx_hal_dma_ex.c ****     {
 842              		.loc 1 276 5 view .LVU254
 276:../../../lib/Drivers/STM32H7xx_HAL_Driver/Src/stm32h7xx_hal_dma_ex.c ****     {
 843              		.loc 1 276 8 is_stmt 0 view .LVU255
 844 00e6 2368     		ldr	r3, [r4]
 845 00e8 4949     		ldr	r1, .L54
 846 00ea 4A4A     		ldr	r2, .L54+4
 847 00ec 9342     		cmp	r3, r2
 848 00ee 18BF     		it	ne
 849 00f0 8B42     		cmpne	r3, r1
ARM GAS  C:\Users\tnguy\AppData\Local\Temp\ccH3JJU2.s 			page 32


 850 00f2 42D0     		beq	.L35
 276:../../../lib/Drivers/STM32H7xx_HAL_Driver/Src/stm32h7xx_hal_dma_ex.c ****     {
 851              		.loc 1 276 8 discriminator 2 view .LVU256
 852 00f4 1832     		adds	r2, r2, #24
 853 00f6 9342     		cmp	r3, r2
 854 00f8 3FD0     		beq	.L35
 276:../../../lib/Drivers/STM32H7xx_HAL_Driver/Src/stm32h7xx_hal_dma_ex.c ****     {
 855              		.loc 1 276 8 discriminator 4 view .LVU257
 856 00fa 1832     		adds	r2, r2, #24
 857 00fc 9342     		cmp	r3, r2
 858 00fe 3CD0     		beq	.L35
 276:../../../lib/Drivers/STM32H7xx_HAL_Driver/Src/stm32h7xx_hal_dma_ex.c ****     {
 859              		.loc 1 276 8 discriminator 6 view .LVU258
 860 0100 1832     		adds	r2, r2, #24
 861 0102 9342     		cmp	r3, r2
 862 0104 39D0     		beq	.L35
 276:../../../lib/Drivers/STM32H7xx_HAL_Driver/Src/stm32h7xx_hal_dma_ex.c ****     {
 863              		.loc 1 276 8 discriminator 8 view .LVU259
 864 0106 1832     		adds	r2, r2, #24
 865 0108 9342     		cmp	r3, r2
 866 010a 36D0     		beq	.L35
 276:../../../lib/Drivers/STM32H7xx_HAL_Driver/Src/stm32h7xx_hal_dma_ex.c ****     {
 867              		.loc 1 276 8 discriminator 10 view .LVU260
 868 010c 1832     		adds	r2, r2, #24
 869 010e 9342     		cmp	r3, r2
 870 0110 33D0     		beq	.L35
 276:../../../lib/Drivers/STM32H7xx_HAL_Driver/Src/stm32h7xx_hal_dma_ex.c ****     {
 871              		.loc 1 276 8 discriminator 12 view .LVU261
 872 0112 1832     		adds	r2, r2, #24
 873 0114 9342     		cmp	r3, r2
 874 0116 30D0     		beq	.L35
 276:../../../lib/Drivers/STM32H7xx_HAL_Driver/Src/stm32h7xx_hal_dma_ex.c ****     {
 875              		.loc 1 276 8 discriminator 14 view .LVU262
 876 0118 02F55672 		add	r2, r2, #856
 877 011c 9342     		cmp	r3, r2
 878 011e 2CD0     		beq	.L35
 276:../../../lib/Drivers/STM32H7xx_HAL_Driver/Src/stm32h7xx_hal_dma_ex.c ****     {
 879              		.loc 1 276 8 discriminator 16 view .LVU263
 880 0120 1832     		adds	r2, r2, #24
 881 0122 9342     		cmp	r3, r2
 882 0124 29D0     		beq	.L35
 276:../../../lib/Drivers/STM32H7xx_HAL_Driver/Src/stm32h7xx_hal_dma_ex.c ****     {
 883              		.loc 1 276 8 discriminator 18 view .LVU264
 884 0126 1832     		adds	r2, r2, #24
 885 0128 9342     		cmp	r3, r2
 886 012a 26D0     		beq	.L35
 276:../../../lib/Drivers/STM32H7xx_HAL_Driver/Src/stm32h7xx_hal_dma_ex.c ****     {
 887              		.loc 1 276 8 discriminator 20 view .LVU265
 888 012c 1832     		adds	r2, r2, #24
 889 012e 9342     		cmp	r3, r2
 890 0130 23D0     		beq	.L35
 276:../../../lib/Drivers/STM32H7xx_HAL_Driver/Src/stm32h7xx_hal_dma_ex.c ****     {
 891              		.loc 1 276 8 discriminator 22 view .LVU266
 892 0132 1832     		adds	r2, r2, #24
 893 0134 9342     		cmp	r3, r2
 894 0136 20D0     		beq	.L35
 276:../../../lib/Drivers/STM32H7xx_HAL_Driver/Src/stm32h7xx_hal_dma_ex.c ****     {
ARM GAS  C:\Users\tnguy\AppData\Local\Temp\ccH3JJU2.s 			page 33


 895              		.loc 1 276 8 discriminator 24 view .LVU267
 896 0138 1832     		adds	r2, r2, #24
 897 013a 9342     		cmp	r3, r2
 898 013c 1DD0     		beq	.L35
 276:../../../lib/Drivers/STM32H7xx_HAL_Driver/Src/stm32h7xx_hal_dma_ex.c ****     {
 899              		.loc 1 276 8 discriminator 26 view .LVU268
 900 013e 1832     		adds	r2, r2, #24
 901 0140 9342     		cmp	r3, r2
 902 0142 1AD0     		beq	.L35
 276:../../../lib/Drivers/STM32H7xx_HAL_Driver/Src/stm32h7xx_hal_dma_ex.c ****     {
 903              		.loc 1 276 8 discriminator 28 view .LVU269
 904 0144 1832     		adds	r2, r2, #24
 905 0146 9342     		cmp	r3, r2
 906 0148 17D0     		beq	.L35
 276:../../../lib/Drivers/STM32H7xx_HAL_Driver/Src/stm32h7xx_hal_dma_ex.c ****     {
 907              		.loc 1 276 8 discriminator 30 view .LVU270
 908 014a 334A     		ldr	r2, .L54+8
 909 014c 9342     		cmp	r3, r2
 910 014e 14D0     		beq	.L35
 276:../../../lib/Drivers/STM32H7xx_HAL_Driver/Src/stm32h7xx_hal_dma_ex.c ****     {
 911              		.loc 1 276 8 discriminator 32 view .LVU271
 912 0150 1432     		adds	r2, r2, #20
 913 0152 9342     		cmp	r3, r2
 914 0154 11D0     		beq	.L35
 276:../../../lib/Drivers/STM32H7xx_HAL_Driver/Src/stm32h7xx_hal_dma_ex.c ****     {
 915              		.loc 1 276 8 discriminator 34 view .LVU272
 916 0156 1432     		adds	r2, r2, #20
 917 0158 9342     		cmp	r3, r2
 918 015a 0ED0     		beq	.L35
 276:../../../lib/Drivers/STM32H7xx_HAL_Driver/Src/stm32h7xx_hal_dma_ex.c ****     {
 919              		.loc 1 276 8 discriminator 36 view .LVU273
 920 015c 1432     		adds	r2, r2, #20
 921 015e 9342     		cmp	r3, r2
 922 0160 0BD0     		beq	.L35
 276:../../../lib/Drivers/STM32H7xx_HAL_Driver/Src/stm32h7xx_hal_dma_ex.c ****     {
 923              		.loc 1 276 8 discriminator 38 view .LVU274
 924 0162 1432     		adds	r2, r2, #20
 925 0164 9342     		cmp	r3, r2
 926 0166 08D0     		beq	.L35
 276:../../../lib/Drivers/STM32H7xx_HAL_Driver/Src/stm32h7xx_hal_dma_ex.c ****     {
 927              		.loc 1 276 8 discriminator 40 view .LVU275
 928 0168 1432     		adds	r2, r2, #20
 929 016a 9342     		cmp	r3, r2
 930 016c 05D0     		beq	.L35
 276:../../../lib/Drivers/STM32H7xx_HAL_Driver/Src/stm32h7xx_hal_dma_ex.c ****     {
 931              		.loc 1 276 8 discriminator 42 view .LVU276
 932 016e 1432     		adds	r2, r2, #20
 933 0170 9342     		cmp	r3, r2
 934 0172 02D0     		beq	.L35
 276:../../../lib/Drivers/STM32H7xx_HAL_Driver/Src/stm32h7xx_hal_dma_ex.c ****     {
 935              		.loc 1 276 8 discriminator 44 view .LVU277
 936 0174 1432     		adds	r2, r2, #20
 937 0176 9342     		cmp	r3, r2
 938 0178 07D1     		bne	.L36
 939              	.L35:
 279:../../../lib/Drivers/STM32H7xx_HAL_Driver/Src/stm32h7xx_hal_dma_ex.c **** 
 940              		.loc 1 279 7 is_stmt 1 view .LVU278
ARM GAS  C:\Users\tnguy\AppData\Local\Temp\ccH3JJU2.s 			page 34


 279:../../../lib/Drivers/STM32H7xx_HAL_Driver/Src/stm32h7xx_hal_dma_ex.c **** 
 941              		.loc 1 279 11 is_stmt 0 view .LVU279
 942 017a 636E     		ldr	r3, [r4, #100]
 279:../../../lib/Drivers/STM32H7xx_HAL_Driver/Src/stm32h7xx_hal_dma_ex.c **** 
 943              		.loc 1 279 44 view .LVU280
 944 017c A26E     		ldr	r2, [r4, #104]
 279:../../../lib/Drivers/STM32H7xx_HAL_Driver/Src/stm32h7xx_hal_dma_ex.c **** 
 945              		.loc 1 279 38 view .LVU281
 946 017e 5A60     		str	r2, [r3, #4]
 281:../../../lib/Drivers/STM32H7xx_HAL_Driver/Src/stm32h7xx_hal_dma_ex.c ****       {
 947              		.loc 1 281 7 is_stmt 1 view .LVU282
 281:../../../lib/Drivers/STM32H7xx_HAL_Driver/Src/stm32h7xx_hal_dma_ex.c ****       {
 948              		.loc 1 281 14 is_stmt 0 view .LVU283
 949 0180 E36E     		ldr	r3, [r4, #108]
 281:../../../lib/Drivers/STM32H7xx_HAL_Driver/Src/stm32h7xx_hal_dma_ex.c ****       {
 950              		.loc 1 281 9 view .LVU284
 951 0182 13B1     		cbz	r3, .L36
 284:../../../lib/Drivers/STM32H7xx_HAL_Driver/Src/stm32h7xx_hal_dma_ex.c ****       }
 952              		.loc 1 284 9 is_stmt 1 view .LVU285
 284:../../../lib/Drivers/STM32H7xx_HAL_Driver/Src/stm32h7xx_hal_dma_ex.c ****       }
 953              		.loc 1 284 13 is_stmt 0 view .LVU286
 954 0184 236F     		ldr	r3, [r4, #112]
 284:../../../lib/Drivers/STM32H7xx_HAL_Driver/Src/stm32h7xx_hal_dma_ex.c ****       }
 955              		.loc 1 284 51 view .LVU287
 956 0186 626F     		ldr	r2, [r4, #116]
 284:../../../lib/Drivers/STM32H7xx_HAL_Driver/Src/stm32h7xx_hal_dma_ex.c ****       }
 957              		.loc 1 284 45 view .LVU288
 958 0188 5A60     		str	r2, [r3, #4]
 959              	.L36:
 288:../../../lib/Drivers/STM32H7xx_HAL_Driver/Src/stm32h7xx_hal_dma_ex.c ****     {
 960              		.loc 1 288 5 is_stmt 1 view .LVU289
 288:../../../lib/Drivers/STM32H7xx_HAL_Driver/Src/stm32h7xx_hal_dma_ex.c ****     {
 961              		.loc 1 288 8 is_stmt 0 view .LVU290
 962 018a 2368     		ldr	r3, [r4]
 963 018c 2049     		ldr	r1, .L54
 964 018e 214A     		ldr	r2, .L54+4
 965 0190 9342     		cmp	r3, r2
 966 0192 18BF     		it	ne
 967 0194 8B42     		cmpne	r3, r1
 968 0196 41D0     		beq	.L37
 288:../../../lib/Drivers/STM32H7xx_HAL_Driver/Src/stm32h7xx_hal_dma_ex.c ****     {
 969              		.loc 1 288 8 discriminator 2 view .LVU291
 970 0198 1832     		adds	r2, r2, #24
 971 019a 9342     		cmp	r3, r2
 972 019c 3ED0     		beq	.L37
 288:../../../lib/Drivers/STM32H7xx_HAL_Driver/Src/stm32h7xx_hal_dma_ex.c ****     {
 973              		.loc 1 288 8 discriminator 4 view .LVU292
 974 019e 1832     		adds	r2, r2, #24
 975 01a0 9342     		cmp	r3, r2
 976 01a2 3BD0     		beq	.L37
 288:../../../lib/Drivers/STM32H7xx_HAL_Driver/Src/stm32h7xx_hal_dma_ex.c ****     {
 977              		.loc 1 288 8 discriminator 6 view .LVU293
 978 01a4 1832     		adds	r2, r2, #24
 979 01a6 9342     		cmp	r3, r2
 980 01a8 38D0     		beq	.L37
 288:../../../lib/Drivers/STM32H7xx_HAL_Driver/Src/stm32h7xx_hal_dma_ex.c ****     {
 981              		.loc 1 288 8 discriminator 8 view .LVU294
ARM GAS  C:\Users\tnguy\AppData\Local\Temp\ccH3JJU2.s 			page 35


 982 01aa 1832     		adds	r2, r2, #24
 983 01ac 9342     		cmp	r3, r2
 984 01ae 35D0     		beq	.L37
 288:../../../lib/Drivers/STM32H7xx_HAL_Driver/Src/stm32h7xx_hal_dma_ex.c ****     {
 985              		.loc 1 288 8 discriminator 10 view .LVU295
 986 01b0 1832     		adds	r2, r2, #24
 987 01b2 9342     		cmp	r3, r2
 988 01b4 32D0     		beq	.L37
 288:../../../lib/Drivers/STM32H7xx_HAL_Driver/Src/stm32h7xx_hal_dma_ex.c ****     {
 989              		.loc 1 288 8 discriminator 12 view .LVU296
 990 01b6 1832     		adds	r2, r2, #24
 991 01b8 9342     		cmp	r3, r2
 992 01ba 2FD0     		beq	.L37
 288:../../../lib/Drivers/STM32H7xx_HAL_Driver/Src/stm32h7xx_hal_dma_ex.c ****     {
 993              		.loc 1 288 8 discriminator 14 view .LVU297
 994 01bc 02F55672 		add	r2, r2, #856
 995 01c0 9342     		cmp	r3, r2
 996 01c2 2BD0     		beq	.L37
 288:../../../lib/Drivers/STM32H7xx_HAL_Driver/Src/stm32h7xx_hal_dma_ex.c ****     {
 997              		.loc 1 288 8 discriminator 16 view .LVU298
 998 01c4 1832     		adds	r2, r2, #24
 999 01c6 9342     		cmp	r3, r2
 1000 01c8 28D0     		beq	.L37
 288:../../../lib/Drivers/STM32H7xx_HAL_Driver/Src/stm32h7xx_hal_dma_ex.c ****     {
 1001              		.loc 1 288 8 discriminator 18 view .LVU299
 1002 01ca 1832     		adds	r2, r2, #24
 1003 01cc 9342     		cmp	r3, r2
 1004 01ce 25D0     		beq	.L37
 288:../../../lib/Drivers/STM32H7xx_HAL_Driver/Src/stm32h7xx_hal_dma_ex.c ****     {
 1005              		.loc 1 288 8 discriminator 20 view .LVU300
 1006 01d0 1832     		adds	r2, r2, #24
 1007 01d2 9342     		cmp	r3, r2
 1008 01d4 22D0     		beq	.L37
 288:../../../lib/Drivers/STM32H7xx_HAL_Driver/Src/stm32h7xx_hal_dma_ex.c ****     {
 1009              		.loc 1 288 8 discriminator 22 view .LVU301
 1010 01d6 1832     		adds	r2, r2, #24
 1011 01d8 9342     		cmp	r3, r2
 1012 01da 1FD0     		beq	.L37
 288:../../../lib/Drivers/STM32H7xx_HAL_Driver/Src/stm32h7xx_hal_dma_ex.c ****     {
 1013              		.loc 1 288 8 discriminator 24 view .LVU302
 1014 01dc 1832     		adds	r2, r2, #24
 1015 01de 9342     		cmp	r3, r2
 1016 01e0 1CD0     		beq	.L37
 288:../../../lib/Drivers/STM32H7xx_HAL_Driver/Src/stm32h7xx_hal_dma_ex.c ****     {
 1017              		.loc 1 288 8 discriminator 26 view .LVU303
 1018 01e2 1832     		adds	r2, r2, #24
 1019 01e4 9342     		cmp	r3, r2
 1020 01e6 19D0     		beq	.L37
 288:../../../lib/Drivers/STM32H7xx_HAL_Driver/Src/stm32h7xx_hal_dma_ex.c ****     {
 1021              		.loc 1 288 8 discriminator 28 view .LVU304
 1022 01e8 1832     		adds	r2, r2, #24
 1023 01ea 9342     		cmp	r3, r2
 1024 01ec 16D0     		beq	.L37
 303:../../../lib/Drivers/STM32H7xx_HAL_Driver/Src/stm32h7xx_hal_dma_ex.c **** 
 1025              		.loc 1 303 7 is_stmt 1 view .LVU305
 1026 01ee 1A68     		ldr	r2, [r3]
 1027 01f0 22F00E02 		bic	r2, r2, #14
ARM GAS  C:\Users\tnguy\AppData\Local\Temp\ccH3JJU2.s 			page 36


 1028 01f4 42F00A02 		orr	r2, r2, #10
 1029 01f8 1A60     		str	r2, [r3]
 305:../../../lib/Drivers/STM32H7xx_HAL_Driver/Src/stm32h7xx_hal_dma_ex.c ****       {
 1030              		.loc 1 305 7 view .LVU306
 305:../../../lib/Drivers/STM32H7xx_HAL_Driver/Src/stm32h7xx_hal_dma_ex.c ****       {
 1031              		.loc 1 305 15 is_stmt 0 view .LVU307
 1032 01fa 236C     		ldr	r3, [r4, #64]
 305:../../../lib/Drivers/STM32H7xx_HAL_Driver/Src/stm32h7xx_hal_dma_ex.c ****       {
 1033              		.loc 1 305 9 view .LVU308
 1034 01fc 002B     		cmp	r3, #0
 1035 01fe 00F0B780 		beq	.L52
 1036              	.L38:
 308:../../../lib/Drivers/STM32H7xx_HAL_Driver/Src/stm32h7xx_hal_dma_ex.c ****       }
 1037              		.loc 1 308 9 is_stmt 1 view .LVU309
 308:../../../lib/Drivers/STM32H7xx_HAL_Driver/Src/stm32h7xx_hal_dma_ex.c ****       }
 1038              		.loc 1 308 40 is_stmt 0 view .LVU310
 1039 0202 2268     		ldr	r2, [r4]
 308:../../../lib/Drivers/STM32H7xx_HAL_Driver/Src/stm32h7xx_hal_dma_ex.c ****       }
 1040              		.loc 1 308 58 view .LVU311
 1041 0204 1368     		ldr	r3, [r2]
 1042 0206 43F00403 		orr	r3, r3, #4
 1043 020a 1360     		str	r3, [r2]
 1044 020c 1AE0     		b	.L41
 1045              	.L55:
 1046 020e 00BF     		.align	2
 1047              	.L54:
 1048 0210 10000240 		.word	1073872912
 1049 0214 28000240 		.word	1073872936
 1050 0218 08540258 		.word	1476547592
 1051              	.L37:
 291:../../../lib/Drivers/STM32H7xx_HAL_Driver/Src/stm32h7xx_hal_dma_ex.c ****       ((DMA_Stream_TypeDef   *)hdma->Instance)->FCR |= DMA_IT_FE;
 1052              		.loc 1 291 7 is_stmt 1 view .LVU312
 1053 021c 1A68     		ldr	r2, [r3]
 1054 021e 22F01E02 		bic	r2, r2, #30
 1055 0222 42F01602 		orr	r2, r2, #22
 1056 0226 1A60     		str	r2, [r3]
 292:../../../lib/Drivers/STM32H7xx_HAL_Driver/Src/stm32h7xx_hal_dma_ex.c **** 
 1057              		.loc 1 292 7 view .LVU313
 292:../../../lib/Drivers/STM32H7xx_HAL_Driver/Src/stm32h7xx_hal_dma_ex.c **** 
 1058              		.loc 1 292 36 is_stmt 0 view .LVU314
 1059 0228 2268     		ldr	r2, [r4]
 292:../../../lib/Drivers/STM32H7xx_HAL_Driver/Src/stm32h7xx_hal_dma_ex.c **** 
 1060              		.loc 1 292 53 view .LVU315
 1061 022a 5369     		ldr	r3, [r2, #20]
 1062 022c 43F08003 		orr	r3, r3, #128
 1063 0230 5361     		str	r3, [r2, #20]
 294:../../../lib/Drivers/STM32H7xx_HAL_Driver/Src/stm32h7xx_hal_dma_ex.c ****       {
 1064              		.loc 1 294 7 is_stmt 1 view .LVU316
 294:../../../lib/Drivers/STM32H7xx_HAL_Driver/Src/stm32h7xx_hal_dma_ex.c ****       {
 1065              		.loc 1 294 15 is_stmt 0 view .LVU317
 1066 0232 236C     		ldr	r3, [r4, #64]
 294:../../../lib/Drivers/STM32H7xx_HAL_Driver/Src/stm32h7xx_hal_dma_ex.c ****       {
 1067              		.loc 1 294 9 view .LVU318
 1068 0234 002B     		cmp	r3, #0
 1069 0236 00F09680 		beq	.L53
 1070              	.L40:
 297:../../../lib/Drivers/STM32H7xx_HAL_Driver/Src/stm32h7xx_hal_dma_ex.c ****       }
ARM GAS  C:\Users\tnguy\AppData\Local\Temp\ccH3JJU2.s 			page 37


 1071              		.loc 1 297 9 is_stmt 1 view .LVU319
 297:../../../lib/Drivers/STM32H7xx_HAL_Driver/Src/stm32h7xx_hal_dma_ex.c ****       }
 1072              		.loc 1 297 38 is_stmt 0 view .LVU320
 1073 023a 2268     		ldr	r2, [r4]
 297:../../../lib/Drivers/STM32H7xx_HAL_Driver/Src/stm32h7xx_hal_dma_ex.c ****       }
 1074              		.loc 1 297 55 view .LVU321
 1075 023c 1368     		ldr	r3, [r2]
 1076 023e 43F00803 		orr	r3, r3, #8
 1077 0242 1360     		str	r3, [r2]
 1078              	.L41:
 312:../../../lib/Drivers/STM32H7xx_HAL_Driver/Src/stm32h7xx_hal_dma_ex.c ****     {
 1079              		.loc 1 312 5 is_stmt 1 view .LVU322
 312:../../../lib/Drivers/STM32H7xx_HAL_Driver/Src/stm32h7xx_hal_dma_ex.c ****     {
 1080              		.loc 1 312 8 is_stmt 0 view .LVU323
 1081 0244 2368     		ldr	r3, [r4]
 1082 0246 5149     		ldr	r1, .L56
 1083 0248 514A     		ldr	r2, .L56+4
 1084 024a 9342     		cmp	r3, r2
 1085 024c 18BF     		it	ne
 1086 024e 8B42     		cmpne	r3, r1
 1087 0250 42D0     		beq	.L42
 312:../../../lib/Drivers/STM32H7xx_HAL_Driver/Src/stm32h7xx_hal_dma_ex.c ****     {
 1088              		.loc 1 312 8 discriminator 2 view .LVU324
 1089 0252 1832     		adds	r2, r2, #24
 1090 0254 9342     		cmp	r3, r2
 1091 0256 3FD0     		beq	.L42
 312:../../../lib/Drivers/STM32H7xx_HAL_Driver/Src/stm32h7xx_hal_dma_ex.c ****     {
 1092              		.loc 1 312 8 discriminator 4 view .LVU325
 1093 0258 1832     		adds	r2, r2, #24
 1094 025a 9342     		cmp	r3, r2
 1095 025c 3CD0     		beq	.L42
 312:../../../lib/Drivers/STM32H7xx_HAL_Driver/Src/stm32h7xx_hal_dma_ex.c ****     {
 1096              		.loc 1 312 8 discriminator 6 view .LVU326
 1097 025e 1832     		adds	r2, r2, #24
 1098 0260 9342     		cmp	r3, r2
 1099 0262 39D0     		beq	.L42
 312:../../../lib/Drivers/STM32H7xx_HAL_Driver/Src/stm32h7xx_hal_dma_ex.c ****     {
 1100              		.loc 1 312 8 discriminator 8 view .LVU327
 1101 0264 1832     		adds	r2, r2, #24
 1102 0266 9342     		cmp	r3, r2
 1103 0268 36D0     		beq	.L42
 312:../../../lib/Drivers/STM32H7xx_HAL_Driver/Src/stm32h7xx_hal_dma_ex.c ****     {
 1104              		.loc 1 312 8 discriminator 10 view .LVU328
 1105 026a 1832     		adds	r2, r2, #24
 1106 026c 9342     		cmp	r3, r2
 1107 026e 33D0     		beq	.L42
 312:../../../lib/Drivers/STM32H7xx_HAL_Driver/Src/stm32h7xx_hal_dma_ex.c ****     {
 1108              		.loc 1 312 8 discriminator 12 view .LVU329
 1109 0270 1832     		adds	r2, r2, #24
 1110 0272 9342     		cmp	r3, r2
 1111 0274 30D0     		beq	.L42
 312:../../../lib/Drivers/STM32H7xx_HAL_Driver/Src/stm32h7xx_hal_dma_ex.c ****     {
 1112              		.loc 1 312 8 discriminator 14 view .LVU330
 1113 0276 02F55672 		add	r2, r2, #856
 1114 027a 9342     		cmp	r3, r2
 1115 027c 2CD0     		beq	.L42
 312:../../../lib/Drivers/STM32H7xx_HAL_Driver/Src/stm32h7xx_hal_dma_ex.c ****     {
ARM GAS  C:\Users\tnguy\AppData\Local\Temp\ccH3JJU2.s 			page 38


 1116              		.loc 1 312 8 discriminator 16 view .LVU331
 1117 027e 1832     		adds	r2, r2, #24
 1118 0280 9342     		cmp	r3, r2
 1119 0282 29D0     		beq	.L42
 312:../../../lib/Drivers/STM32H7xx_HAL_Driver/Src/stm32h7xx_hal_dma_ex.c ****     {
 1120              		.loc 1 312 8 discriminator 18 view .LVU332
 1121 0284 1832     		adds	r2, r2, #24
 1122 0286 9342     		cmp	r3, r2
 1123 0288 26D0     		beq	.L42
 312:../../../lib/Drivers/STM32H7xx_HAL_Driver/Src/stm32h7xx_hal_dma_ex.c ****     {
 1124              		.loc 1 312 8 discriminator 20 view .LVU333
 1125 028a 1832     		adds	r2, r2, #24
 1126 028c 9342     		cmp	r3, r2
 1127 028e 23D0     		beq	.L42
 312:../../../lib/Drivers/STM32H7xx_HAL_Driver/Src/stm32h7xx_hal_dma_ex.c ****     {
 1128              		.loc 1 312 8 discriminator 22 view .LVU334
 1129 0290 1832     		adds	r2, r2, #24
 1130 0292 9342     		cmp	r3, r2
 1131 0294 20D0     		beq	.L42
 312:../../../lib/Drivers/STM32H7xx_HAL_Driver/Src/stm32h7xx_hal_dma_ex.c ****     {
 1132              		.loc 1 312 8 discriminator 24 view .LVU335
 1133 0296 1832     		adds	r2, r2, #24
 1134 0298 9342     		cmp	r3, r2
 1135 029a 1DD0     		beq	.L42
 312:../../../lib/Drivers/STM32H7xx_HAL_Driver/Src/stm32h7xx_hal_dma_ex.c ****     {
 1136              		.loc 1 312 8 discriminator 26 view .LVU336
 1137 029c 1832     		adds	r2, r2, #24
 1138 029e 9342     		cmp	r3, r2
 1139 02a0 1AD0     		beq	.L42
 312:../../../lib/Drivers/STM32H7xx_HAL_Driver/Src/stm32h7xx_hal_dma_ex.c ****     {
 1140              		.loc 1 312 8 discriminator 28 view .LVU337
 1141 02a2 1832     		adds	r2, r2, #24
 1142 02a4 9342     		cmp	r3, r2
 1143 02a6 17D0     		beq	.L42
 312:../../../lib/Drivers/STM32H7xx_HAL_Driver/Src/stm32h7xx_hal_dma_ex.c ****     {
 1144              		.loc 1 312 8 discriminator 30 view .LVU338
 1145 02a8 3A4A     		ldr	r2, .L56+8
 1146 02aa 9342     		cmp	r3, r2
 1147 02ac 14D0     		beq	.L42
 312:../../../lib/Drivers/STM32H7xx_HAL_Driver/Src/stm32h7xx_hal_dma_ex.c ****     {
 1148              		.loc 1 312 8 discriminator 32 view .LVU339
 1149 02ae 1432     		adds	r2, r2, #20
 1150 02b0 9342     		cmp	r3, r2
 1151 02b2 11D0     		beq	.L42
 312:../../../lib/Drivers/STM32H7xx_HAL_Driver/Src/stm32h7xx_hal_dma_ex.c ****     {
 1152              		.loc 1 312 8 discriminator 34 view .LVU340
 1153 02b4 1432     		adds	r2, r2, #20
 1154 02b6 9342     		cmp	r3, r2
 1155 02b8 0ED0     		beq	.L42
 312:../../../lib/Drivers/STM32H7xx_HAL_Driver/Src/stm32h7xx_hal_dma_ex.c ****     {
 1156              		.loc 1 312 8 discriminator 36 view .LVU341
 1157 02ba 1432     		adds	r2, r2, #20
 1158 02bc 9342     		cmp	r3, r2
 1159 02be 0BD0     		beq	.L42
 312:../../../lib/Drivers/STM32H7xx_HAL_Driver/Src/stm32h7xx_hal_dma_ex.c ****     {
 1160              		.loc 1 312 8 discriminator 38 view .LVU342
 1161 02c0 1432     		adds	r2, r2, #20
ARM GAS  C:\Users\tnguy\AppData\Local\Temp\ccH3JJU2.s 			page 39


 1162 02c2 9342     		cmp	r3, r2
 1163 02c4 08D0     		beq	.L42
 312:../../../lib/Drivers/STM32H7xx_HAL_Driver/Src/stm32h7xx_hal_dma_ex.c ****     {
 1164              		.loc 1 312 8 discriminator 40 view .LVU343
 1165 02c6 1432     		adds	r2, r2, #20
 1166 02c8 9342     		cmp	r3, r2
 1167 02ca 05D0     		beq	.L42
 312:../../../lib/Drivers/STM32H7xx_HAL_Driver/Src/stm32h7xx_hal_dma_ex.c ****     {
 1168              		.loc 1 312 8 discriminator 42 view .LVU344
 1169 02cc 1432     		adds	r2, r2, #20
 1170 02ce 9342     		cmp	r3, r2
 1171 02d0 02D0     		beq	.L42
 312:../../../lib/Drivers/STM32H7xx_HAL_Driver/Src/stm32h7xx_hal_dma_ex.c ****     {
 1172              		.loc 1 312 8 discriminator 44 view .LVU345
 1173 02d2 1432     		adds	r2, r2, #20
 1174 02d4 9342     		cmp	r3, r2
 1175 02d6 0ED1     		bne	.L43
 1176              	.L42:
 315:../../../lib/Drivers/STM32H7xx_HAL_Driver/Src/stm32h7xx_hal_dma_ex.c ****       {
 1177              		.loc 1 315 7 is_stmt 1 view .LVU346
 315:../../../lib/Drivers/STM32H7xx_HAL_Driver/Src/stm32h7xx_hal_dma_ex.c ****       {
 1178              		.loc 1 315 15 is_stmt 0 view .LVU347
 1179 02d8 236E     		ldr	r3, [r4, #96]
 315:../../../lib/Drivers/STM32H7xx_HAL_Driver/Src/stm32h7xx_hal_dma_ex.c ****       {
 1180              		.loc 1 315 30 view .LVU348
 1181 02da 1A68     		ldr	r2, [r3]
 315:../../../lib/Drivers/STM32H7xx_HAL_Driver/Src/stm32h7xx_hal_dma_ex.c ****       {
 1182              		.loc 1 315 9 view .LVU349
 1183 02dc 12F4803F 		tst	r2, #65536
 1184 02e0 03D0     		beq	.L44
 318:../../../lib/Drivers/STM32H7xx_HAL_Driver/Src/stm32h7xx_hal_dma_ex.c ****       }
 1185              		.loc 1 318 9 is_stmt 1 view .LVU350
 318:../../../lib/Drivers/STM32H7xx_HAL_Driver/Src/stm32h7xx_hal_dma_ex.c ****       }
 1186              		.loc 1 318 34 is_stmt 0 view .LVU351
 1187 02e2 1A68     		ldr	r2, [r3]
 1188 02e4 42F48072 		orr	r2, r2, #256
 1189 02e8 1A60     		str	r2, [r3]
 1190              	.L44:
 321:../../../lib/Drivers/STM32H7xx_HAL_Driver/Src/stm32h7xx_hal_dma_ex.c ****       {
 1191              		.loc 1 321 7 is_stmt 1 view .LVU352
 321:../../../lib/Drivers/STM32H7xx_HAL_Driver/Src/stm32h7xx_hal_dma_ex.c ****       {
 1192              		.loc 1 321 14 is_stmt 0 view .LVU353
 1193 02ea E36E     		ldr	r3, [r4, #108]
 321:../../../lib/Drivers/STM32H7xx_HAL_Driver/Src/stm32h7xx_hal_dma_ex.c ****       {
 1194              		.loc 1 321 9 view .LVU354
 1195 02ec 1BB1     		cbz	r3, .L43
 325:../../../lib/Drivers/STM32H7xx_HAL_Driver/Src/stm32h7xx_hal_dma_ex.c ****       }
 1196              		.loc 1 325 9 is_stmt 1 view .LVU355
 325:../../../lib/Drivers/STM32H7xx_HAL_Driver/Src/stm32h7xx_hal_dma_ex.c ****       }
 1197              		.loc 1 325 38 is_stmt 0 view .LVU356
 1198 02ee 1A68     		ldr	r2, [r3]
 1199 02f0 42F48072 		orr	r2, r2, #256
 1200 02f4 1A60     		str	r2, [r3]
 1201              	.L43:
 330:../../../lib/Drivers/STM32H7xx_HAL_Driver/Src/stm32h7xx_hal_dma_ex.c ****   }
 1202              		.loc 1 330 5 is_stmt 1 view .LVU357
 1203 02f6 2368     		ldr	r3, [r4]
ARM GAS  C:\Users\tnguy\AppData\Local\Temp\ccH3JJU2.s 			page 40


 1204 02f8 2449     		ldr	r1, .L56
 1205 02fa 254A     		ldr	r2, .L56+4
 1206 02fc 9342     		cmp	r3, r2
 1207 02fe 18BF     		it	ne
 1208 0300 8B42     		cmpne	r3, r1
 1209 0302 3AD0     		beq	.L45
 330:../../../lib/Drivers/STM32H7xx_HAL_Driver/Src/stm32h7xx_hal_dma_ex.c ****   }
 1210              		.loc 1 330 5 is_stmt 0 discriminator 2 view .LVU358
 1211 0304 1832     		adds	r2, r2, #24
 1212 0306 9342     		cmp	r3, r2
 1213 0308 37D0     		beq	.L45
 330:../../../lib/Drivers/STM32H7xx_HAL_Driver/Src/stm32h7xx_hal_dma_ex.c ****   }
 1214              		.loc 1 330 5 discriminator 4 view .LVU359
 1215 030a 1832     		adds	r2, r2, #24
 1216 030c 9342     		cmp	r3, r2
 1217 030e 34D0     		beq	.L45
 330:../../../lib/Drivers/STM32H7xx_HAL_Driver/Src/stm32h7xx_hal_dma_ex.c ****   }
 1218              		.loc 1 330 5 discriminator 6 view .LVU360
 1219 0310 1832     		adds	r2, r2, #24
 1220 0312 9342     		cmp	r3, r2
 1221 0314 31D0     		beq	.L45
 330:../../../lib/Drivers/STM32H7xx_HAL_Driver/Src/stm32h7xx_hal_dma_ex.c ****   }
 1222              		.loc 1 330 5 discriminator 8 view .LVU361
 1223 0316 1832     		adds	r2, r2, #24
 1224 0318 9342     		cmp	r3, r2
 1225 031a 2ED0     		beq	.L45
 330:../../../lib/Drivers/STM32H7xx_HAL_Driver/Src/stm32h7xx_hal_dma_ex.c ****   }
 1226              		.loc 1 330 5 discriminator 10 view .LVU362
 1227 031c 1832     		adds	r2, r2, #24
 1228 031e 9342     		cmp	r3, r2
 1229 0320 2BD0     		beq	.L45
 330:../../../lib/Drivers/STM32H7xx_HAL_Driver/Src/stm32h7xx_hal_dma_ex.c ****   }
 1230              		.loc 1 330 5 discriminator 12 view .LVU363
 1231 0322 1832     		adds	r2, r2, #24
 1232 0324 9342     		cmp	r3, r2
 1233 0326 28D0     		beq	.L45
 330:../../../lib/Drivers/STM32H7xx_HAL_Driver/Src/stm32h7xx_hal_dma_ex.c ****   }
 1234              		.loc 1 330 5 discriminator 14 view .LVU364
 1235 0328 02F55672 		add	r2, r2, #856
 1236 032c 9342     		cmp	r3, r2
 1237 032e 24D0     		beq	.L45
 330:../../../lib/Drivers/STM32H7xx_HAL_Driver/Src/stm32h7xx_hal_dma_ex.c ****   }
 1238              		.loc 1 330 5 discriminator 16 view .LVU365
 1239 0330 1832     		adds	r2, r2, #24
 1240 0332 9342     		cmp	r3, r2
 1241 0334 21D0     		beq	.L45
 330:../../../lib/Drivers/STM32H7xx_HAL_Driver/Src/stm32h7xx_hal_dma_ex.c ****   }
 1242              		.loc 1 330 5 discriminator 18 view .LVU366
 1243 0336 1832     		adds	r2, r2, #24
 1244 0338 9342     		cmp	r3, r2
 1245 033a 1ED0     		beq	.L45
 330:../../../lib/Drivers/STM32H7xx_HAL_Driver/Src/stm32h7xx_hal_dma_ex.c ****   }
 1246              		.loc 1 330 5 discriminator 20 view .LVU367
 1247 033c 1832     		adds	r2, r2, #24
 1248 033e 9342     		cmp	r3, r2
 1249 0340 1BD0     		beq	.L45
 330:../../../lib/Drivers/STM32H7xx_HAL_Driver/Src/stm32h7xx_hal_dma_ex.c ****   }
ARM GAS  C:\Users\tnguy\AppData\Local\Temp\ccH3JJU2.s 			page 41


 1250              		.loc 1 330 5 discriminator 22 view .LVU368
 1251 0342 1832     		adds	r2, r2, #24
 1252 0344 9342     		cmp	r3, r2
 1253 0346 18D0     		beq	.L45
 330:../../../lib/Drivers/STM32H7xx_HAL_Driver/Src/stm32h7xx_hal_dma_ex.c ****   }
 1254              		.loc 1 330 5 discriminator 24 view .LVU369
 1255 0348 1832     		adds	r2, r2, #24
 1256 034a 9342     		cmp	r3, r2
 1257 034c 15D0     		beq	.L45
 330:../../../lib/Drivers/STM32H7xx_HAL_Driver/Src/stm32h7xx_hal_dma_ex.c ****   }
 1258              		.loc 1 330 5 discriminator 26 view .LVU370
 1259 034e 1832     		adds	r2, r2, #24
 1260 0350 9342     		cmp	r3, r2
 1261 0352 12D0     		beq	.L45
 330:../../../lib/Drivers/STM32H7xx_HAL_Driver/Src/stm32h7xx_hal_dma_ex.c ****   }
 1262              		.loc 1 330 5 discriminator 28 view .LVU371
 1263 0354 1832     		adds	r2, r2, #24
 1264 0356 9342     		cmp	r3, r2
 1265 0358 0FD0     		beq	.L45
 330:../../../lib/Drivers/STM32H7xx_HAL_Driver/Src/stm32h7xx_hal_dma_ex.c ****   }
 1266              		.loc 1 330 5 discriminator 30 view .LVU372
 1267 035a 1A68     		ldr	r2, [r3]
 1268 035c 42F00102 		orr	r2, r2, #1
 1269 0360 1A60     		str	r2, [r3]
 219:../../../lib/Drivers/STM32H7xx_HAL_Driver/Src/stm32h7xx_hal_dma_ex.c ****   __IO uint32_t *ifcRegister_Base; /* DMA Stream Interrupt Clear register */
 1270              		.loc 1 219 21 discriminator 30 view .LVU373
 1271 0362 0020     		movs	r0, #0
 1272 0364 62E6     		b	.L31
 1273              	.L53:
 294:../../../lib/Drivers/STM32H7xx_HAL_Driver/Src/stm32h7xx_hal_dma_ex.c ****       {
 1274              		.loc 1 294 55 discriminator 1 view .LVU374
 1275 0366 A36C     		ldr	r3, [r4, #72]
 294:../../../lib/Drivers/STM32H7xx_HAL_Driver/Src/stm32h7xx_hal_dma_ex.c ****       {
 1276              		.loc 1 294 47 discriminator 1 view .LVU375
 1277 0368 002B     		cmp	r3, #0
 1278 036a 7FF466AF 		bne	.L40
 1279 036e 69E7     		b	.L41
 1280              	.L52:
 305:../../../lib/Drivers/STM32H7xx_HAL_Driver/Src/stm32h7xx_hal_dma_ex.c ****       {
 1281              		.loc 1 305 55 discriminator 1 view .LVU376
 1282 0370 A36C     		ldr	r3, [r4, #72]
 305:../../../lib/Drivers/STM32H7xx_HAL_Driver/Src/stm32h7xx_hal_dma_ex.c ****       {
 1283              		.loc 1 305 47 discriminator 1 view .LVU377
 1284 0372 002B     		cmp	r3, #0
 1285 0374 7FF445AF 		bne	.L38
 1286 0378 64E7     		b	.L41
 1287              	.L45:
 330:../../../lib/Drivers/STM32H7xx_HAL_Driver/Src/stm32h7xx_hal_dma_ex.c ****   }
 1288              		.loc 1 330 5 discriminator 29 view .LVU378
 1289 037a 1A68     		ldr	r2, [r3]
 1290 037c 42F00102 		orr	r2, r2, #1
 1291 0380 1A60     		str	r2, [r3]
 219:../../../lib/Drivers/STM32H7xx_HAL_Driver/Src/stm32h7xx_hal_dma_ex.c ****   __IO uint32_t *ifcRegister_Base; /* DMA Stream Interrupt Clear register */
 1292              		.loc 1 219 21 discriminator 29 view .LVU379
 1293 0382 0020     		movs	r0, #0
 330:../../../lib/Drivers/STM32H7xx_HAL_Driver/Src/stm32h7xx_hal_dma_ex.c ****   }
 1294              		.loc 1 330 5 discriminator 29 view .LVU380
ARM GAS  C:\Users\tnguy\AppData\Local\Temp\ccH3JJU2.s 			page 42


 1295 0384 52E6     		b	.L31
 1296              	.LVL48:
 1297              	.L47:
 234:../../../lib/Drivers/STM32H7xx_HAL_Driver/Src/stm32h7xx_hal_dma_ex.c **** 
 1298              		.loc 1 234 3 view .LVU381
 1299 0386 0220     		movs	r0, #2
 1300 0388 50E6     		b	.L31
 1301              	.L57:
 1302 038a 00BF     		.align	2
 1303              	.L56:
 1304 038c 10000240 		.word	1073872912
 1305 0390 28000240 		.word	1073872936
 1306 0394 08540258 		.word	1476547592
 1307              		.cfi_endproc
 1308              	.LFE145:
 1310              		.section	.text.HAL_DMAEx_ChangeMemory,"ax",%progbits
 1311              		.align	1
 1312              		.global	HAL_DMAEx_ChangeMemory
 1313              		.syntax unified
 1314              		.thumb
 1315              		.thumb_func
 1317              	HAL_DMAEx_ChangeMemory:
 1318              	.LVL49:
 1319              	.LFB146:
 358:../../../lib/Drivers/STM32H7xx_HAL_Driver/Src/stm32h7xx_hal_dma_ex.c ****   if(IS_DMA_STREAM_INSTANCE(hdma->Instance) != 0U) /* DMA1 or DMA2 instance */
 1320              		.loc 1 358 1 is_stmt 1 view -0
 1321              		.cfi_startproc
 1322              		@ args = 0, pretend = 0, frame = 0
 1323              		@ frame_needed = 0, uses_anonymous_args = 0
 1324              		@ link register save eliminated.
 358:../../../lib/Drivers/STM32H7xx_HAL_Driver/Src/stm32h7xx_hal_dma_ex.c ****   if(IS_DMA_STREAM_INSTANCE(hdma->Instance) != 0U) /* DMA1 or DMA2 instance */
 1325              		.loc 1 358 1 is_stmt 0 view .LVU383
 1326 0000 10B4     		push	{r4}
 1327              	.LCFI5:
 1328              		.cfi_def_cfa_offset 4
 1329              		.cfi_offset 4, -4
 359:../../../lib/Drivers/STM32H7xx_HAL_Driver/Src/stm32h7xx_hal_dma_ex.c ****   {
 1330              		.loc 1 359 3 is_stmt 1 view .LVU384
 359:../../../lib/Drivers/STM32H7xx_HAL_Driver/Src/stm32h7xx_hal_dma_ex.c ****   {
 1331              		.loc 1 359 6 is_stmt 0 view .LVU385
 1332 0002 0368     		ldr	r3, [r0]
 1333 0004 1E4C     		ldr	r4, .L66
 1334 0006 1F48     		ldr	r0, .L66+4
 1335              	.LVL50:
 359:../../../lib/Drivers/STM32H7xx_HAL_Driver/Src/stm32h7xx_hal_dma_ex.c ****   {
 1336              		.loc 1 359 6 view .LVU386
 1337 0008 8342     		cmp	r3, r0
 1338 000a 18BF     		it	ne
 1339 000c A342     		cmpne	r3, r4
 1340 000e 2DD0     		beq	.L59
 359:../../../lib/Drivers/STM32H7xx_HAL_Driver/Src/stm32h7xx_hal_dma_ex.c ****   {
 1341              		.loc 1 359 6 discriminator 2 view .LVU387
 1342 0010 1830     		adds	r0, r0, #24
 1343 0012 8342     		cmp	r3, r0
 1344 0014 2AD0     		beq	.L59
 359:../../../lib/Drivers/STM32H7xx_HAL_Driver/Src/stm32h7xx_hal_dma_ex.c ****   {
 1345              		.loc 1 359 6 discriminator 4 view .LVU388
ARM GAS  C:\Users\tnguy\AppData\Local\Temp\ccH3JJU2.s 			page 43


 1346 0016 1830     		adds	r0, r0, #24
 1347 0018 8342     		cmp	r3, r0
 1348 001a 27D0     		beq	.L59
 359:../../../lib/Drivers/STM32H7xx_HAL_Driver/Src/stm32h7xx_hal_dma_ex.c ****   {
 1349              		.loc 1 359 6 discriminator 6 view .LVU389
 1350 001c 1830     		adds	r0, r0, #24
 1351 001e 8342     		cmp	r3, r0
 1352 0020 24D0     		beq	.L59
 359:../../../lib/Drivers/STM32H7xx_HAL_Driver/Src/stm32h7xx_hal_dma_ex.c ****   {
 1353              		.loc 1 359 6 discriminator 8 view .LVU390
 1354 0022 1830     		adds	r0, r0, #24
 1355 0024 8342     		cmp	r3, r0
 1356 0026 21D0     		beq	.L59
 359:../../../lib/Drivers/STM32H7xx_HAL_Driver/Src/stm32h7xx_hal_dma_ex.c ****   {
 1357              		.loc 1 359 6 discriminator 10 view .LVU391
 1358 0028 1830     		adds	r0, r0, #24
 1359 002a 8342     		cmp	r3, r0
 1360 002c 1ED0     		beq	.L59
 359:../../../lib/Drivers/STM32H7xx_HAL_Driver/Src/stm32h7xx_hal_dma_ex.c ****   {
 1361              		.loc 1 359 6 discriminator 12 view .LVU392
 1362 002e 1830     		adds	r0, r0, #24
 1363 0030 8342     		cmp	r3, r0
 1364 0032 1BD0     		beq	.L59
 359:../../../lib/Drivers/STM32H7xx_HAL_Driver/Src/stm32h7xx_hal_dma_ex.c ****   {
 1365              		.loc 1 359 6 discriminator 14 view .LVU393
 1366 0034 00F55670 		add	r0, r0, #856
 1367 0038 8342     		cmp	r3, r0
 1368 003a 17D0     		beq	.L59
 359:../../../lib/Drivers/STM32H7xx_HAL_Driver/Src/stm32h7xx_hal_dma_ex.c ****   {
 1369              		.loc 1 359 6 discriminator 16 view .LVU394
 1370 003c 1830     		adds	r0, r0, #24
 1371 003e 8342     		cmp	r3, r0
 1372 0040 14D0     		beq	.L59
 359:../../../lib/Drivers/STM32H7xx_HAL_Driver/Src/stm32h7xx_hal_dma_ex.c ****   {
 1373              		.loc 1 359 6 discriminator 18 view .LVU395
 1374 0042 1830     		adds	r0, r0, #24
 1375 0044 8342     		cmp	r3, r0
 1376 0046 11D0     		beq	.L59
 359:../../../lib/Drivers/STM32H7xx_HAL_Driver/Src/stm32h7xx_hal_dma_ex.c ****   {
 1377              		.loc 1 359 6 discriminator 20 view .LVU396
 1378 0048 1830     		adds	r0, r0, #24
 1379 004a 8342     		cmp	r3, r0
 1380 004c 0ED0     		beq	.L59
 359:../../../lib/Drivers/STM32H7xx_HAL_Driver/Src/stm32h7xx_hal_dma_ex.c ****   {
 1381              		.loc 1 359 6 discriminator 22 view .LVU397
 1382 004e 1830     		adds	r0, r0, #24
 1383 0050 8342     		cmp	r3, r0
 1384 0052 0BD0     		beq	.L59
 359:../../../lib/Drivers/STM32H7xx_HAL_Driver/Src/stm32h7xx_hal_dma_ex.c ****   {
 1385              		.loc 1 359 6 discriminator 24 view .LVU398
 1386 0054 1830     		adds	r0, r0, #24
 1387 0056 8342     		cmp	r3, r0
 1388 0058 08D0     		beq	.L59
 359:../../../lib/Drivers/STM32H7xx_HAL_Driver/Src/stm32h7xx_hal_dma_ex.c ****   {
 1389              		.loc 1 359 6 discriminator 26 view .LVU399
 1390 005a 1830     		adds	r0, r0, #24
 1391 005c 8342     		cmp	r3, r0
ARM GAS  C:\Users\tnguy\AppData\Local\Temp\ccH3JJU2.s 			page 44


 1392 005e 05D0     		beq	.L59
 359:../../../lib/Drivers/STM32H7xx_HAL_Driver/Src/stm32h7xx_hal_dma_ex.c ****   {
 1393              		.loc 1 359 6 discriminator 28 view .LVU400
 1394 0060 1830     		adds	r0, r0, #24
 1395 0062 8342     		cmp	r3, r0
 1396 0064 02D0     		beq	.L59
 374:../../../lib/Drivers/STM32H7xx_HAL_Driver/Src/stm32h7xx_hal_dma_ex.c ****     {
 1397              		.loc 1 374 5 is_stmt 1 view .LVU401
 374:../../../lib/Drivers/STM32H7xx_HAL_Driver/Src/stm32h7xx_hal_dma_ex.c ****     {
 1398              		.loc 1 374 7 is_stmt 0 view .LVU402
 1399 0066 4AB1     		cbz	r2, .L60
 382:../../../lib/Drivers/STM32H7xx_HAL_Driver/Src/stm32h7xx_hal_dma_ex.c ****     }
 1400              		.loc 1 382 7 is_stmt 1 view .LVU403
 382:../../../lib/Drivers/STM32H7xx_HAL_Driver/Src/stm32h7xx_hal_dma_ex.c ****     }
 1401              		.loc 1 382 57 is_stmt 0 view .LVU404
 1402 0068 1961     		str	r1, [r3, #16]
 1403 006a 01E0     		b	.L63
 1404              	.L59:
 361:../../../lib/Drivers/STM32H7xx_HAL_Driver/Src/stm32h7xx_hal_dma_ex.c ****     {
 1405              		.loc 1 361 5 is_stmt 1 view .LVU405
 361:../../../lib/Drivers/STM32H7xx_HAL_Driver/Src/stm32h7xx_hal_dma_ex.c ****     {
 1406              		.loc 1 361 7 is_stmt 0 view .LVU406
 1407 006c 22B9     		cbnz	r2, .L62
 364:../../../lib/Drivers/STM32H7xx_HAL_Driver/Src/stm32h7xx_hal_dma_ex.c ****     }
 1408              		.loc 1 364 7 is_stmt 1 view .LVU407
 364:../../../lib/Drivers/STM32H7xx_HAL_Driver/Src/stm32h7xx_hal_dma_ex.c ****     }
 1409              		.loc 1 364 54 is_stmt 0 view .LVU408
 1410 006e D960     		str	r1, [r3, #12]
 1411              	.L63:
 386:../../../lib/Drivers/STM32H7xx_HAL_Driver/Src/stm32h7xx_hal_dma_ex.c **** }
 1412              		.loc 1 386 3 is_stmt 1 view .LVU409
 387:../../../lib/Drivers/STM32H7xx_HAL_Driver/Src/stm32h7xx_hal_dma_ex.c **** 
 1413              		.loc 1 387 1 is_stmt 0 view .LVU410
 1414 0070 0020     		movs	r0, #0
 1415 0072 5DF8044B 		ldr	r4, [sp], #4
 1416              	.LCFI6:
 1417              		.cfi_remember_state
 1418              		.cfi_restore 4
 1419              		.cfi_def_cfa_offset 0
 1420 0076 7047     		bx	lr
 1421              	.L62:
 1422              	.LCFI7:
 1423              		.cfi_restore_state
 369:../../../lib/Drivers/STM32H7xx_HAL_Driver/Src/stm32h7xx_hal_dma_ex.c ****     }
 1424              		.loc 1 369 7 is_stmt 1 view .LVU411
 369:../../../lib/Drivers/STM32H7xx_HAL_Driver/Src/stm32h7xx_hal_dma_ex.c ****     }
 1425              		.loc 1 369 54 is_stmt 0 view .LVU412
 1426 0078 1961     		str	r1, [r3, #16]
 1427 007a F9E7     		b	.L63
 1428              	.L60:
 377:../../../lib/Drivers/STM32H7xx_HAL_Driver/Src/stm32h7xx_hal_dma_ex.c ****     }
 1429              		.loc 1 377 7 is_stmt 1 view .LVU413
 377:../../../lib/Drivers/STM32H7xx_HAL_Driver/Src/stm32h7xx_hal_dma_ex.c ****     }
 1430              		.loc 1 377 57 is_stmt 0 view .LVU414
 1431 007c D960     		str	r1, [r3, #12]
 1432 007e F7E7     		b	.L63
 1433              	.L67:
ARM GAS  C:\Users\tnguy\AppData\Local\Temp\ccH3JJU2.s 			page 45


 1434              		.align	2
 1435              	.L66:
 1436 0080 10000240 		.word	1073872912
 1437 0084 28000240 		.word	1073872936
 1438              		.cfi_endproc
 1439              	.LFE146:
 1441              		.section	.text.HAL_DMAEx_ConfigMuxSync,"ax",%progbits
 1442              		.align	1
 1443              		.global	HAL_DMAEx_ConfigMuxSync
 1444              		.syntax unified
 1445              		.thumb
 1446              		.thumb_func
 1448              	HAL_DMAEx_ConfigMuxSync:
 1449              	.LVL51:
 1450              	.LFB147:
 397:../../../lib/Drivers/STM32H7xx_HAL_Driver/Src/stm32h7xx_hal_dma_ex.c ****   uint32_t syncSignalID = 0;
 1451              		.loc 1 397 1 is_stmt 1 view -0
 1452              		.cfi_startproc
 1453              		@ args = 0, pretend = 0, frame = 0
 1454              		@ frame_needed = 0, uses_anonymous_args = 0
 1455              		@ link register save eliminated.
 397:../../../lib/Drivers/STM32H7xx_HAL_Driver/Src/stm32h7xx_hal_dma_ex.c ****   uint32_t syncSignalID = 0;
 1456              		.loc 1 397 1 is_stmt 0 view .LVU416
 1457 0000 70B4     		push	{r4, r5, r6}
 1458              	.LCFI8:
 1459              		.cfi_def_cfa_offset 12
 1460              		.cfi_offset 4, -12
 1461              		.cfi_offset 5, -8
 1462              		.cfi_offset 6, -4
 398:../../../lib/Drivers/STM32H7xx_HAL_Driver/Src/stm32h7xx_hal_dma_ex.c ****   uint32_t syncPolarity = 0;
 1463              		.loc 1 398 3 is_stmt 1 view .LVU417
 1464              	.LVL52:
 399:../../../lib/Drivers/STM32H7xx_HAL_Driver/Src/stm32h7xx_hal_dma_ex.c **** 
 1465              		.loc 1 399 3 view .LVU418
 402:../../../lib/Drivers/STM32H7xx_HAL_Driver/Src/stm32h7xx_hal_dma_ex.c ****   assert_param(IS_DMAMUX_SYNC_STATE(pSyncConfig->SyncEnable));
 1466              		.loc 1 402 3 view .LVU419
 403:../../../lib/Drivers/STM32H7xx_HAL_Driver/Src/stm32h7xx_hal_dma_ex.c ****   assert_param(IS_DMAMUX_SYNC_EVENT(pSyncConfig->EventEnable));
 1467              		.loc 1 403 3 view .LVU420
 404:../../../lib/Drivers/STM32H7xx_HAL_Driver/Src/stm32h7xx_hal_dma_ex.c ****   assert_param(IS_DMAMUX_SYNC_REQUEST_NUMBER(pSyncConfig->RequestNumber));
 1468              		.loc 1 404 3 view .LVU421
 405:../../../lib/Drivers/STM32H7xx_HAL_Driver/Src/stm32h7xx_hal_dma_ex.c **** 
 1469              		.loc 1 405 3 view .LVU422
 407:../../../lib/Drivers/STM32H7xx_HAL_Driver/Src/stm32h7xx_hal_dma_ex.c ****   {
 1470              		.loc 1 407 3 view .LVU423
 407:../../../lib/Drivers/STM32H7xx_HAL_Driver/Src/stm32h7xx_hal_dma_ex.c ****   {
 1471              		.loc 1 407 17 is_stmt 0 view .LVU424
 1472 0002 0B7A     		ldrb	r3, [r1, #8]	@ zero_extendqisi2
 407:../../../lib/Drivers/STM32H7xx_HAL_Driver/Src/stm32h7xx_hal_dma_ex.c ****   {
 1473              		.loc 1 407 5 view .LVU425
 1474 0004 012B     		cmp	r3, #1
 1475 0006 28D0     		beq	.L75
 399:../../../lib/Drivers/STM32H7xx_HAL_Driver/Src/stm32h7xx_hal_dma_ex.c **** 
 1476              		.loc 1 399 12 view .LVU426
 1477 0008 0024     		movs	r4, #0
 398:../../../lib/Drivers/STM32H7xx_HAL_Driver/Src/stm32h7xx_hal_dma_ex.c ****   uint32_t syncPolarity = 0;
 1478              		.loc 1 398 12 view .LVU427
 1479 000a 2546     		mov	r5, r4
ARM GAS  C:\Users\tnguy\AppData\Local\Temp\ccH3JJU2.s 			page 46


 1480              	.LVL53:
 1481              	.L69:
 424:../../../lib/Drivers/STM32H7xx_HAL_Driver/Src/stm32h7xx_hal_dma_ex.c ****   {
 1482              		.loc 1 424 3 is_stmt 1 view .LVU428
 424:../../../lib/Drivers/STM32H7xx_HAL_Driver/Src/stm32h7xx_hal_dma_ex.c ****   {
 1483              		.loc 1 424 10 is_stmt 0 view .LVU429
 1484 000c 90F83520 		ldrb	r2, [r0, #53]	@ zero_extendqisi2
 1485 0010 D2B2     		uxtb	r2, r2
 424:../../../lib/Drivers/STM32H7xx_HAL_Driver/Src/stm32h7xx_hal_dma_ex.c ****   {
 1486              		.loc 1 424 5 view .LVU430
 1487 0012 012A     		cmp	r2, #1
 1488 0014 24D1     		bne	.L70
 427:../../../lib/Drivers/STM32H7xx_HAL_Driver/Src/stm32h7xx_hal_dma_ex.c **** 
 1489              		.loc 1 427 5 is_stmt 1 view .LVU431
 427:../../../lib/Drivers/STM32H7xx_HAL_Driver/Src/stm32h7xx_hal_dma_ex.c **** 
 1490              		.loc 1 427 5 view .LVU432
 1491 0016 90F83430 		ldrb	r3, [r0, #52]	@ zero_extendqisi2
 1492 001a 012B     		cmp	r3, #1
 1493 001c 26D0     		beq	.L73
 427:../../../lib/Drivers/STM32H7xx_HAL_Driver/Src/stm32h7xx_hal_dma_ex.c **** 
 1494              		.loc 1 427 5 discriminator 2 view .LVU433
 1495 001e 0123     		movs	r3, #1
 1496 0020 80F83430 		strb	r3, [r0, #52]
 427:../../../lib/Drivers/STM32H7xx_HAL_Driver/Src/stm32h7xx_hal_dma_ex.c **** 
 1497              		.loc 1 427 5 discriminator 2 view .LVU434
 430:../../../lib/Drivers/STM32H7xx_HAL_Driver/Src/stm32h7xx_hal_dma_ex.c **** 
 1498              		.loc 1 430 5 discriminator 2 view .LVU435
 1499 0024 036E     		ldr	r3, [r0, #96]
 1500 0026 1A68     		ldr	r2, [r3]
 1501 0028 22F48132 		bic	r2, r2, #66048
 1502 002c 1A60     		str	r2, [r3]
 433:../../../lib/Drivers/STM32H7xx_HAL_Driver/Src/stm32h7xx_hal_dma_ex.c ****                (~DMAMUX_CxCR_DMAREQ_ID) , \
 1503              		.loc 1 433 5 discriminator 2 view .LVU436
 1504 002e 066E     		ldr	r6, [r0, #96]
 1505 0030 3268     		ldr	r2, [r6]
 1506 0032 D2B2     		uxtb	r2, r2
 1507 0034 CB68     		ldr	r3, [r1, #12]
 1508 0036 013B     		subs	r3, r3, #1
 1509 0038 DB04     		lsls	r3, r3, #19
 1510 003a 43EA0563 		orr	r3, r3, r5, lsl #24
 1511 003e 2343     		orrs	r3, r3, r4
 1512 0040 0C7A     		ldrb	r4, [r1, #8]	@ zero_extendqisi2
 1513              	.LVL54:
 433:../../../lib/Drivers/STM32H7xx_HAL_Driver/Src/stm32h7xx_hal_dma_ex.c ****                (~DMAMUX_CxCR_DMAREQ_ID) , \
 1514              		.loc 1 433 5 is_stmt 0 discriminator 2 view .LVU437
 1515 0042 43EA0443 		orr	r3, r3, r4, lsl #16
 1516 0046 497A     		ldrb	r1, [r1, #9]	@ zero_extendqisi2
 1517              	.LVL55:
 433:../../../lib/Drivers/STM32H7xx_HAL_Driver/Src/stm32h7xx_hal_dma_ex.c ****                (~DMAMUX_CxCR_DMAREQ_ID) , \
 1518              		.loc 1 433 5 discriminator 2 view .LVU438
 1519 0048 43EA4123 		orr	r3, r3, r1, lsl #9
 1520 004c 1343     		orrs	r3, r3, r2
 1521 004e 3360     		str	r3, [r6]
 441:../../../lib/Drivers/STM32H7xx_HAL_Driver/Src/stm32h7xx_hal_dma_ex.c **** 
 1522              		.loc 1 441 5 is_stmt 1 discriminator 2 view .LVU439
 441:../../../lib/Drivers/STM32H7xx_HAL_Driver/Src/stm32h7xx_hal_dma_ex.c **** 
 1523              		.loc 1 441 5 discriminator 2 view .LVU440
ARM GAS  C:\Users\tnguy\AppData\Local\Temp\ccH3JJU2.s 			page 47


 1524 0050 0023     		movs	r3, #0
 1525 0052 80F83430 		strb	r3, [r0, #52]
 441:../../../lib/Drivers/STM32H7xx_HAL_Driver/Src/stm32h7xx_hal_dma_ex.c **** 
 1526              		.loc 1 441 5 discriminator 2 view .LVU441
 443:../../../lib/Drivers/STM32H7xx_HAL_Driver/Src/stm32h7xx_hal_dma_ex.c ****   }
 1527              		.loc 1 443 5 discriminator 2 view .LVU442
 443:../../../lib/Drivers/STM32H7xx_HAL_Driver/Src/stm32h7xx_hal_dma_ex.c ****   }
 1528              		.loc 1 443 12 is_stmt 0 discriminator 2 view .LVU443
 1529 0056 1846     		mov	r0, r3
 1530              	.LVL56:
 443:../../../lib/Drivers/STM32H7xx_HAL_Driver/Src/stm32h7xx_hal_dma_ex.c ****   }
 1531              		.loc 1 443 12 discriminator 2 view .LVU444
 1532 0058 06E0     		b	.L71
 1533              	.LVL57:
 1534              	.L75:
 409:../../../lib/Drivers/STM32H7xx_HAL_Driver/Src/stm32h7xx_hal_dma_ex.c **** 
 1535              		.loc 1 409 5 is_stmt 1 view .LVU445
 411:../../../lib/Drivers/STM32H7xx_HAL_Driver/Src/stm32h7xx_hal_dma_ex.c ****     {
 1536              		.loc 1 411 5 view .LVU446
 417:../../../lib/Drivers/STM32H7xx_HAL_Driver/Src/stm32h7xx_hal_dma_ex.c ****     }
 1537              		.loc 1 417 7 view .LVU447
 419:../../../lib/Drivers/STM32H7xx_HAL_Driver/Src/stm32h7xx_hal_dma_ex.c ****     syncPolarity = pSyncConfig->SyncPolarity;
 1538              		.loc 1 419 5 view .LVU448
 419:../../../lib/Drivers/STM32H7xx_HAL_Driver/Src/stm32h7xx_hal_dma_ex.c ****     syncPolarity = pSyncConfig->SyncPolarity;
 1539              		.loc 1 419 18 is_stmt 0 view .LVU449
 1540 005a 0D68     		ldr	r5, [r1]
 1541              	.LVL58:
 420:../../../lib/Drivers/STM32H7xx_HAL_Driver/Src/stm32h7xx_hal_dma_ex.c ****   }
 1542              		.loc 1 420 5 is_stmt 1 view .LVU450
 420:../../../lib/Drivers/STM32H7xx_HAL_Driver/Src/stm32h7xx_hal_dma_ex.c ****   }
 1543              		.loc 1 420 18 is_stmt 0 view .LVU451
 1544 005c 4C68     		ldr	r4, [r1, #4]
 1545              	.LVL59:
 420:../../../lib/Drivers/STM32H7xx_HAL_Driver/Src/stm32h7xx_hal_dma_ex.c ****   }
 1546              		.loc 1 420 18 view .LVU452
 1547 005e D5E7     		b	.L69
 1548              	.L70:
 448:../../../lib/Drivers/STM32H7xx_HAL_Driver/Src/stm32h7xx_hal_dma_ex.c **** 
 1549              		.loc 1 448 5 is_stmt 1 view .LVU453
 448:../../../lib/Drivers/STM32H7xx_HAL_Driver/Src/stm32h7xx_hal_dma_ex.c **** 
 1550              		.loc 1 448 21 is_stmt 0 view .LVU454
 1551 0060 4FF40063 		mov	r3, #2048
 1552 0064 4365     		str	r3, [r0, #84]
 451:../../../lib/Drivers/STM32H7xx_HAL_Driver/Src/stm32h7xx_hal_dma_ex.c ****   }
 1553              		.loc 1 451 5 is_stmt 1 view .LVU455
 451:../../../lib/Drivers/STM32H7xx_HAL_Driver/Src/stm32h7xx_hal_dma_ex.c ****   }
 1554              		.loc 1 451 12 is_stmt 0 view .LVU456
 1555 0066 0120     		movs	r0, #1
 1556              	.LVL60:
 1557              	.L71:
 453:../../../lib/Drivers/STM32H7xx_HAL_Driver/Src/stm32h7xx_hal_dma_ex.c **** 
 1558              		.loc 1 453 1 view .LVU457
 1559 0068 70BC     		pop	{r4, r5, r6}
 1560              	.LCFI9:
 1561              		.cfi_remember_state
 1562              		.cfi_restore 6
 1563              		.cfi_restore 5
ARM GAS  C:\Users\tnguy\AppData\Local\Temp\ccH3JJU2.s 			page 48


 1564              		.cfi_restore 4
 1565              		.cfi_def_cfa_offset 0
 1566              	.LVL61:
 453:../../../lib/Drivers/STM32H7xx_HAL_Driver/Src/stm32h7xx_hal_dma_ex.c **** 
 1567              		.loc 1 453 1 view .LVU458
 1568 006a 7047     		bx	lr
 1569              	.LVL62:
 1570              	.L73:
 1571              	.LCFI10:
 1572              		.cfi_restore_state
 427:../../../lib/Drivers/STM32H7xx_HAL_Driver/Src/stm32h7xx_hal_dma_ex.c **** 
 1573              		.loc 1 427 5 view .LVU459
 1574 006c 0220     		movs	r0, #2
 1575              	.LVL63:
 427:../../../lib/Drivers/STM32H7xx_HAL_Driver/Src/stm32h7xx_hal_dma_ex.c **** 
 1576              		.loc 1 427 5 view .LVU460
 1577 006e FBE7     		b	.L71
 1578              		.cfi_endproc
 1579              	.LFE147:
 1581              		.section	.text.HAL_DMAEx_ConfigMuxRequestGenerator,"ax",%progbits
 1582              		.align	1
 1583              		.global	HAL_DMAEx_ConfigMuxRequestGenerator
 1584              		.syntax unified
 1585              		.thumb
 1586              		.thumb_func
 1588              	HAL_DMAEx_ConfigMuxRequestGenerator:
 1589              	.LVL64:
 1590              	.LFB148:
 465:../../../lib/Drivers/STM32H7xx_HAL_Driver/Src/stm32h7xx_hal_dma_ex.c ****   HAL_StatusTypeDef status;
 1591              		.loc 1 465 1 is_stmt 1 view -0
 1592              		.cfi_startproc
 1593              		@ args = 0, pretend = 0, frame = 0
 1594              		@ frame_needed = 0, uses_anonymous_args = 0
 1595              		@ link register save eliminated.
 466:../../../lib/Drivers/STM32H7xx_HAL_Driver/Src/stm32h7xx_hal_dma_ex.c ****   HAL_DMA_StateTypeDef temp_state = hdma->State;
 1596              		.loc 1 466 3 view .LVU462
 467:../../../lib/Drivers/STM32H7xx_HAL_Driver/Src/stm32h7xx_hal_dma_ex.c **** 
 1597              		.loc 1 467 3 view .LVU463
 467:../../../lib/Drivers/STM32H7xx_HAL_Driver/Src/stm32h7xx_hal_dma_ex.c **** 
 1598              		.loc 1 467 24 is_stmt 0 view .LVU464
 1599 0000 90F83530 		ldrb	r3, [r0, #53]	@ zero_extendqisi2
 1600              	.LVL65:
 470:../../../lib/Drivers/STM32H7xx_HAL_Driver/Src/stm32h7xx_hal_dma_ex.c **** 
 1601              		.loc 1 470 3 is_stmt 1 view .LVU465
 472:../../../lib/Drivers/STM32H7xx_HAL_Driver/Src/stm32h7xx_hal_dma_ex.c ****   {
 1602              		.loc 1 472 3 view .LVU466
 478:../../../lib/Drivers/STM32H7xx_HAL_Driver/Src/stm32h7xx_hal_dma_ex.c ****   }
 1603              		.loc 1 478 5 view .LVU467
 482:../../../lib/Drivers/STM32H7xx_HAL_Driver/Src/stm32h7xx_hal_dma_ex.c ****   assert_param(IS_DMAMUX_REQUEST_GEN_REQUEST_NUMBER(pRequestGeneratorConfig->RequestNumber));
 1604              		.loc 1 482 3 view .LVU468
 483:../../../lib/Drivers/STM32H7xx_HAL_Driver/Src/stm32h7xx_hal_dma_ex.c **** 
 1605              		.loc 1 483 3 view .LVU469
 488:../../../lib/Drivers/STM32H7xx_HAL_Driver/Src/stm32h7xx_hal_dma_ex.c ****   {
 1606              		.loc 1 488 3 view .LVU470
 488:../../../lib/Drivers/STM32H7xx_HAL_Driver/Src/stm32h7xx_hal_dma_ex.c ****   {
 1607              		.loc 1 488 10 is_stmt 0 view .LVU471
 1608 0004 C26E     		ldr	r2, [r0, #108]
ARM GAS  C:\Users\tnguy\AppData\Local\Temp\ccH3JJU2.s 			page 49


 488:../../../lib/Drivers/STM32H7xx_HAL_Driver/Src/stm32h7xx_hal_dma_ex.c ****   {
 1609              		.loc 1 488 5 view .LVU472
 1610 0006 72B1     		cbz	r2, .L84
 465:../../../lib/Drivers/STM32H7xx_HAL_Driver/Src/stm32h7xx_hal_dma_ex.c ****   HAL_StatusTypeDef status;
 1611              		.loc 1 465 1 view .LVU473
 1612 0008 10B4     		push	{r4}
 1613              	.LCFI11:
 1614              		.cfi_def_cfa_offset 4
 1615              		.cfi_offset 4, -4
 1616 000a DBB2     		uxtb	r3, r3
 496:../../../lib/Drivers/STM32H7xx_HAL_Driver/Src/stm32h7xx_hal_dma_ex.c ****   {
 1617              		.loc 1 496 8 is_stmt 1 view .LVU474
 496:../../../lib/Drivers/STM32H7xx_HAL_Driver/Src/stm32h7xx_hal_dma_ex.c ****   {
 1618              		.loc 1 496 35 is_stmt 0 view .LVU475
 1619 000c 1468     		ldr	r4, [r2]
 496:../../../lib/Drivers/STM32H7xx_HAL_Driver/Src/stm32h7xx_hal_dma_ex.c ****   {
 1620              		.loc 1 496 10 view .LVU476
 1621 000e 14F4803F 		tst	r4, #65536
 1622 0012 01D1     		bne	.L79
 496:../../../lib/Drivers/STM32H7xx_HAL_Driver/Src/stm32h7xx_hal_dma_ex.c ****   {
 1623              		.loc 1 496 68 discriminator 1 view .LVU477
 1624 0014 012B     		cmp	r3, #1
 1625 0016 0AD0     		beq	.L85
 1626              	.L79:
 515:../../../lib/Drivers/STM32H7xx_HAL_Driver/Src/stm32h7xx_hal_dma_ex.c **** 
 1627              		.loc 1 515 5 is_stmt 1 view .LVU478
 515:../../../lib/Drivers/STM32H7xx_HAL_Driver/Src/stm32h7xx_hal_dma_ex.c **** 
 1628              		.loc 1 515 21 is_stmt 0 view .LVU479
 1629 0018 4FF40063 		mov	r3, #2048
 1630              	.LVL66:
 515:../../../lib/Drivers/STM32H7xx_HAL_Driver/Src/stm32h7xx_hal_dma_ex.c **** 
 1631              		.loc 1 515 21 view .LVU480
 1632 001c 4365     		str	r3, [r0, #84]
 518:../../../lib/Drivers/STM32H7xx_HAL_Driver/Src/stm32h7xx_hal_dma_ex.c ****   }
 1633              		.loc 1 518 5 is_stmt 1 view .LVU481
 1634              	.LVL67:
 521:../../../lib/Drivers/STM32H7xx_HAL_Driver/Src/stm32h7xx_hal_dma_ex.c **** }
 1635              		.loc 1 521 10 is_stmt 0 view .LVU482
 1636 001e 0120     		movs	r0, #1
 1637              	.LVL68:
 1638              	.L78:
 522:../../../lib/Drivers/STM32H7xx_HAL_Driver/Src/stm32h7xx_hal_dma_ex.c **** 
 1639              		.loc 1 522 1 view .LVU483
 1640 0020 5DF8044B 		ldr	r4, [sp], #4
 1641              	.LCFI12:
 1642              		.cfi_restore 4
 1643              		.cfi_def_cfa_offset 0
 1644 0024 7047     		bx	lr
 1645              	.LVL69:
 1646              	.L84:
 491:../../../lib/Drivers/STM32H7xx_HAL_Driver/Src/stm32h7xx_hal_dma_ex.c **** 
 1647              		.loc 1 491 5 is_stmt 1 view .LVU484
 491:../../../lib/Drivers/STM32H7xx_HAL_Driver/Src/stm32h7xx_hal_dma_ex.c **** 
 1648              		.loc 1 491 21 is_stmt 0 view .LVU485
 1649 0026 4023     		movs	r3, #64
 1650              	.LVL70:
 491:../../../lib/Drivers/STM32H7xx_HAL_Driver/Src/stm32h7xx_hal_dma_ex.c **** 
ARM GAS  C:\Users\tnguy\AppData\Local\Temp\ccH3JJU2.s 			page 50


 1651              		.loc 1 491 21 view .LVU486
 1652 0028 4365     		str	r3, [r0, #84]
 494:../../../lib/Drivers/STM32H7xx_HAL_Driver/Src/stm32h7xx_hal_dma_ex.c ****   }
 1653              		.loc 1 494 5 is_stmt 1 view .LVU487
 1654              	.LVL71:
 521:../../../lib/Drivers/STM32H7xx_HAL_Driver/Src/stm32h7xx_hal_dma_ex.c **** }
 1655              		.loc 1 521 10 is_stmt 0 view .LVU488
 1656 002a 0120     		movs	r0, #1
 1657              	.LVL72:
 522:../../../lib/Drivers/STM32H7xx_HAL_Driver/Src/stm32h7xx_hal_dma_ex.c **** 
 1658              		.loc 1 522 1 view .LVU489
 1659 002c 7047     		bx	lr
 1660              	.LVL73:
 1661              	.L85:
 1662              	.LCFI13:
 1663              		.cfi_def_cfa_offset 4
 1664              		.cfi_offset 4, -4
 501:../../../lib/Drivers/STM32H7xx_HAL_Driver/Src/stm32h7xx_hal_dma_ex.c **** 
 1665              		.loc 1 501 5 is_stmt 1 view .LVU490
 501:../../../lib/Drivers/STM32H7xx_HAL_Driver/Src/stm32h7xx_hal_dma_ex.c **** 
 1666              		.loc 1 501 5 view .LVU491
 1667 002e 90F83430 		ldrb	r3, [r0, #52]	@ zero_extendqisi2
 1668              	.LVL74:
 501:../../../lib/Drivers/STM32H7xx_HAL_Driver/Src/stm32h7xx_hal_dma_ex.c **** 
 1669              		.loc 1 501 5 is_stmt 0 view .LVU492
 1670 0032 012B     		cmp	r3, #1
 1671 0034 0FD0     		beq	.L80
 501:../../../lib/Drivers/STM32H7xx_HAL_Driver/Src/stm32h7xx_hal_dma_ex.c **** 
 1672              		.loc 1 501 5 is_stmt 1 discriminator 2 view .LVU493
 1673 0036 0123     		movs	r3, #1
 1674 0038 80F83430 		strb	r3, [r0, #52]
 501:../../../lib/Drivers/STM32H7xx_HAL_Driver/Src/stm32h7xx_hal_dma_ex.c **** 
 1675              		.loc 1 501 5 discriminator 2 view .LVU494
 504:../../../lib/Drivers/STM32H7xx_HAL_Driver/Src/stm32h7xx_hal_dma_ex.c ****                                   ((pRequestGeneratorConfig->RequestNumber - 1U) << DMAMUX_RGxCR_GN
 1676              		.loc 1 504 5 discriminator 2 view .LVU495
 504:../../../lib/Drivers/STM32H7xx_HAL_Driver/Src/stm32h7xx_hal_dma_ex.c ****                                   ((pRequestGeneratorConfig->RequestNumber - 1U) << DMAMUX_RGxCR_GN
 1677              		.loc 1 504 59 is_stmt 0 discriminator 2 view .LVU496
 1678 003c 0B68     		ldr	r3, [r1]
 505:../../../lib/Drivers/STM32H7xx_HAL_Driver/Src/stm32h7xx_hal_dma_ex.c ****                                   pRequestGeneratorConfig->Polarity;
 1679              		.loc 1 505 60 discriminator 2 view .LVU497
 1680 003e 8C68     		ldr	r4, [r1, #8]
 505:../../../lib/Drivers/STM32H7xx_HAL_Driver/Src/stm32h7xx_hal_dma_ex.c ****                                   pRequestGeneratorConfig->Polarity;
 1681              		.loc 1 505 76 discriminator 2 view .LVU498
 1682 0040 013C     		subs	r4, r4, #1
 504:../../../lib/Drivers/STM32H7xx_HAL_Driver/Src/stm32h7xx_hal_dma_ex.c ****                                   ((pRequestGeneratorConfig->RequestNumber - 1U) << DMAMUX_RGxCR_GN
 1683              		.loc 1 504 70 discriminator 2 view .LVU499
 1684 0042 43EAC443 		orr	r3, r3, r4, lsl #19
 506:../../../lib/Drivers/STM32H7xx_HAL_Driver/Src/stm32h7xx_hal_dma_ex.c ****     /* Process Locked */
 1685              		.loc 1 506 58 discriminator 2 view .LVU500
 1686 0046 4968     		ldr	r1, [r1, #4]
 1687              	.LVL75:
 505:../../../lib/Drivers/STM32H7xx_HAL_Driver/Src/stm32h7xx_hal_dma_ex.c ****                                   pRequestGeneratorConfig->Polarity;
 1688              		.loc 1 505 109 discriminator 2 view .LVU501
 1689 0048 0B43     		orrs	r3, r3, r1
 504:../../../lib/Drivers/STM32H7xx_HAL_Driver/Src/stm32h7xx_hal_dma_ex.c ****                                   ((pRequestGeneratorConfig->RequestNumber - 1U) << DMAMUX_RGxCR_GN
 1690              		.loc 1 504 34 discriminator 2 view .LVU502
 1691 004a 1360     		str	r3, [r2]
ARM GAS  C:\Users\tnguy\AppData\Local\Temp\ccH3JJU2.s 			page 51


 508:../../../lib/Drivers/STM32H7xx_HAL_Driver/Src/stm32h7xx_hal_dma_ex.c **** 
 1692              		.loc 1 508 5 is_stmt 1 discriminator 2 view .LVU503
 508:../../../lib/Drivers/STM32H7xx_HAL_Driver/Src/stm32h7xx_hal_dma_ex.c **** 
 1693              		.loc 1 508 5 discriminator 2 view .LVU504
 1694 004c 0023     		movs	r3, #0
 1695 004e 80F83430 		strb	r3, [r0, #52]
 508:../../../lib/Drivers/STM32H7xx_HAL_Driver/Src/stm32h7xx_hal_dma_ex.c **** 
 1696              		.loc 1 508 5 discriminator 2 view .LVU505
 510:../../../lib/Drivers/STM32H7xx_HAL_Driver/Src/stm32h7xx_hal_dma_ex.c ****   }
 1697              		.loc 1 510 5 discriminator 2 view .LVU506
 510:../../../lib/Drivers/STM32H7xx_HAL_Driver/Src/stm32h7xx_hal_dma_ex.c ****   }
 1698              		.loc 1 510 12 is_stmt 0 discriminator 2 view .LVU507
 1699 0052 1846     		mov	r0, r3
 1700              	.LVL76:
 510:../../../lib/Drivers/STM32H7xx_HAL_Driver/Src/stm32h7xx_hal_dma_ex.c ****   }
 1701              		.loc 1 510 12 discriminator 2 view .LVU508
 1702 0054 E4E7     		b	.L78
 1703              	.LVL77:
 1704              	.L80:
 501:../../../lib/Drivers/STM32H7xx_HAL_Driver/Src/stm32h7xx_hal_dma_ex.c **** 
 1705              		.loc 1 501 5 view .LVU509
 1706 0056 0220     		movs	r0, #2
 1707              	.LVL78:
 501:../../../lib/Drivers/STM32H7xx_HAL_Driver/Src/stm32h7xx_hal_dma_ex.c **** 
 1708              		.loc 1 501 5 view .LVU510
 1709 0058 E2E7     		b	.L78
 1710              		.cfi_endproc
 1711              	.LFE148:
 1713              		.section	.text.HAL_DMAEx_EnableMuxRequestGenerator,"ax",%progbits
 1714              		.align	1
 1715              		.global	HAL_DMAEx_EnableMuxRequestGenerator
 1716              		.syntax unified
 1717              		.thumb
 1718              		.thumb_func
 1720              	HAL_DMAEx_EnableMuxRequestGenerator:
 1721              	.LVL79:
 1722              	.LFB149:
 531:../../../lib/Drivers/STM32H7xx_HAL_Driver/Src/stm32h7xx_hal_dma_ex.c ****   /* Check the parameters */
 1723              		.loc 1 531 1 is_stmt 1 view -0
 1724              		.cfi_startproc
 1725              		@ args = 0, pretend = 0, frame = 0
 1726              		@ frame_needed = 0, uses_anonymous_args = 0
 1727              		@ link register save eliminated.
 533:../../../lib/Drivers/STM32H7xx_HAL_Driver/Src/stm32h7xx_hal_dma_ex.c **** 
 1728              		.loc 1 533 3 view .LVU512
 537:../../../lib/Drivers/STM32H7xx_HAL_Driver/Src/stm32h7xx_hal_dma_ex.c ****   {
 1729              		.loc 1 537 3 view .LVU513
 537:../../../lib/Drivers/STM32H7xx_HAL_Driver/Src/stm32h7xx_hal_dma_ex.c ****   {
 1730              		.loc 1 537 11 is_stmt 0 view .LVU514
 1731 0000 90F83530 		ldrb	r3, [r0, #53]	@ zero_extendqisi2
 537:../../../lib/Drivers/STM32H7xx_HAL_Driver/Src/stm32h7xx_hal_dma_ex.c ****   {
 1732              		.loc 1 537 5 view .LVU515
 1733 0004 3BB1     		cbz	r3, .L88
 537:../../../lib/Drivers/STM32H7xx_HAL_Driver/Src/stm32h7xx_hal_dma_ex.c ****   {
 1734              		.loc 1 537 51 discriminator 1 view .LVU516
 1735 0006 C36E     		ldr	r3, [r0, #108]
 537:../../../lib/Drivers/STM32H7xx_HAL_Driver/Src/stm32h7xx_hal_dma_ex.c ****   {
ARM GAS  C:\Users\tnguy\AppData\Local\Temp\ccH3JJU2.s 			page 52


 1736              		.loc 1 537 43 discriminator 1 view .LVU517
 1737 0008 3BB1     		cbz	r3, .L89
 540:../../../lib/Drivers/STM32H7xx_HAL_Driver/Src/stm32h7xx_hal_dma_ex.c **** 
 1738              		.loc 1 540 5 is_stmt 1 view .LVU518
 540:../../../lib/Drivers/STM32H7xx_HAL_Driver/Src/stm32h7xx_hal_dma_ex.c **** 
 1739              		.loc 1 540 34 is_stmt 0 view .LVU519
 1740 000a 1A68     		ldr	r2, [r3]
 1741 000c 42F48032 		orr	r2, r2, #65536
 1742 0010 1A60     		str	r2, [r3]
 542:../../../lib/Drivers/STM32H7xx_HAL_Driver/Src/stm32h7xx_hal_dma_ex.c ****  }
 1743              		.loc 1 542 4 is_stmt 1 view .LVU520
 542:../../../lib/Drivers/STM32H7xx_HAL_Driver/Src/stm32h7xx_hal_dma_ex.c ****  }
 1744              		.loc 1 542 11 is_stmt 0 view .LVU521
 1745 0012 0020     		movs	r0, #0
 1746              	.LVL80:
 542:../../../lib/Drivers/STM32H7xx_HAL_Driver/Src/stm32h7xx_hal_dma_ex.c ****  }
 1747              		.loc 1 542 11 view .LVU522
 1748 0014 7047     		bx	lr
 1749              	.LVL81:
 1750              	.L88:
 546:../../../lib/Drivers/STM32H7xx_HAL_Driver/Src/stm32h7xx_hal_dma_ex.c ****  }
 1751              		.loc 1 546 11 view .LVU523
 1752 0016 0120     		movs	r0, #1
 1753              	.LVL82:
 546:../../../lib/Drivers/STM32H7xx_HAL_Driver/Src/stm32h7xx_hal_dma_ex.c ****  }
 1754              		.loc 1 546 11 view .LVU524
 1755 0018 7047     		bx	lr
 1756              	.LVL83:
 1757              	.L89:
 546:../../../lib/Drivers/STM32H7xx_HAL_Driver/Src/stm32h7xx_hal_dma_ex.c ****  }
 1758              		.loc 1 546 11 view .LVU525
 1759 001a 0120     		movs	r0, #1
 1760              	.LVL84:
 548:../../../lib/Drivers/STM32H7xx_HAL_Driver/Src/stm32h7xx_hal_dma_ex.c **** 
 1761              		.loc 1 548 1 view .LVU526
 1762 001c 7047     		bx	lr
 1763              		.cfi_endproc
 1764              	.LFE149:
 1766              		.section	.text.HAL_DMAEx_DisableMuxRequestGenerator,"ax",%progbits
 1767              		.align	1
 1768              		.global	HAL_DMAEx_DisableMuxRequestGenerator
 1769              		.syntax unified
 1770              		.thumb
 1771              		.thumb_func
 1773              	HAL_DMAEx_DisableMuxRequestGenerator:
 1774              	.LVL85:
 1775              	.LFB150:
 557:../../../lib/Drivers/STM32H7xx_HAL_Driver/Src/stm32h7xx_hal_dma_ex.c ****   /* Check the parameters */
 1776              		.loc 1 557 1 is_stmt 1 view -0
 1777              		.cfi_startproc
 1778              		@ args = 0, pretend = 0, frame = 0
 1779              		@ frame_needed = 0, uses_anonymous_args = 0
 1780              		@ link register save eliminated.
 559:../../../lib/Drivers/STM32H7xx_HAL_Driver/Src/stm32h7xx_hal_dma_ex.c **** 
 1781              		.loc 1 559 3 view .LVU528
 563:../../../lib/Drivers/STM32H7xx_HAL_Driver/Src/stm32h7xx_hal_dma_ex.c ****   {
 1782              		.loc 1 563 3 view .LVU529
ARM GAS  C:\Users\tnguy\AppData\Local\Temp\ccH3JJU2.s 			page 53


 563:../../../lib/Drivers/STM32H7xx_HAL_Driver/Src/stm32h7xx_hal_dma_ex.c ****   {
 1783              		.loc 1 563 11 is_stmt 0 view .LVU530
 1784 0000 90F83530 		ldrb	r3, [r0, #53]	@ zero_extendqisi2
 563:../../../lib/Drivers/STM32H7xx_HAL_Driver/Src/stm32h7xx_hal_dma_ex.c ****   {
 1785              		.loc 1 563 5 view .LVU531
 1786 0004 3BB1     		cbz	r3, .L92
 563:../../../lib/Drivers/STM32H7xx_HAL_Driver/Src/stm32h7xx_hal_dma_ex.c ****   {
 1787              		.loc 1 563 51 discriminator 1 view .LVU532
 1788 0006 C36E     		ldr	r3, [r0, #108]
 563:../../../lib/Drivers/STM32H7xx_HAL_Driver/Src/stm32h7xx_hal_dma_ex.c ****   {
 1789              		.loc 1 563 43 discriminator 1 view .LVU533
 1790 0008 3BB1     		cbz	r3, .L93
 566:../../../lib/Drivers/STM32H7xx_HAL_Driver/Src/stm32h7xx_hal_dma_ex.c **** 
 1791              		.loc 1 566 5 is_stmt 1 view .LVU534
 566:../../../lib/Drivers/STM32H7xx_HAL_Driver/Src/stm32h7xx_hal_dma_ex.c **** 
 1792              		.loc 1 566 34 is_stmt 0 view .LVU535
 1793 000a 1A68     		ldr	r2, [r3]
 1794 000c 22F48032 		bic	r2, r2, #65536
 1795 0010 1A60     		str	r2, [r3]
 568:../../../lib/Drivers/STM32H7xx_HAL_Driver/Src/stm32h7xx_hal_dma_ex.c ****  }
 1796              		.loc 1 568 4 is_stmt 1 view .LVU536
 568:../../../lib/Drivers/STM32H7xx_HAL_Driver/Src/stm32h7xx_hal_dma_ex.c ****  }
 1797              		.loc 1 568 11 is_stmt 0 view .LVU537
 1798 0012 0020     		movs	r0, #0
 1799              	.LVL86:
 568:../../../lib/Drivers/STM32H7xx_HAL_Driver/Src/stm32h7xx_hal_dma_ex.c ****  }
 1800              		.loc 1 568 11 view .LVU538
 1801 0014 7047     		bx	lr
 1802              	.LVL87:
 1803              	.L92:
 572:../../../lib/Drivers/STM32H7xx_HAL_Driver/Src/stm32h7xx_hal_dma_ex.c ****  }
 1804              		.loc 1 572 11 view .LVU539
 1805 0016 0120     		movs	r0, #1
 1806              	.LVL88:
 572:../../../lib/Drivers/STM32H7xx_HAL_Driver/Src/stm32h7xx_hal_dma_ex.c ****  }
 1807              		.loc 1 572 11 view .LVU540
 1808 0018 7047     		bx	lr
 1809              	.LVL89:
 1810              	.L93:
 572:../../../lib/Drivers/STM32H7xx_HAL_Driver/Src/stm32h7xx_hal_dma_ex.c ****  }
 1811              		.loc 1 572 11 view .LVU541
 1812 001a 0120     		movs	r0, #1
 1813              	.LVL90:
 574:../../../lib/Drivers/STM32H7xx_HAL_Driver/Src/stm32h7xx_hal_dma_ex.c **** 
 1814              		.loc 1 574 1 view .LVU542
 1815 001c 7047     		bx	lr
 1816              		.cfi_endproc
 1817              	.LFE150:
 1819              		.section	.text.HAL_DMAEx_MUX_IRQHandler,"ax",%progbits
 1820              		.align	1
 1821              		.global	HAL_DMAEx_MUX_IRQHandler
 1822              		.syntax unified
 1823              		.thumb
 1824              		.thumb_func
 1826              	HAL_DMAEx_MUX_IRQHandler:
 1827              	.LVL91:
 1828              	.LFB151:
ARM GAS  C:\Users\tnguy\AppData\Local\Temp\ccH3JJU2.s 			page 54


 583:../../../lib/Drivers/STM32H7xx_HAL_Driver/Src/stm32h7xx_hal_dma_ex.c ****   /* Check for DMAMUX Synchronization overrun */
 1829              		.loc 1 583 1 is_stmt 1 view -0
 1830              		.cfi_startproc
 1831              		@ args = 0, pretend = 0, frame = 0
 1832              		@ frame_needed = 0, uses_anonymous_args = 0
 583:../../../lib/Drivers/STM32H7xx_HAL_Driver/Src/stm32h7xx_hal_dma_ex.c ****   /* Check for DMAMUX Synchronization overrun */
 1833              		.loc 1 583 1 is_stmt 0 view .LVU544
 1834 0000 10B5     		push	{r4, lr}
 1835              	.LCFI14:
 1836              		.cfi_def_cfa_offset 8
 1837              		.cfi_offset 4, -8
 1838              		.cfi_offset 14, -4
 1839 0002 0446     		mov	r4, r0
 585:../../../lib/Drivers/STM32H7xx_HAL_Driver/Src/stm32h7xx_hal_dma_ex.c ****   {
 1840              		.loc 1 585 3 is_stmt 1 view .LVU545
 585:../../../lib/Drivers/STM32H7xx_HAL_Driver/Src/stm32h7xx_hal_dma_ex.c ****   {
 1841              		.loc 1 585 11 is_stmt 0 view .LVU546
 1842 0004 436E     		ldr	r3, [r0, #100]
 585:../../../lib/Drivers/STM32H7xx_HAL_Driver/Src/stm32h7xx_hal_dma_ex.c ****   {
 1843              		.loc 1 585 32 view .LVU547
 1844 0006 1A68     		ldr	r2, [r3]
 585:../../../lib/Drivers/STM32H7xx_HAL_Driver/Src/stm32h7xx_hal_dma_ex.c ****   {
 1845              		.loc 1 585 44 view .LVU548
 1846 0008 836E     		ldr	r3, [r0, #104]
 585:../../../lib/Drivers/STM32H7xx_HAL_Driver/Src/stm32h7xx_hal_dma_ex.c ****   {
 1847              		.loc 1 585 5 view .LVU549
 1848 000a 1A42     		tst	r2, r3
 1849 000c 0ED0     		beq	.L95
 588:../../../lib/Drivers/STM32H7xx_HAL_Driver/Src/stm32h7xx_hal_dma_ex.c **** 
 1850              		.loc 1 588 5 is_stmt 1 view .LVU550
 588:../../../lib/Drivers/STM32H7xx_HAL_Driver/Src/stm32h7xx_hal_dma_ex.c **** 
 1851              		.loc 1 588 9 is_stmt 0 view .LVU551
 1852 000e 026E     		ldr	r2, [r0, #96]
 588:../../../lib/Drivers/STM32H7xx_HAL_Driver/Src/stm32h7xx_hal_dma_ex.c **** 
 1853              		.loc 1 588 30 view .LVU552
 1854 0010 1368     		ldr	r3, [r2]
 1855 0012 23F48073 		bic	r3, r3, #256
 1856 0016 1360     		str	r3, [r2]
 591:../../../lib/Drivers/STM32H7xx_HAL_Driver/Src/stm32h7xx_hal_dma_ex.c **** 
 1857              		.loc 1 591 5 is_stmt 1 view .LVU553
 591:../../../lib/Drivers/STM32H7xx_HAL_Driver/Src/stm32h7xx_hal_dma_ex.c **** 
 1858              		.loc 1 591 9 is_stmt 0 view .LVU554
 1859 0018 436E     		ldr	r3, [r0, #100]
 591:../../../lib/Drivers/STM32H7xx_HAL_Driver/Src/stm32h7xx_hal_dma_ex.c **** 
 1860              		.loc 1 591 42 view .LVU555
 1861 001a 826E     		ldr	r2, [r0, #104]
 591:../../../lib/Drivers/STM32H7xx_HAL_Driver/Src/stm32h7xx_hal_dma_ex.c **** 
 1862              		.loc 1 591 36 view .LVU556
 1863 001c 5A60     		str	r2, [r3, #4]
 594:../../../lib/Drivers/STM32H7xx_HAL_Driver/Src/stm32h7xx_hal_dma_ex.c **** 
 1864              		.loc 1 594 5 is_stmt 1 view .LVU557
 594:../../../lib/Drivers/STM32H7xx_HAL_Driver/Src/stm32h7xx_hal_dma_ex.c **** 
 1865              		.loc 1 594 21 is_stmt 0 view .LVU558
 1866 001e 436D     		ldr	r3, [r0, #84]
 1867 0020 43F40073 		orr	r3, r3, #512
 1868 0024 4365     		str	r3, [r0, #84]
 596:../../../lib/Drivers/STM32H7xx_HAL_Driver/Src/stm32h7xx_hal_dma_ex.c ****     {
ARM GAS  C:\Users\tnguy\AppData\Local\Temp\ccH3JJU2.s 			page 55


 1869              		.loc 1 596 5 is_stmt 1 view .LVU559
 596:../../../lib/Drivers/STM32H7xx_HAL_Driver/Src/stm32h7xx_hal_dma_ex.c ****     {
 1870              		.loc 1 596 12 is_stmt 0 view .LVU560
 1871 0026 C36C     		ldr	r3, [r0, #76]
 596:../../../lib/Drivers/STM32H7xx_HAL_Driver/Src/stm32h7xx_hal_dma_ex.c ****     {
 1872              		.loc 1 596 7 view .LVU561
 1873 0028 03B1     		cbz	r3, .L95
 599:../../../lib/Drivers/STM32H7xx_HAL_Driver/Src/stm32h7xx_hal_dma_ex.c ****     }
 1874              		.loc 1 599 7 is_stmt 1 view .LVU562
 1875 002a 9847     		blx	r3
 1876              	.LVL92:
 1877              	.L95:
 603:../../../lib/Drivers/STM32H7xx_HAL_Driver/Src/stm32h7xx_hal_dma_ex.c ****   {
 1878              		.loc 1 603 3 view .LVU563
 603:../../../lib/Drivers/STM32H7xx_HAL_Driver/Src/stm32h7xx_hal_dma_ex.c ****   {
 1879              		.loc 1 603 10 is_stmt 0 view .LVU564
 1880 002c E36E     		ldr	r3, [r4, #108]
 603:../../../lib/Drivers/STM32H7xx_HAL_Driver/Src/stm32h7xx_hal_dma_ex.c ****   {
 1881              		.loc 1 603 5 view .LVU565
 1882 002e 9BB1     		cbz	r3, .L94
 606:../../../lib/Drivers/STM32H7xx_HAL_Driver/Src/stm32h7xx_hal_dma_ex.c ****     {
 1883              		.loc 1 606 5 is_stmt 1 view .LVU566
 606:../../../lib/Drivers/STM32H7xx_HAL_Driver/Src/stm32h7xx_hal_dma_ex.c ****     {
 1884              		.loc 1 606 13 is_stmt 0 view .LVU567
 1885 0030 226F     		ldr	r2, [r4, #112]
 606:../../../lib/Drivers/STM32H7xx_HAL_Driver/Src/stm32h7xx_hal_dma_ex.c ****     {
 1886              		.loc 1 606 37 view .LVU568
 1887 0032 1168     		ldr	r1, [r2]
 606:../../../lib/Drivers/STM32H7xx_HAL_Driver/Src/stm32h7xx_hal_dma_ex.c ****     {
 1888              		.loc 1 606 50 view .LVU569
 1889 0034 626F     		ldr	r2, [r4, #116]
 606:../../../lib/Drivers/STM32H7xx_HAL_Driver/Src/stm32h7xx_hal_dma_ex.c ****     {
 1890              		.loc 1 606 7 view .LVU570
 1891 0036 1142     		tst	r1, r2
 1892 0038 0ED0     		beq	.L94
 609:../../../lib/Drivers/STM32H7xx_HAL_Driver/Src/stm32h7xx_hal_dma_ex.c **** 
 1893              		.loc 1 609 7 is_stmt 1 view .LVU571
 609:../../../lib/Drivers/STM32H7xx_HAL_Driver/Src/stm32h7xx_hal_dma_ex.c **** 
 1894              		.loc 1 609 36 is_stmt 0 view .LVU572
 1895 003a 1A68     		ldr	r2, [r3]
 1896 003c 22F48072 		bic	r2, r2, #256
 1897 0040 1A60     		str	r2, [r3]
 612:../../../lib/Drivers/STM32H7xx_HAL_Driver/Src/stm32h7xx_hal_dma_ex.c **** 
 1898              		.loc 1 612 7 is_stmt 1 view .LVU573
 612:../../../lib/Drivers/STM32H7xx_HAL_Driver/Src/stm32h7xx_hal_dma_ex.c **** 
 1899              		.loc 1 612 11 is_stmt 0 view .LVU574
 1900 0042 236F     		ldr	r3, [r4, #112]
 612:../../../lib/Drivers/STM32H7xx_HAL_Driver/Src/stm32h7xx_hal_dma_ex.c **** 
 1901              		.loc 1 612 49 view .LVU575
 1902 0044 626F     		ldr	r2, [r4, #116]
 612:../../../lib/Drivers/STM32H7xx_HAL_Driver/Src/stm32h7xx_hal_dma_ex.c **** 
 1903              		.loc 1 612 43 view .LVU576
 1904 0046 5A60     		str	r2, [r3, #4]
 615:../../../lib/Drivers/STM32H7xx_HAL_Driver/Src/stm32h7xx_hal_dma_ex.c **** 
 1905              		.loc 1 615 7 is_stmt 1 view .LVU577
 615:../../../lib/Drivers/STM32H7xx_HAL_Driver/Src/stm32h7xx_hal_dma_ex.c **** 
 1906              		.loc 1 615 23 is_stmt 0 view .LVU578
ARM GAS  C:\Users\tnguy\AppData\Local\Temp\ccH3JJU2.s 			page 56


 1907 0048 636D     		ldr	r3, [r4, #84]
 1908 004a 43F48063 		orr	r3, r3, #1024
 1909 004e 6365     		str	r3, [r4, #84]
 617:../../../lib/Drivers/STM32H7xx_HAL_Driver/Src/stm32h7xx_hal_dma_ex.c ****       {
 1910              		.loc 1 617 7 is_stmt 1 view .LVU579
 617:../../../lib/Drivers/STM32H7xx_HAL_Driver/Src/stm32h7xx_hal_dma_ex.c ****       {
 1911              		.loc 1 617 14 is_stmt 0 view .LVU580
 1912 0050 E36C     		ldr	r3, [r4, #76]
 617:../../../lib/Drivers/STM32H7xx_HAL_Driver/Src/stm32h7xx_hal_dma_ex.c ****       {
 1913              		.loc 1 617 9 view .LVU581
 1914 0052 0BB1     		cbz	r3, .L94
 620:../../../lib/Drivers/STM32H7xx_HAL_Driver/Src/stm32h7xx_hal_dma_ex.c ****       }
 1915              		.loc 1 620 9 is_stmt 1 view .LVU582
 1916 0054 2046     		mov	r0, r4
 1917 0056 9847     		blx	r3
 1918              	.LVL93:
 1919              	.L94:
 624:../../../lib/Drivers/STM32H7xx_HAL_Driver/Src/stm32h7xx_hal_dma_ex.c **** 
 1920              		.loc 1 624 1 is_stmt 0 view .LVU583
 1921 0058 10BD     		pop	{r4, pc}
 624:../../../lib/Drivers/STM32H7xx_HAL_Driver/Src/stm32h7xx_hal_dma_ex.c **** 
 1922              		.loc 1 624 1 view .LVU584
 1923              		.cfi_endproc
 1924              	.LFE151:
 1926              		.text
 1927              	.Letext0:
 1928              		.file 2 "c:\\program files (x86)\\gnu arm embedded toolchain\\10 2021.10\\arm-none-eabi\\include\\
 1929              		.file 3 "c:\\program files (x86)\\gnu arm embedded toolchain\\10 2021.10\\arm-none-eabi\\include\\
 1930              		.file 4 "../../../lib/Drivers/CMSIS/Device/ST/STM32H7xx/Include/stm32h750xx.h"
 1931              		.file 5 "../../../lib/Drivers/CMSIS/Device/ST/STM32H7xx/Include/stm32h7xx.h"
 1932              		.file 6 "../../../lib/Drivers/STM32H7xx_HAL_Driver/Inc/stm32h7xx_hal_def.h"
 1933              		.file 7 "../../../lib/Drivers/STM32H7xx_HAL_Driver/Inc/stm32h7xx_hal_dma.h"
 1934              		.file 8 "../../../lib/Drivers/STM32H7xx_HAL_Driver/Inc/stm32h7xx_hal_dma_ex.h"
ARM GAS  C:\Users\tnguy\AppData\Local\Temp\ccH3JJU2.s 			page 57

