ARM GAS  /tmp/ccnLiXFd.s 			page 1


   1              		.cpu cortex-m7
   2              		.arch armv7e-m
   3              		.fpu fpv5-d16
   4              		.eabi_attribute 28, 1
   5              		.eabi_attribute 20, 1
   6              		.eabi_attribute 21, 1
   7              		.eabi_attribute 23, 3
   8              		.eabi_attribute 24, 1
   9              		.eabi_attribute 25, 1
  10              		.eabi_attribute 26, 1
  11              		.eabi_attribute 30, 1
  12              		.eabi_attribute 34, 1
  13              		.eabi_attribute 18, 4
  14              		.file	"stm32h7xx_it.c"
  15              		.text
  16              	.Ltext0:
  17              		.cfi_sections	.debug_frame
  18              		.file 1 "lib/Core/Src/stm32h7xx_it.c"
  19              		.section	.text.NMI_Handler,"ax",%progbits
  20              		.align	1
  21              		.global	NMI_Handler
  22              		.syntax unified
  23              		.thumb
  24              		.thumb_func
  26              	NMI_Handler:
  27              	.LFB144:
   1:lib/Core/Src/stm32h7xx_it.c **** /* USER CODE BEGIN Header */
   2:lib/Core/Src/stm32h7xx_it.c **** /**
   3:lib/Core/Src/stm32h7xx_it.c ****   ******************************************************************************
   4:lib/Core/Src/stm32h7xx_it.c ****   * @file    stm32h7xx_it.c
   5:lib/Core/Src/stm32h7xx_it.c ****   * @brief   Interrupt Service Routines.
   6:lib/Core/Src/stm32h7xx_it.c ****   ******************************************************************************
   7:lib/Core/Src/stm32h7xx_it.c ****   * @attention
   8:lib/Core/Src/stm32h7xx_it.c ****   *
   9:lib/Core/Src/stm32h7xx_it.c ****   * Copyright (c) 2022 STMicroelectronics.
  10:lib/Core/Src/stm32h7xx_it.c ****   * All rights reserved.
  11:lib/Core/Src/stm32h7xx_it.c ****   *
  12:lib/Core/Src/stm32h7xx_it.c ****   * This software is licensed under terms that can be found in the LICENSE file
  13:lib/Core/Src/stm32h7xx_it.c ****   * in the root directory of this software component.
  14:lib/Core/Src/stm32h7xx_it.c ****   * If no LICENSE file comes with this software, it is provided AS-IS.
  15:lib/Core/Src/stm32h7xx_it.c ****   *
  16:lib/Core/Src/stm32h7xx_it.c ****   ******************************************************************************
  17:lib/Core/Src/stm32h7xx_it.c ****   */
  18:lib/Core/Src/stm32h7xx_it.c **** /* USER CODE END Header */
  19:lib/Core/Src/stm32h7xx_it.c **** 
  20:lib/Core/Src/stm32h7xx_it.c **** /* Includes ------------------------------------------------------------------*/
  21:lib/Core/Src/stm32h7xx_it.c **** #include "main.h"
  22:lib/Core/Src/stm32h7xx_it.c **** #include "stm32h7xx_it.h"
  23:lib/Core/Src/stm32h7xx_it.c **** /* Private includes ----------------------------------------------------------*/
  24:lib/Core/Src/stm32h7xx_it.c **** /* USER CODE BEGIN Includes */
  25:lib/Core/Src/stm32h7xx_it.c **** /* USER CODE END Includes */
  26:lib/Core/Src/stm32h7xx_it.c **** 
  27:lib/Core/Src/stm32h7xx_it.c **** /* Private typedef -----------------------------------------------------------*/
  28:lib/Core/Src/stm32h7xx_it.c **** /* USER CODE BEGIN TD */
  29:lib/Core/Src/stm32h7xx_it.c **** 
  30:lib/Core/Src/stm32h7xx_it.c **** /* USER CODE END TD */
  31:lib/Core/Src/stm32h7xx_it.c **** 
ARM GAS  /tmp/ccnLiXFd.s 			page 2


  32:lib/Core/Src/stm32h7xx_it.c **** /* Private define ------------------------------------------------------------*/
  33:lib/Core/Src/stm32h7xx_it.c **** /* USER CODE BEGIN PD */
  34:lib/Core/Src/stm32h7xx_it.c **** 
  35:lib/Core/Src/stm32h7xx_it.c **** /* USER CODE END PD */
  36:lib/Core/Src/stm32h7xx_it.c **** 
  37:lib/Core/Src/stm32h7xx_it.c **** /* Private macro -------------------------------------------------------------*/
  38:lib/Core/Src/stm32h7xx_it.c **** /* USER CODE BEGIN PM */
  39:lib/Core/Src/stm32h7xx_it.c **** 
  40:lib/Core/Src/stm32h7xx_it.c **** /* USER CODE END PM */
  41:lib/Core/Src/stm32h7xx_it.c **** 
  42:lib/Core/Src/stm32h7xx_it.c **** /* Private variables ---------------------------------------------------------*/
  43:lib/Core/Src/stm32h7xx_it.c **** /* USER CODE BEGIN PV */
  44:lib/Core/Src/stm32h7xx_it.c **** 
  45:lib/Core/Src/stm32h7xx_it.c **** /* USER CODE END PV */
  46:lib/Core/Src/stm32h7xx_it.c **** 
  47:lib/Core/Src/stm32h7xx_it.c **** /* Private function prototypes -----------------------------------------------*/
  48:lib/Core/Src/stm32h7xx_it.c **** /* USER CODE BEGIN PFP */
  49:lib/Core/Src/stm32h7xx_it.c **** 
  50:lib/Core/Src/stm32h7xx_it.c **** /* USER CODE END PFP */
  51:lib/Core/Src/stm32h7xx_it.c **** 
  52:lib/Core/Src/stm32h7xx_it.c **** /* Private user code ---------------------------------------------------------*/
  53:lib/Core/Src/stm32h7xx_it.c **** /* USER CODE BEGIN 0 */
  54:lib/Core/Src/stm32h7xx_it.c **** 
  55:lib/Core/Src/stm32h7xx_it.c **** /* USER CODE END 0 */
  56:lib/Core/Src/stm32h7xx_it.c **** 
  57:lib/Core/Src/stm32h7xx_it.c **** /* External variables --------------------------------------------------------*/
  58:lib/Core/Src/stm32h7xx_it.c **** 
  59:lib/Core/Src/stm32h7xx_it.c **** /* USER CODE BEGIN EV */
  60:lib/Core/Src/stm32h7xx_it.c **** 
  61:lib/Core/Src/stm32h7xx_it.c **** /* USER CODE END EV */
  62:lib/Core/Src/stm32h7xx_it.c **** 
  63:lib/Core/Src/stm32h7xx_it.c **** /******************************************************************************/
  64:lib/Core/Src/stm32h7xx_it.c **** /*           Cortex Processor Interruption and Exception Handlers          */
  65:lib/Core/Src/stm32h7xx_it.c **** /******************************************************************************/
  66:lib/Core/Src/stm32h7xx_it.c **** /**
  67:lib/Core/Src/stm32h7xx_it.c ****   * @brief This function handles Non maskable interrupt.
  68:lib/Core/Src/stm32h7xx_it.c ****   */
  69:lib/Core/Src/stm32h7xx_it.c **** void NMI_Handler(void)
  70:lib/Core/Src/stm32h7xx_it.c **** {
  28              		.loc 1 70 1 view -0
  29              		.cfi_startproc
  30              		@ Volatile: function does not return.
  31              		@ args = 0, pretend = 0, frame = 0
  32              		@ frame_needed = 0, uses_anonymous_args = 0
  33              		@ link register save eliminated.
  34              	.L2:
  71:lib/Core/Src/stm32h7xx_it.c ****   /* USER CODE BEGIN NonMaskableInt_IRQn 0 */
  72:lib/Core/Src/stm32h7xx_it.c **** 
  73:lib/Core/Src/stm32h7xx_it.c ****   /* USER CODE END NonMaskableInt_IRQn 0 */
  74:lib/Core/Src/stm32h7xx_it.c ****   /* USER CODE BEGIN NonMaskableInt_IRQn 1 */
  75:lib/Core/Src/stm32h7xx_it.c ****   while (1)
  35              		.loc 1 75 3 discriminator 1 view .LVU1
  76:lib/Core/Src/stm32h7xx_it.c ****   {
  77:lib/Core/Src/stm32h7xx_it.c ****   }
  36              		.loc 1 77 3 discriminator 1 view .LVU2
  75:lib/Core/Src/stm32h7xx_it.c ****   {
  37              		.loc 1 75 9 discriminator 1 view .LVU3
ARM GAS  /tmp/ccnLiXFd.s 			page 3


  38 0000 FEE7     		b	.L2
  39              		.cfi_endproc
  40              	.LFE144:
  42              		.section	.text.HardFault_Handler,"ax",%progbits
  43              		.align	1
  44              		.global	HardFault_Handler
  45              		.syntax unified
  46              		.thumb
  47              		.thumb_func
  49              	HardFault_Handler:
  50              	.LFB145:
  78:lib/Core/Src/stm32h7xx_it.c ****   /* USER CODE END NonMaskableInt_IRQn 1 */
  79:lib/Core/Src/stm32h7xx_it.c **** }
  80:lib/Core/Src/stm32h7xx_it.c **** 
  81:lib/Core/Src/stm32h7xx_it.c **** /**
  82:lib/Core/Src/stm32h7xx_it.c ****   * @brief This function handles Hard fault interrupt.
  83:lib/Core/Src/stm32h7xx_it.c ****   */
  84:lib/Core/Src/stm32h7xx_it.c **** void HardFault_Handler(void)
  85:lib/Core/Src/stm32h7xx_it.c **** {
  51              		.loc 1 85 1 view -0
  52              		.cfi_startproc
  53              		@ Volatile: function does not return.
  54              		@ args = 0, pretend = 0, frame = 0
  55              		@ frame_needed = 0, uses_anonymous_args = 0
  56              		@ link register save eliminated.
  57              	.L4:
  86:lib/Core/Src/stm32h7xx_it.c ****   /* USER CODE BEGIN HardFault_IRQn 0 */
  87:lib/Core/Src/stm32h7xx_it.c **** 
  88:lib/Core/Src/stm32h7xx_it.c ****   /* USER CODE END HardFault_IRQn 0 */
  89:lib/Core/Src/stm32h7xx_it.c ****   while (1)
  58              		.loc 1 89 3 discriminator 1 view .LVU5
  90:lib/Core/Src/stm32h7xx_it.c ****   {
  91:lib/Core/Src/stm32h7xx_it.c ****     /* USER CODE BEGIN W1_HardFault_IRQn 0 */
  92:lib/Core/Src/stm32h7xx_it.c ****     /* USER CODE END W1_HardFault_IRQn 0 */
  93:lib/Core/Src/stm32h7xx_it.c ****   }
  59              		.loc 1 93 3 discriminator 1 view .LVU6
  89:lib/Core/Src/stm32h7xx_it.c ****   {
  60              		.loc 1 89 9 discriminator 1 view .LVU7
  61 0000 FEE7     		b	.L4
  62              		.cfi_endproc
  63              	.LFE145:
  65              		.section	.text.MemManage_Handler,"ax",%progbits
  66              		.align	1
  67              		.global	MemManage_Handler
  68              		.syntax unified
  69              		.thumb
  70              		.thumb_func
  72              	MemManage_Handler:
  73              	.LFB146:
  94:lib/Core/Src/stm32h7xx_it.c **** }
  95:lib/Core/Src/stm32h7xx_it.c **** 
  96:lib/Core/Src/stm32h7xx_it.c **** /**
  97:lib/Core/Src/stm32h7xx_it.c ****   * @brief This function handles Memory management fault.
  98:lib/Core/Src/stm32h7xx_it.c ****   */
  99:lib/Core/Src/stm32h7xx_it.c **** void MemManage_Handler(void)
 100:lib/Core/Src/stm32h7xx_it.c **** {
  74              		.loc 1 100 1 view -0
ARM GAS  /tmp/ccnLiXFd.s 			page 4


  75              		.cfi_startproc
  76              		@ Volatile: function does not return.
  77              		@ args = 0, pretend = 0, frame = 0
  78              		@ frame_needed = 0, uses_anonymous_args = 0
  79              		@ link register save eliminated.
  80              	.L6:
 101:lib/Core/Src/stm32h7xx_it.c ****   /* USER CODE BEGIN MemoryManagement_IRQn 0 */
 102:lib/Core/Src/stm32h7xx_it.c **** 
 103:lib/Core/Src/stm32h7xx_it.c ****   /* USER CODE END MemoryManagement_IRQn 0 */
 104:lib/Core/Src/stm32h7xx_it.c ****   while (1)
  81              		.loc 1 104 3 discriminator 1 view .LVU9
 105:lib/Core/Src/stm32h7xx_it.c ****   {
 106:lib/Core/Src/stm32h7xx_it.c ****     /* USER CODE BEGIN W1_MemoryManagement_IRQn 0 */
 107:lib/Core/Src/stm32h7xx_it.c ****     /* USER CODE END W1_MemoryManagement_IRQn 0 */
 108:lib/Core/Src/stm32h7xx_it.c ****   }
  82              		.loc 1 108 3 discriminator 1 view .LVU10
 104:lib/Core/Src/stm32h7xx_it.c ****   {
  83              		.loc 1 104 9 discriminator 1 view .LVU11
  84 0000 FEE7     		b	.L6
  85              		.cfi_endproc
  86              	.LFE146:
  88              		.section	.text.BusFault_Handler,"ax",%progbits
  89              		.align	1
  90              		.global	BusFault_Handler
  91              		.syntax unified
  92              		.thumb
  93              		.thumb_func
  95              	BusFault_Handler:
  96              	.LFB147:
 109:lib/Core/Src/stm32h7xx_it.c **** }
 110:lib/Core/Src/stm32h7xx_it.c **** 
 111:lib/Core/Src/stm32h7xx_it.c **** /**
 112:lib/Core/Src/stm32h7xx_it.c ****   * @brief This function handles Pre-fetch fault, memory access fault.
 113:lib/Core/Src/stm32h7xx_it.c ****   */
 114:lib/Core/Src/stm32h7xx_it.c **** void BusFault_Handler(void)
 115:lib/Core/Src/stm32h7xx_it.c **** {
  97              		.loc 1 115 1 view -0
  98              		.cfi_startproc
  99              		@ Volatile: function does not return.
 100              		@ args = 0, pretend = 0, frame = 0
 101              		@ frame_needed = 0, uses_anonymous_args = 0
 102              		@ link register save eliminated.
 103              	.L8:
 116:lib/Core/Src/stm32h7xx_it.c ****   /* USER CODE BEGIN BusFault_IRQn 0 */
 117:lib/Core/Src/stm32h7xx_it.c **** 
 118:lib/Core/Src/stm32h7xx_it.c ****   /* USER CODE END BusFault_IRQn 0 */
 119:lib/Core/Src/stm32h7xx_it.c ****   while (1)
 104              		.loc 1 119 3 discriminator 1 view .LVU13
 120:lib/Core/Src/stm32h7xx_it.c ****   {
 121:lib/Core/Src/stm32h7xx_it.c ****     /* USER CODE BEGIN W1_BusFault_IRQn 0 */
 122:lib/Core/Src/stm32h7xx_it.c ****     /* USER CODE END W1_BusFault_IRQn 0 */
 123:lib/Core/Src/stm32h7xx_it.c ****   }
 105              		.loc 1 123 3 discriminator 1 view .LVU14
 119:lib/Core/Src/stm32h7xx_it.c ****   {
 106              		.loc 1 119 9 discriminator 1 view .LVU15
 107 0000 FEE7     		b	.L8
 108              		.cfi_endproc
ARM GAS  /tmp/ccnLiXFd.s 			page 5


 109              	.LFE147:
 111              		.section	.text.UsageFault_Handler,"ax",%progbits
 112              		.align	1
 113              		.global	UsageFault_Handler
 114              		.syntax unified
 115              		.thumb
 116              		.thumb_func
 118              	UsageFault_Handler:
 119              	.LFB148:
 124:lib/Core/Src/stm32h7xx_it.c **** }
 125:lib/Core/Src/stm32h7xx_it.c **** 
 126:lib/Core/Src/stm32h7xx_it.c **** /**
 127:lib/Core/Src/stm32h7xx_it.c ****   * @brief This function handles Undefined instruction or illegal state.
 128:lib/Core/Src/stm32h7xx_it.c ****   */
 129:lib/Core/Src/stm32h7xx_it.c **** void UsageFault_Handler(void)
 130:lib/Core/Src/stm32h7xx_it.c **** {
 120              		.loc 1 130 1 view -0
 121              		.cfi_startproc
 122              		@ Volatile: function does not return.
 123              		@ args = 0, pretend = 0, frame = 0
 124              		@ frame_needed = 0, uses_anonymous_args = 0
 125              		@ link register save eliminated.
 126              	.L10:
 131:lib/Core/Src/stm32h7xx_it.c ****   /* USER CODE BEGIN UsageFault_IRQn 0 */
 132:lib/Core/Src/stm32h7xx_it.c **** 
 133:lib/Core/Src/stm32h7xx_it.c ****   /* USER CODE END UsageFault_IRQn 0 */
 134:lib/Core/Src/stm32h7xx_it.c ****   while (1)
 127              		.loc 1 134 3 discriminator 1 view .LVU17
 135:lib/Core/Src/stm32h7xx_it.c ****   {
 136:lib/Core/Src/stm32h7xx_it.c ****     /* USER CODE BEGIN W1_UsageFault_IRQn 0 */
 137:lib/Core/Src/stm32h7xx_it.c ****     /* USER CODE END W1_UsageFault_IRQn 0 */
 138:lib/Core/Src/stm32h7xx_it.c ****   }
 128              		.loc 1 138 3 discriminator 1 view .LVU18
 134:lib/Core/Src/stm32h7xx_it.c ****   {
 129              		.loc 1 134 9 discriminator 1 view .LVU19
 130 0000 FEE7     		b	.L10
 131              		.cfi_endproc
 132              	.LFE148:
 134              		.section	.text.SVC_Handler,"ax",%progbits
 135              		.align	1
 136              		.global	SVC_Handler
 137              		.syntax unified
 138              		.thumb
 139              		.thumb_func
 141              	SVC_Handler:
 142              	.LFB149:
 139:lib/Core/Src/stm32h7xx_it.c **** }
 140:lib/Core/Src/stm32h7xx_it.c **** 
 141:lib/Core/Src/stm32h7xx_it.c **** /**
 142:lib/Core/Src/stm32h7xx_it.c ****   * @brief This function handles System service call via SWI instruction.
 143:lib/Core/Src/stm32h7xx_it.c ****   */
 144:lib/Core/Src/stm32h7xx_it.c **** void SVC_Handler(void)
 145:lib/Core/Src/stm32h7xx_it.c **** {
 143              		.loc 1 145 1 view -0
 144              		.cfi_startproc
 145              		@ args = 0, pretend = 0, frame = 0
 146              		@ frame_needed = 0, uses_anonymous_args = 0
ARM GAS  /tmp/ccnLiXFd.s 			page 6


 147              		@ link register save eliminated.
 146:lib/Core/Src/stm32h7xx_it.c ****   /* USER CODE BEGIN SVCall_IRQn 0 */
 147:lib/Core/Src/stm32h7xx_it.c **** 
 148:lib/Core/Src/stm32h7xx_it.c ****   /* USER CODE END SVCall_IRQn 0 */
 149:lib/Core/Src/stm32h7xx_it.c ****   /* USER CODE BEGIN SVCall_IRQn 1 */
 150:lib/Core/Src/stm32h7xx_it.c **** 
 151:lib/Core/Src/stm32h7xx_it.c ****   /* USER CODE END SVCall_IRQn 1 */
 152:lib/Core/Src/stm32h7xx_it.c **** }
 148              		.loc 1 152 1 view .LVU21
 149 0000 7047     		bx	lr
 150              		.cfi_endproc
 151              	.LFE149:
 153              		.section	.text.DebugMon_Handler,"ax",%progbits
 154              		.align	1
 155              		.global	DebugMon_Handler
 156              		.syntax unified
 157              		.thumb
 158              		.thumb_func
 160              	DebugMon_Handler:
 161              	.LFB150:
 153:lib/Core/Src/stm32h7xx_it.c **** 
 154:lib/Core/Src/stm32h7xx_it.c **** /**
 155:lib/Core/Src/stm32h7xx_it.c ****   * @brief This function handles Debug monitor.
 156:lib/Core/Src/stm32h7xx_it.c ****   */
 157:lib/Core/Src/stm32h7xx_it.c **** void DebugMon_Handler(void)
 158:lib/Core/Src/stm32h7xx_it.c **** {
 162              		.loc 1 158 1 view -0
 163              		.cfi_startproc
 164              		@ args = 0, pretend = 0, frame = 0
 165              		@ frame_needed = 0, uses_anonymous_args = 0
 166              		@ link register save eliminated.
 159:lib/Core/Src/stm32h7xx_it.c ****   /* USER CODE BEGIN DebugMonitor_IRQn 0 */
 160:lib/Core/Src/stm32h7xx_it.c **** 
 161:lib/Core/Src/stm32h7xx_it.c ****   /* USER CODE END DebugMonitor_IRQn 0 */
 162:lib/Core/Src/stm32h7xx_it.c ****   /* USER CODE BEGIN DebugMonitor_IRQn 1 */
 163:lib/Core/Src/stm32h7xx_it.c **** 
 164:lib/Core/Src/stm32h7xx_it.c ****   /* USER CODE END DebugMonitor_IRQn 1 */
 165:lib/Core/Src/stm32h7xx_it.c **** }
 167              		.loc 1 165 1 view .LVU23
 168 0000 7047     		bx	lr
 169              		.cfi_endproc
 170              	.LFE150:
 172              		.section	.text.PendSV_Handler,"ax",%progbits
 173              		.align	1
 174              		.global	PendSV_Handler
 175              		.syntax unified
 176              		.thumb
 177              		.thumb_func
 179              	PendSV_Handler:
 180              	.LFB151:
 166:lib/Core/Src/stm32h7xx_it.c **** 
 167:lib/Core/Src/stm32h7xx_it.c **** /**
 168:lib/Core/Src/stm32h7xx_it.c ****   * @brief This function handles Pendable request for system service.
 169:lib/Core/Src/stm32h7xx_it.c ****   */
 170:lib/Core/Src/stm32h7xx_it.c **** void PendSV_Handler(void)
 171:lib/Core/Src/stm32h7xx_it.c **** {
 181              		.loc 1 171 1 view -0
ARM GAS  /tmp/ccnLiXFd.s 			page 7


 182              		.cfi_startproc
 183              		@ args = 0, pretend = 0, frame = 0
 184              		@ frame_needed = 0, uses_anonymous_args = 0
 185              		@ link register save eliminated.
 172:lib/Core/Src/stm32h7xx_it.c ****   /* USER CODE BEGIN PendSV_IRQn 0 */
 173:lib/Core/Src/stm32h7xx_it.c **** 
 174:lib/Core/Src/stm32h7xx_it.c ****   /* USER CODE END PendSV_IRQn 0 */
 175:lib/Core/Src/stm32h7xx_it.c ****   /* USER CODE BEGIN PendSV_IRQn 1 */
 176:lib/Core/Src/stm32h7xx_it.c **** 
 177:lib/Core/Src/stm32h7xx_it.c ****   /* USER CODE END PendSV_IRQn 1 */
 178:lib/Core/Src/stm32h7xx_it.c **** }
 186              		.loc 1 178 1 view .LVU25
 187 0000 7047     		bx	lr
 188              		.cfi_endproc
 189              	.LFE151:
 191              		.section	.text.SysTick_Handler,"ax",%progbits
 192              		.align	1
 193              		.global	SysTick_Handler
 194              		.syntax unified
 195              		.thumb
 196              		.thumb_func
 198              	SysTick_Handler:
 199              	.LFB152:
 179:lib/Core/Src/stm32h7xx_it.c **** 
 180:lib/Core/Src/stm32h7xx_it.c **** /**
 181:lib/Core/Src/stm32h7xx_it.c ****   * @brief This function handles System tick timer.
 182:lib/Core/Src/stm32h7xx_it.c ****   */
 183:lib/Core/Src/stm32h7xx_it.c **** void SysTick_Handler(void)
 184:lib/Core/Src/stm32h7xx_it.c **** {
 200              		.loc 1 184 1 view -0
 201              		.cfi_startproc
 202              		@ args = 0, pretend = 0, frame = 0
 203              		@ frame_needed = 0, uses_anonymous_args = 0
 204 0000 08B5     		push	{r3, lr}
 205              	.LCFI0:
 206              		.cfi_def_cfa_offset 8
 207              		.cfi_offset 3, -8
 208              		.cfi_offset 14, -4
 185:lib/Core/Src/stm32h7xx_it.c ****   /* USER CODE BEGIN SysTick_IRQn 0 */
 186:lib/Core/Src/stm32h7xx_it.c **** 
 187:lib/Core/Src/stm32h7xx_it.c ****   /* USER CODE END SysTick_IRQn 0 */
 188:lib/Core/Src/stm32h7xx_it.c ****   HAL_IncTick();
 209              		.loc 1 188 3 view .LVU27
 210 0002 FFF7FEFF 		bl	HAL_IncTick
 211              	.LVL0:
 189:lib/Core/Src/stm32h7xx_it.c ****   /* USER CODE BEGIN SysTick_IRQn 1 */
 190:lib/Core/Src/stm32h7xx_it.c **** 
 191:lib/Core/Src/stm32h7xx_it.c ****   /* USER CODE END SysTick_IRQn 1 */
 192:lib/Core/Src/stm32h7xx_it.c **** }
 212              		.loc 1 192 1 is_stmt 0 view .LVU28
 213 0006 08BD     		pop	{r3, pc}
 214              		.cfi_endproc
 215              	.LFE152:
 217              		.text
 218              	.Letext0:
 219              		.file 2 "lib/Drivers/STM32H7xx_HAL_Driver/Inc/stm32h7xx_hal.h"
ARM GAS  /tmp/ccnLiXFd.s 			page 8

