ARM GAS  /tmp/ccc6MANg.s 			page 1


   1              		.cpu cortex-m7
   2              		.arch armv7e-m
   3              		.fpu fpv5-d16
   4              		.eabi_attribute 28, 1
   5              		.eabi_attribute 20, 1
   6              		.eabi_attribute 21, 1
   7              		.eabi_attribute 23, 3
   8              		.eabi_attribute 24, 1
   9              		.eabi_attribute 25, 1
  10              		.eabi_attribute 26, 1
  11              		.eabi_attribute 30, 1
  12              		.eabi_attribute 34, 1
  13              		.eabi_attribute 18, 4
  14              		.file	"stm32h7xx_hal_pwr.c"
  15              		.text
  16              	.Ltext0:
  17              		.cfi_sections	.debug_frame
  18              		.file 1 "lib/Drivers/STM32H7xx_HAL_Driver/Src/stm32h7xx_hal_pwr.c"
  19              		.section	.text.HAL_PWR_DeInit,"ax",%progbits
  20              		.align	1
  21              		.global	HAL_PWR_DeInit
  22              		.syntax unified
  23              		.thumb
  24              		.thumb_func
  26              	HAL_PWR_DeInit:
  27              	.LFB144:
   1:lib/Drivers/STM32H7xx_HAL_Driver/Src/stm32h7xx_hal_pwr.c **** /**
   2:lib/Drivers/STM32H7xx_HAL_Driver/Src/stm32h7xx_hal_pwr.c ****   ******************************************************************************
   3:lib/Drivers/STM32H7xx_HAL_Driver/Src/stm32h7xx_hal_pwr.c ****   * @file    stm32h7xx_hal_pwr.c
   4:lib/Drivers/STM32H7xx_HAL_Driver/Src/stm32h7xx_hal_pwr.c ****   * @author  MCD Application Team
   5:lib/Drivers/STM32H7xx_HAL_Driver/Src/stm32h7xx_hal_pwr.c ****   * @brief   PWR HAL module driver.
   6:lib/Drivers/STM32H7xx_HAL_Driver/Src/stm32h7xx_hal_pwr.c ****   *          This file provides firmware functions to manage the following
   7:lib/Drivers/STM32H7xx_HAL_Driver/Src/stm32h7xx_hal_pwr.c ****   *          functionalities of the Power Controller (PWR) peripheral:
   8:lib/Drivers/STM32H7xx_HAL_Driver/Src/stm32h7xx_hal_pwr.c ****   *           + Initialization and de-initialization functions.
   9:lib/Drivers/STM32H7xx_HAL_Driver/Src/stm32h7xx_hal_pwr.c ****   *           + Peripheral Control functions.
  10:lib/Drivers/STM32H7xx_HAL_Driver/Src/stm32h7xx_hal_pwr.c ****   *           + Interrupt Handling functions.
  11:lib/Drivers/STM32H7xx_HAL_Driver/Src/stm32h7xx_hal_pwr.c ****   ******************************************************************************
  12:lib/Drivers/STM32H7xx_HAL_Driver/Src/stm32h7xx_hal_pwr.c ****   * @attention
  13:lib/Drivers/STM32H7xx_HAL_Driver/Src/stm32h7xx_hal_pwr.c ****   *
  14:lib/Drivers/STM32H7xx_HAL_Driver/Src/stm32h7xx_hal_pwr.c ****   * Copyright (c) 2017 STMicroelectronics.
  15:lib/Drivers/STM32H7xx_HAL_Driver/Src/stm32h7xx_hal_pwr.c ****   * All rights reserved.
  16:lib/Drivers/STM32H7xx_HAL_Driver/Src/stm32h7xx_hal_pwr.c ****   *
  17:lib/Drivers/STM32H7xx_HAL_Driver/Src/stm32h7xx_hal_pwr.c ****   * This software is licensed under terms that can be found in the LICENSE file
  18:lib/Drivers/STM32H7xx_HAL_Driver/Src/stm32h7xx_hal_pwr.c ****   * in the root directory of this software component.
  19:lib/Drivers/STM32H7xx_HAL_Driver/Src/stm32h7xx_hal_pwr.c ****   * If no LICENSE file comes with this software, it is provided AS-IS.
  20:lib/Drivers/STM32H7xx_HAL_Driver/Src/stm32h7xx_hal_pwr.c ****   *
  21:lib/Drivers/STM32H7xx_HAL_Driver/Src/stm32h7xx_hal_pwr.c ****   ******************************************************************************
  22:lib/Drivers/STM32H7xx_HAL_Driver/Src/stm32h7xx_hal_pwr.c ****   @verbatim
  23:lib/Drivers/STM32H7xx_HAL_Driver/Src/stm32h7xx_hal_pwr.c ****   ==============================================================================
  24:lib/Drivers/STM32H7xx_HAL_Driver/Src/stm32h7xx_hal_pwr.c ****                         ##### PWR peripheral overview #####
  25:lib/Drivers/STM32H7xx_HAL_Driver/Src/stm32h7xx_hal_pwr.c ****   ==============================================================================
  26:lib/Drivers/STM32H7xx_HAL_Driver/Src/stm32h7xx_hal_pwr.c ****   [..]
  27:lib/Drivers/STM32H7xx_HAL_Driver/Src/stm32h7xx_hal_pwr.c ****    (#) The Power control (PWR) provides an overview of the supply architecture
  28:lib/Drivers/STM32H7xx_HAL_Driver/Src/stm32h7xx_hal_pwr.c ****        for the different power domains and of the supply configuration
  29:lib/Drivers/STM32H7xx_HAL_Driver/Src/stm32h7xx_hal_pwr.c ****        controller.
  30:lib/Drivers/STM32H7xx_HAL_Driver/Src/stm32h7xx_hal_pwr.c ****        In the H7 family, the number of power domains is different between
  31:lib/Drivers/STM32H7xx_HAL_Driver/Src/stm32h7xx_hal_pwr.c ****        device lines. This difference is due to characteristics of each device.
ARM GAS  /tmp/ccc6MANg.s 			page 2


  32:lib/Drivers/STM32H7xx_HAL_Driver/Src/stm32h7xx_hal_pwr.c **** 
  33:lib/Drivers/STM32H7xx_HAL_Driver/Src/stm32h7xx_hal_pwr.c ****    (#) Domain architecture overview for the different H7 lines:
  34:lib/Drivers/STM32H7xx_HAL_Driver/Src/stm32h7xx_hal_pwr.c ****       (+) Dual core lines are STM32H745, STM32H747, STM32H755 and STM32H757.
  35:lib/Drivers/STM32H7xx_HAL_Driver/Src/stm32h7xx_hal_pwr.c ****           These devices have 3 power domains (D1, D2 and D3).
  36:lib/Drivers/STM32H7xx_HAL_Driver/Src/stm32h7xx_hal_pwr.c ****           The domain D1 contains a CPU (Cortex-M7), a Flash memory and some
  37:lib/Drivers/STM32H7xx_HAL_Driver/Src/stm32h7xx_hal_pwr.c ****           peripherals. The D2 domain contains peripherals and a CPU
  38:lib/Drivers/STM32H7xx_HAL_Driver/Src/stm32h7xx_hal_pwr.c ****           (Cortex-M4). The D3 domain contains the system control, I/O logic
  39:lib/Drivers/STM32H7xx_HAL_Driver/Src/stm32h7xx_hal_pwr.c ****           and low-power peripherals.
  40:lib/Drivers/STM32H7xx_HAL_Driver/Src/stm32h7xx_hal_pwr.c ****       (+) STM32H72x, STM32H73x, STM32H742, STM32H743, STM32H750 and STM32H753 
  41:lib/Drivers/STM32H7xx_HAL_Driver/Src/stm32h7xx_hal_pwr.c ****           devices have 3 power domains (D1, D2 and D3).
  42:lib/Drivers/STM32H7xx_HAL_Driver/Src/stm32h7xx_hal_pwr.c ****           The domain D1 contains a CPU (Cortex-M7), a Flash memory and some
  43:lib/Drivers/STM32H7xx_HAL_Driver/Src/stm32h7xx_hal_pwr.c ****           peripherals. The D2 domain contains peripherals. The D3 domains
  44:lib/Drivers/STM32H7xx_HAL_Driver/Src/stm32h7xx_hal_pwr.c ****           contains the system control, I/O logic and low-power peripherals.
  45:lib/Drivers/STM32H7xx_HAL_Driver/Src/stm32h7xx_hal_pwr.c ****       (+) STM32H7Axxx and STM32H7Bxxx devices have 2 power domains (CD and SRD).
  46:lib/Drivers/STM32H7xx_HAL_Driver/Src/stm32h7xx_hal_pwr.c ****           The core domain (CD) contains a CPU (Cortex-M7), a Flash
  47:lib/Drivers/STM32H7xx_HAL_Driver/Src/stm32h7xx_hal_pwr.c ****           memory and peripherals. The SmartRun domain contains the system
  48:lib/Drivers/STM32H7xx_HAL_Driver/Src/stm32h7xx_hal_pwr.c ****           control, I/O logic and low-power peripherals.
  49:lib/Drivers/STM32H7xx_HAL_Driver/Src/stm32h7xx_hal_pwr.c **** 
  50:lib/Drivers/STM32H7xx_HAL_Driver/Src/stm32h7xx_hal_pwr.c ****    (#) Every entity have low power mode as described below :
  51:lib/Drivers/STM32H7xx_HAL_Driver/Src/stm32h7xx_hal_pwr.c ****    (#) The CPU low power modes are :
  52:lib/Drivers/STM32H7xx_HAL_Driver/Src/stm32h7xx_hal_pwr.c ****       (+) CPU CRUN.
  53:lib/Drivers/STM32H7xx_HAL_Driver/Src/stm32h7xx_hal_pwr.c ****       (+) CPU CSLEEP.
  54:lib/Drivers/STM32H7xx_HAL_Driver/Src/stm32h7xx_hal_pwr.c ****       (+) CPU CSTOP.
  55:lib/Drivers/STM32H7xx_HAL_Driver/Src/stm32h7xx_hal_pwr.c ****    (#) The domain low power modes are :
  56:lib/Drivers/STM32H7xx_HAL_Driver/Src/stm32h7xx_hal_pwr.c ****       (+) DRUN.
  57:lib/Drivers/STM32H7xx_HAL_Driver/Src/stm32h7xx_hal_pwr.c ****       (+) DSTOP.
  58:lib/Drivers/STM32H7xx_HAL_Driver/Src/stm32h7xx_hal_pwr.c ****       (+) DSTANDBY.
  59:lib/Drivers/STM32H7xx_HAL_Driver/Src/stm32h7xx_hal_pwr.c ****    (#) The SYSTEM low power modes are :
  60:lib/Drivers/STM32H7xx_HAL_Driver/Src/stm32h7xx_hal_pwr.c ****       (+) RUN* : The Run* mode is entered after a POR reset and a wakeup from
  61:lib/Drivers/STM32H7xx_HAL_Driver/Src/stm32h7xx_hal_pwr.c ****                  Standby. In Run* mode, the performance is limited and the
  62:lib/Drivers/STM32H7xx_HAL_Driver/Src/stm32h7xx_hal_pwr.c ****                  system supply configuration shall be programmed. The system
  63:lib/Drivers/STM32H7xx_HAL_Driver/Src/stm32h7xx_hal_pwr.c ****                  enters Run mode only when the ACTVOSRDY bit in PWR control
  64:lib/Drivers/STM32H7xx_HAL_Driver/Src/stm32h7xx_hal_pwr.c ****                  status register 1 (PWR_CSR1) is set to 1.
  65:lib/Drivers/STM32H7xx_HAL_Driver/Src/stm32h7xx_hal_pwr.c ****       (+) RUN.
  66:lib/Drivers/STM32H7xx_HAL_Driver/Src/stm32h7xx_hal_pwr.c ****       (+) STOP.
  67:lib/Drivers/STM32H7xx_HAL_Driver/Src/stm32h7xx_hal_pwr.c ****       (+) STANDBY.
  68:lib/Drivers/STM32H7xx_HAL_Driver/Src/stm32h7xx_hal_pwr.c **** 
  69:lib/Drivers/STM32H7xx_HAL_Driver/Src/stm32h7xx_hal_pwr.c ****   ==============================================================================
  70:lib/Drivers/STM32H7xx_HAL_Driver/Src/stm32h7xx_hal_pwr.c ****                         ##### How to use this driver #####
  71:lib/Drivers/STM32H7xx_HAL_Driver/Src/stm32h7xx_hal_pwr.c ****   ==============================================================================
  72:lib/Drivers/STM32H7xx_HAL_Driver/Src/stm32h7xx_hal_pwr.c ****   [..]
  73:lib/Drivers/STM32H7xx_HAL_Driver/Src/stm32h7xx_hal_pwr.c ****    (#) Power management peripheral is active by default at startup level in
  74:lib/Drivers/STM32H7xx_HAL_Driver/Src/stm32h7xx_hal_pwr.c ****        STM32h7xx lines.
  75:lib/Drivers/STM32H7xx_HAL_Driver/Src/stm32h7xx_hal_pwr.c **** 
  76:lib/Drivers/STM32H7xx_HAL_Driver/Src/stm32h7xx_hal_pwr.c ****    (#) Call HAL_PWR_EnableBkUpAccess() and HAL_PWR_DisableBkUpAccess() functions
  77:lib/Drivers/STM32H7xx_HAL_Driver/Src/stm32h7xx_hal_pwr.c ****        to enable/disable access to the backup domain (RTC registers, RTC backup
  78:lib/Drivers/STM32H7xx_HAL_Driver/Src/stm32h7xx_hal_pwr.c ****        data registers and backup SRAM).
  79:lib/Drivers/STM32H7xx_HAL_Driver/Src/stm32h7xx_hal_pwr.c **** 
  80:lib/Drivers/STM32H7xx_HAL_Driver/Src/stm32h7xx_hal_pwr.c ****    (#) Call HAL_PWR_ConfigPVD() after setting parameters to be configured (event
  81:lib/Drivers/STM32H7xx_HAL_Driver/Src/stm32h7xx_hal_pwr.c ****        mode and voltage threshold) in order to set up the Power Voltage Detector,
  82:lib/Drivers/STM32H7xx_HAL_Driver/Src/stm32h7xx_hal_pwr.c ****        then use HAL_PWR_EnablePVD() and  HAL_PWR_DisablePVD() functions to start
  83:lib/Drivers/STM32H7xx_HAL_Driver/Src/stm32h7xx_hal_pwr.c ****        and stop the PVD detection.
  84:lib/Drivers/STM32H7xx_HAL_Driver/Src/stm32h7xx_hal_pwr.c ****        (+) PVD level could be one of the following values :
  85:lib/Drivers/STM32H7xx_HAL_Driver/Src/stm32h7xx_hal_pwr.c ****              (++) 1V95
  86:lib/Drivers/STM32H7xx_HAL_Driver/Src/stm32h7xx_hal_pwr.c ****              (++) 2V1
  87:lib/Drivers/STM32H7xx_HAL_Driver/Src/stm32h7xx_hal_pwr.c ****              (++) 2V25
  88:lib/Drivers/STM32H7xx_HAL_Driver/Src/stm32h7xx_hal_pwr.c ****              (++) 2V4
ARM GAS  /tmp/ccc6MANg.s 			page 3


  89:lib/Drivers/STM32H7xx_HAL_Driver/Src/stm32h7xx_hal_pwr.c ****              (++) 2V55
  90:lib/Drivers/STM32H7xx_HAL_Driver/Src/stm32h7xx_hal_pwr.c ****              (++) 2V7
  91:lib/Drivers/STM32H7xx_HAL_Driver/Src/stm32h7xx_hal_pwr.c ****              (++) 2V85
  92:lib/Drivers/STM32H7xx_HAL_Driver/Src/stm32h7xx_hal_pwr.c ****              (++) External voltage level
  93:lib/Drivers/STM32H7xx_HAL_Driver/Src/stm32h7xx_hal_pwr.c **** 
  94:lib/Drivers/STM32H7xx_HAL_Driver/Src/stm32h7xx_hal_pwr.c ****    (#) Call HAL_PWR_EnableWakeUpPin() and HAL_PWR_DisableWakeUpPin() functions
  95:lib/Drivers/STM32H7xx_HAL_Driver/Src/stm32h7xx_hal_pwr.c ****        with the right parameter to configure the wake up pin polarity (Low or
  96:lib/Drivers/STM32H7xx_HAL_Driver/Src/stm32h7xx_hal_pwr.c ****        High) and to enable and disable it.
  97:lib/Drivers/STM32H7xx_HAL_Driver/Src/stm32h7xx_hal_pwr.c **** 
  98:lib/Drivers/STM32H7xx_HAL_Driver/Src/stm32h7xx_hal_pwr.c ****    (#) Call HAL_PWR_EnterSLEEPMode() function to enter the current Core in SLEEP
  99:lib/Drivers/STM32H7xx_HAL_Driver/Src/stm32h7xx_hal_pwr.c ****        mode. Wake-up from SLEEP mode could be following to an event or an
 100:lib/Drivers/STM32H7xx_HAL_Driver/Src/stm32h7xx_hal_pwr.c ****        interrupt according to low power mode intrinsic request called (__WFI()
 101:lib/Drivers/STM32H7xx_HAL_Driver/Src/stm32h7xx_hal_pwr.c ****        or __WFE()).
 102:lib/Drivers/STM32H7xx_HAL_Driver/Src/stm32h7xx_hal_pwr.c ****        Please ensure to clear all CPU pending events by calling
 103:lib/Drivers/STM32H7xx_HAL_Driver/Src/stm32h7xx_hal_pwr.c ****        HAL_PWREx_ClearPendingEvent() function when trying to enter the Cortex-Mx
 104:lib/Drivers/STM32H7xx_HAL_Driver/Src/stm32h7xx_hal_pwr.c ****        in SLEEP mode with __WFE() entry.
 105:lib/Drivers/STM32H7xx_HAL_Driver/Src/stm32h7xx_hal_pwr.c **** 
 106:lib/Drivers/STM32H7xx_HAL_Driver/Src/stm32h7xx_hal_pwr.c ****    (#) Call HAL_PWR_EnterSTOPMode() function to enter the whole system to Stop 0
 107:lib/Drivers/STM32H7xx_HAL_Driver/Src/stm32h7xx_hal_pwr.c ****        mode for single core devices. For dual core devices, this API will enter
 108:lib/Drivers/STM32H7xx_HAL_Driver/Src/stm32h7xx_hal_pwr.c ****        the domain (containing Cortex-Mx that executing this function) in DSTOP
 109:lib/Drivers/STM32H7xx_HAL_Driver/Src/stm32h7xx_hal_pwr.c ****        mode. According to the used parameter, user could select the regulator to
 110:lib/Drivers/STM32H7xx_HAL_Driver/Src/stm32h7xx_hal_pwr.c ****        be kept actif in low power mode and wake-up event type.
 111:lib/Drivers/STM32H7xx_HAL_Driver/Src/stm32h7xx_hal_pwr.c ****        Please ensure to clear all CPU pending events by calling
 112:lib/Drivers/STM32H7xx_HAL_Driver/Src/stm32h7xx_hal_pwr.c ****        HAL_PWREx_ClearPendingEvent() function when trying to enter the Cortex-Mx
 113:lib/Drivers/STM32H7xx_HAL_Driver/Src/stm32h7xx_hal_pwr.c ****        in CSTOP mode with __WFE() entry.
 114:lib/Drivers/STM32H7xx_HAL_Driver/Src/stm32h7xx_hal_pwr.c **** 
 115:lib/Drivers/STM32H7xx_HAL_Driver/Src/stm32h7xx_hal_pwr.c ****    (#) Call HAL_PWR_EnterSTANDBYMode() function to enter the whole system in
 116:lib/Drivers/STM32H7xx_HAL_Driver/Src/stm32h7xx_hal_pwr.c ****        STANDBY mode for single core devices. For dual core devices, this API
 117:lib/Drivers/STM32H7xx_HAL_Driver/Src/stm32h7xx_hal_pwr.c ****        will enter the domain (containing Cortex-Mx that executing this function)
 118:lib/Drivers/STM32H7xx_HAL_Driver/Src/stm32h7xx_hal_pwr.c ****        in DSTANDBY mode.
 119:lib/Drivers/STM32H7xx_HAL_Driver/Src/stm32h7xx_hal_pwr.c **** 
 120:lib/Drivers/STM32H7xx_HAL_Driver/Src/stm32h7xx_hal_pwr.c ****    (#) Call HAL_PWR_EnableSleepOnExit() and HAL_PWR_DisableSleepOnExit() APIs to
 121:lib/Drivers/STM32H7xx_HAL_Driver/Src/stm32h7xx_hal_pwr.c ****        enable and disable the Cortex-Mx re-entring in SLEEP mode after an
 122:lib/Drivers/STM32H7xx_HAL_Driver/Src/stm32h7xx_hal_pwr.c ****        interruption handling is over.
 123:lib/Drivers/STM32H7xx_HAL_Driver/Src/stm32h7xx_hal_pwr.c **** 
 124:lib/Drivers/STM32H7xx_HAL_Driver/Src/stm32h7xx_hal_pwr.c ****    (#) Call HAL_PWR_EnableSEVOnPend() and HAL_PWR_DisableSEVOnPend() functions
 125:lib/Drivers/STM32H7xx_HAL_Driver/Src/stm32h7xx_hal_pwr.c ****        to configure the Cortex-Mx to wake-up after any pending event / interrupt
 126:lib/Drivers/STM32H7xx_HAL_Driver/Src/stm32h7xx_hal_pwr.c ****        even if it's disabled or has insufficient priority to cause exception
 127:lib/Drivers/STM32H7xx_HAL_Driver/Src/stm32h7xx_hal_pwr.c ****        entry.
 128:lib/Drivers/STM32H7xx_HAL_Driver/Src/stm32h7xx_hal_pwr.c **** 
 129:lib/Drivers/STM32H7xx_HAL_Driver/Src/stm32h7xx_hal_pwr.c ****    (#) Call HAL_PWR_PVD_IRQHandler() function to handle the PWR PVD interrupt
 130:lib/Drivers/STM32H7xx_HAL_Driver/Src/stm32h7xx_hal_pwr.c ****        request.
 131:lib/Drivers/STM32H7xx_HAL_Driver/Src/stm32h7xx_hal_pwr.c **** 
 132:lib/Drivers/STM32H7xx_HAL_Driver/Src/stm32h7xx_hal_pwr.c ****      *** PWR HAL driver macros list ***
 133:lib/Drivers/STM32H7xx_HAL_Driver/Src/stm32h7xx_hal_pwr.c ****      =============================================
 134:lib/Drivers/STM32H7xx_HAL_Driver/Src/stm32h7xx_hal_pwr.c ****      [..]
 135:lib/Drivers/STM32H7xx_HAL_Driver/Src/stm32h7xx_hal_pwr.c ****        Below the list of most used macros in PWR HAL driver.
 136:lib/Drivers/STM32H7xx_HAL_Driver/Src/stm32h7xx_hal_pwr.c **** 
 137:lib/Drivers/STM32H7xx_HAL_Driver/Src/stm32h7xx_hal_pwr.c ****       (+) __HAL_PWR_VOLTAGESCALING_CONFIG() : Configure the main internal
 138:lib/Drivers/STM32H7xx_HAL_Driver/Src/stm32h7xx_hal_pwr.c ****                                               regulator output voltage.
 139:lib/Drivers/STM32H7xx_HAL_Driver/Src/stm32h7xx_hal_pwr.c ****       (+) __HAL_PWR_GET_FLAG()              : Get the PWR pending flags.
 140:lib/Drivers/STM32H7xx_HAL_Driver/Src/stm32h7xx_hal_pwr.c ****       (+) __HAL_PWR_CLEAR_FLAG()            : Clear the PWR pending flags.
 141:lib/Drivers/STM32H7xx_HAL_Driver/Src/stm32h7xx_hal_pwr.c **** 
 142:lib/Drivers/STM32H7xx_HAL_Driver/Src/stm32h7xx_hal_pwr.c ****   @endverbatim
 143:lib/Drivers/STM32H7xx_HAL_Driver/Src/stm32h7xx_hal_pwr.c ****   */
 144:lib/Drivers/STM32H7xx_HAL_Driver/Src/stm32h7xx_hal_pwr.c **** 
 145:lib/Drivers/STM32H7xx_HAL_Driver/Src/stm32h7xx_hal_pwr.c **** /* Includes ------------------------------------------------------------------*/
ARM GAS  /tmp/ccc6MANg.s 			page 4


 146:lib/Drivers/STM32H7xx_HAL_Driver/Src/stm32h7xx_hal_pwr.c **** #include "stm32h7xx_hal.h"
 147:lib/Drivers/STM32H7xx_HAL_Driver/Src/stm32h7xx_hal_pwr.c **** 
 148:lib/Drivers/STM32H7xx_HAL_Driver/Src/stm32h7xx_hal_pwr.c **** /** @addtogroup STM32H7xx_HAL_Driver
 149:lib/Drivers/STM32H7xx_HAL_Driver/Src/stm32h7xx_hal_pwr.c ****   * @{
 150:lib/Drivers/STM32H7xx_HAL_Driver/Src/stm32h7xx_hal_pwr.c ****   */
 151:lib/Drivers/STM32H7xx_HAL_Driver/Src/stm32h7xx_hal_pwr.c **** 
 152:lib/Drivers/STM32H7xx_HAL_Driver/Src/stm32h7xx_hal_pwr.c **** /** @defgroup PWR PWR
 153:lib/Drivers/STM32H7xx_HAL_Driver/Src/stm32h7xx_hal_pwr.c ****   * @brief PWR HAL module driver
 154:lib/Drivers/STM32H7xx_HAL_Driver/Src/stm32h7xx_hal_pwr.c ****   * @{
 155:lib/Drivers/STM32H7xx_HAL_Driver/Src/stm32h7xx_hal_pwr.c ****   */
 156:lib/Drivers/STM32H7xx_HAL_Driver/Src/stm32h7xx_hal_pwr.c **** 
 157:lib/Drivers/STM32H7xx_HAL_Driver/Src/stm32h7xx_hal_pwr.c **** #ifdef HAL_PWR_MODULE_ENABLED
 158:lib/Drivers/STM32H7xx_HAL_Driver/Src/stm32h7xx_hal_pwr.c **** 
 159:lib/Drivers/STM32H7xx_HAL_Driver/Src/stm32h7xx_hal_pwr.c **** /* Private typedef -----------------------------------------------------------*/
 160:lib/Drivers/STM32H7xx_HAL_Driver/Src/stm32h7xx_hal_pwr.c **** /* Private define ------------------------------------------------------------*/
 161:lib/Drivers/STM32H7xx_HAL_Driver/Src/stm32h7xx_hal_pwr.c **** 
 162:lib/Drivers/STM32H7xx_HAL_Driver/Src/stm32h7xx_hal_pwr.c **** /** @addtogroup PWR_Private_Constants PWR Private Constants
 163:lib/Drivers/STM32H7xx_HAL_Driver/Src/stm32h7xx_hal_pwr.c ****   * @{
 164:lib/Drivers/STM32H7xx_HAL_Driver/Src/stm32h7xx_hal_pwr.c ****   */
 165:lib/Drivers/STM32H7xx_HAL_Driver/Src/stm32h7xx_hal_pwr.c **** 
 166:lib/Drivers/STM32H7xx_HAL_Driver/Src/stm32h7xx_hal_pwr.c **** /** @defgroup PWR_PVD_Mode_Mask PWR PVD Mode Mask
 167:lib/Drivers/STM32H7xx_HAL_Driver/Src/stm32h7xx_hal_pwr.c ****   * @{
 168:lib/Drivers/STM32H7xx_HAL_Driver/Src/stm32h7xx_hal_pwr.c ****   */
 169:lib/Drivers/STM32H7xx_HAL_Driver/Src/stm32h7xx_hal_pwr.c **** #if !defined (DUAL_CORE)
 170:lib/Drivers/STM32H7xx_HAL_Driver/Src/stm32h7xx_hal_pwr.c **** #define PVD_MODE_IT              (0x00010000U)
 171:lib/Drivers/STM32H7xx_HAL_Driver/Src/stm32h7xx_hal_pwr.c **** #define PVD_MODE_EVT             (0x00020000U)
 172:lib/Drivers/STM32H7xx_HAL_Driver/Src/stm32h7xx_hal_pwr.c **** #endif /* !defined (DUAL_CORE) */
 173:lib/Drivers/STM32H7xx_HAL_Driver/Src/stm32h7xx_hal_pwr.c **** 
 174:lib/Drivers/STM32H7xx_HAL_Driver/Src/stm32h7xx_hal_pwr.c **** #define PVD_RISING_EDGE          (0x00000001U)
 175:lib/Drivers/STM32H7xx_HAL_Driver/Src/stm32h7xx_hal_pwr.c **** #define PVD_FALLING_EDGE         (0x00000002U)
 176:lib/Drivers/STM32H7xx_HAL_Driver/Src/stm32h7xx_hal_pwr.c **** #define PVD_RISING_FALLING_EDGE  (0x00000003U)
 177:lib/Drivers/STM32H7xx_HAL_Driver/Src/stm32h7xx_hal_pwr.c **** /**
 178:lib/Drivers/STM32H7xx_HAL_Driver/Src/stm32h7xx_hal_pwr.c ****   * @}
 179:lib/Drivers/STM32H7xx_HAL_Driver/Src/stm32h7xx_hal_pwr.c ****   */
 180:lib/Drivers/STM32H7xx_HAL_Driver/Src/stm32h7xx_hal_pwr.c **** 
 181:lib/Drivers/STM32H7xx_HAL_Driver/Src/stm32h7xx_hal_pwr.c **** /**
 182:lib/Drivers/STM32H7xx_HAL_Driver/Src/stm32h7xx_hal_pwr.c ****   * @}
 183:lib/Drivers/STM32H7xx_HAL_Driver/Src/stm32h7xx_hal_pwr.c ****   */
 184:lib/Drivers/STM32H7xx_HAL_Driver/Src/stm32h7xx_hal_pwr.c **** 
 185:lib/Drivers/STM32H7xx_HAL_Driver/Src/stm32h7xx_hal_pwr.c **** /* Private macro -------------------------------------------------------------*/
 186:lib/Drivers/STM32H7xx_HAL_Driver/Src/stm32h7xx_hal_pwr.c **** /* Private variables ---------------------------------------------------------*/
 187:lib/Drivers/STM32H7xx_HAL_Driver/Src/stm32h7xx_hal_pwr.c **** /* Private function prototypes -----------------------------------------------*/
 188:lib/Drivers/STM32H7xx_HAL_Driver/Src/stm32h7xx_hal_pwr.c **** /* Private functions ---------------------------------------------------------*/
 189:lib/Drivers/STM32H7xx_HAL_Driver/Src/stm32h7xx_hal_pwr.c **** 
 190:lib/Drivers/STM32H7xx_HAL_Driver/Src/stm32h7xx_hal_pwr.c **** /** @defgroup PWR_Exported_Functions PWR Exported Functions
 191:lib/Drivers/STM32H7xx_HAL_Driver/Src/stm32h7xx_hal_pwr.c ****   * @{
 192:lib/Drivers/STM32H7xx_HAL_Driver/Src/stm32h7xx_hal_pwr.c ****   */
 193:lib/Drivers/STM32H7xx_HAL_Driver/Src/stm32h7xx_hal_pwr.c **** 
 194:lib/Drivers/STM32H7xx_HAL_Driver/Src/stm32h7xx_hal_pwr.c **** /** @defgroup PWR_Exported_Functions_Group1 Initialization and De-Initialization Functions
 195:lib/Drivers/STM32H7xx_HAL_Driver/Src/stm32h7xx_hal_pwr.c ****   * @brief    Initialization and De-Initialization functions
 196:lib/Drivers/STM32H7xx_HAL_Driver/Src/stm32h7xx_hal_pwr.c ****   *
 197:lib/Drivers/STM32H7xx_HAL_Driver/Src/stm32h7xx_hal_pwr.c **** @verbatim
 198:lib/Drivers/STM32H7xx_HAL_Driver/Src/stm32h7xx_hal_pwr.c ****  ===============================================================================
 199:lib/Drivers/STM32H7xx_HAL_Driver/Src/stm32h7xx_hal_pwr.c ****               ##### Initialization and De-Initialization Functions #####
 200:lib/Drivers/STM32H7xx_HAL_Driver/Src/stm32h7xx_hal_pwr.c ****  ===============================================================================
 201:lib/Drivers/STM32H7xx_HAL_Driver/Src/stm32h7xx_hal_pwr.c ****     [..]
 202:lib/Drivers/STM32H7xx_HAL_Driver/Src/stm32h7xx_hal_pwr.c ****       This section provides functions allowing to deinitialize power peripheral.
ARM GAS  /tmp/ccc6MANg.s 			page 5


 203:lib/Drivers/STM32H7xx_HAL_Driver/Src/stm32h7xx_hal_pwr.c **** 
 204:lib/Drivers/STM32H7xx_HAL_Driver/Src/stm32h7xx_hal_pwr.c ****     [..]
 205:lib/Drivers/STM32H7xx_HAL_Driver/Src/stm32h7xx_hal_pwr.c ****       After system reset, the backup domain (RTC registers, RTC backup data
 206:lib/Drivers/STM32H7xx_HAL_Driver/Src/stm32h7xx_hal_pwr.c ****       registers and backup SRAM) is protected against possible unwanted write
 207:lib/Drivers/STM32H7xx_HAL_Driver/Src/stm32h7xx_hal_pwr.c ****       accesses.
 208:lib/Drivers/STM32H7xx_HAL_Driver/Src/stm32h7xx_hal_pwr.c ****       The HAL_PWR_EnableBkUpAccess() function enables the access to the backup
 209:lib/Drivers/STM32H7xx_HAL_Driver/Src/stm32h7xx_hal_pwr.c ****       domain.
 210:lib/Drivers/STM32H7xx_HAL_Driver/Src/stm32h7xx_hal_pwr.c ****       The HAL_PWR_DisableBkUpAccess() function disables the access to the backup
 211:lib/Drivers/STM32H7xx_HAL_Driver/Src/stm32h7xx_hal_pwr.c ****       domain.
 212:lib/Drivers/STM32H7xx_HAL_Driver/Src/stm32h7xx_hal_pwr.c **** 
 213:lib/Drivers/STM32H7xx_HAL_Driver/Src/stm32h7xx_hal_pwr.c **** @endverbatim
 214:lib/Drivers/STM32H7xx_HAL_Driver/Src/stm32h7xx_hal_pwr.c ****   * @{
 215:lib/Drivers/STM32H7xx_HAL_Driver/Src/stm32h7xx_hal_pwr.c ****   */
 216:lib/Drivers/STM32H7xx_HAL_Driver/Src/stm32h7xx_hal_pwr.c **** 
 217:lib/Drivers/STM32H7xx_HAL_Driver/Src/stm32h7xx_hal_pwr.c **** /**
 218:lib/Drivers/STM32H7xx_HAL_Driver/Src/stm32h7xx_hal_pwr.c ****   * @brief  Deinitialize the HAL PWR peripheral registers to their default reset
 219:lib/Drivers/STM32H7xx_HAL_Driver/Src/stm32h7xx_hal_pwr.c ****   *         values.
 220:lib/Drivers/STM32H7xx_HAL_Driver/Src/stm32h7xx_hal_pwr.c ****   * @note   This functionality is not available in this product.
 221:lib/Drivers/STM32H7xx_HAL_Driver/Src/stm32h7xx_hal_pwr.c ****   *         The prototype is kept just to maintain compatibility with other
 222:lib/Drivers/STM32H7xx_HAL_Driver/Src/stm32h7xx_hal_pwr.c ****   *         products.
 223:lib/Drivers/STM32H7xx_HAL_Driver/Src/stm32h7xx_hal_pwr.c ****   * @retval None.
 224:lib/Drivers/STM32H7xx_HAL_Driver/Src/stm32h7xx_hal_pwr.c ****   */
 225:lib/Drivers/STM32H7xx_HAL_Driver/Src/stm32h7xx_hal_pwr.c **** void HAL_PWR_DeInit (void)
 226:lib/Drivers/STM32H7xx_HAL_Driver/Src/stm32h7xx_hal_pwr.c **** {
  28              		.loc 1 226 1 view -0
  29              		.cfi_startproc
  30              		@ args = 0, pretend = 0, frame = 0
  31              		@ frame_needed = 0, uses_anonymous_args = 0
  32              		@ link register save eliminated.
 227:lib/Drivers/STM32H7xx_HAL_Driver/Src/stm32h7xx_hal_pwr.c **** }
  33              		.loc 1 227 1 view .LVU1
  34 0000 7047     		bx	lr
  35              		.cfi_endproc
  36              	.LFE144:
  38              		.section	.text.HAL_PWR_EnableBkUpAccess,"ax",%progbits
  39              		.align	1
  40              		.global	HAL_PWR_EnableBkUpAccess
  41              		.syntax unified
  42              		.thumb
  43              		.thumb_func
  45              	HAL_PWR_EnableBkUpAccess:
  46              	.LFB145:
 228:lib/Drivers/STM32H7xx_HAL_Driver/Src/stm32h7xx_hal_pwr.c **** 
 229:lib/Drivers/STM32H7xx_HAL_Driver/Src/stm32h7xx_hal_pwr.c **** /**
 230:lib/Drivers/STM32H7xx_HAL_Driver/Src/stm32h7xx_hal_pwr.c ****   * @brief  Enable access to the backup domain (RTC registers, RTC backup data
 231:lib/Drivers/STM32H7xx_HAL_Driver/Src/stm32h7xx_hal_pwr.c ****   *         registers and backup SRAM).
 232:lib/Drivers/STM32H7xx_HAL_Driver/Src/stm32h7xx_hal_pwr.c ****   * @note   If the HSE divided by 2, 3, ..31 is used as the RTC clock, the
 233:lib/Drivers/STM32H7xx_HAL_Driver/Src/stm32h7xx_hal_pwr.c ****   *         Backup Domain Access should be kept enabled.
 234:lib/Drivers/STM32H7xx_HAL_Driver/Src/stm32h7xx_hal_pwr.c ****   * @retval None.
 235:lib/Drivers/STM32H7xx_HAL_Driver/Src/stm32h7xx_hal_pwr.c ****   */
 236:lib/Drivers/STM32H7xx_HAL_Driver/Src/stm32h7xx_hal_pwr.c **** void HAL_PWR_EnableBkUpAccess (void)
 237:lib/Drivers/STM32H7xx_HAL_Driver/Src/stm32h7xx_hal_pwr.c **** {
  47              		.loc 1 237 1 view -0
  48              		.cfi_startproc
  49              		@ args = 0, pretend = 0, frame = 0
  50              		@ frame_needed = 0, uses_anonymous_args = 0
  51              		@ link register save eliminated.
ARM GAS  /tmp/ccc6MANg.s 			page 6


 238:lib/Drivers/STM32H7xx_HAL_Driver/Src/stm32h7xx_hal_pwr.c ****   /* Enable access to RTC and backup registers */
 239:lib/Drivers/STM32H7xx_HAL_Driver/Src/stm32h7xx_hal_pwr.c ****   SET_BIT (PWR->CR1, PWR_CR1_DBP);
  52              		.loc 1 239 3 view .LVU3
  53 0000 024A     		ldr	r2, .L3
  54 0002 1368     		ldr	r3, [r2]
  55 0004 43F48073 		orr	r3, r3, #256
  56 0008 1360     		str	r3, [r2]
 240:lib/Drivers/STM32H7xx_HAL_Driver/Src/stm32h7xx_hal_pwr.c **** }
  57              		.loc 1 240 1 is_stmt 0 view .LVU4
  58 000a 7047     		bx	lr
  59              	.L4:
  60              		.align	2
  61              	.L3:
  62 000c 00480258 		.word	1476544512
  63              		.cfi_endproc
  64              	.LFE145:
  66              		.section	.text.HAL_PWR_DisableBkUpAccess,"ax",%progbits
  67              		.align	1
  68              		.global	HAL_PWR_DisableBkUpAccess
  69              		.syntax unified
  70              		.thumb
  71              		.thumb_func
  73              	HAL_PWR_DisableBkUpAccess:
  74              	.LFB146:
 241:lib/Drivers/STM32H7xx_HAL_Driver/Src/stm32h7xx_hal_pwr.c **** 
 242:lib/Drivers/STM32H7xx_HAL_Driver/Src/stm32h7xx_hal_pwr.c **** /**
 243:lib/Drivers/STM32H7xx_HAL_Driver/Src/stm32h7xx_hal_pwr.c ****   * @brief  Disable access to the backup domain (RTC registers, RTC backup data
 244:lib/Drivers/STM32H7xx_HAL_Driver/Src/stm32h7xx_hal_pwr.c ****   *         registers and backup SRAM).
 245:lib/Drivers/STM32H7xx_HAL_Driver/Src/stm32h7xx_hal_pwr.c ****   * @note   If the HSE divided by 2, 3, ..31 is used as the RTC clock, the
 246:lib/Drivers/STM32H7xx_HAL_Driver/Src/stm32h7xx_hal_pwr.c ****   *         Backup Domain Access should be kept enabled.
 247:lib/Drivers/STM32H7xx_HAL_Driver/Src/stm32h7xx_hal_pwr.c ****   * @retval None.
 248:lib/Drivers/STM32H7xx_HAL_Driver/Src/stm32h7xx_hal_pwr.c ****   */
 249:lib/Drivers/STM32H7xx_HAL_Driver/Src/stm32h7xx_hal_pwr.c **** void HAL_PWR_DisableBkUpAccess (void)
 250:lib/Drivers/STM32H7xx_HAL_Driver/Src/stm32h7xx_hal_pwr.c **** {
  75              		.loc 1 250 1 is_stmt 1 view -0
  76              		.cfi_startproc
  77              		@ args = 0, pretend = 0, frame = 0
  78              		@ frame_needed = 0, uses_anonymous_args = 0
  79              		@ link register save eliminated.
 251:lib/Drivers/STM32H7xx_HAL_Driver/Src/stm32h7xx_hal_pwr.c ****   /* Disable access to RTC and backup registers */
 252:lib/Drivers/STM32H7xx_HAL_Driver/Src/stm32h7xx_hal_pwr.c ****   CLEAR_BIT (PWR->CR1, PWR_CR1_DBP);
  80              		.loc 1 252 3 view .LVU6
  81 0000 024A     		ldr	r2, .L6
  82 0002 1368     		ldr	r3, [r2]
  83 0004 23F48073 		bic	r3, r3, #256
  84 0008 1360     		str	r3, [r2]
 253:lib/Drivers/STM32H7xx_HAL_Driver/Src/stm32h7xx_hal_pwr.c **** }
  85              		.loc 1 253 1 is_stmt 0 view .LVU7
  86 000a 7047     		bx	lr
  87              	.L7:
  88              		.align	2
  89              	.L6:
  90 000c 00480258 		.word	1476544512
  91              		.cfi_endproc
  92              	.LFE146:
  94              		.section	.text.HAL_PWR_ConfigPVD,"ax",%progbits
  95              		.align	1
ARM GAS  /tmp/ccc6MANg.s 			page 7


  96              		.global	HAL_PWR_ConfigPVD
  97              		.syntax unified
  98              		.thumb
  99              		.thumb_func
 101              	HAL_PWR_ConfigPVD:
 102              	.LVL0:
 103              	.LFB147:
 254:lib/Drivers/STM32H7xx_HAL_Driver/Src/stm32h7xx_hal_pwr.c **** /**
 255:lib/Drivers/STM32H7xx_HAL_Driver/Src/stm32h7xx_hal_pwr.c ****   * @}
 256:lib/Drivers/STM32H7xx_HAL_Driver/Src/stm32h7xx_hal_pwr.c ****   */
 257:lib/Drivers/STM32H7xx_HAL_Driver/Src/stm32h7xx_hal_pwr.c **** 
 258:lib/Drivers/STM32H7xx_HAL_Driver/Src/stm32h7xx_hal_pwr.c **** /** @defgroup PWR_Exported_Functions_Group2 Peripheral Control Functions
 259:lib/Drivers/STM32H7xx_HAL_Driver/Src/stm32h7xx_hal_pwr.c ****   *  @brief   Power Control functions
 260:lib/Drivers/STM32H7xx_HAL_Driver/Src/stm32h7xx_hal_pwr.c ****   *
 261:lib/Drivers/STM32H7xx_HAL_Driver/Src/stm32h7xx_hal_pwr.c **** @verbatim
 262:lib/Drivers/STM32H7xx_HAL_Driver/Src/stm32h7xx_hal_pwr.c ****  ===============================================================================
 263:lib/Drivers/STM32H7xx_HAL_Driver/Src/stm32h7xx_hal_pwr.c ****                  ##### Peripheral Control Functions #####
 264:lib/Drivers/STM32H7xx_HAL_Driver/Src/stm32h7xx_hal_pwr.c ****  ===============================================================================
 265:lib/Drivers/STM32H7xx_HAL_Driver/Src/stm32h7xx_hal_pwr.c ****     [..]
 266:lib/Drivers/STM32H7xx_HAL_Driver/Src/stm32h7xx_hal_pwr.c ****       This section provides functions allowing to control power peripheral.
 267:lib/Drivers/STM32H7xx_HAL_Driver/Src/stm32h7xx_hal_pwr.c **** 
 268:lib/Drivers/STM32H7xx_HAL_Driver/Src/stm32h7xx_hal_pwr.c ****     *** PVD configuration ***
 269:lib/Drivers/STM32H7xx_HAL_Driver/Src/stm32h7xx_hal_pwr.c ****     =========================
 270:lib/Drivers/STM32H7xx_HAL_Driver/Src/stm32h7xx_hal_pwr.c ****     [..]
 271:lib/Drivers/STM32H7xx_HAL_Driver/Src/stm32h7xx_hal_pwr.c ****       (+) The PVD is used to monitor the VDD power supply by comparing it to a
 272:lib/Drivers/STM32H7xx_HAL_Driver/Src/stm32h7xx_hal_pwr.c ****           threshold selected by the PVD Level (PLS[7:0] bits in the PWR_CR1
 273:lib/Drivers/STM32H7xx_HAL_Driver/Src/stm32h7xx_hal_pwr.c ****           register).
 274:lib/Drivers/STM32H7xx_HAL_Driver/Src/stm32h7xx_hal_pwr.c **** 
 275:lib/Drivers/STM32H7xx_HAL_Driver/Src/stm32h7xx_hal_pwr.c ****       (+) A PVDO flag is available to indicate if VDD is higher or lower
 276:lib/Drivers/STM32H7xx_HAL_Driver/Src/stm32h7xx_hal_pwr.c ****           than the PVD threshold. This event is internally connected to the EXTI
 277:lib/Drivers/STM32H7xx_HAL_Driver/Src/stm32h7xx_hal_pwr.c ****           line 16 to generate an interrupt if enabled.
 278:lib/Drivers/STM32H7xx_HAL_Driver/Src/stm32h7xx_hal_pwr.c ****           It is configurable through __HAL_PWR_PVD_EXTI_ENABLE_IT() macro.
 279:lib/Drivers/STM32H7xx_HAL_Driver/Src/stm32h7xx_hal_pwr.c **** 
 280:lib/Drivers/STM32H7xx_HAL_Driver/Src/stm32h7xx_hal_pwr.c ****       (+) The PVD is stopped in STANDBY mode.
 281:lib/Drivers/STM32H7xx_HAL_Driver/Src/stm32h7xx_hal_pwr.c **** 
 282:lib/Drivers/STM32H7xx_HAL_Driver/Src/stm32h7xx_hal_pwr.c ****     *** Wake-up pin configuration ***
 283:lib/Drivers/STM32H7xx_HAL_Driver/Src/stm32h7xx_hal_pwr.c ****     =================================
 284:lib/Drivers/STM32H7xx_HAL_Driver/Src/stm32h7xx_hal_pwr.c ****     [..]
 285:lib/Drivers/STM32H7xx_HAL_Driver/Src/stm32h7xx_hal_pwr.c ****       (+) Wake-up pin is used to wake up the system from STANDBY mode.
 286:lib/Drivers/STM32H7xx_HAL_Driver/Src/stm32h7xx_hal_pwr.c ****           The pin pull is configurable through the WKUPEPR register to be in
 287:lib/Drivers/STM32H7xx_HAL_Driver/Src/stm32h7xx_hal_pwr.c ****           No-pull, Pull-up and Pull-down.
 288:lib/Drivers/STM32H7xx_HAL_Driver/Src/stm32h7xx_hal_pwr.c ****           The pin polarity is configurable through the WKUPEPR register to be
 289:lib/Drivers/STM32H7xx_HAL_Driver/Src/stm32h7xx_hal_pwr.c ****           active on rising or falling edges.
 290:lib/Drivers/STM32H7xx_HAL_Driver/Src/stm32h7xx_hal_pwr.c **** 
 291:lib/Drivers/STM32H7xx_HAL_Driver/Src/stm32h7xx_hal_pwr.c ****       (+) There are up to six Wake-up pin in the STM32H7 devices family.
 292:lib/Drivers/STM32H7xx_HAL_Driver/Src/stm32h7xx_hal_pwr.c **** 
 293:lib/Drivers/STM32H7xx_HAL_Driver/Src/stm32h7xx_hal_pwr.c ****     *** Low Power modes configuration ***
 294:lib/Drivers/STM32H7xx_HAL_Driver/Src/stm32h7xx_hal_pwr.c ****     =====================================
 295:lib/Drivers/STM32H7xx_HAL_Driver/Src/stm32h7xx_hal_pwr.c ****     [..]
 296:lib/Drivers/STM32H7xx_HAL_Driver/Src/stm32h7xx_hal_pwr.c ****      The device present 3 principles low-power modes features:
 297:lib/Drivers/STM32H7xx_HAL_Driver/Src/stm32h7xx_hal_pwr.c ****       (+) SLEEP mode   : Cortex-Mx is stopped and all PWR domains are remaining
 298:lib/Drivers/STM32H7xx_HAL_Driver/Src/stm32h7xx_hal_pwr.c ****                          active (Powered and Clocked).
 299:lib/Drivers/STM32H7xx_HAL_Driver/Src/stm32h7xx_hal_pwr.c **** 
 300:lib/Drivers/STM32H7xx_HAL_Driver/Src/stm32h7xx_hal_pwr.c ****       (+) STOP mode    : Cortex-Mx is stopped, clocks are stopped and the
 301:lib/Drivers/STM32H7xx_HAL_Driver/Src/stm32h7xx_hal_pwr.c ****                          regulator is running. The Main regulator or the LP
 302:lib/Drivers/STM32H7xx_HAL_Driver/Src/stm32h7xx_hal_pwr.c ****                          regulator could be selected.
 303:lib/Drivers/STM32H7xx_HAL_Driver/Src/stm32h7xx_hal_pwr.c **** 
ARM GAS  /tmp/ccc6MANg.s 			page 8


 304:lib/Drivers/STM32H7xx_HAL_Driver/Src/stm32h7xx_hal_pwr.c ****       (+) STANDBY mode : All PWR domains enter DSTANDBY mode and the VCORE
 305:lib/Drivers/STM32H7xx_HAL_Driver/Src/stm32h7xx_hal_pwr.c ****                          supply regulator is powered off.
 306:lib/Drivers/STM32H7xx_HAL_Driver/Src/stm32h7xx_hal_pwr.c **** 
 307:lib/Drivers/STM32H7xx_HAL_Driver/Src/stm32h7xx_hal_pwr.c ****    *** SLEEP mode ***
 308:lib/Drivers/STM32H7xx_HAL_Driver/Src/stm32h7xx_hal_pwr.c ****    ==================
 309:lib/Drivers/STM32H7xx_HAL_Driver/Src/stm32h7xx_hal_pwr.c ****     [..]
 310:lib/Drivers/STM32H7xx_HAL_Driver/Src/stm32h7xx_hal_pwr.c ****       (+) Entry:
 311:lib/Drivers/STM32H7xx_HAL_Driver/Src/stm32h7xx_hal_pwr.c ****         The SLEEP mode is entered by using the HAL_PWR_EnterSLEEPMode(Regulator,
 312:lib/Drivers/STM32H7xx_HAL_Driver/Src/stm32h7xx_hal_pwr.c ****         SLEEPEntry) function.
 313:lib/Drivers/STM32H7xx_HAL_Driver/Src/stm32h7xx_hal_pwr.c **** 
 314:lib/Drivers/STM32H7xx_HAL_Driver/Src/stm32h7xx_hal_pwr.c ****           (++) PWR_SLEEPENTRY_WFI: enter SLEEP mode with WFI instruction.
 315:lib/Drivers/STM32H7xx_HAL_Driver/Src/stm32h7xx_hal_pwr.c ****           (++) PWR_SLEEPENTRY_WFE: enter SLEEP mode with WFE instruction.
 316:lib/Drivers/STM32H7xx_HAL_Driver/Src/stm32h7xx_hal_pwr.c **** 
 317:lib/Drivers/STM32H7xx_HAL_Driver/Src/stm32h7xx_hal_pwr.c ****       -@@- The Regulator parameter is not used for the STM32H7 family
 318:lib/Drivers/STM32H7xx_HAL_Driver/Src/stm32h7xx_hal_pwr.c ****               and is kept as parameter just to maintain compatibility with the
 319:lib/Drivers/STM32H7xx_HAL_Driver/Src/stm32h7xx_hal_pwr.c ****               lower power families (STM32L).
 320:lib/Drivers/STM32H7xx_HAL_Driver/Src/stm32h7xx_hal_pwr.c **** 
 321:lib/Drivers/STM32H7xx_HAL_Driver/Src/stm32h7xx_hal_pwr.c ****       (+) Exit:
 322:lib/Drivers/STM32H7xx_HAL_Driver/Src/stm32h7xx_hal_pwr.c ****         Any peripheral interrupt acknowledged by the nested vectored interrupt
 323:lib/Drivers/STM32H7xx_HAL_Driver/Src/stm32h7xx_hal_pwr.c ****         controller (NVIC) can wake up the device from SLEEP mode.
 324:lib/Drivers/STM32H7xx_HAL_Driver/Src/stm32h7xx_hal_pwr.c **** 
 325:lib/Drivers/STM32H7xx_HAL_Driver/Src/stm32h7xx_hal_pwr.c ****    *** STOP mode ***
 326:lib/Drivers/STM32H7xx_HAL_Driver/Src/stm32h7xx_hal_pwr.c ****    =================
 327:lib/Drivers/STM32H7xx_HAL_Driver/Src/stm32h7xx_hal_pwr.c ****     [..]
 328:lib/Drivers/STM32H7xx_HAL_Driver/Src/stm32h7xx_hal_pwr.c ****       In system STOP mode, all clocks in the 1.2V domain are stopped, the PLL,
 329:lib/Drivers/STM32H7xx_HAL_Driver/Src/stm32h7xx_hal_pwr.c ****       the HSI, and the HSE RC oscillators are disabled. Internal SRAM and
 330:lib/Drivers/STM32H7xx_HAL_Driver/Src/stm32h7xx_hal_pwr.c ****       register contents are preserved.
 331:lib/Drivers/STM32H7xx_HAL_Driver/Src/stm32h7xx_hal_pwr.c ****       The voltage regulator can be configured either in normal or low-power mode.
 332:lib/Drivers/STM32H7xx_HAL_Driver/Src/stm32h7xx_hal_pwr.c ****       To minimize the consumption in STOP mode, FLASH can be powered off before
 333:lib/Drivers/STM32H7xx_HAL_Driver/Src/stm32h7xx_hal_pwr.c ****       entering the STOP mode using the HAL_PWREx_EnableFlashPowerDown() function.
 334:lib/Drivers/STM32H7xx_HAL_Driver/Src/stm32h7xx_hal_pwr.c ****       It can be switched on again by software after exiting the STOP mode using
 335:lib/Drivers/STM32H7xx_HAL_Driver/Src/stm32h7xx_hal_pwr.c ****       the HAL_PWREx_DisableFlashPowerDown() function.
 336:lib/Drivers/STM32H7xx_HAL_Driver/Src/stm32h7xx_hal_pwr.c **** 
 337:lib/Drivers/STM32H7xx_HAL_Driver/Src/stm32h7xx_hal_pwr.c ****       (+) Entry:
 338:lib/Drivers/STM32H7xx_HAL_Driver/Src/stm32h7xx_hal_pwr.c ****          The STOP mode is entered using the HAL_PWR_EnterSTOPMode(Regulator,
 339:lib/Drivers/STM32H7xx_HAL_Driver/Src/stm32h7xx_hal_pwr.c ****          STOPEntry) function with:
 340:lib/Drivers/STM32H7xx_HAL_Driver/Src/stm32h7xx_hal_pwr.c **** 
 341:lib/Drivers/STM32H7xx_HAL_Driver/Src/stm32h7xx_hal_pwr.c ****          (++) Regulator:
 342:lib/Drivers/STM32H7xx_HAL_Driver/Src/stm32h7xx_hal_pwr.c ****           (+++) PWR_MAINREGULATOR_ON: Main regulator ON.
 343:lib/Drivers/STM32H7xx_HAL_Driver/Src/stm32h7xx_hal_pwr.c ****           (+++) PWR_LOWPOWERREGULATOR_ON: Low Power regulator ON.
 344:lib/Drivers/STM32H7xx_HAL_Driver/Src/stm32h7xx_hal_pwr.c **** 
 345:lib/Drivers/STM32H7xx_HAL_Driver/Src/stm32h7xx_hal_pwr.c ****          (++) STOPEntry:
 346:lib/Drivers/STM32H7xx_HAL_Driver/Src/stm32h7xx_hal_pwr.c ****           (+++) PWR_STOPENTRY_WFI: enter STOP mode with WFI instruction.
 347:lib/Drivers/STM32H7xx_HAL_Driver/Src/stm32h7xx_hal_pwr.c ****           (+++) PWR_STOPENTRY_WFE: enter STOP mode with WFE instruction.
 348:lib/Drivers/STM32H7xx_HAL_Driver/Src/stm32h7xx_hal_pwr.c **** 
 349:lib/Drivers/STM32H7xx_HAL_Driver/Src/stm32h7xx_hal_pwr.c ****       (+) Exit:
 350:lib/Drivers/STM32H7xx_HAL_Driver/Src/stm32h7xx_hal_pwr.c ****          Any EXTI Line (Internal or External) configured in Interrupt/Event mode.
 351:lib/Drivers/STM32H7xx_HAL_Driver/Src/stm32h7xx_hal_pwr.c **** 
 352:lib/Drivers/STM32H7xx_HAL_Driver/Src/stm32h7xx_hal_pwr.c ****    *** STANDBY mode ***
 353:lib/Drivers/STM32H7xx_HAL_Driver/Src/stm32h7xx_hal_pwr.c ****    ====================
 354:lib/Drivers/STM32H7xx_HAL_Driver/Src/stm32h7xx_hal_pwr.c ****     [..]
 355:lib/Drivers/STM32H7xx_HAL_Driver/Src/stm32h7xx_hal_pwr.c ****     (+)
 356:lib/Drivers/STM32H7xx_HAL_Driver/Src/stm32h7xx_hal_pwr.c ****       The system STANDBY mode allows to achieve the lowest power consumption.
 357:lib/Drivers/STM32H7xx_HAL_Driver/Src/stm32h7xx_hal_pwr.c ****       It is based on the Cortex-Mx deep SLEEP mode, with the voltage regulator
 358:lib/Drivers/STM32H7xx_HAL_Driver/Src/stm32h7xx_hal_pwr.c ****       disabled. The system is consequently powered off. The PLL, the HSI
 359:lib/Drivers/STM32H7xx_HAL_Driver/Src/stm32h7xx_hal_pwr.c ****       oscillator and the HSE oscillator are also switched off. SRAM and register
 360:lib/Drivers/STM32H7xx_HAL_Driver/Src/stm32h7xx_hal_pwr.c ****       contents are lost except for the RTC registers, RTC backup registers,
ARM GAS  /tmp/ccc6MANg.s 			page 9


 361:lib/Drivers/STM32H7xx_HAL_Driver/Src/stm32h7xx_hal_pwr.c ****       backup SRAM and standby circuitry.
 362:lib/Drivers/STM32H7xx_HAL_Driver/Src/stm32h7xx_hal_pwr.c **** 
 363:lib/Drivers/STM32H7xx_HAL_Driver/Src/stm32h7xx_hal_pwr.c ****     [..]
 364:lib/Drivers/STM32H7xx_HAL_Driver/Src/stm32h7xx_hal_pwr.c ****       The voltage regulator is OFF.
 365:lib/Drivers/STM32H7xx_HAL_Driver/Src/stm32h7xx_hal_pwr.c **** 
 366:lib/Drivers/STM32H7xx_HAL_Driver/Src/stm32h7xx_hal_pwr.c ****       (++) Entry:
 367:lib/Drivers/STM32H7xx_HAL_Driver/Src/stm32h7xx_hal_pwr.c ****         (+++) The STANDBY mode is entered using the HAL_PWR_EnterSTANDBYMode()
 368:lib/Drivers/STM32H7xx_HAL_Driver/Src/stm32h7xx_hal_pwr.c ****               function.
 369:lib/Drivers/STM32H7xx_HAL_Driver/Src/stm32h7xx_hal_pwr.c **** 
 370:lib/Drivers/STM32H7xx_HAL_Driver/Src/stm32h7xx_hal_pwr.c ****       (++) Exit:
 371:lib/Drivers/STM32H7xx_HAL_Driver/Src/stm32h7xx_hal_pwr.c ****         (+++) WKUP pin rising or falling edge, RTC alarm (Alarm A and Alarm B),
 372:lib/Drivers/STM32H7xx_HAL_Driver/Src/stm32h7xx_hal_pwr.c ****               RTC wakeup, tamper event, time stamp event, external reset in NRST
 373:lib/Drivers/STM32H7xx_HAL_Driver/Src/stm32h7xx_hal_pwr.c ****               pin, IWDG reset.
 374:lib/Drivers/STM32H7xx_HAL_Driver/Src/stm32h7xx_hal_pwr.c **** 
 375:lib/Drivers/STM32H7xx_HAL_Driver/Src/stm32h7xx_hal_pwr.c ****    *** Auto-wakeup (AWU) from low-power mode ***
 376:lib/Drivers/STM32H7xx_HAL_Driver/Src/stm32h7xx_hal_pwr.c ****    =============================================
 377:lib/Drivers/STM32H7xx_HAL_Driver/Src/stm32h7xx_hal_pwr.c ****     [..]
 378:lib/Drivers/STM32H7xx_HAL_Driver/Src/stm32h7xx_hal_pwr.c ****      (+) The MCU can be woken up from low-power mode by an RTC Alarm event, an
 379:lib/Drivers/STM32H7xx_HAL_Driver/Src/stm32h7xx_hal_pwr.c ****          RTC Wakeup event, a tamper event or a time-stamp event, without
 380:lib/Drivers/STM32H7xx_HAL_Driver/Src/stm32h7xx_hal_pwr.c ****          depending on an external interrupt (Auto-wakeup mode).
 381:lib/Drivers/STM32H7xx_HAL_Driver/Src/stm32h7xx_hal_pwr.c **** 
 382:lib/Drivers/STM32H7xx_HAL_Driver/Src/stm32h7xx_hal_pwr.c ****      (+) RTC auto-wakeup (AWU) from the STOP and STANDBY modes
 383:lib/Drivers/STM32H7xx_HAL_Driver/Src/stm32h7xx_hal_pwr.c **** 
 384:lib/Drivers/STM32H7xx_HAL_Driver/Src/stm32h7xx_hal_pwr.c ****        (++) To wake up from the STOP mode with an RTC alarm event, it is
 385:lib/Drivers/STM32H7xx_HAL_Driver/Src/stm32h7xx_hal_pwr.c ****             necessary to configure the RTC to generate the RTC alarm using the
 386:lib/Drivers/STM32H7xx_HAL_Driver/Src/stm32h7xx_hal_pwr.c ****             HAL_RTC_SetAlarm_IT() function.
 387:lib/Drivers/STM32H7xx_HAL_Driver/Src/stm32h7xx_hal_pwr.c **** 
 388:lib/Drivers/STM32H7xx_HAL_Driver/Src/stm32h7xx_hal_pwr.c ****        (++) To wake up from the STOP mode with an RTC Tamper or time stamp event,
 389:lib/Drivers/STM32H7xx_HAL_Driver/Src/stm32h7xx_hal_pwr.c ****             it is necessary to configure the RTC to detect the tamper or time
 390:lib/Drivers/STM32H7xx_HAL_Driver/Src/stm32h7xx_hal_pwr.c ****             stamp event using the HAL_RTCEx_SetTimeStamp_IT() or
 391:lib/Drivers/STM32H7xx_HAL_Driver/Src/stm32h7xx_hal_pwr.c ****             HAL_RTCEx_SetTamper_IT() functions.
 392:lib/Drivers/STM32H7xx_HAL_Driver/Src/stm32h7xx_hal_pwr.c **** 
 393:lib/Drivers/STM32H7xx_HAL_Driver/Src/stm32h7xx_hal_pwr.c ****        (++) To wake up from the STOP mode with an RTC WakeUp event, it is
 394:lib/Drivers/STM32H7xx_HAL_Driver/Src/stm32h7xx_hal_pwr.c ****             necessary to configure the RTC to generate the RTC WakeUp event
 395:lib/Drivers/STM32H7xx_HAL_Driver/Src/stm32h7xx_hal_pwr.c ****             using the HAL_RTCEx_SetWakeUpTimer_IT() function.
 396:lib/Drivers/STM32H7xx_HAL_Driver/Src/stm32h7xx_hal_pwr.c **** 
 397:lib/Drivers/STM32H7xx_HAL_Driver/Src/stm32h7xx_hal_pwr.c **** @endverbatim
 398:lib/Drivers/STM32H7xx_HAL_Driver/Src/stm32h7xx_hal_pwr.c ****   * @{
 399:lib/Drivers/STM32H7xx_HAL_Driver/Src/stm32h7xx_hal_pwr.c ****   */
 400:lib/Drivers/STM32H7xx_HAL_Driver/Src/stm32h7xx_hal_pwr.c **** 
 401:lib/Drivers/STM32H7xx_HAL_Driver/Src/stm32h7xx_hal_pwr.c **** /**
 402:lib/Drivers/STM32H7xx_HAL_Driver/Src/stm32h7xx_hal_pwr.c ****   * @brief  Configure the event mode and the voltage threshold detected by the
 403:lib/Drivers/STM32H7xx_HAL_Driver/Src/stm32h7xx_hal_pwr.c ****   *         Programmable Voltage Detector(PVD).
 404:lib/Drivers/STM32H7xx_HAL_Driver/Src/stm32h7xx_hal_pwr.c ****   * @param  sConfigPVD : Pointer to an PWR_PVDTypeDef structure that contains
 405:lib/Drivers/STM32H7xx_HAL_Driver/Src/stm32h7xx_hal_pwr.c ****   *                      the configuration information for the PVD.
 406:lib/Drivers/STM32H7xx_HAL_Driver/Src/stm32h7xx_hal_pwr.c ****   * @note   Refer to the electrical characteristics of your device datasheet for
 407:lib/Drivers/STM32H7xx_HAL_Driver/Src/stm32h7xx_hal_pwr.c ****   *         more details about the voltage threshold corresponding to each
 408:lib/Drivers/STM32H7xx_HAL_Driver/Src/stm32h7xx_hal_pwr.c ****   *         detection level.
 409:lib/Drivers/STM32H7xx_HAL_Driver/Src/stm32h7xx_hal_pwr.c ****   * @note   For dual core devices, please ensure to configure the EXTI lines for
 410:lib/Drivers/STM32H7xx_HAL_Driver/Src/stm32h7xx_hal_pwr.c ****   *         the different Cortex-Mx through PWR_Exported_Macro provided by this
 411:lib/Drivers/STM32H7xx_HAL_Driver/Src/stm32h7xx_hal_pwr.c ****   *         driver. All combination are allowed: wake up only Cortex-M7, wake up
 412:lib/Drivers/STM32H7xx_HAL_Driver/Src/stm32h7xx_hal_pwr.c ****   *         only Cortex-M4 or wake up Cortex-M7 and Cortex-M4.
 413:lib/Drivers/STM32H7xx_HAL_Driver/Src/stm32h7xx_hal_pwr.c ****   * @retval None.
 414:lib/Drivers/STM32H7xx_HAL_Driver/Src/stm32h7xx_hal_pwr.c ****   */
 415:lib/Drivers/STM32H7xx_HAL_Driver/Src/stm32h7xx_hal_pwr.c **** void HAL_PWR_ConfigPVD (PWR_PVDTypeDef *sConfigPVD)
 416:lib/Drivers/STM32H7xx_HAL_Driver/Src/stm32h7xx_hal_pwr.c **** {
 104              		.loc 1 416 1 is_stmt 1 view -0
ARM GAS  /tmp/ccc6MANg.s 			page 10


 105              		.cfi_startproc
 106              		@ args = 0, pretend = 0, frame = 0
 107              		@ frame_needed = 0, uses_anonymous_args = 0
 108              		@ link register save eliminated.
 417:lib/Drivers/STM32H7xx_HAL_Driver/Src/stm32h7xx_hal_pwr.c ****   /* Check the PVD configuration parameter */
 418:lib/Drivers/STM32H7xx_HAL_Driver/Src/stm32h7xx_hal_pwr.c ****   if (sConfigPVD == NULL)
 109              		.loc 1 418 3 view .LVU9
 110              		.loc 1 418 6 is_stmt 0 view .LVU10
 111 0000 0246     		mov	r2, r0
 112 0002 0028     		cmp	r0, #0
 113 0004 48D0     		beq	.L8
 419:lib/Drivers/STM32H7xx_HAL_Driver/Src/stm32h7xx_hal_pwr.c ****   {
 420:lib/Drivers/STM32H7xx_HAL_Driver/Src/stm32h7xx_hal_pwr.c ****     return;
 421:lib/Drivers/STM32H7xx_HAL_Driver/Src/stm32h7xx_hal_pwr.c ****   }
 422:lib/Drivers/STM32H7xx_HAL_Driver/Src/stm32h7xx_hal_pwr.c **** 
 423:lib/Drivers/STM32H7xx_HAL_Driver/Src/stm32h7xx_hal_pwr.c ****   /* Check the parameters */
 424:lib/Drivers/STM32H7xx_HAL_Driver/Src/stm32h7xx_hal_pwr.c ****   assert_param (IS_PWR_PVD_LEVEL (sConfigPVD->PVDLevel));
 114              		.loc 1 424 3 is_stmt 1 view .LVU11
 425:lib/Drivers/STM32H7xx_HAL_Driver/Src/stm32h7xx_hal_pwr.c ****   assert_param (IS_PWR_PVD_MODE (sConfigPVD->Mode));
 115              		.loc 1 425 3 view .LVU12
 426:lib/Drivers/STM32H7xx_HAL_Driver/Src/stm32h7xx_hal_pwr.c **** 
 427:lib/Drivers/STM32H7xx_HAL_Driver/Src/stm32h7xx_hal_pwr.c ****   /* Set PLS[7:5] bits according to PVDLevel value */
 428:lib/Drivers/STM32H7xx_HAL_Driver/Src/stm32h7xx_hal_pwr.c ****   MODIFY_REG (PWR->CR1, PWR_CR1_PLS, sConfigPVD->PVDLevel);
 116              		.loc 1 428 3 view .LVU13
 117 0006 2549     		ldr	r1, .L13
 118 0008 0B68     		ldr	r3, [r1]
 119 000a 23F0E003 		bic	r3, r3, #224
 120 000e 0068     		ldr	r0, [r0]
 121              	.LVL1:
 122              		.loc 1 428 3 is_stmt 0 view .LVU14
 123 0010 0343     		orrs	r3, r3, r0
 124 0012 0B60     		str	r3, [r1]
 429:lib/Drivers/STM32H7xx_HAL_Driver/Src/stm32h7xx_hal_pwr.c **** 
 430:lib/Drivers/STM32H7xx_HAL_Driver/Src/stm32h7xx_hal_pwr.c ****   /* Clear previous config */
 431:lib/Drivers/STM32H7xx_HAL_Driver/Src/stm32h7xx_hal_pwr.c **** #if !defined (DUAL_CORE)
 432:lib/Drivers/STM32H7xx_HAL_Driver/Src/stm32h7xx_hal_pwr.c ****   __HAL_PWR_PVD_EXTI_DISABLE_EVENT ();
 125              		.loc 1 432 3 is_stmt 1 view .LVU15
 126 0014 4FF0B043 		mov	r3, #1476395008
 127 0018 D3F88410 		ldr	r1, [r3, #132]
 128 001c 21F48031 		bic	r1, r1, #65536
 129 0020 C3F88410 		str	r1, [r3, #132]
 433:lib/Drivers/STM32H7xx_HAL_Driver/Src/stm32h7xx_hal_pwr.c ****   __HAL_PWR_PVD_EXTI_DISABLE_IT ();
 130              		.loc 1 433 3 view .LVU16
 131 0024 D3F88010 		ldr	r1, [r3, #128]
 132 0028 21F48031 		bic	r1, r1, #65536
 133 002c C3F88010 		str	r1, [r3, #128]
 434:lib/Drivers/STM32H7xx_HAL_Driver/Src/stm32h7xx_hal_pwr.c **** #endif /* !defined (DUAL_CORE) */
 435:lib/Drivers/STM32H7xx_HAL_Driver/Src/stm32h7xx_hal_pwr.c **** 
 436:lib/Drivers/STM32H7xx_HAL_Driver/Src/stm32h7xx_hal_pwr.c ****   __HAL_PWR_PVD_EXTI_DISABLE_RISING_EDGE ();
 134              		.loc 1 436 3 view .LVU17
 135 0030 1968     		ldr	r1, [r3]
 136 0032 21F48031 		bic	r1, r1, #65536
 137 0036 1960     		str	r1, [r3]
 437:lib/Drivers/STM32H7xx_HAL_Driver/Src/stm32h7xx_hal_pwr.c ****   __HAL_PWR_PVD_EXTI_DISABLE_FALLING_EDGE ();
 138              		.loc 1 437 3 view .LVU18
 139 0038 5968     		ldr	r1, [r3, #4]
 140 003a 21F48031 		bic	r1, r1, #65536
ARM GAS  /tmp/ccc6MANg.s 			page 11


 141 003e 5960     		str	r1, [r3, #4]
 438:lib/Drivers/STM32H7xx_HAL_Driver/Src/stm32h7xx_hal_pwr.c **** 
 439:lib/Drivers/STM32H7xx_HAL_Driver/Src/stm32h7xx_hal_pwr.c **** #if !defined (DUAL_CORE)
 440:lib/Drivers/STM32H7xx_HAL_Driver/Src/stm32h7xx_hal_pwr.c ****   /* Interrupt mode configuration */
 441:lib/Drivers/STM32H7xx_HAL_Driver/Src/stm32h7xx_hal_pwr.c ****   if ((sConfigPVD->Mode & PVD_MODE_IT) == PVD_MODE_IT)
 142              		.loc 1 441 3 view .LVU19
 143              		.loc 1 441 18 is_stmt 0 view .LVU20
 144 0040 5368     		ldr	r3, [r2, #4]
 145              		.loc 1 441 6 view .LVU21
 146 0042 13F4803F 		tst	r3, #65536
 147 0046 07D0     		beq	.L10
 442:lib/Drivers/STM32H7xx_HAL_Driver/Src/stm32h7xx_hal_pwr.c ****   {
 443:lib/Drivers/STM32H7xx_HAL_Driver/Src/stm32h7xx_hal_pwr.c ****     __HAL_PWR_PVD_EXTI_ENABLE_IT ();
 148              		.loc 1 443 5 is_stmt 1 view .LVU22
 149 0048 4FF0B041 		mov	r1, #1476395008
 150 004c D1F88030 		ldr	r3, [r1, #128]
 151 0050 43F48033 		orr	r3, r3, #65536
 152 0054 C1F88030 		str	r3, [r1, #128]
 153              	.L10:
 444:lib/Drivers/STM32H7xx_HAL_Driver/Src/stm32h7xx_hal_pwr.c ****   }
 445:lib/Drivers/STM32H7xx_HAL_Driver/Src/stm32h7xx_hal_pwr.c **** 
 446:lib/Drivers/STM32H7xx_HAL_Driver/Src/stm32h7xx_hal_pwr.c ****   /* Event mode configuration */
 447:lib/Drivers/STM32H7xx_HAL_Driver/Src/stm32h7xx_hal_pwr.c ****   if ((sConfigPVD->Mode & PVD_MODE_EVT) == PVD_MODE_EVT)
 154              		.loc 1 447 3 view .LVU23
 155              		.loc 1 447 18 is_stmt 0 view .LVU24
 156 0058 5368     		ldr	r3, [r2, #4]
 157              		.loc 1 447 6 view .LVU25
 158 005a 13F4003F 		tst	r3, #131072
 159 005e 07D0     		beq	.L11
 448:lib/Drivers/STM32H7xx_HAL_Driver/Src/stm32h7xx_hal_pwr.c ****   {
 449:lib/Drivers/STM32H7xx_HAL_Driver/Src/stm32h7xx_hal_pwr.c ****     __HAL_PWR_PVD_EXTI_ENABLE_EVENT ();
 160              		.loc 1 449 5 is_stmt 1 view .LVU26
 161 0060 4FF0B041 		mov	r1, #1476395008
 162 0064 D1F88430 		ldr	r3, [r1, #132]
 163 0068 43F48033 		orr	r3, r3, #65536
 164 006c C1F88430 		str	r3, [r1, #132]
 165              	.L11:
 450:lib/Drivers/STM32H7xx_HAL_Driver/Src/stm32h7xx_hal_pwr.c ****   }
 451:lib/Drivers/STM32H7xx_HAL_Driver/Src/stm32h7xx_hal_pwr.c **** #endif /* !defined (DUAL_CORE) */
 452:lib/Drivers/STM32H7xx_HAL_Driver/Src/stm32h7xx_hal_pwr.c **** 
 453:lib/Drivers/STM32H7xx_HAL_Driver/Src/stm32h7xx_hal_pwr.c ****   /* Rising edge configuration */
 454:lib/Drivers/STM32H7xx_HAL_Driver/Src/stm32h7xx_hal_pwr.c ****   if ((sConfigPVD->Mode & PVD_RISING_EDGE) == PVD_RISING_EDGE)
 166              		.loc 1 454 3 view .LVU27
 167              		.loc 1 454 18 is_stmt 0 view .LVU28
 168 0070 5368     		ldr	r3, [r2, #4]
 169              		.loc 1 454 6 view .LVU29
 170 0072 13F0010F 		tst	r3, #1
 171 0076 05D0     		beq	.L12
 455:lib/Drivers/STM32H7xx_HAL_Driver/Src/stm32h7xx_hal_pwr.c ****   {
 456:lib/Drivers/STM32H7xx_HAL_Driver/Src/stm32h7xx_hal_pwr.c ****     __HAL_PWR_PVD_EXTI_ENABLE_RISING_EDGE ();
 172              		.loc 1 456 5 is_stmt 1 view .LVU30
 173 0078 4FF0B041 		mov	r1, #1476395008
 174 007c 0B68     		ldr	r3, [r1]
 175 007e 43F48033 		orr	r3, r3, #65536
 176 0082 0B60     		str	r3, [r1]
 177              	.L12:
 457:lib/Drivers/STM32H7xx_HAL_Driver/Src/stm32h7xx_hal_pwr.c ****   }
ARM GAS  /tmp/ccc6MANg.s 			page 12


 458:lib/Drivers/STM32H7xx_HAL_Driver/Src/stm32h7xx_hal_pwr.c **** 
 459:lib/Drivers/STM32H7xx_HAL_Driver/Src/stm32h7xx_hal_pwr.c ****   /* Falling edge configuration */
 460:lib/Drivers/STM32H7xx_HAL_Driver/Src/stm32h7xx_hal_pwr.c ****   if ((sConfigPVD->Mode & PVD_FALLING_EDGE) == PVD_FALLING_EDGE)
 178              		.loc 1 460 3 view .LVU31
 179              		.loc 1 460 18 is_stmt 0 view .LVU32
 180 0084 5368     		ldr	r3, [r2, #4]
 181              		.loc 1 460 6 view .LVU33
 182 0086 13F0020F 		tst	r3, #2
 183 008a 05D0     		beq	.L8
 461:lib/Drivers/STM32H7xx_HAL_Driver/Src/stm32h7xx_hal_pwr.c ****   {
 462:lib/Drivers/STM32H7xx_HAL_Driver/Src/stm32h7xx_hal_pwr.c ****     __HAL_PWR_PVD_EXTI_ENABLE_FALLING_EDGE ();
 184              		.loc 1 462 5 is_stmt 1 view .LVU34
 185 008c 4FF0B042 		mov	r2, #1476395008
 186              	.LVL2:
 187              		.loc 1 462 5 is_stmt 0 view .LVU35
 188 0090 5368     		ldr	r3, [r2, #4]
 189 0092 43F48033 		orr	r3, r3, #65536
 190 0096 5360     		str	r3, [r2, #4]
 191              	.L8:
 463:lib/Drivers/STM32H7xx_HAL_Driver/Src/stm32h7xx_hal_pwr.c ****   }
 464:lib/Drivers/STM32H7xx_HAL_Driver/Src/stm32h7xx_hal_pwr.c **** }
 192              		.loc 1 464 1 view .LVU36
 193 0098 7047     		bx	lr
 194              	.L14:
 195 009a 00BF     		.align	2
 196              	.L13:
 197 009c 00480258 		.word	1476544512
 198              		.cfi_endproc
 199              	.LFE147:
 201              		.section	.text.HAL_PWR_EnablePVD,"ax",%progbits
 202              		.align	1
 203              		.global	HAL_PWR_EnablePVD
 204              		.syntax unified
 205              		.thumb
 206              		.thumb_func
 208              	HAL_PWR_EnablePVD:
 209              	.LFB148:
 465:lib/Drivers/STM32H7xx_HAL_Driver/Src/stm32h7xx_hal_pwr.c **** 
 466:lib/Drivers/STM32H7xx_HAL_Driver/Src/stm32h7xx_hal_pwr.c **** /**
 467:lib/Drivers/STM32H7xx_HAL_Driver/Src/stm32h7xx_hal_pwr.c ****   * @brief Enable the Programmable Voltage Detector (PVD).
 468:lib/Drivers/STM32H7xx_HAL_Driver/Src/stm32h7xx_hal_pwr.c ****   * @retval None.
 469:lib/Drivers/STM32H7xx_HAL_Driver/Src/stm32h7xx_hal_pwr.c ****   */
 470:lib/Drivers/STM32H7xx_HAL_Driver/Src/stm32h7xx_hal_pwr.c **** void HAL_PWR_EnablePVD (void)
 471:lib/Drivers/STM32H7xx_HAL_Driver/Src/stm32h7xx_hal_pwr.c **** {
 210              		.loc 1 471 1 is_stmt 1 view -0
 211              		.cfi_startproc
 212              		@ args = 0, pretend = 0, frame = 0
 213              		@ frame_needed = 0, uses_anonymous_args = 0
 214              		@ link register save eliminated.
 472:lib/Drivers/STM32H7xx_HAL_Driver/Src/stm32h7xx_hal_pwr.c ****   /* Enable the power voltage detector */
 473:lib/Drivers/STM32H7xx_HAL_Driver/Src/stm32h7xx_hal_pwr.c ****   SET_BIT (PWR->CR1, PWR_CR1_PVDEN);
 215              		.loc 1 473 3 view .LVU38
 216 0000 024A     		ldr	r2, .L16
 217 0002 1368     		ldr	r3, [r2]
 218 0004 43F01003 		orr	r3, r3, #16
 219 0008 1360     		str	r3, [r2]
 474:lib/Drivers/STM32H7xx_HAL_Driver/Src/stm32h7xx_hal_pwr.c **** }
ARM GAS  /tmp/ccc6MANg.s 			page 13


 220              		.loc 1 474 1 is_stmt 0 view .LVU39
 221 000a 7047     		bx	lr
 222              	.L17:
 223              		.align	2
 224              	.L16:
 225 000c 00480258 		.word	1476544512
 226              		.cfi_endproc
 227              	.LFE148:
 229              		.section	.text.HAL_PWR_DisablePVD,"ax",%progbits
 230              		.align	1
 231              		.global	HAL_PWR_DisablePVD
 232              		.syntax unified
 233              		.thumb
 234              		.thumb_func
 236              	HAL_PWR_DisablePVD:
 237              	.LFB149:
 475:lib/Drivers/STM32H7xx_HAL_Driver/Src/stm32h7xx_hal_pwr.c **** 
 476:lib/Drivers/STM32H7xx_HAL_Driver/Src/stm32h7xx_hal_pwr.c **** /**
 477:lib/Drivers/STM32H7xx_HAL_Driver/Src/stm32h7xx_hal_pwr.c ****   * @brief Disable the Programmable Voltage Detector (PVD).
 478:lib/Drivers/STM32H7xx_HAL_Driver/Src/stm32h7xx_hal_pwr.c ****   * @retval None.
 479:lib/Drivers/STM32H7xx_HAL_Driver/Src/stm32h7xx_hal_pwr.c ****   */
 480:lib/Drivers/STM32H7xx_HAL_Driver/Src/stm32h7xx_hal_pwr.c **** void HAL_PWR_DisablePVD (void)
 481:lib/Drivers/STM32H7xx_HAL_Driver/Src/stm32h7xx_hal_pwr.c **** {
 238              		.loc 1 481 1 is_stmt 1 view -0
 239              		.cfi_startproc
 240              		@ args = 0, pretend = 0, frame = 0
 241              		@ frame_needed = 0, uses_anonymous_args = 0
 242              		@ link register save eliminated.
 482:lib/Drivers/STM32H7xx_HAL_Driver/Src/stm32h7xx_hal_pwr.c ****   /* Disable the power voltage detector */
 483:lib/Drivers/STM32H7xx_HAL_Driver/Src/stm32h7xx_hal_pwr.c ****   CLEAR_BIT (PWR->CR1, PWR_CR1_PVDEN);
 243              		.loc 1 483 3 view .LVU41
 244 0000 024A     		ldr	r2, .L19
 245 0002 1368     		ldr	r3, [r2]
 246 0004 23F01003 		bic	r3, r3, #16
 247 0008 1360     		str	r3, [r2]
 484:lib/Drivers/STM32H7xx_HAL_Driver/Src/stm32h7xx_hal_pwr.c **** }
 248              		.loc 1 484 1 is_stmt 0 view .LVU42
 249 000a 7047     		bx	lr
 250              	.L20:
 251              		.align	2
 252              	.L19:
 253 000c 00480258 		.word	1476544512
 254              		.cfi_endproc
 255              	.LFE149:
 257              		.section	.text.HAL_PWR_EnableWakeUpPin,"ax",%progbits
 258              		.align	1
 259              		.global	HAL_PWR_EnableWakeUpPin
 260              		.syntax unified
 261              		.thumb
 262              		.thumb_func
 264              	HAL_PWR_EnableWakeUpPin:
 265              	.LVL3:
 266              	.LFB150:
 485:lib/Drivers/STM32H7xx_HAL_Driver/Src/stm32h7xx_hal_pwr.c **** 
 486:lib/Drivers/STM32H7xx_HAL_Driver/Src/stm32h7xx_hal_pwr.c **** /**
 487:lib/Drivers/STM32H7xx_HAL_Driver/Src/stm32h7xx_hal_pwr.c ****   * @brief  Enable the WakeUp PINx functionality.
 488:lib/Drivers/STM32H7xx_HAL_Driver/Src/stm32h7xx_hal_pwr.c ****   * @param  WakeUpPinPolarity : Specifies which Wake-Up pin to enable.
ARM GAS  /tmp/ccc6MANg.s 			page 14


 489:lib/Drivers/STM32H7xx_HAL_Driver/Src/stm32h7xx_hal_pwr.c ****   *          This parameter can be one of the following legacy values, which
 490:lib/Drivers/STM32H7xx_HAL_Driver/Src/stm32h7xx_hal_pwr.c ****   *          sets the default (rising edge):
 491:lib/Drivers/STM32H7xx_HAL_Driver/Src/stm32h7xx_hal_pwr.c ****   *            @arg PWR_WAKEUP_PIN1, PWR_WAKEUP_PIN2, PWR_WAKEUP_PIN3,
 492:lib/Drivers/STM32H7xx_HAL_Driver/Src/stm32h7xx_hal_pwr.c ****   *                 PWR_WAKEUP_PIN4, PWR_WAKEUP_PIN5, PWR_WAKEUP_PIN6.
 493:lib/Drivers/STM32H7xx_HAL_Driver/Src/stm32h7xx_hal_pwr.c ****   *          or one of the following values where the user can explicitly states
 494:lib/Drivers/STM32H7xx_HAL_Driver/Src/stm32h7xx_hal_pwr.c ****   *          the enabled pin and the chosen polarity:
 495:lib/Drivers/STM32H7xx_HAL_Driver/Src/stm32h7xx_hal_pwr.c ****   *            @arg PWR_WAKEUP_PIN1_HIGH, PWR_WAKEUP_PIN1_LOW,
 496:lib/Drivers/STM32H7xx_HAL_Driver/Src/stm32h7xx_hal_pwr.c ****   *                 PWR_WAKEUP_PIN2_HIGH, PWR_WAKEUP_PIN2_LOW,
 497:lib/Drivers/STM32H7xx_HAL_Driver/Src/stm32h7xx_hal_pwr.c ****   *                 PWR_WAKEUP_PIN3_HIGH, PWR_WAKEUP_PIN3_LOW,
 498:lib/Drivers/STM32H7xx_HAL_Driver/Src/stm32h7xx_hal_pwr.c ****   *                 PWR_WAKEUP_PIN4_HIGH, PWR_WAKEUP_PIN4_LOW,
 499:lib/Drivers/STM32H7xx_HAL_Driver/Src/stm32h7xx_hal_pwr.c ****   *                 PWR_WAKEUP_PIN5_HIGH, PWR_WAKEUP_PIN5_LOW,
 500:lib/Drivers/STM32H7xx_HAL_Driver/Src/stm32h7xx_hal_pwr.c ****   *                 PWR_WAKEUP_PIN6_HIGH, PWR_WAKEUP_PIN6_LOW.
 501:lib/Drivers/STM32H7xx_HAL_Driver/Src/stm32h7xx_hal_pwr.c ****   * @note   PWR_WAKEUP_PINx and PWR_WAKEUP_PINx_HIGH are equivalent.
 502:lib/Drivers/STM32H7xx_HAL_Driver/Src/stm32h7xx_hal_pwr.c ****   * @note   The PWR_WAKEUP_PIN3_HIGH, PWR_WAKEUP_PIN3_LOW, PWR_WAKEUP_PIN5_HIGH
 503:lib/Drivers/STM32H7xx_HAL_Driver/Src/stm32h7xx_hal_pwr.c ****   *         and PWR_WAKEUP_PIN5_LOW are available only for devices that includes
 504:lib/Drivers/STM32H7xx_HAL_Driver/Src/stm32h7xx_hal_pwr.c ****   *         GPIOI port.
 505:lib/Drivers/STM32H7xx_HAL_Driver/Src/stm32h7xx_hal_pwr.c ****   * @retval None.
 506:lib/Drivers/STM32H7xx_HAL_Driver/Src/stm32h7xx_hal_pwr.c ****   */
 507:lib/Drivers/STM32H7xx_HAL_Driver/Src/stm32h7xx_hal_pwr.c **** void HAL_PWR_EnableWakeUpPin (uint32_t WakeUpPinPolarity)
 508:lib/Drivers/STM32H7xx_HAL_Driver/Src/stm32h7xx_hal_pwr.c **** {
 267              		.loc 1 508 1 is_stmt 1 view -0
 268              		.cfi_startproc
 269              		@ args = 0, pretend = 0, frame = 0
 270              		@ frame_needed = 0, uses_anonymous_args = 0
 271              		@ link register save eliminated.
 509:lib/Drivers/STM32H7xx_HAL_Driver/Src/stm32h7xx_hal_pwr.c ****   /* Check the parameters */
 510:lib/Drivers/STM32H7xx_HAL_Driver/Src/stm32h7xx_hal_pwr.c ****   assert_param (IS_PWR_WAKEUP_PIN (WakeUpPinPolarity));
 272              		.loc 1 510 3 view .LVU44
 511:lib/Drivers/STM32H7xx_HAL_Driver/Src/stm32h7xx_hal_pwr.c **** 
 512:lib/Drivers/STM32H7xx_HAL_Driver/Src/stm32h7xx_hal_pwr.c ****   /*
 513:lib/Drivers/STM32H7xx_HAL_Driver/Src/stm32h7xx_hal_pwr.c ****      Enable and Specify the Wake-Up pin polarity and the pull configuration
 514:lib/Drivers/STM32H7xx_HAL_Driver/Src/stm32h7xx_hal_pwr.c ****      for the event detection (rising or falling edge).
 515:lib/Drivers/STM32H7xx_HAL_Driver/Src/stm32h7xx_hal_pwr.c ****   */
 516:lib/Drivers/STM32H7xx_HAL_Driver/Src/stm32h7xx_hal_pwr.c ****   MODIFY_REG (PWR->WKUPEPR, PWR_EWUP_MASK, WakeUpPinPolarity);
 273              		.loc 1 516 3 view .LVU45
 274 0000 034A     		ldr	r2, .L22
 275 0002 916A     		ldr	r1, [r2, #40]
 276 0004 034B     		ldr	r3, .L22+4
 277 0006 0B40     		ands	r3, r3, r1
 278 0008 0343     		orrs	r3, r3, r0
 279 000a 9362     		str	r3, [r2, #40]
 517:lib/Drivers/STM32H7xx_HAL_Driver/Src/stm32h7xx_hal_pwr.c **** }
 280              		.loc 1 517 1 is_stmt 0 view .LVU46
 281 000c 7047     		bx	lr
 282              	.L23:
 283 000e 00BF     		.align	2
 284              	.L22:
 285 0010 00480258 		.word	1476544512
 286 0014 C0C000F0 		.word	-268386112
 287              		.cfi_endproc
 288              	.LFE150:
 290              		.section	.text.HAL_PWR_DisableWakeUpPin,"ax",%progbits
 291              		.align	1
 292              		.global	HAL_PWR_DisableWakeUpPin
 293              		.syntax unified
 294              		.thumb
 295              		.thumb_func
ARM GAS  /tmp/ccc6MANg.s 			page 15


 297              	HAL_PWR_DisableWakeUpPin:
 298              	.LVL4:
 299              	.LFB151:
 518:lib/Drivers/STM32H7xx_HAL_Driver/Src/stm32h7xx_hal_pwr.c **** 
 519:lib/Drivers/STM32H7xx_HAL_Driver/Src/stm32h7xx_hal_pwr.c **** /**
 520:lib/Drivers/STM32H7xx_HAL_Driver/Src/stm32h7xx_hal_pwr.c ****   * @brief  Disable the WakeUp PINx functionality.
 521:lib/Drivers/STM32H7xx_HAL_Driver/Src/stm32h7xx_hal_pwr.c ****   * @param  WakeUpPinx : Specifies the Power Wake-Up pin to disable.
 522:lib/Drivers/STM32H7xx_HAL_Driver/Src/stm32h7xx_hal_pwr.c ****   *          This parameter can be one of the following values:
 523:lib/Drivers/STM32H7xx_HAL_Driver/Src/stm32h7xx_hal_pwr.c ****   *            @arg PWR_WAKEUP_PIN1, PWR_WAKEUP_PIN2, PWR_WAKEUP_PIN3,
 524:lib/Drivers/STM32H7xx_HAL_Driver/Src/stm32h7xx_hal_pwr.c ****   *                 PWR_WAKEUP_PIN4, PWR_WAKEUP_PIN5, PWR_WAKEUP_PIN6,
 525:lib/Drivers/STM32H7xx_HAL_Driver/Src/stm32h7xx_hal_pwr.c ****   *                 PWR_WAKEUP_PIN1_HIGH, PWR_WAKEUP_PIN1_LOW,
 526:lib/Drivers/STM32H7xx_HAL_Driver/Src/stm32h7xx_hal_pwr.c ****   *                 PWR_WAKEUP_PIN2_HIGH, PWR_WAKEUP_PIN2_LOW,
 527:lib/Drivers/STM32H7xx_HAL_Driver/Src/stm32h7xx_hal_pwr.c ****   *                 PWR_WAKEUP_PIN3_HIGH, PWR_WAKEUP_PIN3_LOW,
 528:lib/Drivers/STM32H7xx_HAL_Driver/Src/stm32h7xx_hal_pwr.c ****   *                 PWR_WAKEUP_PIN4_HIGH, PWR_WAKEUP_PIN4_LOW,
 529:lib/Drivers/STM32H7xx_HAL_Driver/Src/stm32h7xx_hal_pwr.c ****   *                 PWR_WAKEUP_PIN5_HIGH, PWR_WAKEUP_PIN5_LOW,
 530:lib/Drivers/STM32H7xx_HAL_Driver/Src/stm32h7xx_hal_pwr.c ****   *                 PWR_WAKEUP_PIN6_HIGH, PWR_WAKEUP_PIN6_LOW.
 531:lib/Drivers/STM32H7xx_HAL_Driver/Src/stm32h7xx_hal_pwr.c ****   * @note   The PWR_WAKEUP_PIN3_HIGH, PWR_WAKEUP_PIN3_LOW, PWR_WAKEUP_PIN5_HIGH
 532:lib/Drivers/STM32H7xx_HAL_Driver/Src/stm32h7xx_hal_pwr.c ****   *         and PWR_WAKEUP_PIN5_LOW are available only for devices that includes
 533:lib/Drivers/STM32H7xx_HAL_Driver/Src/stm32h7xx_hal_pwr.c ****   *         GPIOI port.
 534:lib/Drivers/STM32H7xx_HAL_Driver/Src/stm32h7xx_hal_pwr.c ****   * @retval None.
 535:lib/Drivers/STM32H7xx_HAL_Driver/Src/stm32h7xx_hal_pwr.c ****   */
 536:lib/Drivers/STM32H7xx_HAL_Driver/Src/stm32h7xx_hal_pwr.c **** void HAL_PWR_DisableWakeUpPin (uint32_t WakeUpPinx)
 537:lib/Drivers/STM32H7xx_HAL_Driver/Src/stm32h7xx_hal_pwr.c **** {
 300              		.loc 1 537 1 is_stmt 1 view -0
 301              		.cfi_startproc
 302              		@ args = 0, pretend = 0, frame = 0
 303              		@ frame_needed = 0, uses_anonymous_args = 0
 304              		@ link register save eliminated.
 538:lib/Drivers/STM32H7xx_HAL_Driver/Src/stm32h7xx_hal_pwr.c ****   /* Check the parameters */
 539:lib/Drivers/STM32H7xx_HAL_Driver/Src/stm32h7xx_hal_pwr.c ****   assert_param (IS_PWR_WAKEUP_PIN (WakeUpPinx));
 305              		.loc 1 539 3 view .LVU48
 540:lib/Drivers/STM32H7xx_HAL_Driver/Src/stm32h7xx_hal_pwr.c **** 
 541:lib/Drivers/STM32H7xx_HAL_Driver/Src/stm32h7xx_hal_pwr.c ****   /* Disable the wake up pin selected */
 542:lib/Drivers/STM32H7xx_HAL_Driver/Src/stm32h7xx_hal_pwr.c ****   CLEAR_BIT (PWR->WKUPEPR, (PWR_WKUPEPR_WKUPEN & WakeUpPinx));
 306              		.loc 1 542 3 view .LVU49
 307 0000 034A     		ldr	r2, .L25
 308 0002 936A     		ldr	r3, [r2, #40]
 309 0004 00F03F00 		and	r0, r0, #63
 310              	.LVL5:
 311              		.loc 1 542 3 is_stmt 0 view .LVU50
 312 0008 23EA0003 		bic	r3, r3, r0
 313 000c 9362     		str	r3, [r2, #40]
 543:lib/Drivers/STM32H7xx_HAL_Driver/Src/stm32h7xx_hal_pwr.c **** }
 314              		.loc 1 543 1 view .LVU51
 315 000e 7047     		bx	lr
 316              	.L26:
 317              		.align	2
 318              	.L25:
 319 0010 00480258 		.word	1476544512
 320              		.cfi_endproc
 321              	.LFE151:
 323              		.section	.text.HAL_PWR_EnterSLEEPMode,"ax",%progbits
 324              		.align	1
 325              		.global	HAL_PWR_EnterSLEEPMode
 326              		.syntax unified
 327              		.thumb
 328              		.thumb_func
ARM GAS  /tmp/ccc6MANg.s 			page 16


 330              	HAL_PWR_EnterSLEEPMode:
 331              	.LVL6:
 332              	.LFB152:
 544:lib/Drivers/STM32H7xx_HAL_Driver/Src/stm32h7xx_hal_pwr.c **** 
 545:lib/Drivers/STM32H7xx_HAL_Driver/Src/stm32h7xx_hal_pwr.c **** /**
 546:lib/Drivers/STM32H7xx_HAL_Driver/Src/stm32h7xx_hal_pwr.c ****   * @brief  Enter the current core in SLEEP mode (CSLEEP).
 547:lib/Drivers/STM32H7xx_HAL_Driver/Src/stm32h7xx_hal_pwr.c ****   * @param  Regulator : Specifies the regulator state in SLEEP mode.
 548:lib/Drivers/STM32H7xx_HAL_Driver/Src/stm32h7xx_hal_pwr.c ****   *          This parameter can be one of the following values:
 549:lib/Drivers/STM32H7xx_HAL_Driver/Src/stm32h7xx_hal_pwr.c ****   *            @arg PWR_MAINREGULATOR_ON     : SLEEP mode with regulator ON.
 550:lib/Drivers/STM32H7xx_HAL_Driver/Src/stm32h7xx_hal_pwr.c ****   *            @arg PWR_LOWPOWERREGULATOR_ON : SLEEP mode with low power
 551:lib/Drivers/STM32H7xx_HAL_Driver/Src/stm32h7xx_hal_pwr.c ****   *                                           regulator ON.
 552:lib/Drivers/STM32H7xx_HAL_Driver/Src/stm32h7xx_hal_pwr.c ****   * @note   This parameter is not used for the STM32H7 family and is kept as
 553:lib/Drivers/STM32H7xx_HAL_Driver/Src/stm32h7xx_hal_pwr.c ****   *         parameter just to maintain compatibility with the lower power
 554:lib/Drivers/STM32H7xx_HAL_Driver/Src/stm32h7xx_hal_pwr.c ****   *         families.
 555:lib/Drivers/STM32H7xx_HAL_Driver/Src/stm32h7xx_hal_pwr.c ****   * @param  SLEEPEntry : Specifies if SLEEP mode is entered with WFI or WFE
 556:lib/Drivers/STM32H7xx_HAL_Driver/Src/stm32h7xx_hal_pwr.c ****   *                      intrinsic instruction.
 557:lib/Drivers/STM32H7xx_HAL_Driver/Src/stm32h7xx_hal_pwr.c ****   *          This parameter can be one of the following values:
 558:lib/Drivers/STM32H7xx_HAL_Driver/Src/stm32h7xx_hal_pwr.c ****   *            @arg PWR_SLEEPENTRY_WFI : enter SLEEP mode with WFI instruction.
 559:lib/Drivers/STM32H7xx_HAL_Driver/Src/stm32h7xx_hal_pwr.c ****   *            @arg PWR_SLEEPENTRY_WFE : enter SLEEP mode with WFE instruction.
 560:lib/Drivers/STM32H7xx_HAL_Driver/Src/stm32h7xx_hal_pwr.c ****   * @note   Ensure to clear pending events before calling this API through
 561:lib/Drivers/STM32H7xx_HAL_Driver/Src/stm32h7xx_hal_pwr.c ****   *         HAL_PWREx_ClearPendingEvent() when the SLEEP entry is WFE.
 562:lib/Drivers/STM32H7xx_HAL_Driver/Src/stm32h7xx_hal_pwr.c ****   * @retval None.
 563:lib/Drivers/STM32H7xx_HAL_Driver/Src/stm32h7xx_hal_pwr.c ****   */
 564:lib/Drivers/STM32H7xx_HAL_Driver/Src/stm32h7xx_hal_pwr.c **** void HAL_PWR_EnterSLEEPMode (uint32_t Regulator, uint8_t SLEEPEntry)
 565:lib/Drivers/STM32H7xx_HAL_Driver/Src/stm32h7xx_hal_pwr.c **** {
 333              		.loc 1 565 1 is_stmt 1 view -0
 334              		.cfi_startproc
 335              		@ args = 0, pretend = 0, frame = 0
 336              		@ frame_needed = 0, uses_anonymous_args = 0
 337              		@ link register save eliminated.
 566:lib/Drivers/STM32H7xx_HAL_Driver/Src/stm32h7xx_hal_pwr.c ****   /* Check the parameters */
 567:lib/Drivers/STM32H7xx_HAL_Driver/Src/stm32h7xx_hal_pwr.c ****   assert_param (IS_PWR_REGULATOR (Regulator));
 338              		.loc 1 567 3 view .LVU53
 568:lib/Drivers/STM32H7xx_HAL_Driver/Src/stm32h7xx_hal_pwr.c ****   assert_param (IS_PWR_SLEEP_ENTRY (SLEEPEntry));
 339              		.loc 1 568 3 view .LVU54
 569:lib/Drivers/STM32H7xx_HAL_Driver/Src/stm32h7xx_hal_pwr.c **** 
 570:lib/Drivers/STM32H7xx_HAL_Driver/Src/stm32h7xx_hal_pwr.c ****   /* Clear SLEEPDEEP bit of Cortex System Control Register */
 571:lib/Drivers/STM32H7xx_HAL_Driver/Src/stm32h7xx_hal_pwr.c ****   CLEAR_BIT (SCB->SCR, SCB_SCR_SLEEPDEEP_Msk);
 340              		.loc 1 571 3 view .LVU55
 341 0000 054A     		ldr	r2, .L31
 342 0002 1369     		ldr	r3, [r2, #16]
 343 0004 23F00403 		bic	r3, r3, #4
 344 0008 1361     		str	r3, [r2, #16]
 572:lib/Drivers/STM32H7xx_HAL_Driver/Src/stm32h7xx_hal_pwr.c **** 
 573:lib/Drivers/STM32H7xx_HAL_Driver/Src/stm32h7xx_hal_pwr.c ****   /* Select SLEEP mode entry */
 574:lib/Drivers/STM32H7xx_HAL_Driver/Src/stm32h7xx_hal_pwr.c ****   if (SLEEPEntry == PWR_SLEEPENTRY_WFI)
 345              		.loc 1 574 3 view .LVU56
 346              		.loc 1 574 6 is_stmt 0 view .LVU57
 347 000a 0129     		cmp	r1, #1
 348 000c 01D0     		beq	.L30
 575:lib/Drivers/STM32H7xx_HAL_Driver/Src/stm32h7xx_hal_pwr.c ****   {
 576:lib/Drivers/STM32H7xx_HAL_Driver/Src/stm32h7xx_hal_pwr.c ****     /* Request Wait For Interrupt */
 577:lib/Drivers/STM32H7xx_HAL_Driver/Src/stm32h7xx_hal_pwr.c ****     __WFI ();
 578:lib/Drivers/STM32H7xx_HAL_Driver/Src/stm32h7xx_hal_pwr.c ****   }
 579:lib/Drivers/STM32H7xx_HAL_Driver/Src/stm32h7xx_hal_pwr.c ****   else
 580:lib/Drivers/STM32H7xx_HAL_Driver/Src/stm32h7xx_hal_pwr.c ****   {
 581:lib/Drivers/STM32H7xx_HAL_Driver/Src/stm32h7xx_hal_pwr.c ****     /* Request Wait For Event */
ARM GAS  /tmp/ccc6MANg.s 			page 17


 582:lib/Drivers/STM32H7xx_HAL_Driver/Src/stm32h7xx_hal_pwr.c ****     __WFE ();
 349              		.loc 1 582 5 is_stmt 1 view .LVU58
 350              		.syntax unified
 351              	@ 582 "lib/Drivers/STM32H7xx_HAL_Driver/Src/stm32h7xx_hal_pwr.c" 1
 352 000e 20BF     		wfe
 353              	@ 0 "" 2
 583:lib/Drivers/STM32H7xx_HAL_Driver/Src/stm32h7xx_hal_pwr.c ****   }
 584:lib/Drivers/STM32H7xx_HAL_Driver/Src/stm32h7xx_hal_pwr.c **** }
 354              		.loc 1 584 1 is_stmt 0 view .LVU59
 355              		.thumb
 356              		.syntax unified
 357 0010 7047     		bx	lr
 358              	.L30:
 577:lib/Drivers/STM32H7xx_HAL_Driver/Src/stm32h7xx_hal_pwr.c ****   }
 359              		.loc 1 577 5 is_stmt 1 view .LVU60
 360              		.syntax unified
 361              	@ 577 "lib/Drivers/STM32H7xx_HAL_Driver/Src/stm32h7xx_hal_pwr.c" 1
 362 0012 30BF     		wfi
 363              	@ 0 "" 2
 364              		.thumb
 365              		.syntax unified
 366 0014 7047     		bx	lr
 367              	.L32:
 368 0016 00BF     		.align	2
 369              	.L31:
 370 0018 00ED00E0 		.word	-536810240
 371              		.cfi_endproc
 372              	.LFE152:
 374              		.section	.text.HAL_PWR_EnterSTOPMode,"ax",%progbits
 375              		.align	1
 376              		.global	HAL_PWR_EnterSTOPMode
 377              		.syntax unified
 378              		.thumb
 379              		.thumb_func
 381              	HAL_PWR_EnterSTOPMode:
 382              	.LVL7:
 383              	.LFB153:
 585:lib/Drivers/STM32H7xx_HAL_Driver/Src/stm32h7xx_hal_pwr.c **** 
 586:lib/Drivers/STM32H7xx_HAL_Driver/Src/stm32h7xx_hal_pwr.c **** /**
 587:lib/Drivers/STM32H7xx_HAL_Driver/Src/stm32h7xx_hal_pwr.c ****   * @brief  Enter STOP mode.
 588:lib/Drivers/STM32H7xx_HAL_Driver/Src/stm32h7xx_hal_pwr.c ****   * @note   For single core devices, this API will enter the system in STOP mode
 589:lib/Drivers/STM32H7xx_HAL_Driver/Src/stm32h7xx_hal_pwr.c ****   *         with all domains in DSTOP, if RUN_D3/RUN_SRD bit in CPUCR register is
 590:lib/Drivers/STM32H7xx_HAL_Driver/Src/stm32h7xx_hal_pwr.c ****   *         cleared.
 591:lib/Drivers/STM32H7xx_HAL_Driver/Src/stm32h7xx_hal_pwr.c ****   *         For dual core devices, this API will enter the domain (containing
 592:lib/Drivers/STM32H7xx_HAL_Driver/Src/stm32h7xx_hal_pwr.c ****   *         Cortex-Mx that executing this function) in DSTOP mode. If all
 593:lib/Drivers/STM32H7xx_HAL_Driver/Src/stm32h7xx_hal_pwr.c ****   *         Cortex-Mx domains are in DSTOP and RUN_D3 bit in CPUCR register is
 594:lib/Drivers/STM32H7xx_HAL_Driver/Src/stm32h7xx_hal_pwr.c ****   *         cleared, all the system will enter in STOP mode.
 595:lib/Drivers/STM32H7xx_HAL_Driver/Src/stm32h7xx_hal_pwr.c ****   * @param  Regulator : Specifies the regulator state in STOP mode.
 596:lib/Drivers/STM32H7xx_HAL_Driver/Src/stm32h7xx_hal_pwr.c ****   *          This parameter can be one of the following values:
 597:lib/Drivers/STM32H7xx_HAL_Driver/Src/stm32h7xx_hal_pwr.c ****   *            @arg PWR_MAINREGULATOR_ON     : STOP mode with regulator ON.
 598:lib/Drivers/STM32H7xx_HAL_Driver/Src/stm32h7xx_hal_pwr.c ****   *            @arg PWR_LOWPOWERREGULATOR_ON : STOP mode with low power
 599:lib/Drivers/STM32H7xx_HAL_Driver/Src/stm32h7xx_hal_pwr.c ****   *                                            regulator ON.
 600:lib/Drivers/STM32H7xx_HAL_Driver/Src/stm32h7xx_hal_pwr.c ****   * @param  STOPEntry : Specifies if STOP mode in entered with WFI or WFE
 601:lib/Drivers/STM32H7xx_HAL_Driver/Src/stm32h7xx_hal_pwr.c ****   *                     intrinsic instruction.
 602:lib/Drivers/STM32H7xx_HAL_Driver/Src/stm32h7xx_hal_pwr.c ****   *          This parameter can be one of the following values:
 603:lib/Drivers/STM32H7xx_HAL_Driver/Src/stm32h7xx_hal_pwr.c ****   *            @arg PWR_STOPENTRY_WFI : Enter STOP mode with WFI instruction.
 604:lib/Drivers/STM32H7xx_HAL_Driver/Src/stm32h7xx_hal_pwr.c ****   *            @arg PWR_STOPENTRY_WFE : Enter STOP mode with WFE instruction.
ARM GAS  /tmp/ccc6MANg.s 			page 18


 605:lib/Drivers/STM32H7xx_HAL_Driver/Src/stm32h7xx_hal_pwr.c ****   * @note   In System STOP mode, all I/O pins keep the same state as in Run mode.
 606:lib/Drivers/STM32H7xx_HAL_Driver/Src/stm32h7xx_hal_pwr.c ****   * @note   When exiting System STOP mode by issuing an interrupt or a wakeup
 607:lib/Drivers/STM32H7xx_HAL_Driver/Src/stm32h7xx_hal_pwr.c ****   *         event, the HSI RC oscillator is selected as default system wakeup
 608:lib/Drivers/STM32H7xx_HAL_Driver/Src/stm32h7xx_hal_pwr.c ****   *         clock.
 609:lib/Drivers/STM32H7xx_HAL_Driver/Src/stm32h7xx_hal_pwr.c ****   * @note   In System STOP mode, when the voltage regulator operates in low
 610:lib/Drivers/STM32H7xx_HAL_Driver/Src/stm32h7xx_hal_pwr.c ****   *         power mode, an additional startup delay is incurred when the system
 611:lib/Drivers/STM32H7xx_HAL_Driver/Src/stm32h7xx_hal_pwr.c ****   *         is waking up. By keeping the internal regulator ON during STOP mode,
 612:lib/Drivers/STM32H7xx_HAL_Driver/Src/stm32h7xx_hal_pwr.c ****   *         the consumption is higher although the startup time is reduced.
 613:lib/Drivers/STM32H7xx_HAL_Driver/Src/stm32h7xx_hal_pwr.c ****   * @retval None.
 614:lib/Drivers/STM32H7xx_HAL_Driver/Src/stm32h7xx_hal_pwr.c ****   */
 615:lib/Drivers/STM32H7xx_HAL_Driver/Src/stm32h7xx_hal_pwr.c **** void HAL_PWR_EnterSTOPMode (uint32_t Regulator, uint8_t STOPEntry)
 616:lib/Drivers/STM32H7xx_HAL_Driver/Src/stm32h7xx_hal_pwr.c **** {
 384              		.loc 1 616 1 view -0
 385              		.cfi_startproc
 386              		@ args = 0, pretend = 0, frame = 0
 387              		@ frame_needed = 0, uses_anonymous_args = 0
 388              		@ link register save eliminated.
 617:lib/Drivers/STM32H7xx_HAL_Driver/Src/stm32h7xx_hal_pwr.c ****   /* Check the parameters */
 618:lib/Drivers/STM32H7xx_HAL_Driver/Src/stm32h7xx_hal_pwr.c ****   assert_param (IS_PWR_REGULATOR (Regulator));
 389              		.loc 1 618 3 view .LVU62
 619:lib/Drivers/STM32H7xx_HAL_Driver/Src/stm32h7xx_hal_pwr.c ****   assert_param (IS_PWR_STOP_ENTRY (STOPEntry));
 390              		.loc 1 619 3 view .LVU63
 620:lib/Drivers/STM32H7xx_HAL_Driver/Src/stm32h7xx_hal_pwr.c **** 
 621:lib/Drivers/STM32H7xx_HAL_Driver/Src/stm32h7xx_hal_pwr.c ****   /* Select the regulator state in STOP mode */
 622:lib/Drivers/STM32H7xx_HAL_Driver/Src/stm32h7xx_hal_pwr.c ****   MODIFY_REG (PWR->CR1, PWR_CR1_LPDS, Regulator);
 391              		.loc 1 622 3 view .LVU64
 392 0000 104B     		ldr	r3, .L37
 393 0002 1A68     		ldr	r2, [r3]
 394 0004 22F00102 		bic	r2, r2, #1
 395 0008 0243     		orrs	r2, r2, r0
 396 000a 1A60     		str	r2, [r3]
 623:lib/Drivers/STM32H7xx_HAL_Driver/Src/stm32h7xx_hal_pwr.c **** 
 624:lib/Drivers/STM32H7xx_HAL_Driver/Src/stm32h7xx_hal_pwr.c ****   /* Configure the PWR mode for the different Domains */
 625:lib/Drivers/STM32H7xx_HAL_Driver/Src/stm32h7xx_hal_pwr.c **** #if defined (DUAL_CORE)
 626:lib/Drivers/STM32H7xx_HAL_Driver/Src/stm32h7xx_hal_pwr.c ****   /* Check CPU ID */
 627:lib/Drivers/STM32H7xx_HAL_Driver/Src/stm32h7xx_hal_pwr.c ****   if (HAL_GetCurrentCPUID () == CM7_CPUID)
 628:lib/Drivers/STM32H7xx_HAL_Driver/Src/stm32h7xx_hal_pwr.c ****   {
 629:lib/Drivers/STM32H7xx_HAL_Driver/Src/stm32h7xx_hal_pwr.c ****     /* Keep DSTOP mode when Cortex-M7 enters DEEP-SLEEP */
 630:lib/Drivers/STM32H7xx_HAL_Driver/Src/stm32h7xx_hal_pwr.c ****     CLEAR_BIT (PWR->CPUCR, (PWR_CPUCR_PDDS_D1 | PWR_CPUCR_PDDS_D3));
 631:lib/Drivers/STM32H7xx_HAL_Driver/Src/stm32h7xx_hal_pwr.c ****   }
 632:lib/Drivers/STM32H7xx_HAL_Driver/Src/stm32h7xx_hal_pwr.c ****   else
 633:lib/Drivers/STM32H7xx_HAL_Driver/Src/stm32h7xx_hal_pwr.c ****   {
 634:lib/Drivers/STM32H7xx_HAL_Driver/Src/stm32h7xx_hal_pwr.c ****     /* Keep DSTOP mode when Cortex-M4 enters DEEP-SLEEP */
 635:lib/Drivers/STM32H7xx_HAL_Driver/Src/stm32h7xx_hal_pwr.c ****     CLEAR_BIT (PWR->CPUCR, (PWR_CPUCR_PDDS_D2 | PWR_CPUCR_PDDS_D3));
 636:lib/Drivers/STM32H7xx_HAL_Driver/Src/stm32h7xx_hal_pwr.c ****   }
 637:lib/Drivers/STM32H7xx_HAL_Driver/Src/stm32h7xx_hal_pwr.c **** #else /* Single core devices */
 638:lib/Drivers/STM32H7xx_HAL_Driver/Src/stm32h7xx_hal_pwr.c ****   /* Keep DSTOP mode when Cortex-M7 enter in DEEP-SLEEP */
 639:lib/Drivers/STM32H7xx_HAL_Driver/Src/stm32h7xx_hal_pwr.c ****   CLEAR_BIT (PWR->CPUCR, (PWR_CPUCR_PDDS_D1 | PWR_CPUCR_PDDS_D3));
 397              		.loc 1 639 3 view .LVU65
 398 000c 1A69     		ldr	r2, [r3, #16]
 399 000e 22F00502 		bic	r2, r2, #5
 400 0012 1A61     		str	r2, [r3, #16]
 640:lib/Drivers/STM32H7xx_HAL_Driver/Src/stm32h7xx_hal_pwr.c **** 
 641:lib/Drivers/STM32H7xx_HAL_Driver/Src/stm32h7xx_hal_pwr.c **** #if defined (PWR_CPUCR_PDDS_D2)
 642:lib/Drivers/STM32H7xx_HAL_Driver/Src/stm32h7xx_hal_pwr.c ****   /* Keep DSTOP mode when Cortex-M7 enter in DEEP-SLEEP */
 643:lib/Drivers/STM32H7xx_HAL_Driver/Src/stm32h7xx_hal_pwr.c ****   CLEAR_BIT (PWR->CPUCR, PWR_CPUCR_PDDS_D2);
 401              		.loc 1 643 3 view .LVU66
ARM GAS  /tmp/ccc6MANg.s 			page 19


 402 0014 1A69     		ldr	r2, [r3, #16]
 403 0016 22F00202 		bic	r2, r2, #2
 404 001a 1A61     		str	r2, [r3, #16]
 644:lib/Drivers/STM32H7xx_HAL_Driver/Src/stm32h7xx_hal_pwr.c **** #endif /* PWR_CPUCR_PDDS_D2 */
 645:lib/Drivers/STM32H7xx_HAL_Driver/Src/stm32h7xx_hal_pwr.c **** #endif /* defined (DUAL_CORE) */
 646:lib/Drivers/STM32H7xx_HAL_Driver/Src/stm32h7xx_hal_pwr.c **** 
 647:lib/Drivers/STM32H7xx_HAL_Driver/Src/stm32h7xx_hal_pwr.c ****   /* Set SLEEPDEEP bit of Cortex System Control Register */
 648:lib/Drivers/STM32H7xx_HAL_Driver/Src/stm32h7xx_hal_pwr.c ****   SET_BIT (SCB->SCR, SCB_SCR_SLEEPDEEP_Msk);
 405              		.loc 1 648 3 view .LVU67
 406 001c 0A4A     		ldr	r2, .L37+4
 407 001e 1369     		ldr	r3, [r2, #16]
 408 0020 43F00403 		orr	r3, r3, #4
 409 0024 1361     		str	r3, [r2, #16]
 649:lib/Drivers/STM32H7xx_HAL_Driver/Src/stm32h7xx_hal_pwr.c **** 
 650:lib/Drivers/STM32H7xx_HAL_Driver/Src/stm32h7xx_hal_pwr.c ****   /* Ensure that all instructions are done before entering STOP mode */
 651:lib/Drivers/STM32H7xx_HAL_Driver/Src/stm32h7xx_hal_pwr.c ****   __DSB ();
 410              		.loc 1 651 3 view .LVU68
 411              	.LBB10:
 412              	.LBI10:
 413              		.file 2 "lib/Drivers/CMSIS/Include/cmsis_gcc.h"
   1:lib/Drivers/CMSIS/Include/cmsis_gcc.h **** /**************************************************************************//**
   2:lib/Drivers/CMSIS/Include/cmsis_gcc.h ****  * @file     cmsis_gcc.h
   3:lib/Drivers/CMSIS/Include/cmsis_gcc.h ****  * @brief    CMSIS compiler GCC header file
   4:lib/Drivers/CMSIS/Include/cmsis_gcc.h ****  * @version  V5.2.0
   5:lib/Drivers/CMSIS/Include/cmsis_gcc.h ****  * @date     08. May 2019
   6:lib/Drivers/CMSIS/Include/cmsis_gcc.h ****  ******************************************************************************/
   7:lib/Drivers/CMSIS/Include/cmsis_gcc.h **** /*
   8:lib/Drivers/CMSIS/Include/cmsis_gcc.h ****  * Copyright (c) 2009-2019 Arm Limited. All rights reserved.
   9:lib/Drivers/CMSIS/Include/cmsis_gcc.h ****  *
  10:lib/Drivers/CMSIS/Include/cmsis_gcc.h ****  * SPDX-License-Identifier: Apache-2.0
  11:lib/Drivers/CMSIS/Include/cmsis_gcc.h ****  *
  12:lib/Drivers/CMSIS/Include/cmsis_gcc.h ****  * Licensed under the Apache License, Version 2.0 (the License); you may
  13:lib/Drivers/CMSIS/Include/cmsis_gcc.h ****  * not use this file except in compliance with the License.
  14:lib/Drivers/CMSIS/Include/cmsis_gcc.h ****  * You may obtain a copy of the License at
  15:lib/Drivers/CMSIS/Include/cmsis_gcc.h ****  *
  16:lib/Drivers/CMSIS/Include/cmsis_gcc.h ****  * www.apache.org/licenses/LICENSE-2.0
  17:lib/Drivers/CMSIS/Include/cmsis_gcc.h ****  *
  18:lib/Drivers/CMSIS/Include/cmsis_gcc.h ****  * Unless required by applicable law or agreed to in writing, software
  19:lib/Drivers/CMSIS/Include/cmsis_gcc.h ****  * distributed under the License is distributed on an AS IS BASIS, WITHOUT
  20:lib/Drivers/CMSIS/Include/cmsis_gcc.h ****  * WARRANTIES OR CONDITIONS OF ANY KIND, either express or implied.
  21:lib/Drivers/CMSIS/Include/cmsis_gcc.h ****  * See the License for the specific language governing permissions and
  22:lib/Drivers/CMSIS/Include/cmsis_gcc.h ****  * limitations under the License.
  23:lib/Drivers/CMSIS/Include/cmsis_gcc.h ****  */
  24:lib/Drivers/CMSIS/Include/cmsis_gcc.h **** 
  25:lib/Drivers/CMSIS/Include/cmsis_gcc.h **** #ifndef __CMSIS_GCC_H
  26:lib/Drivers/CMSIS/Include/cmsis_gcc.h **** #define __CMSIS_GCC_H
  27:lib/Drivers/CMSIS/Include/cmsis_gcc.h **** 
  28:lib/Drivers/CMSIS/Include/cmsis_gcc.h **** /* ignore some GCC warnings */
  29:lib/Drivers/CMSIS/Include/cmsis_gcc.h **** #pragma GCC diagnostic push
  30:lib/Drivers/CMSIS/Include/cmsis_gcc.h **** #pragma GCC diagnostic ignored "-Wsign-conversion"
  31:lib/Drivers/CMSIS/Include/cmsis_gcc.h **** #pragma GCC diagnostic ignored "-Wconversion"
  32:lib/Drivers/CMSIS/Include/cmsis_gcc.h **** #pragma GCC diagnostic ignored "-Wunused-parameter"
  33:lib/Drivers/CMSIS/Include/cmsis_gcc.h **** 
  34:lib/Drivers/CMSIS/Include/cmsis_gcc.h **** /* Fallback for __has_builtin */
  35:lib/Drivers/CMSIS/Include/cmsis_gcc.h **** #ifndef __has_builtin
  36:lib/Drivers/CMSIS/Include/cmsis_gcc.h ****   #define __has_builtin(x) (0)
  37:lib/Drivers/CMSIS/Include/cmsis_gcc.h **** #endif
ARM GAS  /tmp/ccc6MANg.s 			page 20


  38:lib/Drivers/CMSIS/Include/cmsis_gcc.h **** 
  39:lib/Drivers/CMSIS/Include/cmsis_gcc.h **** /* CMSIS compiler specific defines */
  40:lib/Drivers/CMSIS/Include/cmsis_gcc.h **** #ifndef   __ASM
  41:lib/Drivers/CMSIS/Include/cmsis_gcc.h ****   #define __ASM                                  __asm
  42:lib/Drivers/CMSIS/Include/cmsis_gcc.h **** #endif
  43:lib/Drivers/CMSIS/Include/cmsis_gcc.h **** #ifndef   __INLINE
  44:lib/Drivers/CMSIS/Include/cmsis_gcc.h ****   #define __INLINE                               inline
  45:lib/Drivers/CMSIS/Include/cmsis_gcc.h **** #endif
  46:lib/Drivers/CMSIS/Include/cmsis_gcc.h **** #ifndef   __STATIC_INLINE
  47:lib/Drivers/CMSIS/Include/cmsis_gcc.h ****   #define __STATIC_INLINE                        static inline
  48:lib/Drivers/CMSIS/Include/cmsis_gcc.h **** #endif
  49:lib/Drivers/CMSIS/Include/cmsis_gcc.h **** #ifndef   __STATIC_FORCEINLINE                 
  50:lib/Drivers/CMSIS/Include/cmsis_gcc.h ****   #define __STATIC_FORCEINLINE                   __attribute__((always_inline)) static inline
  51:lib/Drivers/CMSIS/Include/cmsis_gcc.h **** #endif                                           
  52:lib/Drivers/CMSIS/Include/cmsis_gcc.h **** #ifndef   __NO_RETURN
  53:lib/Drivers/CMSIS/Include/cmsis_gcc.h ****   #define __NO_RETURN                            __attribute__((__noreturn__))
  54:lib/Drivers/CMSIS/Include/cmsis_gcc.h **** #endif
  55:lib/Drivers/CMSIS/Include/cmsis_gcc.h **** #ifndef   __USED
  56:lib/Drivers/CMSIS/Include/cmsis_gcc.h ****   #define __USED                                 __attribute__((used))
  57:lib/Drivers/CMSIS/Include/cmsis_gcc.h **** #endif
  58:lib/Drivers/CMSIS/Include/cmsis_gcc.h **** #ifndef   __WEAK
  59:lib/Drivers/CMSIS/Include/cmsis_gcc.h ****   #define __WEAK                                 __attribute__((weak))
  60:lib/Drivers/CMSIS/Include/cmsis_gcc.h **** #endif
  61:lib/Drivers/CMSIS/Include/cmsis_gcc.h **** #ifndef   __PACKED
  62:lib/Drivers/CMSIS/Include/cmsis_gcc.h ****   #define __PACKED                               __attribute__((packed, aligned(1)))
  63:lib/Drivers/CMSIS/Include/cmsis_gcc.h **** #endif
  64:lib/Drivers/CMSIS/Include/cmsis_gcc.h **** #ifndef   __PACKED_STRUCT
  65:lib/Drivers/CMSIS/Include/cmsis_gcc.h ****   #define __PACKED_STRUCT                        struct __attribute__((packed, aligned(1)))
  66:lib/Drivers/CMSIS/Include/cmsis_gcc.h **** #endif
  67:lib/Drivers/CMSIS/Include/cmsis_gcc.h **** #ifndef   __PACKED_UNION
  68:lib/Drivers/CMSIS/Include/cmsis_gcc.h ****   #define __PACKED_UNION                         union __attribute__((packed, aligned(1)))
  69:lib/Drivers/CMSIS/Include/cmsis_gcc.h **** #endif
  70:lib/Drivers/CMSIS/Include/cmsis_gcc.h **** #ifndef   __UNALIGNED_UINT32        /* deprecated */
  71:lib/Drivers/CMSIS/Include/cmsis_gcc.h ****   #pragma GCC diagnostic push
  72:lib/Drivers/CMSIS/Include/cmsis_gcc.h ****   #pragma GCC diagnostic ignored "-Wpacked"
  73:lib/Drivers/CMSIS/Include/cmsis_gcc.h ****   #pragma GCC diagnostic ignored "-Wattributes"
  74:lib/Drivers/CMSIS/Include/cmsis_gcc.h ****   struct __attribute__((packed)) T_UINT32 { uint32_t v; };
  75:lib/Drivers/CMSIS/Include/cmsis_gcc.h ****   #pragma GCC diagnostic pop
  76:lib/Drivers/CMSIS/Include/cmsis_gcc.h ****   #define __UNALIGNED_UINT32(x)                  (((struct T_UINT32 *)(x))->v)
  77:lib/Drivers/CMSIS/Include/cmsis_gcc.h **** #endif
  78:lib/Drivers/CMSIS/Include/cmsis_gcc.h **** #ifndef   __UNALIGNED_UINT16_WRITE
  79:lib/Drivers/CMSIS/Include/cmsis_gcc.h ****   #pragma GCC diagnostic push
  80:lib/Drivers/CMSIS/Include/cmsis_gcc.h ****   #pragma GCC diagnostic ignored "-Wpacked"
  81:lib/Drivers/CMSIS/Include/cmsis_gcc.h ****   #pragma GCC diagnostic ignored "-Wattributes"
  82:lib/Drivers/CMSIS/Include/cmsis_gcc.h ****   __PACKED_STRUCT T_UINT16_WRITE { uint16_t v; };
  83:lib/Drivers/CMSIS/Include/cmsis_gcc.h ****   #pragma GCC diagnostic pop
  84:lib/Drivers/CMSIS/Include/cmsis_gcc.h ****   #define __UNALIGNED_UINT16_WRITE(addr, val)    (void)((((struct T_UINT16_WRITE *)(void *)(addr))-
  85:lib/Drivers/CMSIS/Include/cmsis_gcc.h **** #endif
  86:lib/Drivers/CMSIS/Include/cmsis_gcc.h **** #ifndef   __UNALIGNED_UINT16_READ
  87:lib/Drivers/CMSIS/Include/cmsis_gcc.h ****   #pragma GCC diagnostic push
  88:lib/Drivers/CMSIS/Include/cmsis_gcc.h ****   #pragma GCC diagnostic ignored "-Wpacked"
  89:lib/Drivers/CMSIS/Include/cmsis_gcc.h ****   #pragma GCC diagnostic ignored "-Wattributes"
  90:lib/Drivers/CMSIS/Include/cmsis_gcc.h ****   __PACKED_STRUCT T_UINT16_READ { uint16_t v; };
  91:lib/Drivers/CMSIS/Include/cmsis_gcc.h ****   #pragma GCC diagnostic pop
  92:lib/Drivers/CMSIS/Include/cmsis_gcc.h ****   #define __UNALIGNED_UINT16_READ(addr)          (((const struct T_UINT16_READ *)(const void *)(add
  93:lib/Drivers/CMSIS/Include/cmsis_gcc.h **** #endif
  94:lib/Drivers/CMSIS/Include/cmsis_gcc.h **** #ifndef   __UNALIGNED_UINT32_WRITE
ARM GAS  /tmp/ccc6MANg.s 			page 21


  95:lib/Drivers/CMSIS/Include/cmsis_gcc.h ****   #pragma GCC diagnostic push
  96:lib/Drivers/CMSIS/Include/cmsis_gcc.h ****   #pragma GCC diagnostic ignored "-Wpacked"
  97:lib/Drivers/CMSIS/Include/cmsis_gcc.h ****   #pragma GCC diagnostic ignored "-Wattributes"
  98:lib/Drivers/CMSIS/Include/cmsis_gcc.h ****   __PACKED_STRUCT T_UINT32_WRITE { uint32_t v; };
  99:lib/Drivers/CMSIS/Include/cmsis_gcc.h ****   #pragma GCC diagnostic pop
 100:lib/Drivers/CMSIS/Include/cmsis_gcc.h ****   #define __UNALIGNED_UINT32_WRITE(addr, val)    (void)((((struct T_UINT32_WRITE *)(void *)(addr))-
 101:lib/Drivers/CMSIS/Include/cmsis_gcc.h **** #endif
 102:lib/Drivers/CMSIS/Include/cmsis_gcc.h **** #ifndef   __UNALIGNED_UINT32_READ
 103:lib/Drivers/CMSIS/Include/cmsis_gcc.h ****   #pragma GCC diagnostic push
 104:lib/Drivers/CMSIS/Include/cmsis_gcc.h ****   #pragma GCC diagnostic ignored "-Wpacked"
 105:lib/Drivers/CMSIS/Include/cmsis_gcc.h ****   #pragma GCC diagnostic ignored "-Wattributes"
 106:lib/Drivers/CMSIS/Include/cmsis_gcc.h ****   __PACKED_STRUCT T_UINT32_READ { uint32_t v; };
 107:lib/Drivers/CMSIS/Include/cmsis_gcc.h ****   #pragma GCC diagnostic pop
 108:lib/Drivers/CMSIS/Include/cmsis_gcc.h ****   #define __UNALIGNED_UINT32_READ(addr)          (((const struct T_UINT32_READ *)(const void *)(add
 109:lib/Drivers/CMSIS/Include/cmsis_gcc.h **** #endif
 110:lib/Drivers/CMSIS/Include/cmsis_gcc.h **** #ifndef   __ALIGNED
 111:lib/Drivers/CMSIS/Include/cmsis_gcc.h ****   #define __ALIGNED(x)                           __attribute__((aligned(x)))
 112:lib/Drivers/CMSIS/Include/cmsis_gcc.h **** #endif
 113:lib/Drivers/CMSIS/Include/cmsis_gcc.h **** #ifndef   __RESTRICT
 114:lib/Drivers/CMSIS/Include/cmsis_gcc.h ****   #define __RESTRICT                             __restrict
 115:lib/Drivers/CMSIS/Include/cmsis_gcc.h **** #endif
 116:lib/Drivers/CMSIS/Include/cmsis_gcc.h **** #ifndef   __COMPILER_BARRIER
 117:lib/Drivers/CMSIS/Include/cmsis_gcc.h ****   #define __COMPILER_BARRIER()                   __ASM volatile("":::"memory")
 118:lib/Drivers/CMSIS/Include/cmsis_gcc.h **** #endif
 119:lib/Drivers/CMSIS/Include/cmsis_gcc.h **** 
 120:lib/Drivers/CMSIS/Include/cmsis_gcc.h **** /* #########################  Startup and Lowlevel Init  ######################## */
 121:lib/Drivers/CMSIS/Include/cmsis_gcc.h **** 
 122:lib/Drivers/CMSIS/Include/cmsis_gcc.h **** #ifndef __PROGRAM_START
 123:lib/Drivers/CMSIS/Include/cmsis_gcc.h **** 
 124:lib/Drivers/CMSIS/Include/cmsis_gcc.h **** /**
 125:lib/Drivers/CMSIS/Include/cmsis_gcc.h ****   \brief   Initializes data and bss sections
 126:lib/Drivers/CMSIS/Include/cmsis_gcc.h ****   \details This default implementations initialized all data and additional bss
 127:lib/Drivers/CMSIS/Include/cmsis_gcc.h ****            sections relying on .copy.table and .zero.table specified properly
 128:lib/Drivers/CMSIS/Include/cmsis_gcc.h ****            in the used linker script.
 129:lib/Drivers/CMSIS/Include/cmsis_gcc.h ****   
 130:lib/Drivers/CMSIS/Include/cmsis_gcc.h ****  */
 131:lib/Drivers/CMSIS/Include/cmsis_gcc.h **** __STATIC_FORCEINLINE __NO_RETURN void __cmsis_start(void)
 132:lib/Drivers/CMSIS/Include/cmsis_gcc.h **** {
 133:lib/Drivers/CMSIS/Include/cmsis_gcc.h ****   extern void _start(void) __NO_RETURN;
 134:lib/Drivers/CMSIS/Include/cmsis_gcc.h ****   
 135:lib/Drivers/CMSIS/Include/cmsis_gcc.h ****   typedef struct {
 136:lib/Drivers/CMSIS/Include/cmsis_gcc.h ****     uint32_t const* src;
 137:lib/Drivers/CMSIS/Include/cmsis_gcc.h ****     uint32_t* dest;
 138:lib/Drivers/CMSIS/Include/cmsis_gcc.h ****     uint32_t  wlen;
 139:lib/Drivers/CMSIS/Include/cmsis_gcc.h ****   } __copy_table_t;
 140:lib/Drivers/CMSIS/Include/cmsis_gcc.h ****   
 141:lib/Drivers/CMSIS/Include/cmsis_gcc.h ****   typedef struct {
 142:lib/Drivers/CMSIS/Include/cmsis_gcc.h ****     uint32_t* dest;
 143:lib/Drivers/CMSIS/Include/cmsis_gcc.h ****     uint32_t  wlen;
 144:lib/Drivers/CMSIS/Include/cmsis_gcc.h ****   } __zero_table_t;
 145:lib/Drivers/CMSIS/Include/cmsis_gcc.h ****   
 146:lib/Drivers/CMSIS/Include/cmsis_gcc.h ****   extern const __copy_table_t __copy_table_start__;
 147:lib/Drivers/CMSIS/Include/cmsis_gcc.h ****   extern const __copy_table_t __copy_table_end__;
 148:lib/Drivers/CMSIS/Include/cmsis_gcc.h ****   extern const __zero_table_t __zero_table_start__;
 149:lib/Drivers/CMSIS/Include/cmsis_gcc.h ****   extern const __zero_table_t __zero_table_end__;
 150:lib/Drivers/CMSIS/Include/cmsis_gcc.h **** 
 151:lib/Drivers/CMSIS/Include/cmsis_gcc.h ****   for (__copy_table_t const* pTable = &__copy_table_start__; pTable < &__copy_table_end__; ++pTable
ARM GAS  /tmp/ccc6MANg.s 			page 22


 152:lib/Drivers/CMSIS/Include/cmsis_gcc.h ****     for(uint32_t i=0u; i<pTable->wlen; ++i) {
 153:lib/Drivers/CMSIS/Include/cmsis_gcc.h ****       pTable->dest[i] = pTable->src[i];
 154:lib/Drivers/CMSIS/Include/cmsis_gcc.h ****     }
 155:lib/Drivers/CMSIS/Include/cmsis_gcc.h ****   }
 156:lib/Drivers/CMSIS/Include/cmsis_gcc.h ****  
 157:lib/Drivers/CMSIS/Include/cmsis_gcc.h ****   for (__zero_table_t const* pTable = &__zero_table_start__; pTable < &__zero_table_end__; ++pTable
 158:lib/Drivers/CMSIS/Include/cmsis_gcc.h ****     for(uint32_t i=0u; i<pTable->wlen; ++i) {
 159:lib/Drivers/CMSIS/Include/cmsis_gcc.h ****       pTable->dest[i] = 0u;
 160:lib/Drivers/CMSIS/Include/cmsis_gcc.h ****     }
 161:lib/Drivers/CMSIS/Include/cmsis_gcc.h ****   }
 162:lib/Drivers/CMSIS/Include/cmsis_gcc.h ****  
 163:lib/Drivers/CMSIS/Include/cmsis_gcc.h ****   _start();
 164:lib/Drivers/CMSIS/Include/cmsis_gcc.h **** }
 165:lib/Drivers/CMSIS/Include/cmsis_gcc.h ****   
 166:lib/Drivers/CMSIS/Include/cmsis_gcc.h **** #define __PROGRAM_START           __cmsis_start
 167:lib/Drivers/CMSIS/Include/cmsis_gcc.h **** #endif
 168:lib/Drivers/CMSIS/Include/cmsis_gcc.h **** 
 169:lib/Drivers/CMSIS/Include/cmsis_gcc.h **** #ifndef __INITIAL_SP
 170:lib/Drivers/CMSIS/Include/cmsis_gcc.h **** #define __INITIAL_SP              __StackTop
 171:lib/Drivers/CMSIS/Include/cmsis_gcc.h **** #endif
 172:lib/Drivers/CMSIS/Include/cmsis_gcc.h **** 
 173:lib/Drivers/CMSIS/Include/cmsis_gcc.h **** #ifndef __STACK_LIMIT
 174:lib/Drivers/CMSIS/Include/cmsis_gcc.h **** #define __STACK_LIMIT             __StackLimit
 175:lib/Drivers/CMSIS/Include/cmsis_gcc.h **** #endif
 176:lib/Drivers/CMSIS/Include/cmsis_gcc.h **** 
 177:lib/Drivers/CMSIS/Include/cmsis_gcc.h **** #ifndef __VECTOR_TABLE
 178:lib/Drivers/CMSIS/Include/cmsis_gcc.h **** #define __VECTOR_TABLE            __Vectors
 179:lib/Drivers/CMSIS/Include/cmsis_gcc.h **** #endif
 180:lib/Drivers/CMSIS/Include/cmsis_gcc.h **** 
 181:lib/Drivers/CMSIS/Include/cmsis_gcc.h **** #ifndef __VECTOR_TABLE_ATTRIBUTE
 182:lib/Drivers/CMSIS/Include/cmsis_gcc.h **** #define __VECTOR_TABLE_ATTRIBUTE  __attribute((used, section(".vectors")))
 183:lib/Drivers/CMSIS/Include/cmsis_gcc.h **** #endif
 184:lib/Drivers/CMSIS/Include/cmsis_gcc.h **** 
 185:lib/Drivers/CMSIS/Include/cmsis_gcc.h **** /* ###########################  Core Function Access  ########################### */
 186:lib/Drivers/CMSIS/Include/cmsis_gcc.h **** /** \ingroup  CMSIS_Core_FunctionInterface
 187:lib/Drivers/CMSIS/Include/cmsis_gcc.h ****     \defgroup CMSIS_Core_RegAccFunctions CMSIS Core Register Access Functions
 188:lib/Drivers/CMSIS/Include/cmsis_gcc.h ****   @{
 189:lib/Drivers/CMSIS/Include/cmsis_gcc.h ****  */
 190:lib/Drivers/CMSIS/Include/cmsis_gcc.h **** 
 191:lib/Drivers/CMSIS/Include/cmsis_gcc.h **** /**
 192:lib/Drivers/CMSIS/Include/cmsis_gcc.h ****   \brief   Enable IRQ Interrupts
 193:lib/Drivers/CMSIS/Include/cmsis_gcc.h ****   \details Enables IRQ interrupts by clearing the I-bit in the CPSR.
 194:lib/Drivers/CMSIS/Include/cmsis_gcc.h ****            Can only be executed in Privileged modes.
 195:lib/Drivers/CMSIS/Include/cmsis_gcc.h ****  */
 196:lib/Drivers/CMSIS/Include/cmsis_gcc.h **** __STATIC_FORCEINLINE void __enable_irq(void)
 197:lib/Drivers/CMSIS/Include/cmsis_gcc.h **** {
 198:lib/Drivers/CMSIS/Include/cmsis_gcc.h ****   __ASM volatile ("cpsie i" : : : "memory");
 199:lib/Drivers/CMSIS/Include/cmsis_gcc.h **** }
 200:lib/Drivers/CMSIS/Include/cmsis_gcc.h **** 
 201:lib/Drivers/CMSIS/Include/cmsis_gcc.h **** 
 202:lib/Drivers/CMSIS/Include/cmsis_gcc.h **** /**
 203:lib/Drivers/CMSIS/Include/cmsis_gcc.h ****   \brief   Disable IRQ Interrupts
 204:lib/Drivers/CMSIS/Include/cmsis_gcc.h ****   \details Disables IRQ interrupts by setting the I-bit in the CPSR.
 205:lib/Drivers/CMSIS/Include/cmsis_gcc.h ****            Can only be executed in Privileged modes.
 206:lib/Drivers/CMSIS/Include/cmsis_gcc.h ****  */
 207:lib/Drivers/CMSIS/Include/cmsis_gcc.h **** __STATIC_FORCEINLINE void __disable_irq(void)
 208:lib/Drivers/CMSIS/Include/cmsis_gcc.h **** {
ARM GAS  /tmp/ccc6MANg.s 			page 23


 209:lib/Drivers/CMSIS/Include/cmsis_gcc.h ****   __ASM volatile ("cpsid i" : : : "memory");
 210:lib/Drivers/CMSIS/Include/cmsis_gcc.h **** }
 211:lib/Drivers/CMSIS/Include/cmsis_gcc.h **** 
 212:lib/Drivers/CMSIS/Include/cmsis_gcc.h **** 
 213:lib/Drivers/CMSIS/Include/cmsis_gcc.h **** /**
 214:lib/Drivers/CMSIS/Include/cmsis_gcc.h ****   \brief   Get Control Register
 215:lib/Drivers/CMSIS/Include/cmsis_gcc.h ****   \details Returns the content of the Control Register.
 216:lib/Drivers/CMSIS/Include/cmsis_gcc.h ****   \return               Control Register value
 217:lib/Drivers/CMSIS/Include/cmsis_gcc.h ****  */
 218:lib/Drivers/CMSIS/Include/cmsis_gcc.h **** __STATIC_FORCEINLINE uint32_t __get_CONTROL(void)
 219:lib/Drivers/CMSIS/Include/cmsis_gcc.h **** {
 220:lib/Drivers/CMSIS/Include/cmsis_gcc.h ****   uint32_t result;
 221:lib/Drivers/CMSIS/Include/cmsis_gcc.h **** 
 222:lib/Drivers/CMSIS/Include/cmsis_gcc.h ****   __ASM volatile ("MRS %0, control" : "=r" (result) );
 223:lib/Drivers/CMSIS/Include/cmsis_gcc.h ****   return(result);
 224:lib/Drivers/CMSIS/Include/cmsis_gcc.h **** }
 225:lib/Drivers/CMSIS/Include/cmsis_gcc.h **** 
 226:lib/Drivers/CMSIS/Include/cmsis_gcc.h **** 
 227:lib/Drivers/CMSIS/Include/cmsis_gcc.h **** #if (defined (__ARM_FEATURE_CMSE ) && (__ARM_FEATURE_CMSE == 3))
 228:lib/Drivers/CMSIS/Include/cmsis_gcc.h **** /**
 229:lib/Drivers/CMSIS/Include/cmsis_gcc.h ****   \brief   Get Control Register (non-secure)
 230:lib/Drivers/CMSIS/Include/cmsis_gcc.h ****   \details Returns the content of the non-secure Control Register when in secure mode.
 231:lib/Drivers/CMSIS/Include/cmsis_gcc.h ****   \return               non-secure Control Register value
 232:lib/Drivers/CMSIS/Include/cmsis_gcc.h ****  */
 233:lib/Drivers/CMSIS/Include/cmsis_gcc.h **** __STATIC_FORCEINLINE uint32_t __TZ_get_CONTROL_NS(void)
 234:lib/Drivers/CMSIS/Include/cmsis_gcc.h **** {
 235:lib/Drivers/CMSIS/Include/cmsis_gcc.h ****   uint32_t result;
 236:lib/Drivers/CMSIS/Include/cmsis_gcc.h **** 
 237:lib/Drivers/CMSIS/Include/cmsis_gcc.h ****   __ASM volatile ("MRS %0, control_ns" : "=r" (result) );
 238:lib/Drivers/CMSIS/Include/cmsis_gcc.h ****   return(result);
 239:lib/Drivers/CMSIS/Include/cmsis_gcc.h **** }
 240:lib/Drivers/CMSIS/Include/cmsis_gcc.h **** #endif
 241:lib/Drivers/CMSIS/Include/cmsis_gcc.h **** 
 242:lib/Drivers/CMSIS/Include/cmsis_gcc.h **** 
 243:lib/Drivers/CMSIS/Include/cmsis_gcc.h **** /**
 244:lib/Drivers/CMSIS/Include/cmsis_gcc.h ****   \brief   Set Control Register
 245:lib/Drivers/CMSIS/Include/cmsis_gcc.h ****   \details Writes the given value to the Control Register.
 246:lib/Drivers/CMSIS/Include/cmsis_gcc.h ****   \param [in]    control  Control Register value to set
 247:lib/Drivers/CMSIS/Include/cmsis_gcc.h ****  */
 248:lib/Drivers/CMSIS/Include/cmsis_gcc.h **** __STATIC_FORCEINLINE void __set_CONTROL(uint32_t control)
 249:lib/Drivers/CMSIS/Include/cmsis_gcc.h **** {
 250:lib/Drivers/CMSIS/Include/cmsis_gcc.h ****   __ASM volatile ("MSR control, %0" : : "r" (control) : "memory");
 251:lib/Drivers/CMSIS/Include/cmsis_gcc.h **** }
 252:lib/Drivers/CMSIS/Include/cmsis_gcc.h **** 
 253:lib/Drivers/CMSIS/Include/cmsis_gcc.h **** 
 254:lib/Drivers/CMSIS/Include/cmsis_gcc.h **** #if (defined (__ARM_FEATURE_CMSE ) && (__ARM_FEATURE_CMSE == 3))
 255:lib/Drivers/CMSIS/Include/cmsis_gcc.h **** /**
 256:lib/Drivers/CMSIS/Include/cmsis_gcc.h ****   \brief   Set Control Register (non-secure)
 257:lib/Drivers/CMSIS/Include/cmsis_gcc.h ****   \details Writes the given value to the non-secure Control Register when in secure state.
 258:lib/Drivers/CMSIS/Include/cmsis_gcc.h ****   \param [in]    control  Control Register value to set
 259:lib/Drivers/CMSIS/Include/cmsis_gcc.h ****  */
 260:lib/Drivers/CMSIS/Include/cmsis_gcc.h **** __STATIC_FORCEINLINE void __TZ_set_CONTROL_NS(uint32_t control)
 261:lib/Drivers/CMSIS/Include/cmsis_gcc.h **** {
 262:lib/Drivers/CMSIS/Include/cmsis_gcc.h ****   __ASM volatile ("MSR control_ns, %0" : : "r" (control) : "memory");
 263:lib/Drivers/CMSIS/Include/cmsis_gcc.h **** }
 264:lib/Drivers/CMSIS/Include/cmsis_gcc.h **** #endif
 265:lib/Drivers/CMSIS/Include/cmsis_gcc.h **** 
ARM GAS  /tmp/ccc6MANg.s 			page 24


 266:lib/Drivers/CMSIS/Include/cmsis_gcc.h **** 
 267:lib/Drivers/CMSIS/Include/cmsis_gcc.h **** /**
 268:lib/Drivers/CMSIS/Include/cmsis_gcc.h ****   \brief   Get IPSR Register
 269:lib/Drivers/CMSIS/Include/cmsis_gcc.h ****   \details Returns the content of the IPSR Register.
 270:lib/Drivers/CMSIS/Include/cmsis_gcc.h ****   \return               IPSR Register value
 271:lib/Drivers/CMSIS/Include/cmsis_gcc.h ****  */
 272:lib/Drivers/CMSIS/Include/cmsis_gcc.h **** __STATIC_FORCEINLINE uint32_t __get_IPSR(void)
 273:lib/Drivers/CMSIS/Include/cmsis_gcc.h **** {
 274:lib/Drivers/CMSIS/Include/cmsis_gcc.h ****   uint32_t result;
 275:lib/Drivers/CMSIS/Include/cmsis_gcc.h **** 
 276:lib/Drivers/CMSIS/Include/cmsis_gcc.h ****   __ASM volatile ("MRS %0, ipsr" : "=r" (result) );
 277:lib/Drivers/CMSIS/Include/cmsis_gcc.h ****   return(result);
 278:lib/Drivers/CMSIS/Include/cmsis_gcc.h **** }
 279:lib/Drivers/CMSIS/Include/cmsis_gcc.h **** 
 280:lib/Drivers/CMSIS/Include/cmsis_gcc.h **** 
 281:lib/Drivers/CMSIS/Include/cmsis_gcc.h **** /**
 282:lib/Drivers/CMSIS/Include/cmsis_gcc.h ****   \brief   Get APSR Register
 283:lib/Drivers/CMSIS/Include/cmsis_gcc.h ****   \details Returns the content of the APSR Register.
 284:lib/Drivers/CMSIS/Include/cmsis_gcc.h ****   \return               APSR Register value
 285:lib/Drivers/CMSIS/Include/cmsis_gcc.h ****  */
 286:lib/Drivers/CMSIS/Include/cmsis_gcc.h **** __STATIC_FORCEINLINE uint32_t __get_APSR(void)
 287:lib/Drivers/CMSIS/Include/cmsis_gcc.h **** {
 288:lib/Drivers/CMSIS/Include/cmsis_gcc.h ****   uint32_t result;
 289:lib/Drivers/CMSIS/Include/cmsis_gcc.h **** 
 290:lib/Drivers/CMSIS/Include/cmsis_gcc.h ****   __ASM volatile ("MRS %0, apsr" : "=r" (result) );
 291:lib/Drivers/CMSIS/Include/cmsis_gcc.h ****   return(result);
 292:lib/Drivers/CMSIS/Include/cmsis_gcc.h **** }
 293:lib/Drivers/CMSIS/Include/cmsis_gcc.h **** 
 294:lib/Drivers/CMSIS/Include/cmsis_gcc.h **** 
 295:lib/Drivers/CMSIS/Include/cmsis_gcc.h **** /**
 296:lib/Drivers/CMSIS/Include/cmsis_gcc.h ****   \brief   Get xPSR Register
 297:lib/Drivers/CMSIS/Include/cmsis_gcc.h ****   \details Returns the content of the xPSR Register.
 298:lib/Drivers/CMSIS/Include/cmsis_gcc.h ****   \return               xPSR Register value
 299:lib/Drivers/CMSIS/Include/cmsis_gcc.h ****  */
 300:lib/Drivers/CMSIS/Include/cmsis_gcc.h **** __STATIC_FORCEINLINE uint32_t __get_xPSR(void)
 301:lib/Drivers/CMSIS/Include/cmsis_gcc.h **** {
 302:lib/Drivers/CMSIS/Include/cmsis_gcc.h ****   uint32_t result;
 303:lib/Drivers/CMSIS/Include/cmsis_gcc.h **** 
 304:lib/Drivers/CMSIS/Include/cmsis_gcc.h ****   __ASM volatile ("MRS %0, xpsr" : "=r" (result) );
 305:lib/Drivers/CMSIS/Include/cmsis_gcc.h ****   return(result);
 306:lib/Drivers/CMSIS/Include/cmsis_gcc.h **** }
 307:lib/Drivers/CMSIS/Include/cmsis_gcc.h **** 
 308:lib/Drivers/CMSIS/Include/cmsis_gcc.h **** 
 309:lib/Drivers/CMSIS/Include/cmsis_gcc.h **** /**
 310:lib/Drivers/CMSIS/Include/cmsis_gcc.h ****   \brief   Get Process Stack Pointer
 311:lib/Drivers/CMSIS/Include/cmsis_gcc.h ****   \details Returns the current value of the Process Stack Pointer (PSP).
 312:lib/Drivers/CMSIS/Include/cmsis_gcc.h ****   \return               PSP Register value
 313:lib/Drivers/CMSIS/Include/cmsis_gcc.h ****  */
 314:lib/Drivers/CMSIS/Include/cmsis_gcc.h **** __STATIC_FORCEINLINE uint32_t __get_PSP(void)
 315:lib/Drivers/CMSIS/Include/cmsis_gcc.h **** {
 316:lib/Drivers/CMSIS/Include/cmsis_gcc.h ****   uint32_t result;
 317:lib/Drivers/CMSIS/Include/cmsis_gcc.h **** 
 318:lib/Drivers/CMSIS/Include/cmsis_gcc.h ****   __ASM volatile ("MRS %0, psp"  : "=r" (result) );
 319:lib/Drivers/CMSIS/Include/cmsis_gcc.h ****   return(result);
 320:lib/Drivers/CMSIS/Include/cmsis_gcc.h **** }
 321:lib/Drivers/CMSIS/Include/cmsis_gcc.h **** 
 322:lib/Drivers/CMSIS/Include/cmsis_gcc.h **** 
ARM GAS  /tmp/ccc6MANg.s 			page 25


 323:lib/Drivers/CMSIS/Include/cmsis_gcc.h **** #if (defined (__ARM_FEATURE_CMSE ) && (__ARM_FEATURE_CMSE == 3))
 324:lib/Drivers/CMSIS/Include/cmsis_gcc.h **** /**
 325:lib/Drivers/CMSIS/Include/cmsis_gcc.h ****   \brief   Get Process Stack Pointer (non-secure)
 326:lib/Drivers/CMSIS/Include/cmsis_gcc.h ****   \details Returns the current value of the non-secure Process Stack Pointer (PSP) when in secure s
 327:lib/Drivers/CMSIS/Include/cmsis_gcc.h ****   \return               PSP Register value
 328:lib/Drivers/CMSIS/Include/cmsis_gcc.h ****  */
 329:lib/Drivers/CMSIS/Include/cmsis_gcc.h **** __STATIC_FORCEINLINE uint32_t __TZ_get_PSP_NS(void)
 330:lib/Drivers/CMSIS/Include/cmsis_gcc.h **** {
 331:lib/Drivers/CMSIS/Include/cmsis_gcc.h ****   uint32_t result;
 332:lib/Drivers/CMSIS/Include/cmsis_gcc.h **** 
 333:lib/Drivers/CMSIS/Include/cmsis_gcc.h ****   __ASM volatile ("MRS %0, psp_ns"  : "=r" (result) );
 334:lib/Drivers/CMSIS/Include/cmsis_gcc.h ****   return(result);
 335:lib/Drivers/CMSIS/Include/cmsis_gcc.h **** }
 336:lib/Drivers/CMSIS/Include/cmsis_gcc.h **** #endif
 337:lib/Drivers/CMSIS/Include/cmsis_gcc.h **** 
 338:lib/Drivers/CMSIS/Include/cmsis_gcc.h **** 
 339:lib/Drivers/CMSIS/Include/cmsis_gcc.h **** /**
 340:lib/Drivers/CMSIS/Include/cmsis_gcc.h ****   \brief   Set Process Stack Pointer
 341:lib/Drivers/CMSIS/Include/cmsis_gcc.h ****   \details Assigns the given value to the Process Stack Pointer (PSP).
 342:lib/Drivers/CMSIS/Include/cmsis_gcc.h ****   \param [in]    topOfProcStack  Process Stack Pointer value to set
 343:lib/Drivers/CMSIS/Include/cmsis_gcc.h ****  */
 344:lib/Drivers/CMSIS/Include/cmsis_gcc.h **** __STATIC_FORCEINLINE void __set_PSP(uint32_t topOfProcStack)
 345:lib/Drivers/CMSIS/Include/cmsis_gcc.h **** {
 346:lib/Drivers/CMSIS/Include/cmsis_gcc.h ****   __ASM volatile ("MSR psp, %0" : : "r" (topOfProcStack) : );
 347:lib/Drivers/CMSIS/Include/cmsis_gcc.h **** }
 348:lib/Drivers/CMSIS/Include/cmsis_gcc.h **** 
 349:lib/Drivers/CMSIS/Include/cmsis_gcc.h **** 
 350:lib/Drivers/CMSIS/Include/cmsis_gcc.h **** #if (defined (__ARM_FEATURE_CMSE ) && (__ARM_FEATURE_CMSE == 3))
 351:lib/Drivers/CMSIS/Include/cmsis_gcc.h **** /**
 352:lib/Drivers/CMSIS/Include/cmsis_gcc.h ****   \brief   Set Process Stack Pointer (non-secure)
 353:lib/Drivers/CMSIS/Include/cmsis_gcc.h ****   \details Assigns the given value to the non-secure Process Stack Pointer (PSP) when in secure sta
 354:lib/Drivers/CMSIS/Include/cmsis_gcc.h ****   \param [in]    topOfProcStack  Process Stack Pointer value to set
 355:lib/Drivers/CMSIS/Include/cmsis_gcc.h ****  */
 356:lib/Drivers/CMSIS/Include/cmsis_gcc.h **** __STATIC_FORCEINLINE void __TZ_set_PSP_NS(uint32_t topOfProcStack)
 357:lib/Drivers/CMSIS/Include/cmsis_gcc.h **** {
 358:lib/Drivers/CMSIS/Include/cmsis_gcc.h ****   __ASM volatile ("MSR psp_ns, %0" : : "r" (topOfProcStack) : );
 359:lib/Drivers/CMSIS/Include/cmsis_gcc.h **** }
 360:lib/Drivers/CMSIS/Include/cmsis_gcc.h **** #endif
 361:lib/Drivers/CMSIS/Include/cmsis_gcc.h **** 
 362:lib/Drivers/CMSIS/Include/cmsis_gcc.h **** 
 363:lib/Drivers/CMSIS/Include/cmsis_gcc.h **** /**
 364:lib/Drivers/CMSIS/Include/cmsis_gcc.h ****   \brief   Get Main Stack Pointer
 365:lib/Drivers/CMSIS/Include/cmsis_gcc.h ****   \details Returns the current value of the Main Stack Pointer (MSP).
 366:lib/Drivers/CMSIS/Include/cmsis_gcc.h ****   \return               MSP Register value
 367:lib/Drivers/CMSIS/Include/cmsis_gcc.h ****  */
 368:lib/Drivers/CMSIS/Include/cmsis_gcc.h **** __STATIC_FORCEINLINE uint32_t __get_MSP(void)
 369:lib/Drivers/CMSIS/Include/cmsis_gcc.h **** {
 370:lib/Drivers/CMSIS/Include/cmsis_gcc.h ****   uint32_t result;
 371:lib/Drivers/CMSIS/Include/cmsis_gcc.h **** 
 372:lib/Drivers/CMSIS/Include/cmsis_gcc.h ****   __ASM volatile ("MRS %0, msp" : "=r" (result) );
 373:lib/Drivers/CMSIS/Include/cmsis_gcc.h ****   return(result);
 374:lib/Drivers/CMSIS/Include/cmsis_gcc.h **** }
 375:lib/Drivers/CMSIS/Include/cmsis_gcc.h **** 
 376:lib/Drivers/CMSIS/Include/cmsis_gcc.h **** 
 377:lib/Drivers/CMSIS/Include/cmsis_gcc.h **** #if (defined (__ARM_FEATURE_CMSE ) && (__ARM_FEATURE_CMSE == 3))
 378:lib/Drivers/CMSIS/Include/cmsis_gcc.h **** /**
 379:lib/Drivers/CMSIS/Include/cmsis_gcc.h ****   \brief   Get Main Stack Pointer (non-secure)
ARM GAS  /tmp/ccc6MANg.s 			page 26


 380:lib/Drivers/CMSIS/Include/cmsis_gcc.h ****   \details Returns the current value of the non-secure Main Stack Pointer (MSP) when in secure stat
 381:lib/Drivers/CMSIS/Include/cmsis_gcc.h ****   \return               MSP Register value
 382:lib/Drivers/CMSIS/Include/cmsis_gcc.h ****  */
 383:lib/Drivers/CMSIS/Include/cmsis_gcc.h **** __STATIC_FORCEINLINE uint32_t __TZ_get_MSP_NS(void)
 384:lib/Drivers/CMSIS/Include/cmsis_gcc.h **** {
 385:lib/Drivers/CMSIS/Include/cmsis_gcc.h ****   uint32_t result;
 386:lib/Drivers/CMSIS/Include/cmsis_gcc.h **** 
 387:lib/Drivers/CMSIS/Include/cmsis_gcc.h ****   __ASM volatile ("MRS %0, msp_ns" : "=r" (result) );
 388:lib/Drivers/CMSIS/Include/cmsis_gcc.h ****   return(result);
 389:lib/Drivers/CMSIS/Include/cmsis_gcc.h **** }
 390:lib/Drivers/CMSIS/Include/cmsis_gcc.h **** #endif
 391:lib/Drivers/CMSIS/Include/cmsis_gcc.h **** 
 392:lib/Drivers/CMSIS/Include/cmsis_gcc.h **** 
 393:lib/Drivers/CMSIS/Include/cmsis_gcc.h **** /**
 394:lib/Drivers/CMSIS/Include/cmsis_gcc.h ****   \brief   Set Main Stack Pointer
 395:lib/Drivers/CMSIS/Include/cmsis_gcc.h ****   \details Assigns the given value to the Main Stack Pointer (MSP).
 396:lib/Drivers/CMSIS/Include/cmsis_gcc.h ****   \param [in]    topOfMainStack  Main Stack Pointer value to set
 397:lib/Drivers/CMSIS/Include/cmsis_gcc.h ****  */
 398:lib/Drivers/CMSIS/Include/cmsis_gcc.h **** __STATIC_FORCEINLINE void __set_MSP(uint32_t topOfMainStack)
 399:lib/Drivers/CMSIS/Include/cmsis_gcc.h **** {
 400:lib/Drivers/CMSIS/Include/cmsis_gcc.h ****   __ASM volatile ("MSR msp, %0" : : "r" (topOfMainStack) : );
 401:lib/Drivers/CMSIS/Include/cmsis_gcc.h **** }
 402:lib/Drivers/CMSIS/Include/cmsis_gcc.h **** 
 403:lib/Drivers/CMSIS/Include/cmsis_gcc.h **** 
 404:lib/Drivers/CMSIS/Include/cmsis_gcc.h **** #if (defined (__ARM_FEATURE_CMSE ) && (__ARM_FEATURE_CMSE == 3))
 405:lib/Drivers/CMSIS/Include/cmsis_gcc.h **** /**
 406:lib/Drivers/CMSIS/Include/cmsis_gcc.h ****   \brief   Set Main Stack Pointer (non-secure)
 407:lib/Drivers/CMSIS/Include/cmsis_gcc.h ****   \details Assigns the given value to the non-secure Main Stack Pointer (MSP) when in secure state.
 408:lib/Drivers/CMSIS/Include/cmsis_gcc.h ****   \param [in]    topOfMainStack  Main Stack Pointer value to set
 409:lib/Drivers/CMSIS/Include/cmsis_gcc.h ****  */
 410:lib/Drivers/CMSIS/Include/cmsis_gcc.h **** __STATIC_FORCEINLINE void __TZ_set_MSP_NS(uint32_t topOfMainStack)
 411:lib/Drivers/CMSIS/Include/cmsis_gcc.h **** {
 412:lib/Drivers/CMSIS/Include/cmsis_gcc.h ****   __ASM volatile ("MSR msp_ns, %0" : : "r" (topOfMainStack) : );
 413:lib/Drivers/CMSIS/Include/cmsis_gcc.h **** }
 414:lib/Drivers/CMSIS/Include/cmsis_gcc.h **** #endif
 415:lib/Drivers/CMSIS/Include/cmsis_gcc.h **** 
 416:lib/Drivers/CMSIS/Include/cmsis_gcc.h **** 
 417:lib/Drivers/CMSIS/Include/cmsis_gcc.h **** #if (defined (__ARM_FEATURE_CMSE ) && (__ARM_FEATURE_CMSE == 3))
 418:lib/Drivers/CMSIS/Include/cmsis_gcc.h **** /**
 419:lib/Drivers/CMSIS/Include/cmsis_gcc.h ****   \brief   Get Stack Pointer (non-secure)
 420:lib/Drivers/CMSIS/Include/cmsis_gcc.h ****   \details Returns the current value of the non-secure Stack Pointer (SP) when in secure state.
 421:lib/Drivers/CMSIS/Include/cmsis_gcc.h ****   \return               SP Register value
 422:lib/Drivers/CMSIS/Include/cmsis_gcc.h ****  */
 423:lib/Drivers/CMSIS/Include/cmsis_gcc.h **** __STATIC_FORCEINLINE uint32_t __TZ_get_SP_NS(void)
 424:lib/Drivers/CMSIS/Include/cmsis_gcc.h **** {
 425:lib/Drivers/CMSIS/Include/cmsis_gcc.h ****   uint32_t result;
 426:lib/Drivers/CMSIS/Include/cmsis_gcc.h **** 
 427:lib/Drivers/CMSIS/Include/cmsis_gcc.h ****   __ASM volatile ("MRS %0, sp_ns" : "=r" (result) );
 428:lib/Drivers/CMSIS/Include/cmsis_gcc.h ****   return(result);
 429:lib/Drivers/CMSIS/Include/cmsis_gcc.h **** }
 430:lib/Drivers/CMSIS/Include/cmsis_gcc.h **** 
 431:lib/Drivers/CMSIS/Include/cmsis_gcc.h **** 
 432:lib/Drivers/CMSIS/Include/cmsis_gcc.h **** /**
 433:lib/Drivers/CMSIS/Include/cmsis_gcc.h ****   \brief   Set Stack Pointer (non-secure)
 434:lib/Drivers/CMSIS/Include/cmsis_gcc.h ****   \details Assigns the given value to the non-secure Stack Pointer (SP) when in secure state.
 435:lib/Drivers/CMSIS/Include/cmsis_gcc.h ****   \param [in]    topOfStack  Stack Pointer value to set
 436:lib/Drivers/CMSIS/Include/cmsis_gcc.h ****  */
ARM GAS  /tmp/ccc6MANg.s 			page 27


 437:lib/Drivers/CMSIS/Include/cmsis_gcc.h **** __STATIC_FORCEINLINE void __TZ_set_SP_NS(uint32_t topOfStack)
 438:lib/Drivers/CMSIS/Include/cmsis_gcc.h **** {
 439:lib/Drivers/CMSIS/Include/cmsis_gcc.h ****   __ASM volatile ("MSR sp_ns, %0" : : "r" (topOfStack) : );
 440:lib/Drivers/CMSIS/Include/cmsis_gcc.h **** }
 441:lib/Drivers/CMSIS/Include/cmsis_gcc.h **** #endif
 442:lib/Drivers/CMSIS/Include/cmsis_gcc.h **** 
 443:lib/Drivers/CMSIS/Include/cmsis_gcc.h **** 
 444:lib/Drivers/CMSIS/Include/cmsis_gcc.h **** /**
 445:lib/Drivers/CMSIS/Include/cmsis_gcc.h ****   \brief   Get Priority Mask
 446:lib/Drivers/CMSIS/Include/cmsis_gcc.h ****   \details Returns the current state of the priority mask bit from the Priority Mask Register.
 447:lib/Drivers/CMSIS/Include/cmsis_gcc.h ****   \return               Priority Mask value
 448:lib/Drivers/CMSIS/Include/cmsis_gcc.h ****  */
 449:lib/Drivers/CMSIS/Include/cmsis_gcc.h **** __STATIC_FORCEINLINE uint32_t __get_PRIMASK(void)
 450:lib/Drivers/CMSIS/Include/cmsis_gcc.h **** {
 451:lib/Drivers/CMSIS/Include/cmsis_gcc.h ****   uint32_t result;
 452:lib/Drivers/CMSIS/Include/cmsis_gcc.h **** 
 453:lib/Drivers/CMSIS/Include/cmsis_gcc.h ****   __ASM volatile ("MRS %0, primask" : "=r" (result) :: "memory");
 454:lib/Drivers/CMSIS/Include/cmsis_gcc.h ****   return(result);
 455:lib/Drivers/CMSIS/Include/cmsis_gcc.h **** }
 456:lib/Drivers/CMSIS/Include/cmsis_gcc.h **** 
 457:lib/Drivers/CMSIS/Include/cmsis_gcc.h **** 
 458:lib/Drivers/CMSIS/Include/cmsis_gcc.h **** #if (defined (__ARM_FEATURE_CMSE ) && (__ARM_FEATURE_CMSE == 3))
 459:lib/Drivers/CMSIS/Include/cmsis_gcc.h **** /**
 460:lib/Drivers/CMSIS/Include/cmsis_gcc.h ****   \brief   Get Priority Mask (non-secure)
 461:lib/Drivers/CMSIS/Include/cmsis_gcc.h ****   \details Returns the current state of the non-secure priority mask bit from the Priority Mask Reg
 462:lib/Drivers/CMSIS/Include/cmsis_gcc.h ****   \return               Priority Mask value
 463:lib/Drivers/CMSIS/Include/cmsis_gcc.h ****  */
 464:lib/Drivers/CMSIS/Include/cmsis_gcc.h **** __STATIC_FORCEINLINE uint32_t __TZ_get_PRIMASK_NS(void)
 465:lib/Drivers/CMSIS/Include/cmsis_gcc.h **** {
 466:lib/Drivers/CMSIS/Include/cmsis_gcc.h ****   uint32_t result;
 467:lib/Drivers/CMSIS/Include/cmsis_gcc.h **** 
 468:lib/Drivers/CMSIS/Include/cmsis_gcc.h ****   __ASM volatile ("MRS %0, primask_ns" : "=r" (result) :: "memory");
 469:lib/Drivers/CMSIS/Include/cmsis_gcc.h ****   return(result);
 470:lib/Drivers/CMSIS/Include/cmsis_gcc.h **** }
 471:lib/Drivers/CMSIS/Include/cmsis_gcc.h **** #endif
 472:lib/Drivers/CMSIS/Include/cmsis_gcc.h **** 
 473:lib/Drivers/CMSIS/Include/cmsis_gcc.h **** 
 474:lib/Drivers/CMSIS/Include/cmsis_gcc.h **** /**
 475:lib/Drivers/CMSIS/Include/cmsis_gcc.h ****   \brief   Set Priority Mask
 476:lib/Drivers/CMSIS/Include/cmsis_gcc.h ****   \details Assigns the given value to the Priority Mask Register.
 477:lib/Drivers/CMSIS/Include/cmsis_gcc.h ****   \param [in]    priMask  Priority Mask
 478:lib/Drivers/CMSIS/Include/cmsis_gcc.h ****  */
 479:lib/Drivers/CMSIS/Include/cmsis_gcc.h **** __STATIC_FORCEINLINE void __set_PRIMASK(uint32_t priMask)
 480:lib/Drivers/CMSIS/Include/cmsis_gcc.h **** {
 481:lib/Drivers/CMSIS/Include/cmsis_gcc.h ****   __ASM volatile ("MSR primask, %0" : : "r" (priMask) : "memory");
 482:lib/Drivers/CMSIS/Include/cmsis_gcc.h **** }
 483:lib/Drivers/CMSIS/Include/cmsis_gcc.h **** 
 484:lib/Drivers/CMSIS/Include/cmsis_gcc.h **** 
 485:lib/Drivers/CMSIS/Include/cmsis_gcc.h **** #if (defined (__ARM_FEATURE_CMSE ) && (__ARM_FEATURE_CMSE == 3))
 486:lib/Drivers/CMSIS/Include/cmsis_gcc.h **** /**
 487:lib/Drivers/CMSIS/Include/cmsis_gcc.h ****   \brief   Set Priority Mask (non-secure)
 488:lib/Drivers/CMSIS/Include/cmsis_gcc.h ****   \details Assigns the given value to the non-secure Priority Mask Register when in secure state.
 489:lib/Drivers/CMSIS/Include/cmsis_gcc.h ****   \param [in]    priMask  Priority Mask
 490:lib/Drivers/CMSIS/Include/cmsis_gcc.h ****  */
 491:lib/Drivers/CMSIS/Include/cmsis_gcc.h **** __STATIC_FORCEINLINE void __TZ_set_PRIMASK_NS(uint32_t priMask)
 492:lib/Drivers/CMSIS/Include/cmsis_gcc.h **** {
 493:lib/Drivers/CMSIS/Include/cmsis_gcc.h ****   __ASM volatile ("MSR primask_ns, %0" : : "r" (priMask) : "memory");
ARM GAS  /tmp/ccc6MANg.s 			page 28


 494:lib/Drivers/CMSIS/Include/cmsis_gcc.h **** }
 495:lib/Drivers/CMSIS/Include/cmsis_gcc.h **** #endif
 496:lib/Drivers/CMSIS/Include/cmsis_gcc.h **** 
 497:lib/Drivers/CMSIS/Include/cmsis_gcc.h **** 
 498:lib/Drivers/CMSIS/Include/cmsis_gcc.h **** #if ((defined (__ARM_ARCH_7M__      ) && (__ARM_ARCH_7M__      == 1)) || \
 499:lib/Drivers/CMSIS/Include/cmsis_gcc.h ****      (defined (__ARM_ARCH_7EM__     ) && (__ARM_ARCH_7EM__     == 1)) || \
 500:lib/Drivers/CMSIS/Include/cmsis_gcc.h ****      (defined (__ARM_ARCH_8M_MAIN__ ) && (__ARM_ARCH_8M_MAIN__ == 1))    )
 501:lib/Drivers/CMSIS/Include/cmsis_gcc.h **** /**
 502:lib/Drivers/CMSIS/Include/cmsis_gcc.h ****   \brief   Enable FIQ
 503:lib/Drivers/CMSIS/Include/cmsis_gcc.h ****   \details Enables FIQ interrupts by clearing the F-bit in the CPSR.
 504:lib/Drivers/CMSIS/Include/cmsis_gcc.h ****            Can only be executed in Privileged modes.
 505:lib/Drivers/CMSIS/Include/cmsis_gcc.h ****  */
 506:lib/Drivers/CMSIS/Include/cmsis_gcc.h **** __STATIC_FORCEINLINE void __enable_fault_irq(void)
 507:lib/Drivers/CMSIS/Include/cmsis_gcc.h **** {
 508:lib/Drivers/CMSIS/Include/cmsis_gcc.h ****   __ASM volatile ("cpsie f" : : : "memory");
 509:lib/Drivers/CMSIS/Include/cmsis_gcc.h **** }
 510:lib/Drivers/CMSIS/Include/cmsis_gcc.h **** 
 511:lib/Drivers/CMSIS/Include/cmsis_gcc.h **** 
 512:lib/Drivers/CMSIS/Include/cmsis_gcc.h **** /**
 513:lib/Drivers/CMSIS/Include/cmsis_gcc.h ****   \brief   Disable FIQ
 514:lib/Drivers/CMSIS/Include/cmsis_gcc.h ****   \details Disables FIQ interrupts by setting the F-bit in the CPSR.
 515:lib/Drivers/CMSIS/Include/cmsis_gcc.h ****            Can only be executed in Privileged modes.
 516:lib/Drivers/CMSIS/Include/cmsis_gcc.h ****  */
 517:lib/Drivers/CMSIS/Include/cmsis_gcc.h **** __STATIC_FORCEINLINE void __disable_fault_irq(void)
 518:lib/Drivers/CMSIS/Include/cmsis_gcc.h **** {
 519:lib/Drivers/CMSIS/Include/cmsis_gcc.h ****   __ASM volatile ("cpsid f" : : : "memory");
 520:lib/Drivers/CMSIS/Include/cmsis_gcc.h **** }
 521:lib/Drivers/CMSIS/Include/cmsis_gcc.h **** 
 522:lib/Drivers/CMSIS/Include/cmsis_gcc.h **** 
 523:lib/Drivers/CMSIS/Include/cmsis_gcc.h **** /**
 524:lib/Drivers/CMSIS/Include/cmsis_gcc.h ****   \brief   Get Base Priority
 525:lib/Drivers/CMSIS/Include/cmsis_gcc.h ****   \details Returns the current value of the Base Priority register.
 526:lib/Drivers/CMSIS/Include/cmsis_gcc.h ****   \return               Base Priority register value
 527:lib/Drivers/CMSIS/Include/cmsis_gcc.h ****  */
 528:lib/Drivers/CMSIS/Include/cmsis_gcc.h **** __STATIC_FORCEINLINE uint32_t __get_BASEPRI(void)
 529:lib/Drivers/CMSIS/Include/cmsis_gcc.h **** {
 530:lib/Drivers/CMSIS/Include/cmsis_gcc.h ****   uint32_t result;
 531:lib/Drivers/CMSIS/Include/cmsis_gcc.h **** 
 532:lib/Drivers/CMSIS/Include/cmsis_gcc.h ****   __ASM volatile ("MRS %0, basepri" : "=r" (result) );
 533:lib/Drivers/CMSIS/Include/cmsis_gcc.h ****   return(result);
 534:lib/Drivers/CMSIS/Include/cmsis_gcc.h **** }
 535:lib/Drivers/CMSIS/Include/cmsis_gcc.h **** 
 536:lib/Drivers/CMSIS/Include/cmsis_gcc.h **** 
 537:lib/Drivers/CMSIS/Include/cmsis_gcc.h **** #if (defined (__ARM_FEATURE_CMSE ) && (__ARM_FEATURE_CMSE == 3))
 538:lib/Drivers/CMSIS/Include/cmsis_gcc.h **** /**
 539:lib/Drivers/CMSIS/Include/cmsis_gcc.h ****   \brief   Get Base Priority (non-secure)
 540:lib/Drivers/CMSIS/Include/cmsis_gcc.h ****   \details Returns the current value of the non-secure Base Priority register when in secure state.
 541:lib/Drivers/CMSIS/Include/cmsis_gcc.h ****   \return               Base Priority register value
 542:lib/Drivers/CMSIS/Include/cmsis_gcc.h ****  */
 543:lib/Drivers/CMSIS/Include/cmsis_gcc.h **** __STATIC_FORCEINLINE uint32_t __TZ_get_BASEPRI_NS(void)
 544:lib/Drivers/CMSIS/Include/cmsis_gcc.h **** {
 545:lib/Drivers/CMSIS/Include/cmsis_gcc.h ****   uint32_t result;
 546:lib/Drivers/CMSIS/Include/cmsis_gcc.h **** 
 547:lib/Drivers/CMSIS/Include/cmsis_gcc.h ****   __ASM volatile ("MRS %0, basepri_ns" : "=r" (result) );
 548:lib/Drivers/CMSIS/Include/cmsis_gcc.h ****   return(result);
 549:lib/Drivers/CMSIS/Include/cmsis_gcc.h **** }
 550:lib/Drivers/CMSIS/Include/cmsis_gcc.h **** #endif
ARM GAS  /tmp/ccc6MANg.s 			page 29


 551:lib/Drivers/CMSIS/Include/cmsis_gcc.h **** 
 552:lib/Drivers/CMSIS/Include/cmsis_gcc.h **** 
 553:lib/Drivers/CMSIS/Include/cmsis_gcc.h **** /**
 554:lib/Drivers/CMSIS/Include/cmsis_gcc.h ****   \brief   Set Base Priority
 555:lib/Drivers/CMSIS/Include/cmsis_gcc.h ****   \details Assigns the given value to the Base Priority register.
 556:lib/Drivers/CMSIS/Include/cmsis_gcc.h ****   \param [in]    basePri  Base Priority value to set
 557:lib/Drivers/CMSIS/Include/cmsis_gcc.h ****  */
 558:lib/Drivers/CMSIS/Include/cmsis_gcc.h **** __STATIC_FORCEINLINE void __set_BASEPRI(uint32_t basePri)
 559:lib/Drivers/CMSIS/Include/cmsis_gcc.h **** {
 560:lib/Drivers/CMSIS/Include/cmsis_gcc.h ****   __ASM volatile ("MSR basepri, %0" : : "r" (basePri) : "memory");
 561:lib/Drivers/CMSIS/Include/cmsis_gcc.h **** }
 562:lib/Drivers/CMSIS/Include/cmsis_gcc.h **** 
 563:lib/Drivers/CMSIS/Include/cmsis_gcc.h **** 
 564:lib/Drivers/CMSIS/Include/cmsis_gcc.h **** #if (defined (__ARM_FEATURE_CMSE ) && (__ARM_FEATURE_CMSE == 3))
 565:lib/Drivers/CMSIS/Include/cmsis_gcc.h **** /**
 566:lib/Drivers/CMSIS/Include/cmsis_gcc.h ****   \brief   Set Base Priority (non-secure)
 567:lib/Drivers/CMSIS/Include/cmsis_gcc.h ****   \details Assigns the given value to the non-secure Base Priority register when in secure state.
 568:lib/Drivers/CMSIS/Include/cmsis_gcc.h ****   \param [in]    basePri  Base Priority value to set
 569:lib/Drivers/CMSIS/Include/cmsis_gcc.h ****  */
 570:lib/Drivers/CMSIS/Include/cmsis_gcc.h **** __STATIC_FORCEINLINE void __TZ_set_BASEPRI_NS(uint32_t basePri)
 571:lib/Drivers/CMSIS/Include/cmsis_gcc.h **** {
 572:lib/Drivers/CMSIS/Include/cmsis_gcc.h ****   __ASM volatile ("MSR basepri_ns, %0" : : "r" (basePri) : "memory");
 573:lib/Drivers/CMSIS/Include/cmsis_gcc.h **** }
 574:lib/Drivers/CMSIS/Include/cmsis_gcc.h **** #endif
 575:lib/Drivers/CMSIS/Include/cmsis_gcc.h **** 
 576:lib/Drivers/CMSIS/Include/cmsis_gcc.h **** 
 577:lib/Drivers/CMSIS/Include/cmsis_gcc.h **** /**
 578:lib/Drivers/CMSIS/Include/cmsis_gcc.h ****   \brief   Set Base Priority with condition
 579:lib/Drivers/CMSIS/Include/cmsis_gcc.h ****   \details Assigns the given value to the Base Priority register only if BASEPRI masking is disable
 580:lib/Drivers/CMSIS/Include/cmsis_gcc.h ****            or the new value increases the BASEPRI priority level.
 581:lib/Drivers/CMSIS/Include/cmsis_gcc.h ****   \param [in]    basePri  Base Priority value to set
 582:lib/Drivers/CMSIS/Include/cmsis_gcc.h ****  */
 583:lib/Drivers/CMSIS/Include/cmsis_gcc.h **** __STATIC_FORCEINLINE void __set_BASEPRI_MAX(uint32_t basePri)
 584:lib/Drivers/CMSIS/Include/cmsis_gcc.h **** {
 585:lib/Drivers/CMSIS/Include/cmsis_gcc.h ****   __ASM volatile ("MSR basepri_max, %0" : : "r" (basePri) : "memory");
 586:lib/Drivers/CMSIS/Include/cmsis_gcc.h **** }
 587:lib/Drivers/CMSIS/Include/cmsis_gcc.h **** 
 588:lib/Drivers/CMSIS/Include/cmsis_gcc.h **** 
 589:lib/Drivers/CMSIS/Include/cmsis_gcc.h **** /**
 590:lib/Drivers/CMSIS/Include/cmsis_gcc.h ****   \brief   Get Fault Mask
 591:lib/Drivers/CMSIS/Include/cmsis_gcc.h ****   \details Returns the current value of the Fault Mask register.
 592:lib/Drivers/CMSIS/Include/cmsis_gcc.h ****   \return               Fault Mask register value
 593:lib/Drivers/CMSIS/Include/cmsis_gcc.h ****  */
 594:lib/Drivers/CMSIS/Include/cmsis_gcc.h **** __STATIC_FORCEINLINE uint32_t __get_FAULTMASK(void)
 595:lib/Drivers/CMSIS/Include/cmsis_gcc.h **** {
 596:lib/Drivers/CMSIS/Include/cmsis_gcc.h ****   uint32_t result;
 597:lib/Drivers/CMSIS/Include/cmsis_gcc.h **** 
 598:lib/Drivers/CMSIS/Include/cmsis_gcc.h ****   __ASM volatile ("MRS %0, faultmask" : "=r" (result) );
 599:lib/Drivers/CMSIS/Include/cmsis_gcc.h ****   return(result);
 600:lib/Drivers/CMSIS/Include/cmsis_gcc.h **** }
 601:lib/Drivers/CMSIS/Include/cmsis_gcc.h **** 
 602:lib/Drivers/CMSIS/Include/cmsis_gcc.h **** 
 603:lib/Drivers/CMSIS/Include/cmsis_gcc.h **** #if (defined (__ARM_FEATURE_CMSE ) && (__ARM_FEATURE_CMSE == 3))
 604:lib/Drivers/CMSIS/Include/cmsis_gcc.h **** /**
 605:lib/Drivers/CMSIS/Include/cmsis_gcc.h ****   \brief   Get Fault Mask (non-secure)
 606:lib/Drivers/CMSIS/Include/cmsis_gcc.h ****   \details Returns the current value of the non-secure Fault Mask register when in secure state.
 607:lib/Drivers/CMSIS/Include/cmsis_gcc.h ****   \return               Fault Mask register value
ARM GAS  /tmp/ccc6MANg.s 			page 30


 608:lib/Drivers/CMSIS/Include/cmsis_gcc.h ****  */
 609:lib/Drivers/CMSIS/Include/cmsis_gcc.h **** __STATIC_FORCEINLINE uint32_t __TZ_get_FAULTMASK_NS(void)
 610:lib/Drivers/CMSIS/Include/cmsis_gcc.h **** {
 611:lib/Drivers/CMSIS/Include/cmsis_gcc.h ****   uint32_t result;
 612:lib/Drivers/CMSIS/Include/cmsis_gcc.h **** 
 613:lib/Drivers/CMSIS/Include/cmsis_gcc.h ****   __ASM volatile ("MRS %0, faultmask_ns" : "=r" (result) );
 614:lib/Drivers/CMSIS/Include/cmsis_gcc.h ****   return(result);
 615:lib/Drivers/CMSIS/Include/cmsis_gcc.h **** }
 616:lib/Drivers/CMSIS/Include/cmsis_gcc.h **** #endif
 617:lib/Drivers/CMSIS/Include/cmsis_gcc.h **** 
 618:lib/Drivers/CMSIS/Include/cmsis_gcc.h **** 
 619:lib/Drivers/CMSIS/Include/cmsis_gcc.h **** /**
 620:lib/Drivers/CMSIS/Include/cmsis_gcc.h ****   \brief   Set Fault Mask
 621:lib/Drivers/CMSIS/Include/cmsis_gcc.h ****   \details Assigns the given value to the Fault Mask register.
 622:lib/Drivers/CMSIS/Include/cmsis_gcc.h ****   \param [in]    faultMask  Fault Mask value to set
 623:lib/Drivers/CMSIS/Include/cmsis_gcc.h ****  */
 624:lib/Drivers/CMSIS/Include/cmsis_gcc.h **** __STATIC_FORCEINLINE void __set_FAULTMASK(uint32_t faultMask)
 625:lib/Drivers/CMSIS/Include/cmsis_gcc.h **** {
 626:lib/Drivers/CMSIS/Include/cmsis_gcc.h ****   __ASM volatile ("MSR faultmask, %0" : : "r" (faultMask) : "memory");
 627:lib/Drivers/CMSIS/Include/cmsis_gcc.h **** }
 628:lib/Drivers/CMSIS/Include/cmsis_gcc.h **** 
 629:lib/Drivers/CMSIS/Include/cmsis_gcc.h **** 
 630:lib/Drivers/CMSIS/Include/cmsis_gcc.h **** #if (defined (__ARM_FEATURE_CMSE ) && (__ARM_FEATURE_CMSE == 3))
 631:lib/Drivers/CMSIS/Include/cmsis_gcc.h **** /**
 632:lib/Drivers/CMSIS/Include/cmsis_gcc.h ****   \brief   Set Fault Mask (non-secure)
 633:lib/Drivers/CMSIS/Include/cmsis_gcc.h ****   \details Assigns the given value to the non-secure Fault Mask register when in secure state.
 634:lib/Drivers/CMSIS/Include/cmsis_gcc.h ****   \param [in]    faultMask  Fault Mask value to set
 635:lib/Drivers/CMSIS/Include/cmsis_gcc.h ****  */
 636:lib/Drivers/CMSIS/Include/cmsis_gcc.h **** __STATIC_FORCEINLINE void __TZ_set_FAULTMASK_NS(uint32_t faultMask)
 637:lib/Drivers/CMSIS/Include/cmsis_gcc.h **** {
 638:lib/Drivers/CMSIS/Include/cmsis_gcc.h ****   __ASM volatile ("MSR faultmask_ns, %0" : : "r" (faultMask) : "memory");
 639:lib/Drivers/CMSIS/Include/cmsis_gcc.h **** }
 640:lib/Drivers/CMSIS/Include/cmsis_gcc.h **** #endif
 641:lib/Drivers/CMSIS/Include/cmsis_gcc.h **** 
 642:lib/Drivers/CMSIS/Include/cmsis_gcc.h **** #endif /* ((defined (__ARM_ARCH_7M__      ) && (__ARM_ARCH_7M__      == 1)) || \
 643:lib/Drivers/CMSIS/Include/cmsis_gcc.h ****            (defined (__ARM_ARCH_7EM__     ) && (__ARM_ARCH_7EM__     == 1)) || \
 644:lib/Drivers/CMSIS/Include/cmsis_gcc.h ****            (defined (__ARM_ARCH_8M_MAIN__ ) && (__ARM_ARCH_8M_MAIN__ == 1))    ) */
 645:lib/Drivers/CMSIS/Include/cmsis_gcc.h **** 
 646:lib/Drivers/CMSIS/Include/cmsis_gcc.h **** 
 647:lib/Drivers/CMSIS/Include/cmsis_gcc.h **** #if ((defined (__ARM_ARCH_8M_MAIN__ ) && (__ARM_ARCH_8M_MAIN__ == 1)) || \
 648:lib/Drivers/CMSIS/Include/cmsis_gcc.h ****      (defined (__ARM_ARCH_8M_BASE__ ) && (__ARM_ARCH_8M_BASE__ == 1))    )
 649:lib/Drivers/CMSIS/Include/cmsis_gcc.h **** 
 650:lib/Drivers/CMSIS/Include/cmsis_gcc.h **** /**
 651:lib/Drivers/CMSIS/Include/cmsis_gcc.h ****   \brief   Get Process Stack Pointer Limit
 652:lib/Drivers/CMSIS/Include/cmsis_gcc.h ****   Devices without ARMv8-M Main Extensions (i.e. Cortex-M23) lack the non-secure
 653:lib/Drivers/CMSIS/Include/cmsis_gcc.h ****   Stack Pointer Limit register hence zero is returned always in non-secure
 654:lib/Drivers/CMSIS/Include/cmsis_gcc.h ****   mode.
 655:lib/Drivers/CMSIS/Include/cmsis_gcc.h ****   
 656:lib/Drivers/CMSIS/Include/cmsis_gcc.h ****   \details Returns the current value of the Process Stack Pointer Limit (PSPLIM).
 657:lib/Drivers/CMSIS/Include/cmsis_gcc.h ****   \return               PSPLIM Register value
 658:lib/Drivers/CMSIS/Include/cmsis_gcc.h ****  */
 659:lib/Drivers/CMSIS/Include/cmsis_gcc.h **** __STATIC_FORCEINLINE uint32_t __get_PSPLIM(void)
 660:lib/Drivers/CMSIS/Include/cmsis_gcc.h **** {
 661:lib/Drivers/CMSIS/Include/cmsis_gcc.h **** #if (!(defined (__ARM_ARCH_8M_MAIN__ ) && (__ARM_ARCH_8M_MAIN__ == 1)) && \
 662:lib/Drivers/CMSIS/Include/cmsis_gcc.h ****     (!defined (__ARM_FEATURE_CMSE) || (__ARM_FEATURE_CMSE < 3)))
 663:lib/Drivers/CMSIS/Include/cmsis_gcc.h ****     // without main extensions, the non-secure PSPLIM is RAZ/WI
 664:lib/Drivers/CMSIS/Include/cmsis_gcc.h ****   return 0U;
ARM GAS  /tmp/ccc6MANg.s 			page 31


 665:lib/Drivers/CMSIS/Include/cmsis_gcc.h **** #else
 666:lib/Drivers/CMSIS/Include/cmsis_gcc.h ****   uint32_t result;
 667:lib/Drivers/CMSIS/Include/cmsis_gcc.h ****   __ASM volatile ("MRS %0, psplim"  : "=r" (result) );
 668:lib/Drivers/CMSIS/Include/cmsis_gcc.h ****   return result;
 669:lib/Drivers/CMSIS/Include/cmsis_gcc.h **** #endif
 670:lib/Drivers/CMSIS/Include/cmsis_gcc.h **** }
 671:lib/Drivers/CMSIS/Include/cmsis_gcc.h **** 
 672:lib/Drivers/CMSIS/Include/cmsis_gcc.h **** #if (defined (__ARM_FEATURE_CMSE) && (__ARM_FEATURE_CMSE == 3))
 673:lib/Drivers/CMSIS/Include/cmsis_gcc.h **** /**
 674:lib/Drivers/CMSIS/Include/cmsis_gcc.h ****   \brief   Get Process Stack Pointer Limit (non-secure)
 675:lib/Drivers/CMSIS/Include/cmsis_gcc.h ****   Devices without ARMv8-M Main Extensions (i.e. Cortex-M23) lack the non-secure
 676:lib/Drivers/CMSIS/Include/cmsis_gcc.h ****   Stack Pointer Limit register hence zero is returned always.
 677:lib/Drivers/CMSIS/Include/cmsis_gcc.h **** 
 678:lib/Drivers/CMSIS/Include/cmsis_gcc.h ****   \details Returns the current value of the non-secure Process Stack Pointer Limit (PSPLIM) when in
 679:lib/Drivers/CMSIS/Include/cmsis_gcc.h ****   \return               PSPLIM Register value
 680:lib/Drivers/CMSIS/Include/cmsis_gcc.h ****  */
 681:lib/Drivers/CMSIS/Include/cmsis_gcc.h **** __STATIC_FORCEINLINE uint32_t __TZ_get_PSPLIM_NS(void)
 682:lib/Drivers/CMSIS/Include/cmsis_gcc.h **** {
 683:lib/Drivers/CMSIS/Include/cmsis_gcc.h **** #if (!(defined (__ARM_ARCH_8M_MAIN__ ) && (__ARM_ARCH_8M_MAIN__ == 1)))
 684:lib/Drivers/CMSIS/Include/cmsis_gcc.h ****   // without main extensions, the non-secure PSPLIM is RAZ/WI
 685:lib/Drivers/CMSIS/Include/cmsis_gcc.h ****   return 0U;
 686:lib/Drivers/CMSIS/Include/cmsis_gcc.h **** #else
 687:lib/Drivers/CMSIS/Include/cmsis_gcc.h ****   uint32_t result;
 688:lib/Drivers/CMSIS/Include/cmsis_gcc.h ****   __ASM volatile ("MRS %0, psplim_ns"  : "=r" (result) );
 689:lib/Drivers/CMSIS/Include/cmsis_gcc.h ****   return result;
 690:lib/Drivers/CMSIS/Include/cmsis_gcc.h **** #endif
 691:lib/Drivers/CMSIS/Include/cmsis_gcc.h **** }
 692:lib/Drivers/CMSIS/Include/cmsis_gcc.h **** #endif
 693:lib/Drivers/CMSIS/Include/cmsis_gcc.h **** 
 694:lib/Drivers/CMSIS/Include/cmsis_gcc.h **** 
 695:lib/Drivers/CMSIS/Include/cmsis_gcc.h **** /**
 696:lib/Drivers/CMSIS/Include/cmsis_gcc.h ****   \brief   Set Process Stack Pointer Limit
 697:lib/Drivers/CMSIS/Include/cmsis_gcc.h ****   Devices without ARMv8-M Main Extensions (i.e. Cortex-M23) lack the non-secure
 698:lib/Drivers/CMSIS/Include/cmsis_gcc.h ****   Stack Pointer Limit register hence the write is silently ignored in non-secure
 699:lib/Drivers/CMSIS/Include/cmsis_gcc.h ****   mode.
 700:lib/Drivers/CMSIS/Include/cmsis_gcc.h ****   
 701:lib/Drivers/CMSIS/Include/cmsis_gcc.h ****   \details Assigns the given value to the Process Stack Pointer Limit (PSPLIM).
 702:lib/Drivers/CMSIS/Include/cmsis_gcc.h ****   \param [in]    ProcStackPtrLimit  Process Stack Pointer Limit value to set
 703:lib/Drivers/CMSIS/Include/cmsis_gcc.h ****  */
 704:lib/Drivers/CMSIS/Include/cmsis_gcc.h **** __STATIC_FORCEINLINE void __set_PSPLIM(uint32_t ProcStackPtrLimit)
 705:lib/Drivers/CMSIS/Include/cmsis_gcc.h **** {
 706:lib/Drivers/CMSIS/Include/cmsis_gcc.h **** #if (!(defined (__ARM_ARCH_8M_MAIN__ ) && (__ARM_ARCH_8M_MAIN__ == 1)) && \
 707:lib/Drivers/CMSIS/Include/cmsis_gcc.h ****     (!defined (__ARM_FEATURE_CMSE) || (__ARM_FEATURE_CMSE < 3)))
 708:lib/Drivers/CMSIS/Include/cmsis_gcc.h ****   // without main extensions, the non-secure PSPLIM is RAZ/WI
 709:lib/Drivers/CMSIS/Include/cmsis_gcc.h ****   (void)ProcStackPtrLimit;
 710:lib/Drivers/CMSIS/Include/cmsis_gcc.h **** #else
 711:lib/Drivers/CMSIS/Include/cmsis_gcc.h ****   __ASM volatile ("MSR psplim, %0" : : "r" (ProcStackPtrLimit));
 712:lib/Drivers/CMSIS/Include/cmsis_gcc.h **** #endif
 713:lib/Drivers/CMSIS/Include/cmsis_gcc.h **** }
 714:lib/Drivers/CMSIS/Include/cmsis_gcc.h **** 
 715:lib/Drivers/CMSIS/Include/cmsis_gcc.h **** 
 716:lib/Drivers/CMSIS/Include/cmsis_gcc.h **** #if (defined (__ARM_FEATURE_CMSE  ) && (__ARM_FEATURE_CMSE   == 3))
 717:lib/Drivers/CMSIS/Include/cmsis_gcc.h **** /**
 718:lib/Drivers/CMSIS/Include/cmsis_gcc.h ****   \brief   Set Process Stack Pointer (non-secure)
 719:lib/Drivers/CMSIS/Include/cmsis_gcc.h ****   Devices without ARMv8-M Main Extensions (i.e. Cortex-M23) lack the non-secure
 720:lib/Drivers/CMSIS/Include/cmsis_gcc.h ****   Stack Pointer Limit register hence the write is silently ignored.
 721:lib/Drivers/CMSIS/Include/cmsis_gcc.h **** 
ARM GAS  /tmp/ccc6MANg.s 			page 32


 722:lib/Drivers/CMSIS/Include/cmsis_gcc.h ****   \details Assigns the given value to the non-secure Process Stack Pointer Limit (PSPLIM) when in s
 723:lib/Drivers/CMSIS/Include/cmsis_gcc.h ****   \param [in]    ProcStackPtrLimit  Process Stack Pointer Limit value to set
 724:lib/Drivers/CMSIS/Include/cmsis_gcc.h ****  */
 725:lib/Drivers/CMSIS/Include/cmsis_gcc.h **** __STATIC_FORCEINLINE void __TZ_set_PSPLIM_NS(uint32_t ProcStackPtrLimit)
 726:lib/Drivers/CMSIS/Include/cmsis_gcc.h **** {
 727:lib/Drivers/CMSIS/Include/cmsis_gcc.h **** #if (!(defined (__ARM_ARCH_8M_MAIN__ ) && (__ARM_ARCH_8M_MAIN__ == 1)))
 728:lib/Drivers/CMSIS/Include/cmsis_gcc.h ****   // without main extensions, the non-secure PSPLIM is RAZ/WI
 729:lib/Drivers/CMSIS/Include/cmsis_gcc.h ****   (void)ProcStackPtrLimit;
 730:lib/Drivers/CMSIS/Include/cmsis_gcc.h **** #else
 731:lib/Drivers/CMSIS/Include/cmsis_gcc.h ****   __ASM volatile ("MSR psplim_ns, %0\n" : : "r" (ProcStackPtrLimit));
 732:lib/Drivers/CMSIS/Include/cmsis_gcc.h **** #endif
 733:lib/Drivers/CMSIS/Include/cmsis_gcc.h **** }
 734:lib/Drivers/CMSIS/Include/cmsis_gcc.h **** #endif
 735:lib/Drivers/CMSIS/Include/cmsis_gcc.h **** 
 736:lib/Drivers/CMSIS/Include/cmsis_gcc.h **** 
 737:lib/Drivers/CMSIS/Include/cmsis_gcc.h **** /**
 738:lib/Drivers/CMSIS/Include/cmsis_gcc.h ****   \brief   Get Main Stack Pointer Limit
 739:lib/Drivers/CMSIS/Include/cmsis_gcc.h ****   Devices without ARMv8-M Main Extensions (i.e. Cortex-M23) lack the non-secure
 740:lib/Drivers/CMSIS/Include/cmsis_gcc.h ****   Stack Pointer Limit register hence zero is returned always in non-secure
 741:lib/Drivers/CMSIS/Include/cmsis_gcc.h ****   mode.
 742:lib/Drivers/CMSIS/Include/cmsis_gcc.h **** 
 743:lib/Drivers/CMSIS/Include/cmsis_gcc.h ****   \details Returns the current value of the Main Stack Pointer Limit (MSPLIM).
 744:lib/Drivers/CMSIS/Include/cmsis_gcc.h ****   \return               MSPLIM Register value
 745:lib/Drivers/CMSIS/Include/cmsis_gcc.h ****  */
 746:lib/Drivers/CMSIS/Include/cmsis_gcc.h **** __STATIC_FORCEINLINE uint32_t __get_MSPLIM(void)
 747:lib/Drivers/CMSIS/Include/cmsis_gcc.h **** {
 748:lib/Drivers/CMSIS/Include/cmsis_gcc.h **** #if (!(defined (__ARM_ARCH_8M_MAIN__ ) && (__ARM_ARCH_8M_MAIN__ == 1)) && \
 749:lib/Drivers/CMSIS/Include/cmsis_gcc.h ****     (!defined (__ARM_FEATURE_CMSE) || (__ARM_FEATURE_CMSE < 3)))
 750:lib/Drivers/CMSIS/Include/cmsis_gcc.h ****   // without main extensions, the non-secure MSPLIM is RAZ/WI
 751:lib/Drivers/CMSIS/Include/cmsis_gcc.h ****   return 0U;
 752:lib/Drivers/CMSIS/Include/cmsis_gcc.h **** #else
 753:lib/Drivers/CMSIS/Include/cmsis_gcc.h ****   uint32_t result;
 754:lib/Drivers/CMSIS/Include/cmsis_gcc.h ****   __ASM volatile ("MRS %0, msplim" : "=r" (result) );
 755:lib/Drivers/CMSIS/Include/cmsis_gcc.h ****   return result;
 756:lib/Drivers/CMSIS/Include/cmsis_gcc.h **** #endif
 757:lib/Drivers/CMSIS/Include/cmsis_gcc.h **** }
 758:lib/Drivers/CMSIS/Include/cmsis_gcc.h **** 
 759:lib/Drivers/CMSIS/Include/cmsis_gcc.h **** 
 760:lib/Drivers/CMSIS/Include/cmsis_gcc.h **** #if (defined (__ARM_FEATURE_CMSE  ) && (__ARM_FEATURE_CMSE   == 3))
 761:lib/Drivers/CMSIS/Include/cmsis_gcc.h **** /**
 762:lib/Drivers/CMSIS/Include/cmsis_gcc.h ****   \brief   Get Main Stack Pointer Limit (non-secure)
 763:lib/Drivers/CMSIS/Include/cmsis_gcc.h ****   Devices without ARMv8-M Main Extensions (i.e. Cortex-M23) lack the non-secure
 764:lib/Drivers/CMSIS/Include/cmsis_gcc.h ****   Stack Pointer Limit register hence zero is returned always.
 765:lib/Drivers/CMSIS/Include/cmsis_gcc.h **** 
 766:lib/Drivers/CMSIS/Include/cmsis_gcc.h ****   \details Returns the current value of the non-secure Main Stack Pointer Limit(MSPLIM) when in sec
 767:lib/Drivers/CMSIS/Include/cmsis_gcc.h ****   \return               MSPLIM Register value
 768:lib/Drivers/CMSIS/Include/cmsis_gcc.h ****  */
 769:lib/Drivers/CMSIS/Include/cmsis_gcc.h **** __STATIC_FORCEINLINE uint32_t __TZ_get_MSPLIM_NS(void)
 770:lib/Drivers/CMSIS/Include/cmsis_gcc.h **** {
 771:lib/Drivers/CMSIS/Include/cmsis_gcc.h **** #if (!(defined (__ARM_ARCH_8M_MAIN__ ) && (__ARM_ARCH_8M_MAIN__ == 1)))
 772:lib/Drivers/CMSIS/Include/cmsis_gcc.h ****   // without main extensions, the non-secure MSPLIM is RAZ/WI
 773:lib/Drivers/CMSIS/Include/cmsis_gcc.h ****   return 0U;
 774:lib/Drivers/CMSIS/Include/cmsis_gcc.h **** #else
 775:lib/Drivers/CMSIS/Include/cmsis_gcc.h ****   uint32_t result;
 776:lib/Drivers/CMSIS/Include/cmsis_gcc.h ****   __ASM volatile ("MRS %0, msplim_ns" : "=r" (result) );
 777:lib/Drivers/CMSIS/Include/cmsis_gcc.h ****   return result;
 778:lib/Drivers/CMSIS/Include/cmsis_gcc.h **** #endif
ARM GAS  /tmp/ccc6MANg.s 			page 33


 779:lib/Drivers/CMSIS/Include/cmsis_gcc.h **** }
 780:lib/Drivers/CMSIS/Include/cmsis_gcc.h **** #endif
 781:lib/Drivers/CMSIS/Include/cmsis_gcc.h **** 
 782:lib/Drivers/CMSIS/Include/cmsis_gcc.h **** 
 783:lib/Drivers/CMSIS/Include/cmsis_gcc.h **** /**
 784:lib/Drivers/CMSIS/Include/cmsis_gcc.h ****   \brief   Set Main Stack Pointer Limit
 785:lib/Drivers/CMSIS/Include/cmsis_gcc.h ****   Devices without ARMv8-M Main Extensions (i.e. Cortex-M23) lack the non-secure
 786:lib/Drivers/CMSIS/Include/cmsis_gcc.h ****   Stack Pointer Limit register hence the write is silently ignored in non-secure
 787:lib/Drivers/CMSIS/Include/cmsis_gcc.h ****   mode.
 788:lib/Drivers/CMSIS/Include/cmsis_gcc.h **** 
 789:lib/Drivers/CMSIS/Include/cmsis_gcc.h ****   \details Assigns the given value to the Main Stack Pointer Limit (MSPLIM).
 790:lib/Drivers/CMSIS/Include/cmsis_gcc.h ****   \param [in]    MainStackPtrLimit  Main Stack Pointer Limit value to set
 791:lib/Drivers/CMSIS/Include/cmsis_gcc.h ****  */
 792:lib/Drivers/CMSIS/Include/cmsis_gcc.h **** __STATIC_FORCEINLINE void __set_MSPLIM(uint32_t MainStackPtrLimit)
 793:lib/Drivers/CMSIS/Include/cmsis_gcc.h **** {
 794:lib/Drivers/CMSIS/Include/cmsis_gcc.h **** #if (!(defined (__ARM_ARCH_8M_MAIN__ ) && (__ARM_ARCH_8M_MAIN__ == 1)) && \
 795:lib/Drivers/CMSIS/Include/cmsis_gcc.h ****     (!defined (__ARM_FEATURE_CMSE) || (__ARM_FEATURE_CMSE < 3)))
 796:lib/Drivers/CMSIS/Include/cmsis_gcc.h ****   // without main extensions, the non-secure MSPLIM is RAZ/WI
 797:lib/Drivers/CMSIS/Include/cmsis_gcc.h ****   (void)MainStackPtrLimit;
 798:lib/Drivers/CMSIS/Include/cmsis_gcc.h **** #else
 799:lib/Drivers/CMSIS/Include/cmsis_gcc.h ****   __ASM volatile ("MSR msplim, %0" : : "r" (MainStackPtrLimit));
 800:lib/Drivers/CMSIS/Include/cmsis_gcc.h **** #endif
 801:lib/Drivers/CMSIS/Include/cmsis_gcc.h **** }
 802:lib/Drivers/CMSIS/Include/cmsis_gcc.h **** 
 803:lib/Drivers/CMSIS/Include/cmsis_gcc.h **** 
 804:lib/Drivers/CMSIS/Include/cmsis_gcc.h **** #if (defined (__ARM_FEATURE_CMSE  ) && (__ARM_FEATURE_CMSE   == 3))
 805:lib/Drivers/CMSIS/Include/cmsis_gcc.h **** /**
 806:lib/Drivers/CMSIS/Include/cmsis_gcc.h ****   \brief   Set Main Stack Pointer Limit (non-secure)
 807:lib/Drivers/CMSIS/Include/cmsis_gcc.h ****   Devices without ARMv8-M Main Extensions (i.e. Cortex-M23) lack the non-secure
 808:lib/Drivers/CMSIS/Include/cmsis_gcc.h ****   Stack Pointer Limit register hence the write is silently ignored.
 809:lib/Drivers/CMSIS/Include/cmsis_gcc.h **** 
 810:lib/Drivers/CMSIS/Include/cmsis_gcc.h ****   \details Assigns the given value to the non-secure Main Stack Pointer Limit (MSPLIM) when in secu
 811:lib/Drivers/CMSIS/Include/cmsis_gcc.h ****   \param [in]    MainStackPtrLimit  Main Stack Pointer value to set
 812:lib/Drivers/CMSIS/Include/cmsis_gcc.h ****  */
 813:lib/Drivers/CMSIS/Include/cmsis_gcc.h **** __STATIC_FORCEINLINE void __TZ_set_MSPLIM_NS(uint32_t MainStackPtrLimit)
 814:lib/Drivers/CMSIS/Include/cmsis_gcc.h **** {
 815:lib/Drivers/CMSIS/Include/cmsis_gcc.h **** #if (!(defined (__ARM_ARCH_8M_MAIN__ ) && (__ARM_ARCH_8M_MAIN__ == 1)))
 816:lib/Drivers/CMSIS/Include/cmsis_gcc.h ****   // without main extensions, the non-secure MSPLIM is RAZ/WI
 817:lib/Drivers/CMSIS/Include/cmsis_gcc.h ****   (void)MainStackPtrLimit;
 818:lib/Drivers/CMSIS/Include/cmsis_gcc.h **** #else
 819:lib/Drivers/CMSIS/Include/cmsis_gcc.h ****   __ASM volatile ("MSR msplim_ns, %0" : : "r" (MainStackPtrLimit));
 820:lib/Drivers/CMSIS/Include/cmsis_gcc.h **** #endif
 821:lib/Drivers/CMSIS/Include/cmsis_gcc.h **** }
 822:lib/Drivers/CMSIS/Include/cmsis_gcc.h **** #endif
 823:lib/Drivers/CMSIS/Include/cmsis_gcc.h **** 
 824:lib/Drivers/CMSIS/Include/cmsis_gcc.h **** #endif /* ((defined (__ARM_ARCH_8M_MAIN__ ) && (__ARM_ARCH_8M_MAIN__ == 1)) || \
 825:lib/Drivers/CMSIS/Include/cmsis_gcc.h ****            (defined (__ARM_ARCH_8M_BASE__ ) && (__ARM_ARCH_8M_BASE__ == 1))    ) */
 826:lib/Drivers/CMSIS/Include/cmsis_gcc.h **** 
 827:lib/Drivers/CMSIS/Include/cmsis_gcc.h **** 
 828:lib/Drivers/CMSIS/Include/cmsis_gcc.h **** /**
 829:lib/Drivers/CMSIS/Include/cmsis_gcc.h ****   \brief   Get FPSCR
 830:lib/Drivers/CMSIS/Include/cmsis_gcc.h ****   \details Returns the current value of the Floating Point Status/Control register.
 831:lib/Drivers/CMSIS/Include/cmsis_gcc.h ****   \return               Floating Point Status/Control register value
 832:lib/Drivers/CMSIS/Include/cmsis_gcc.h ****  */
 833:lib/Drivers/CMSIS/Include/cmsis_gcc.h **** __STATIC_FORCEINLINE uint32_t __get_FPSCR(void)
 834:lib/Drivers/CMSIS/Include/cmsis_gcc.h **** {
 835:lib/Drivers/CMSIS/Include/cmsis_gcc.h **** #if ((defined (__FPU_PRESENT) && (__FPU_PRESENT == 1U)) && \
ARM GAS  /tmp/ccc6MANg.s 			page 34


 836:lib/Drivers/CMSIS/Include/cmsis_gcc.h ****      (defined (__FPU_USED   ) && (__FPU_USED    == 1U))     )
 837:lib/Drivers/CMSIS/Include/cmsis_gcc.h **** #if __has_builtin(__builtin_arm_get_fpscr) 
 838:lib/Drivers/CMSIS/Include/cmsis_gcc.h **** // Re-enable using built-in when GCC has been fixed
 839:lib/Drivers/CMSIS/Include/cmsis_gcc.h **** // || (__GNUC__ > 7) || (__GNUC__ == 7 && __GNUC_MINOR__ >= 2)
 840:lib/Drivers/CMSIS/Include/cmsis_gcc.h ****   /* see https://gcc.gnu.org/ml/gcc-patches/2017-04/msg00443.html */
 841:lib/Drivers/CMSIS/Include/cmsis_gcc.h ****   return __builtin_arm_get_fpscr();
 842:lib/Drivers/CMSIS/Include/cmsis_gcc.h **** #else
 843:lib/Drivers/CMSIS/Include/cmsis_gcc.h ****   uint32_t result;
 844:lib/Drivers/CMSIS/Include/cmsis_gcc.h **** 
 845:lib/Drivers/CMSIS/Include/cmsis_gcc.h ****   __ASM volatile ("VMRS %0, fpscr" : "=r" (result) );
 846:lib/Drivers/CMSIS/Include/cmsis_gcc.h ****   return(result);
 847:lib/Drivers/CMSIS/Include/cmsis_gcc.h **** #endif
 848:lib/Drivers/CMSIS/Include/cmsis_gcc.h **** #else
 849:lib/Drivers/CMSIS/Include/cmsis_gcc.h ****   return(0U);
 850:lib/Drivers/CMSIS/Include/cmsis_gcc.h **** #endif
 851:lib/Drivers/CMSIS/Include/cmsis_gcc.h **** }
 852:lib/Drivers/CMSIS/Include/cmsis_gcc.h **** 
 853:lib/Drivers/CMSIS/Include/cmsis_gcc.h **** 
 854:lib/Drivers/CMSIS/Include/cmsis_gcc.h **** /**
 855:lib/Drivers/CMSIS/Include/cmsis_gcc.h ****   \brief   Set FPSCR
 856:lib/Drivers/CMSIS/Include/cmsis_gcc.h ****   \details Assigns the given value to the Floating Point Status/Control register.
 857:lib/Drivers/CMSIS/Include/cmsis_gcc.h ****   \param [in]    fpscr  Floating Point Status/Control value to set
 858:lib/Drivers/CMSIS/Include/cmsis_gcc.h ****  */
 859:lib/Drivers/CMSIS/Include/cmsis_gcc.h **** __STATIC_FORCEINLINE void __set_FPSCR(uint32_t fpscr)
 860:lib/Drivers/CMSIS/Include/cmsis_gcc.h **** {
 861:lib/Drivers/CMSIS/Include/cmsis_gcc.h **** #if ((defined (__FPU_PRESENT) && (__FPU_PRESENT == 1U)) && \
 862:lib/Drivers/CMSIS/Include/cmsis_gcc.h ****      (defined (__FPU_USED   ) && (__FPU_USED    == 1U))     )
 863:lib/Drivers/CMSIS/Include/cmsis_gcc.h **** #if __has_builtin(__builtin_arm_set_fpscr)
 864:lib/Drivers/CMSIS/Include/cmsis_gcc.h **** // Re-enable using built-in when GCC has been fixed
 865:lib/Drivers/CMSIS/Include/cmsis_gcc.h **** // || (__GNUC__ > 7) || (__GNUC__ == 7 && __GNUC_MINOR__ >= 2)
 866:lib/Drivers/CMSIS/Include/cmsis_gcc.h ****   /* see https://gcc.gnu.org/ml/gcc-patches/2017-04/msg00443.html */
 867:lib/Drivers/CMSIS/Include/cmsis_gcc.h ****   __builtin_arm_set_fpscr(fpscr);
 868:lib/Drivers/CMSIS/Include/cmsis_gcc.h **** #else
 869:lib/Drivers/CMSIS/Include/cmsis_gcc.h ****   __ASM volatile ("VMSR fpscr, %0" : : "r" (fpscr) : "vfpcc", "memory");
 870:lib/Drivers/CMSIS/Include/cmsis_gcc.h **** #endif
 871:lib/Drivers/CMSIS/Include/cmsis_gcc.h **** #else
 872:lib/Drivers/CMSIS/Include/cmsis_gcc.h ****   (void)fpscr;
 873:lib/Drivers/CMSIS/Include/cmsis_gcc.h **** #endif
 874:lib/Drivers/CMSIS/Include/cmsis_gcc.h **** }
 875:lib/Drivers/CMSIS/Include/cmsis_gcc.h **** 
 876:lib/Drivers/CMSIS/Include/cmsis_gcc.h **** 
 877:lib/Drivers/CMSIS/Include/cmsis_gcc.h **** /*@} end of CMSIS_Core_RegAccFunctions */
 878:lib/Drivers/CMSIS/Include/cmsis_gcc.h **** 
 879:lib/Drivers/CMSIS/Include/cmsis_gcc.h **** 
 880:lib/Drivers/CMSIS/Include/cmsis_gcc.h **** /* ##########################  Core Instruction Access  ######################### */
 881:lib/Drivers/CMSIS/Include/cmsis_gcc.h **** /** \defgroup CMSIS_Core_InstructionInterface CMSIS Core Instruction Interface
 882:lib/Drivers/CMSIS/Include/cmsis_gcc.h ****   Access to dedicated instructions
 883:lib/Drivers/CMSIS/Include/cmsis_gcc.h ****   @{
 884:lib/Drivers/CMSIS/Include/cmsis_gcc.h **** */
 885:lib/Drivers/CMSIS/Include/cmsis_gcc.h **** 
 886:lib/Drivers/CMSIS/Include/cmsis_gcc.h **** /* Define macros for porting to both thumb1 and thumb2.
 887:lib/Drivers/CMSIS/Include/cmsis_gcc.h ****  * For thumb1, use low register (r0-r7), specified by constraint "l"
 888:lib/Drivers/CMSIS/Include/cmsis_gcc.h ****  * Otherwise, use general registers, specified by constraint "r" */
 889:lib/Drivers/CMSIS/Include/cmsis_gcc.h **** #if defined (__thumb__) && !defined (__thumb2__)
 890:lib/Drivers/CMSIS/Include/cmsis_gcc.h **** #define __CMSIS_GCC_OUT_REG(r) "=l" (r)
 891:lib/Drivers/CMSIS/Include/cmsis_gcc.h **** #define __CMSIS_GCC_RW_REG(r) "+l" (r)
 892:lib/Drivers/CMSIS/Include/cmsis_gcc.h **** #define __CMSIS_GCC_USE_REG(r) "l" (r)
ARM GAS  /tmp/ccc6MANg.s 			page 35


 893:lib/Drivers/CMSIS/Include/cmsis_gcc.h **** #else
 894:lib/Drivers/CMSIS/Include/cmsis_gcc.h **** #define __CMSIS_GCC_OUT_REG(r) "=r" (r)
 895:lib/Drivers/CMSIS/Include/cmsis_gcc.h **** #define __CMSIS_GCC_RW_REG(r) "+r" (r)
 896:lib/Drivers/CMSIS/Include/cmsis_gcc.h **** #define __CMSIS_GCC_USE_REG(r) "r" (r)
 897:lib/Drivers/CMSIS/Include/cmsis_gcc.h **** #endif
 898:lib/Drivers/CMSIS/Include/cmsis_gcc.h **** 
 899:lib/Drivers/CMSIS/Include/cmsis_gcc.h **** /**
 900:lib/Drivers/CMSIS/Include/cmsis_gcc.h ****   \brief   No Operation
 901:lib/Drivers/CMSIS/Include/cmsis_gcc.h ****   \details No Operation does nothing. This instruction can be used for code alignment purposes.
 902:lib/Drivers/CMSIS/Include/cmsis_gcc.h ****  */
 903:lib/Drivers/CMSIS/Include/cmsis_gcc.h **** #define __NOP()                             __ASM volatile ("nop")
 904:lib/Drivers/CMSIS/Include/cmsis_gcc.h **** 
 905:lib/Drivers/CMSIS/Include/cmsis_gcc.h **** /**
 906:lib/Drivers/CMSIS/Include/cmsis_gcc.h ****   \brief   Wait For Interrupt
 907:lib/Drivers/CMSIS/Include/cmsis_gcc.h ****   \details Wait For Interrupt is a hint instruction that suspends execution until one of a number o
 908:lib/Drivers/CMSIS/Include/cmsis_gcc.h ****  */
 909:lib/Drivers/CMSIS/Include/cmsis_gcc.h **** #define __WFI()                             __ASM volatile ("wfi")
 910:lib/Drivers/CMSIS/Include/cmsis_gcc.h **** 
 911:lib/Drivers/CMSIS/Include/cmsis_gcc.h **** 
 912:lib/Drivers/CMSIS/Include/cmsis_gcc.h **** /**
 913:lib/Drivers/CMSIS/Include/cmsis_gcc.h ****   \brief   Wait For Event
 914:lib/Drivers/CMSIS/Include/cmsis_gcc.h ****   \details Wait For Event is a hint instruction that permits the processor to enter
 915:lib/Drivers/CMSIS/Include/cmsis_gcc.h ****            a low-power state until one of a number of events occurs.
 916:lib/Drivers/CMSIS/Include/cmsis_gcc.h ****  */
 917:lib/Drivers/CMSIS/Include/cmsis_gcc.h **** #define __WFE()                             __ASM volatile ("wfe")
 918:lib/Drivers/CMSIS/Include/cmsis_gcc.h **** 
 919:lib/Drivers/CMSIS/Include/cmsis_gcc.h **** 
 920:lib/Drivers/CMSIS/Include/cmsis_gcc.h **** /**
 921:lib/Drivers/CMSIS/Include/cmsis_gcc.h ****   \brief   Send Event
 922:lib/Drivers/CMSIS/Include/cmsis_gcc.h ****   \details Send Event is a hint instruction. It causes an event to be signaled to the CPU.
 923:lib/Drivers/CMSIS/Include/cmsis_gcc.h ****  */
 924:lib/Drivers/CMSIS/Include/cmsis_gcc.h **** #define __SEV()                             __ASM volatile ("sev")
 925:lib/Drivers/CMSIS/Include/cmsis_gcc.h **** 
 926:lib/Drivers/CMSIS/Include/cmsis_gcc.h **** 
 927:lib/Drivers/CMSIS/Include/cmsis_gcc.h **** /**
 928:lib/Drivers/CMSIS/Include/cmsis_gcc.h ****   \brief   Instruction Synchronization Barrier
 929:lib/Drivers/CMSIS/Include/cmsis_gcc.h ****   \details Instruction Synchronization Barrier flushes the pipeline in the processor,
 930:lib/Drivers/CMSIS/Include/cmsis_gcc.h ****            so that all instructions following the ISB are fetched from cache or memory,
 931:lib/Drivers/CMSIS/Include/cmsis_gcc.h ****            after the instruction has been completed.
 932:lib/Drivers/CMSIS/Include/cmsis_gcc.h ****  */
 933:lib/Drivers/CMSIS/Include/cmsis_gcc.h **** __STATIC_FORCEINLINE void __ISB(void)
 934:lib/Drivers/CMSIS/Include/cmsis_gcc.h **** {
 935:lib/Drivers/CMSIS/Include/cmsis_gcc.h ****   __ASM volatile ("isb 0xF":::"memory");
 936:lib/Drivers/CMSIS/Include/cmsis_gcc.h **** }
 937:lib/Drivers/CMSIS/Include/cmsis_gcc.h **** 
 938:lib/Drivers/CMSIS/Include/cmsis_gcc.h **** 
 939:lib/Drivers/CMSIS/Include/cmsis_gcc.h **** /**
 940:lib/Drivers/CMSIS/Include/cmsis_gcc.h ****   \brief   Data Synchronization Barrier
 941:lib/Drivers/CMSIS/Include/cmsis_gcc.h ****   \details Acts as a special kind of Data Memory Barrier.
 942:lib/Drivers/CMSIS/Include/cmsis_gcc.h ****            It completes when all explicit memory accesses before this instruction complete.
 943:lib/Drivers/CMSIS/Include/cmsis_gcc.h ****  */
 944:lib/Drivers/CMSIS/Include/cmsis_gcc.h **** __STATIC_FORCEINLINE void __DSB(void)
 414              		.loc 2 944 27 view .LVU69
 415              	.LBB11:
 945:lib/Drivers/CMSIS/Include/cmsis_gcc.h **** {
 946:lib/Drivers/CMSIS/Include/cmsis_gcc.h ****   __ASM volatile ("dsb 0xF":::"memory");
 416              		.loc 2 946 3 view .LVU70
ARM GAS  /tmp/ccc6MANg.s 			page 36


 417              		.syntax unified
 418              	@ 946 "lib/Drivers/CMSIS/Include/cmsis_gcc.h" 1
 419 0026 BFF34F8F 		dsb 0xF
 420              	@ 0 "" 2
 421              		.thumb
 422              		.syntax unified
 423              	.LBE11:
 424              	.LBE10:
 652:lib/Drivers/STM32H7xx_HAL_Driver/Src/stm32h7xx_hal_pwr.c ****   __ISB ();
 425              		.loc 1 652 3 view .LVU71
 426              	.LBB12:
 427              	.LBI12:
 933:lib/Drivers/CMSIS/Include/cmsis_gcc.h **** {
 428              		.loc 2 933 27 view .LVU72
 429              	.LBB13:
 935:lib/Drivers/CMSIS/Include/cmsis_gcc.h **** }
 430              		.loc 2 935 3 view .LVU73
 431              		.syntax unified
 432              	@ 935 "lib/Drivers/CMSIS/Include/cmsis_gcc.h" 1
 433 002a BFF36F8F 		isb 0xF
 434              	@ 0 "" 2
 435              		.thumb
 436              		.syntax unified
 437              	.LBE13:
 438              	.LBE12:
 653:lib/Drivers/STM32H7xx_HAL_Driver/Src/stm32h7xx_hal_pwr.c **** 
 654:lib/Drivers/STM32H7xx_HAL_Driver/Src/stm32h7xx_hal_pwr.c ****   /* Select STOP mode entry */
 655:lib/Drivers/STM32H7xx_HAL_Driver/Src/stm32h7xx_hal_pwr.c ****   if (STOPEntry == PWR_STOPENTRY_WFI)
 439              		.loc 1 655 3 view .LVU74
 440              		.loc 1 655 6 is_stmt 0 view .LVU75
 441 002e 0129     		cmp	r1, #1
 442 0030 06D0     		beq	.L36
 656:lib/Drivers/STM32H7xx_HAL_Driver/Src/stm32h7xx_hal_pwr.c ****   {
 657:lib/Drivers/STM32H7xx_HAL_Driver/Src/stm32h7xx_hal_pwr.c ****     /* Request Wait For Interrupt */
 658:lib/Drivers/STM32H7xx_HAL_Driver/Src/stm32h7xx_hal_pwr.c ****     __WFI ();
 659:lib/Drivers/STM32H7xx_HAL_Driver/Src/stm32h7xx_hal_pwr.c ****   }
 660:lib/Drivers/STM32H7xx_HAL_Driver/Src/stm32h7xx_hal_pwr.c ****   else
 661:lib/Drivers/STM32H7xx_HAL_Driver/Src/stm32h7xx_hal_pwr.c ****   {
 662:lib/Drivers/STM32H7xx_HAL_Driver/Src/stm32h7xx_hal_pwr.c ****     /* Request Wait For Event */
 663:lib/Drivers/STM32H7xx_HAL_Driver/Src/stm32h7xx_hal_pwr.c ****     __WFE ();
 443              		.loc 1 663 5 is_stmt 1 view .LVU76
 444              		.syntax unified
 445              	@ 663 "lib/Drivers/STM32H7xx_HAL_Driver/Src/stm32h7xx_hal_pwr.c" 1
 446 0032 20BF     		wfe
 447              	@ 0 "" 2
 448              		.thumb
 449              		.syntax unified
 450              	.L35:
 664:lib/Drivers/STM32H7xx_HAL_Driver/Src/stm32h7xx_hal_pwr.c ****   }
 665:lib/Drivers/STM32H7xx_HAL_Driver/Src/stm32h7xx_hal_pwr.c **** 
 666:lib/Drivers/STM32H7xx_HAL_Driver/Src/stm32h7xx_hal_pwr.c ****   /* Clear SLEEPDEEP bit of Cortex-Mx in the System Control Register */
 667:lib/Drivers/STM32H7xx_HAL_Driver/Src/stm32h7xx_hal_pwr.c ****   CLEAR_BIT (SCB->SCR, SCB_SCR_SLEEPDEEP_Msk);
 451              		.loc 1 667 3 view .LVU77
 452 0034 044A     		ldr	r2, .L37+4
 453 0036 1369     		ldr	r3, [r2, #16]
 454 0038 23F00403 		bic	r3, r3, #4
 455 003c 1361     		str	r3, [r2, #16]
ARM GAS  /tmp/ccc6MANg.s 			page 37


 668:lib/Drivers/STM32H7xx_HAL_Driver/Src/stm32h7xx_hal_pwr.c **** }
 456              		.loc 1 668 1 is_stmt 0 view .LVU78
 457 003e 7047     		bx	lr
 458              	.L36:
 658:lib/Drivers/STM32H7xx_HAL_Driver/Src/stm32h7xx_hal_pwr.c ****   }
 459              		.loc 1 658 5 is_stmt 1 view .LVU79
 460              		.syntax unified
 461              	@ 658 "lib/Drivers/STM32H7xx_HAL_Driver/Src/stm32h7xx_hal_pwr.c" 1
 462 0040 30BF     		wfi
 463              	@ 0 "" 2
 464              		.thumb
 465              		.syntax unified
 466 0042 F7E7     		b	.L35
 467              	.L38:
 468              		.align	2
 469              	.L37:
 470 0044 00480258 		.word	1476544512
 471 0048 00ED00E0 		.word	-536810240
 472              		.cfi_endproc
 473              	.LFE153:
 475              		.section	.text.HAL_PWR_EnterSTANDBYMode,"ax",%progbits
 476              		.align	1
 477              		.global	HAL_PWR_EnterSTANDBYMode
 478              		.syntax unified
 479              		.thumb
 480              		.thumb_func
 482              	HAL_PWR_EnterSTANDBYMode:
 483              	.LFB154:
 669:lib/Drivers/STM32H7xx_HAL_Driver/Src/stm32h7xx_hal_pwr.c **** 
 670:lib/Drivers/STM32H7xx_HAL_Driver/Src/stm32h7xx_hal_pwr.c **** /**
 671:lib/Drivers/STM32H7xx_HAL_Driver/Src/stm32h7xx_hal_pwr.c ****   * @brief  Enter STANDBY mode.
 672:lib/Drivers/STM32H7xx_HAL_Driver/Src/stm32h7xx_hal_pwr.c ****   * @note   For single core devices, this API will enter the system in STANDBY
 673:lib/Drivers/STM32H7xx_HAL_Driver/Src/stm32h7xx_hal_pwr.c ****   *         mode with all domains in DSTANDBY, if RUN_D3/RUN_SRD bit in CPUCR
 674:lib/Drivers/STM32H7xx_HAL_Driver/Src/stm32h7xx_hal_pwr.c ****   *         register is cleared.
 675:lib/Drivers/STM32H7xx_HAL_Driver/Src/stm32h7xx_hal_pwr.c ****   *         For dual core devices, this API will enter the domain (containing
 676:lib/Drivers/STM32H7xx_HAL_Driver/Src/stm32h7xx_hal_pwr.c ****   *         Cortex-Mx that executing this function) in DSTANDBY mode. If all
 677:lib/Drivers/STM32H7xx_HAL_Driver/Src/stm32h7xx_hal_pwr.c ****   *         Cortex-Mx domains are in DSTANDBY and RUN_D3 bit in CPUCR register
 678:lib/Drivers/STM32H7xx_HAL_Driver/Src/stm32h7xx_hal_pwr.c ****   *         is cleared, all the system will enter in STANDBY mode.
 679:lib/Drivers/STM32H7xx_HAL_Driver/Src/stm32h7xx_hal_pwr.c ****   * @note   The system enters Standby mode only when all domains are in DSTANDBY.
 680:lib/Drivers/STM32H7xx_HAL_Driver/Src/stm32h7xx_hal_pwr.c ****   * @note   When the System exit STANDBY mode by issuing an interrupt or a
 681:lib/Drivers/STM32H7xx_HAL_Driver/Src/stm32h7xx_hal_pwr.c ****   *         wakeup event, the HSI RC oscillator is selected as system clock.
 682:lib/Drivers/STM32H7xx_HAL_Driver/Src/stm32h7xx_hal_pwr.c ****   * @note   It is recommended to disable all regulators before entring STANDBY
 683:lib/Drivers/STM32H7xx_HAL_Driver/Src/stm32h7xx_hal_pwr.c ****   *         mode for power consumption saving purpose.
 684:lib/Drivers/STM32H7xx_HAL_Driver/Src/stm32h7xx_hal_pwr.c ****   * @retval None.
 685:lib/Drivers/STM32H7xx_HAL_Driver/Src/stm32h7xx_hal_pwr.c ****   */
 686:lib/Drivers/STM32H7xx_HAL_Driver/Src/stm32h7xx_hal_pwr.c **** void HAL_PWR_EnterSTANDBYMode (void)
 687:lib/Drivers/STM32H7xx_HAL_Driver/Src/stm32h7xx_hal_pwr.c **** {
 484              		.loc 1 687 1 view -0
 485              		.cfi_startproc
 486              		@ args = 0, pretend = 0, frame = 0
 487              		@ frame_needed = 0, uses_anonymous_args = 0
 488              		@ link register save eliminated.
 688:lib/Drivers/STM32H7xx_HAL_Driver/Src/stm32h7xx_hal_pwr.c ****   /* Configure the PWR mode for the different Domains */
 689:lib/Drivers/STM32H7xx_HAL_Driver/Src/stm32h7xx_hal_pwr.c **** #if defined (DUAL_CORE)
 690:lib/Drivers/STM32H7xx_HAL_Driver/Src/stm32h7xx_hal_pwr.c ****   /* Check CPU ID */
 691:lib/Drivers/STM32H7xx_HAL_Driver/Src/stm32h7xx_hal_pwr.c ****   if (HAL_GetCurrentCPUID () == CM7_CPUID)
 692:lib/Drivers/STM32H7xx_HAL_Driver/Src/stm32h7xx_hal_pwr.c ****   {
ARM GAS  /tmp/ccc6MANg.s 			page 38


 693:lib/Drivers/STM32H7xx_HAL_Driver/Src/stm32h7xx_hal_pwr.c ****     /* Enter DSTANDBY mode when Cortex-M7 enters DEEP-SLEEP */
 694:lib/Drivers/STM32H7xx_HAL_Driver/Src/stm32h7xx_hal_pwr.c ****     SET_BIT (PWR->CPUCR, (PWR_CPUCR_PDDS_D1 | PWR_CPUCR_PDDS_D3));
 695:lib/Drivers/STM32H7xx_HAL_Driver/Src/stm32h7xx_hal_pwr.c ****     SET_BIT (PWR->CPU2CR, (PWR_CPU2CR_PDDS_D1 | PWR_CPU2CR_PDDS_D3));
 696:lib/Drivers/STM32H7xx_HAL_Driver/Src/stm32h7xx_hal_pwr.c ****   }
 697:lib/Drivers/STM32H7xx_HAL_Driver/Src/stm32h7xx_hal_pwr.c ****   else
 698:lib/Drivers/STM32H7xx_HAL_Driver/Src/stm32h7xx_hal_pwr.c ****   {
 699:lib/Drivers/STM32H7xx_HAL_Driver/Src/stm32h7xx_hal_pwr.c ****     /* Enter DSTANDBY mode when Cortex-M4 enters DEEP-SLEEP */
 700:lib/Drivers/STM32H7xx_HAL_Driver/Src/stm32h7xx_hal_pwr.c ****     SET_BIT (PWR->CPUCR, (PWR_CPUCR_PDDS_D2 | PWR_CPUCR_PDDS_D3));
 701:lib/Drivers/STM32H7xx_HAL_Driver/Src/stm32h7xx_hal_pwr.c ****     SET_BIT (PWR->CPU2CR, (PWR_CPU2CR_PDDS_D2 | PWR_CPU2CR_PDDS_D3));
 702:lib/Drivers/STM32H7xx_HAL_Driver/Src/stm32h7xx_hal_pwr.c ****   }
 703:lib/Drivers/STM32H7xx_HAL_Driver/Src/stm32h7xx_hal_pwr.c **** #else /* Single core devices */
 704:lib/Drivers/STM32H7xx_HAL_Driver/Src/stm32h7xx_hal_pwr.c ****   /* Enter DSTANDBY mode when Cortex-M7 enters DEEP-SLEEP */
 705:lib/Drivers/STM32H7xx_HAL_Driver/Src/stm32h7xx_hal_pwr.c ****   SET_BIT (PWR->CPUCR, (PWR_CPUCR_PDDS_D1 | PWR_CPUCR_PDDS_D3));
 489              		.loc 1 705 3 view .LVU81
 490 0000 094B     		ldr	r3, .L40
 491 0002 1A69     		ldr	r2, [r3, #16]
 492 0004 42F00502 		orr	r2, r2, #5
 493 0008 1A61     		str	r2, [r3, #16]
 706:lib/Drivers/STM32H7xx_HAL_Driver/Src/stm32h7xx_hal_pwr.c **** 
 707:lib/Drivers/STM32H7xx_HAL_Driver/Src/stm32h7xx_hal_pwr.c **** #if defined (PWR_CPUCR_PDDS_D2)
 708:lib/Drivers/STM32H7xx_HAL_Driver/Src/stm32h7xx_hal_pwr.c ****   /* Enter DSTANDBY mode when Cortex-M7 enters DEEP-SLEEP */
 709:lib/Drivers/STM32H7xx_HAL_Driver/Src/stm32h7xx_hal_pwr.c ****   SET_BIT (PWR->CPUCR, PWR_CPUCR_PDDS_D2);
 494              		.loc 1 709 3 view .LVU82
 495 000a 1A69     		ldr	r2, [r3, #16]
 496 000c 42F00202 		orr	r2, r2, #2
 497 0010 1A61     		str	r2, [r3, #16]
 710:lib/Drivers/STM32H7xx_HAL_Driver/Src/stm32h7xx_hal_pwr.c **** #endif /* PWR_CPUCR_PDDS_D2 */
 711:lib/Drivers/STM32H7xx_HAL_Driver/Src/stm32h7xx_hal_pwr.c **** #endif /* defined (DUAL_CORE) */
 712:lib/Drivers/STM32H7xx_HAL_Driver/Src/stm32h7xx_hal_pwr.c **** 
 713:lib/Drivers/STM32H7xx_HAL_Driver/Src/stm32h7xx_hal_pwr.c ****   /* Set SLEEPDEEP bit of Cortex System Control Register */
 714:lib/Drivers/STM32H7xx_HAL_Driver/Src/stm32h7xx_hal_pwr.c ****   SET_BIT (SCB->SCR, SCB_SCR_SLEEPDEEP_Msk);
 498              		.loc 1 714 3 view .LVU83
 499 0012 064A     		ldr	r2, .L40+4
 500 0014 1369     		ldr	r3, [r2, #16]
 501 0016 43F00403 		orr	r3, r3, #4
 502 001a 1361     		str	r3, [r2, #16]
 715:lib/Drivers/STM32H7xx_HAL_Driver/Src/stm32h7xx_hal_pwr.c **** 
 716:lib/Drivers/STM32H7xx_HAL_Driver/Src/stm32h7xx_hal_pwr.c ****   /* Ensure that all instructions are done before entering STOP mode */
 717:lib/Drivers/STM32H7xx_HAL_Driver/Src/stm32h7xx_hal_pwr.c ****   __DSB ();
 503              		.loc 1 717 3 view .LVU84
 504              	.LBB14:
 505              	.LBI14:
 944:lib/Drivers/CMSIS/Include/cmsis_gcc.h **** {
 506              		.loc 2 944 27 view .LVU85
 507              	.LBB15:
 508              		.loc 2 946 3 view .LVU86
 509              		.syntax unified
 510              	@ 946 "lib/Drivers/CMSIS/Include/cmsis_gcc.h" 1
 511 001c BFF34F8F 		dsb 0xF
 512              	@ 0 "" 2
 513              		.thumb
 514              		.syntax unified
 515              	.LBE15:
 516              	.LBE14:
 718:lib/Drivers/STM32H7xx_HAL_Driver/Src/stm32h7xx_hal_pwr.c ****   __ISB ();
 517              		.loc 1 718 3 view .LVU87
 518              	.LBB16:
ARM GAS  /tmp/ccc6MANg.s 			page 39


 519              	.LBI16:
 933:lib/Drivers/CMSIS/Include/cmsis_gcc.h **** {
 520              		.loc 2 933 27 view .LVU88
 521              	.LBB17:
 935:lib/Drivers/CMSIS/Include/cmsis_gcc.h **** }
 522              		.loc 2 935 3 view .LVU89
 523              		.syntax unified
 524              	@ 935 "lib/Drivers/CMSIS/Include/cmsis_gcc.h" 1
 525 0020 BFF36F8F 		isb 0xF
 526              	@ 0 "" 2
 527              		.thumb
 528              		.syntax unified
 529              	.LBE17:
 530              	.LBE16:
 719:lib/Drivers/STM32H7xx_HAL_Driver/Src/stm32h7xx_hal_pwr.c **** 
 720:lib/Drivers/STM32H7xx_HAL_Driver/Src/stm32h7xx_hal_pwr.c ****   /* This option is used to ensure that store operations are completed */
 721:lib/Drivers/STM32H7xx_HAL_Driver/Src/stm32h7xx_hal_pwr.c **** #if defined (__CC_ARM)
 722:lib/Drivers/STM32H7xx_HAL_Driver/Src/stm32h7xx_hal_pwr.c ****   __force_stores();
 723:lib/Drivers/STM32H7xx_HAL_Driver/Src/stm32h7xx_hal_pwr.c **** #endif /* defined (__CC_ARM) */
 724:lib/Drivers/STM32H7xx_HAL_Driver/Src/stm32h7xx_hal_pwr.c **** 
 725:lib/Drivers/STM32H7xx_HAL_Driver/Src/stm32h7xx_hal_pwr.c ****   /* Request Wait For Interrupt */
 726:lib/Drivers/STM32H7xx_HAL_Driver/Src/stm32h7xx_hal_pwr.c ****   __WFI ();
 531              		.loc 1 726 3 view .LVU90
 532              		.syntax unified
 533              	@ 726 "lib/Drivers/STM32H7xx_HAL_Driver/Src/stm32h7xx_hal_pwr.c" 1
 534 0024 30BF     		wfi
 535              	@ 0 "" 2
 727:lib/Drivers/STM32H7xx_HAL_Driver/Src/stm32h7xx_hal_pwr.c **** }
 536              		.loc 1 727 1 is_stmt 0 view .LVU91
 537              		.thumb
 538              		.syntax unified
 539 0026 7047     		bx	lr
 540              	.L41:
 541              		.align	2
 542              	.L40:
 543 0028 00480258 		.word	1476544512
 544 002c 00ED00E0 		.word	-536810240
 545              		.cfi_endproc
 546              	.LFE154:
 548              		.section	.text.HAL_PWR_EnableSleepOnExit,"ax",%progbits
 549              		.align	1
 550              		.global	HAL_PWR_EnableSleepOnExit
 551              		.syntax unified
 552              		.thumb
 553              		.thumb_func
 555              	HAL_PWR_EnableSleepOnExit:
 556              	.LFB155:
 728:lib/Drivers/STM32H7xx_HAL_Driver/Src/stm32h7xx_hal_pwr.c **** 
 729:lib/Drivers/STM32H7xx_HAL_Driver/Src/stm32h7xx_hal_pwr.c **** /**
 730:lib/Drivers/STM32H7xx_HAL_Driver/Src/stm32h7xx_hal_pwr.c ****   * @brief  Indicate Sleep-On-Exit feature when returning from Handler mode to
 731:lib/Drivers/STM32H7xx_HAL_Driver/Src/stm32h7xx_hal_pwr.c ****   *         Thread mode.
 732:lib/Drivers/STM32H7xx_HAL_Driver/Src/stm32h7xx_hal_pwr.c ****   * @note   Set SLEEPONEXIT bit of SCR register. When this bit is set, the
 733:lib/Drivers/STM32H7xx_HAL_Driver/Src/stm32h7xx_hal_pwr.c ****   *         processor re-enters SLEEP mode when an interruption handling is over.
 734:lib/Drivers/STM32H7xx_HAL_Driver/Src/stm32h7xx_hal_pwr.c ****   *         Setting this bit is useful when the processor is expected to run
 735:lib/Drivers/STM32H7xx_HAL_Driver/Src/stm32h7xx_hal_pwr.c ****   *         only on interruptions handling.
 736:lib/Drivers/STM32H7xx_HAL_Driver/Src/stm32h7xx_hal_pwr.c ****   * @retval None.
 737:lib/Drivers/STM32H7xx_HAL_Driver/Src/stm32h7xx_hal_pwr.c ****   */
ARM GAS  /tmp/ccc6MANg.s 			page 40


 738:lib/Drivers/STM32H7xx_HAL_Driver/Src/stm32h7xx_hal_pwr.c **** void HAL_PWR_EnableSleepOnExit (void)
 739:lib/Drivers/STM32H7xx_HAL_Driver/Src/stm32h7xx_hal_pwr.c **** {
 557              		.loc 1 739 1 is_stmt 1 view -0
 558              		.cfi_startproc
 559              		@ args = 0, pretend = 0, frame = 0
 560              		@ frame_needed = 0, uses_anonymous_args = 0
 561              		@ link register save eliminated.
 740:lib/Drivers/STM32H7xx_HAL_Driver/Src/stm32h7xx_hal_pwr.c ****   /* Set SLEEPONEXIT bit of Cortex-Mx System Control Register */
 741:lib/Drivers/STM32H7xx_HAL_Driver/Src/stm32h7xx_hal_pwr.c ****   SET_BIT (SCB->SCR, SCB_SCR_SLEEPONEXIT_Msk);
 562              		.loc 1 741 3 view .LVU93
 563 0000 024A     		ldr	r2, .L43
 564 0002 1369     		ldr	r3, [r2, #16]
 565 0004 43F00203 		orr	r3, r3, #2
 566 0008 1361     		str	r3, [r2, #16]
 742:lib/Drivers/STM32H7xx_HAL_Driver/Src/stm32h7xx_hal_pwr.c **** }
 567              		.loc 1 742 1 is_stmt 0 view .LVU94
 568 000a 7047     		bx	lr
 569              	.L44:
 570              		.align	2
 571              	.L43:
 572 000c 00ED00E0 		.word	-536810240
 573              		.cfi_endproc
 574              	.LFE155:
 576              		.section	.text.HAL_PWR_DisableSleepOnExit,"ax",%progbits
 577              		.align	1
 578              		.global	HAL_PWR_DisableSleepOnExit
 579              		.syntax unified
 580              		.thumb
 581              		.thumb_func
 583              	HAL_PWR_DisableSleepOnExit:
 584              	.LFB156:
 743:lib/Drivers/STM32H7xx_HAL_Driver/Src/stm32h7xx_hal_pwr.c **** 
 744:lib/Drivers/STM32H7xx_HAL_Driver/Src/stm32h7xx_hal_pwr.c **** /**
 745:lib/Drivers/STM32H7xx_HAL_Driver/Src/stm32h7xx_hal_pwr.c ****   * @brief  Disable Sleep-On-Exit feature when returning from Handler mode to
 746:lib/Drivers/STM32H7xx_HAL_Driver/Src/stm32h7xx_hal_pwr.c ****   *         Thread mode.
 747:lib/Drivers/STM32H7xx_HAL_Driver/Src/stm32h7xx_hal_pwr.c ****   * @note   Clears SLEEPONEXIT bit of SCR register. When this bit is set, the
 748:lib/Drivers/STM32H7xx_HAL_Driver/Src/stm32h7xx_hal_pwr.c ****   *         processor re-enters SLEEP mode when an interruption handling is over.
 749:lib/Drivers/STM32H7xx_HAL_Driver/Src/stm32h7xx_hal_pwr.c ****   * @retval None
 750:lib/Drivers/STM32H7xx_HAL_Driver/Src/stm32h7xx_hal_pwr.c ****   */
 751:lib/Drivers/STM32H7xx_HAL_Driver/Src/stm32h7xx_hal_pwr.c **** void HAL_PWR_DisableSleepOnExit (void)
 752:lib/Drivers/STM32H7xx_HAL_Driver/Src/stm32h7xx_hal_pwr.c **** {
 585              		.loc 1 752 1 is_stmt 1 view -0
 586              		.cfi_startproc
 587              		@ args = 0, pretend = 0, frame = 0
 588              		@ frame_needed = 0, uses_anonymous_args = 0
 589              		@ link register save eliminated.
 753:lib/Drivers/STM32H7xx_HAL_Driver/Src/stm32h7xx_hal_pwr.c ****   /* Clear SLEEPONEXIT bit of Cortex-Mx System Control Register */
 754:lib/Drivers/STM32H7xx_HAL_Driver/Src/stm32h7xx_hal_pwr.c ****   CLEAR_BIT (SCB->SCR, SCB_SCR_SLEEPONEXIT_Msk);
 590              		.loc 1 754 3 view .LVU96
 591 0000 024A     		ldr	r2, .L46
 592 0002 1369     		ldr	r3, [r2, #16]
 593 0004 23F00203 		bic	r3, r3, #2
 594 0008 1361     		str	r3, [r2, #16]
 755:lib/Drivers/STM32H7xx_HAL_Driver/Src/stm32h7xx_hal_pwr.c **** }
 595              		.loc 1 755 1 is_stmt 0 view .LVU97
 596 000a 7047     		bx	lr
 597              	.L47:
ARM GAS  /tmp/ccc6MANg.s 			page 41


 598              		.align	2
 599              	.L46:
 600 000c 00ED00E0 		.word	-536810240
 601              		.cfi_endproc
 602              	.LFE156:
 604              		.section	.text.HAL_PWR_EnableSEVOnPend,"ax",%progbits
 605              		.align	1
 606              		.global	HAL_PWR_EnableSEVOnPend
 607              		.syntax unified
 608              		.thumb
 609              		.thumb_func
 611              	HAL_PWR_EnableSEVOnPend:
 612              	.LFB157:
 756:lib/Drivers/STM32H7xx_HAL_Driver/Src/stm32h7xx_hal_pwr.c **** 
 757:lib/Drivers/STM32H7xx_HAL_Driver/Src/stm32h7xx_hal_pwr.c **** /**
 758:lib/Drivers/STM32H7xx_HAL_Driver/Src/stm32h7xx_hal_pwr.c ****   * @brief  Enable CORTEX SEVONPEND feature.
 759:lib/Drivers/STM32H7xx_HAL_Driver/Src/stm32h7xx_hal_pwr.c ****   * @note   Sets SEVONPEND bit of SCR register. When this bit is set, any
 760:lib/Drivers/STM32H7xx_HAL_Driver/Src/stm32h7xx_hal_pwr.c ****   *         pending event / interrupt even if it's disabled or has insufficient
 761:lib/Drivers/STM32H7xx_HAL_Driver/Src/stm32h7xx_hal_pwr.c ****   *         priority to cause exception entry wakes up the Cortex-Mx.
 762:lib/Drivers/STM32H7xx_HAL_Driver/Src/stm32h7xx_hal_pwr.c ****   * @retval None.
 763:lib/Drivers/STM32H7xx_HAL_Driver/Src/stm32h7xx_hal_pwr.c ****   */
 764:lib/Drivers/STM32H7xx_HAL_Driver/Src/stm32h7xx_hal_pwr.c **** void HAL_PWR_EnableSEVOnPend (void)
 765:lib/Drivers/STM32H7xx_HAL_Driver/Src/stm32h7xx_hal_pwr.c **** {
 613              		.loc 1 765 1 is_stmt 1 view -0
 614              		.cfi_startproc
 615              		@ args = 0, pretend = 0, frame = 0
 616              		@ frame_needed = 0, uses_anonymous_args = 0
 617              		@ link register save eliminated.
 766:lib/Drivers/STM32H7xx_HAL_Driver/Src/stm32h7xx_hal_pwr.c ****   /* Set SEVONPEND bit of Cortex-Mx System Control Register */
 767:lib/Drivers/STM32H7xx_HAL_Driver/Src/stm32h7xx_hal_pwr.c ****   SET_BIT (SCB->SCR, SCB_SCR_SEVONPEND_Msk);
 618              		.loc 1 767 3 view .LVU99
 619 0000 024A     		ldr	r2, .L49
 620 0002 1369     		ldr	r3, [r2, #16]
 621 0004 43F01003 		orr	r3, r3, #16
 622 0008 1361     		str	r3, [r2, #16]
 768:lib/Drivers/STM32H7xx_HAL_Driver/Src/stm32h7xx_hal_pwr.c **** }
 623              		.loc 1 768 1 is_stmt 0 view .LVU100
 624 000a 7047     		bx	lr
 625              	.L50:
 626              		.align	2
 627              	.L49:
 628 000c 00ED00E0 		.word	-536810240
 629              		.cfi_endproc
 630              	.LFE157:
 632              		.section	.text.HAL_PWR_DisableSEVOnPend,"ax",%progbits
 633              		.align	1
 634              		.global	HAL_PWR_DisableSEVOnPend
 635              		.syntax unified
 636              		.thumb
 637              		.thumb_func
 639              	HAL_PWR_DisableSEVOnPend:
 640              	.LFB158:
 769:lib/Drivers/STM32H7xx_HAL_Driver/Src/stm32h7xx_hal_pwr.c **** 
 770:lib/Drivers/STM32H7xx_HAL_Driver/Src/stm32h7xx_hal_pwr.c **** /**
 771:lib/Drivers/STM32H7xx_HAL_Driver/Src/stm32h7xx_hal_pwr.c ****   * @brief  Disable CORTEX SEVONPEND feature.
 772:lib/Drivers/STM32H7xx_HAL_Driver/Src/stm32h7xx_hal_pwr.c ****   * @note   Resets SEVONPEND bit of SCR register. When this bit is reset, only
 773:lib/Drivers/STM32H7xx_HAL_Driver/Src/stm32h7xx_hal_pwr.c ****   *         enabled pending causes exception entry wakes up the Cortex-Mx.
ARM GAS  /tmp/ccc6MANg.s 			page 42


 774:lib/Drivers/STM32H7xx_HAL_Driver/Src/stm32h7xx_hal_pwr.c ****   * @retval None.
 775:lib/Drivers/STM32H7xx_HAL_Driver/Src/stm32h7xx_hal_pwr.c ****   */
 776:lib/Drivers/STM32H7xx_HAL_Driver/Src/stm32h7xx_hal_pwr.c **** void HAL_PWR_DisableSEVOnPend (void)
 777:lib/Drivers/STM32H7xx_HAL_Driver/Src/stm32h7xx_hal_pwr.c **** {
 641              		.loc 1 777 1 is_stmt 1 view -0
 642              		.cfi_startproc
 643              		@ args = 0, pretend = 0, frame = 0
 644              		@ frame_needed = 0, uses_anonymous_args = 0
 645              		@ link register save eliminated.
 778:lib/Drivers/STM32H7xx_HAL_Driver/Src/stm32h7xx_hal_pwr.c ****   /* Clear SEVONPEND bit of Cortex System Control Register */
 779:lib/Drivers/STM32H7xx_HAL_Driver/Src/stm32h7xx_hal_pwr.c ****   CLEAR_BIT (SCB->SCR, SCB_SCR_SEVONPEND_Msk);
 646              		.loc 1 779 3 view .LVU102
 647 0000 024A     		ldr	r2, .L52
 648 0002 1369     		ldr	r3, [r2, #16]
 649 0004 23F01003 		bic	r3, r3, #16
 650 0008 1361     		str	r3, [r2, #16]
 780:lib/Drivers/STM32H7xx_HAL_Driver/Src/stm32h7xx_hal_pwr.c **** }
 651              		.loc 1 780 1 is_stmt 0 view .LVU103
 652 000a 7047     		bx	lr
 653              	.L53:
 654              		.align	2
 655              	.L52:
 656 000c 00ED00E0 		.word	-536810240
 657              		.cfi_endproc
 658              	.LFE158:
 660              		.section	.text.HAL_PWR_PVDCallback,"ax",%progbits
 661              		.align	1
 662              		.weak	HAL_PWR_PVDCallback
 663              		.syntax unified
 664              		.thumb
 665              		.thumb_func
 667              	HAL_PWR_PVDCallback:
 668              	.LFB160:
 781:lib/Drivers/STM32H7xx_HAL_Driver/Src/stm32h7xx_hal_pwr.c **** /**
 782:lib/Drivers/STM32H7xx_HAL_Driver/Src/stm32h7xx_hal_pwr.c ****   * @}
 783:lib/Drivers/STM32H7xx_HAL_Driver/Src/stm32h7xx_hal_pwr.c ****   */
 784:lib/Drivers/STM32H7xx_HAL_Driver/Src/stm32h7xx_hal_pwr.c **** 
 785:lib/Drivers/STM32H7xx_HAL_Driver/Src/stm32h7xx_hal_pwr.c **** /** @defgroup PWR_Exported_Functions_Group3 Interrupt Handling Functions
 786:lib/Drivers/STM32H7xx_HAL_Driver/Src/stm32h7xx_hal_pwr.c ****   *  @brief   Interrupt Handling functions
 787:lib/Drivers/STM32H7xx_HAL_Driver/Src/stm32h7xx_hal_pwr.c ****   *
 788:lib/Drivers/STM32H7xx_HAL_Driver/Src/stm32h7xx_hal_pwr.c **** @verbatim
 789:lib/Drivers/STM32H7xx_HAL_Driver/Src/stm32h7xx_hal_pwr.c ****  ===============================================================================
 790:lib/Drivers/STM32H7xx_HAL_Driver/Src/stm32h7xx_hal_pwr.c ****                     ##### Interrupt Handling Functions #####
 791:lib/Drivers/STM32H7xx_HAL_Driver/Src/stm32h7xx_hal_pwr.c ****  ===============================================================================
 792:lib/Drivers/STM32H7xx_HAL_Driver/Src/stm32h7xx_hal_pwr.c ****     [..]
 793:lib/Drivers/STM32H7xx_HAL_Driver/Src/stm32h7xx_hal_pwr.c ****     This section provides functions allowing to handle the PVD pending
 794:lib/Drivers/STM32H7xx_HAL_Driver/Src/stm32h7xx_hal_pwr.c ****     interrupts.
 795:lib/Drivers/STM32H7xx_HAL_Driver/Src/stm32h7xx_hal_pwr.c **** 
 796:lib/Drivers/STM32H7xx_HAL_Driver/Src/stm32h7xx_hal_pwr.c **** @endverbatim
 797:lib/Drivers/STM32H7xx_HAL_Driver/Src/stm32h7xx_hal_pwr.c ****   * @{
 798:lib/Drivers/STM32H7xx_HAL_Driver/Src/stm32h7xx_hal_pwr.c ****   */
 799:lib/Drivers/STM32H7xx_HAL_Driver/Src/stm32h7xx_hal_pwr.c **** 
 800:lib/Drivers/STM32H7xx_HAL_Driver/Src/stm32h7xx_hal_pwr.c **** /**
 801:lib/Drivers/STM32H7xx_HAL_Driver/Src/stm32h7xx_hal_pwr.c ****   * @brief  This function handles the PWR PVD interrupt request.
 802:lib/Drivers/STM32H7xx_HAL_Driver/Src/stm32h7xx_hal_pwr.c ****   * @note   This API should be called under the PVD_AVD_IRQHandler().
 803:lib/Drivers/STM32H7xx_HAL_Driver/Src/stm32h7xx_hal_pwr.c ****   * @retval None.
 804:lib/Drivers/STM32H7xx_HAL_Driver/Src/stm32h7xx_hal_pwr.c ****   */
ARM GAS  /tmp/ccc6MANg.s 			page 43


 805:lib/Drivers/STM32H7xx_HAL_Driver/Src/stm32h7xx_hal_pwr.c **** void HAL_PWR_PVD_IRQHandler (void)
 806:lib/Drivers/STM32H7xx_HAL_Driver/Src/stm32h7xx_hal_pwr.c **** {
 807:lib/Drivers/STM32H7xx_HAL_Driver/Src/stm32h7xx_hal_pwr.c **** #if defined (DUAL_CORE)
 808:lib/Drivers/STM32H7xx_HAL_Driver/Src/stm32h7xx_hal_pwr.c ****   /* Check Cortex-Mx ID */
 809:lib/Drivers/STM32H7xx_HAL_Driver/Src/stm32h7xx_hal_pwr.c ****   if (HAL_GetCurrentCPUID () == CM7_CPUID)
 810:lib/Drivers/STM32H7xx_HAL_Driver/Src/stm32h7xx_hal_pwr.c ****   {
 811:lib/Drivers/STM32H7xx_HAL_Driver/Src/stm32h7xx_hal_pwr.c ****     /* Check PWR EXTI D1 flag */
 812:lib/Drivers/STM32H7xx_HAL_Driver/Src/stm32h7xx_hal_pwr.c ****     if(__HAL_PWR_PVD_EXTI_GET_FLAG () != 0U)
 813:lib/Drivers/STM32H7xx_HAL_Driver/Src/stm32h7xx_hal_pwr.c ****     {
 814:lib/Drivers/STM32H7xx_HAL_Driver/Src/stm32h7xx_hal_pwr.c ****       /* Clear PWR EXTI D1 pending bit */
 815:lib/Drivers/STM32H7xx_HAL_Driver/Src/stm32h7xx_hal_pwr.c ****       __HAL_PWR_PVD_EXTI_CLEAR_FLAG ();
 816:lib/Drivers/STM32H7xx_HAL_Driver/Src/stm32h7xx_hal_pwr.c **** 
 817:lib/Drivers/STM32H7xx_HAL_Driver/Src/stm32h7xx_hal_pwr.c ****       /* PWR PVD interrupt user callback */
 818:lib/Drivers/STM32H7xx_HAL_Driver/Src/stm32h7xx_hal_pwr.c ****       HAL_PWR_PVDCallback ();
 819:lib/Drivers/STM32H7xx_HAL_Driver/Src/stm32h7xx_hal_pwr.c ****     }
 820:lib/Drivers/STM32H7xx_HAL_Driver/Src/stm32h7xx_hal_pwr.c ****   }
 821:lib/Drivers/STM32H7xx_HAL_Driver/Src/stm32h7xx_hal_pwr.c ****   else
 822:lib/Drivers/STM32H7xx_HAL_Driver/Src/stm32h7xx_hal_pwr.c ****   {
 823:lib/Drivers/STM32H7xx_HAL_Driver/Src/stm32h7xx_hal_pwr.c ****     /* Check PWR EXTI D2 flag */
 824:lib/Drivers/STM32H7xx_HAL_Driver/Src/stm32h7xx_hal_pwr.c ****     if (__HAL_PWR_PVD_EXTID2_GET_FLAG () != 0U)
 825:lib/Drivers/STM32H7xx_HAL_Driver/Src/stm32h7xx_hal_pwr.c ****     {
 826:lib/Drivers/STM32H7xx_HAL_Driver/Src/stm32h7xx_hal_pwr.c ****       /* Clear PWR EXTI D2 pending bit */
 827:lib/Drivers/STM32H7xx_HAL_Driver/Src/stm32h7xx_hal_pwr.c ****       __HAL_PWR_PVD_EXTID2_CLEAR_FLAG ();
 828:lib/Drivers/STM32H7xx_HAL_Driver/Src/stm32h7xx_hal_pwr.c **** 
 829:lib/Drivers/STM32H7xx_HAL_Driver/Src/stm32h7xx_hal_pwr.c ****       /* PWR PVD interrupt user callback */
 830:lib/Drivers/STM32H7xx_HAL_Driver/Src/stm32h7xx_hal_pwr.c ****       HAL_PWR_PVDCallback ();
 831:lib/Drivers/STM32H7xx_HAL_Driver/Src/stm32h7xx_hal_pwr.c ****     }
 832:lib/Drivers/STM32H7xx_HAL_Driver/Src/stm32h7xx_hal_pwr.c ****   }
 833:lib/Drivers/STM32H7xx_HAL_Driver/Src/stm32h7xx_hal_pwr.c **** #else /* Single core devices */
 834:lib/Drivers/STM32H7xx_HAL_Driver/Src/stm32h7xx_hal_pwr.c ****   /* PVD EXTI line interrupt detected */
 835:lib/Drivers/STM32H7xx_HAL_Driver/Src/stm32h7xx_hal_pwr.c ****   if (__HAL_PWR_PVD_EXTI_GET_FLAG () != 0U)
 836:lib/Drivers/STM32H7xx_HAL_Driver/Src/stm32h7xx_hal_pwr.c ****   {
 837:lib/Drivers/STM32H7xx_HAL_Driver/Src/stm32h7xx_hal_pwr.c ****     /* Clear PWR EXTI pending bit */
 838:lib/Drivers/STM32H7xx_HAL_Driver/Src/stm32h7xx_hal_pwr.c ****     __HAL_PWR_PVD_EXTI_CLEAR_FLAG ();
 839:lib/Drivers/STM32H7xx_HAL_Driver/Src/stm32h7xx_hal_pwr.c **** 
 840:lib/Drivers/STM32H7xx_HAL_Driver/Src/stm32h7xx_hal_pwr.c ****     /* PWR PVD interrupt user callback */
 841:lib/Drivers/STM32H7xx_HAL_Driver/Src/stm32h7xx_hal_pwr.c ****     HAL_PWR_PVDCallback ();
 842:lib/Drivers/STM32H7xx_HAL_Driver/Src/stm32h7xx_hal_pwr.c ****   }
 843:lib/Drivers/STM32H7xx_HAL_Driver/Src/stm32h7xx_hal_pwr.c **** #endif /* defined (DUAL_CORE) */
 844:lib/Drivers/STM32H7xx_HAL_Driver/Src/stm32h7xx_hal_pwr.c **** }
 845:lib/Drivers/STM32H7xx_HAL_Driver/Src/stm32h7xx_hal_pwr.c **** 
 846:lib/Drivers/STM32H7xx_HAL_Driver/Src/stm32h7xx_hal_pwr.c **** /**
 847:lib/Drivers/STM32H7xx_HAL_Driver/Src/stm32h7xx_hal_pwr.c ****   * @brief  PWR PVD interrupt callback.
 848:lib/Drivers/STM32H7xx_HAL_Driver/Src/stm32h7xx_hal_pwr.c ****   * @retval None.
 849:lib/Drivers/STM32H7xx_HAL_Driver/Src/stm32h7xx_hal_pwr.c ****   */
 850:lib/Drivers/STM32H7xx_HAL_Driver/Src/stm32h7xx_hal_pwr.c **** __weak void HAL_PWR_PVDCallback (void)
 851:lib/Drivers/STM32H7xx_HAL_Driver/Src/stm32h7xx_hal_pwr.c **** {
 669              		.loc 1 851 1 is_stmt 1 view -0
 670              		.cfi_startproc
 671              		@ args = 0, pretend = 0, frame = 0
 672              		@ frame_needed = 0, uses_anonymous_args = 0
 673              		@ link register save eliminated.
 852:lib/Drivers/STM32H7xx_HAL_Driver/Src/stm32h7xx_hal_pwr.c ****   /* NOTE : This function should not be modified, when the callback is needed,
 853:lib/Drivers/STM32H7xx_HAL_Driver/Src/stm32h7xx_hal_pwr.c ****             the HAL_PWR_PVDCallback can be implemented in the user file
 854:lib/Drivers/STM32H7xx_HAL_Driver/Src/stm32h7xx_hal_pwr.c ****   */
 855:lib/Drivers/STM32H7xx_HAL_Driver/Src/stm32h7xx_hal_pwr.c **** }
 674              		.loc 1 855 1 view .LVU105
ARM GAS  /tmp/ccc6MANg.s 			page 44


 675 0000 7047     		bx	lr
 676              		.cfi_endproc
 677              	.LFE160:
 679              		.section	.text.HAL_PWR_PVD_IRQHandler,"ax",%progbits
 680              		.align	1
 681              		.global	HAL_PWR_PVD_IRQHandler
 682              		.syntax unified
 683              		.thumb
 684              		.thumb_func
 686              	HAL_PWR_PVD_IRQHandler:
 687              	.LFB159:
 806:lib/Drivers/STM32H7xx_HAL_Driver/Src/stm32h7xx_hal_pwr.c **** #if defined (DUAL_CORE)
 688              		.loc 1 806 1 view -0
 689              		.cfi_startproc
 690              		@ args = 0, pretend = 0, frame = 0
 691              		@ frame_needed = 0, uses_anonymous_args = 0
 692 0000 08B5     		push	{r3, lr}
 693              	.LCFI0:
 694              		.cfi_def_cfa_offset 8
 695              		.cfi_offset 3, -8
 696              		.cfi_offset 14, -4
 835:lib/Drivers/STM32H7xx_HAL_Driver/Src/stm32h7xx_hal_pwr.c ****   {
 697              		.loc 1 835 3 view .LVU107
 835:lib/Drivers/STM32H7xx_HAL_Driver/Src/stm32h7xx_hal_pwr.c ****   {
 698              		.loc 1 835 7 is_stmt 0 view .LVU108
 699 0002 4FF0B043 		mov	r3, #1476395008
 700 0006 D3F88830 		ldr	r3, [r3, #136]
 835:lib/Drivers/STM32H7xx_HAL_Driver/Src/stm32h7xx_hal_pwr.c ****   {
 701              		.loc 1 835 6 view .LVU109
 702 000a 13F4803F 		tst	r3, #65536
 703 000e 00D1     		bne	.L58
 704              	.L55:
 844:lib/Drivers/STM32H7xx_HAL_Driver/Src/stm32h7xx_hal_pwr.c **** 
 705              		.loc 1 844 1 view .LVU110
 706 0010 08BD     		pop	{r3, pc}
 707              	.L58:
 838:lib/Drivers/STM32H7xx_HAL_Driver/Src/stm32h7xx_hal_pwr.c **** 
 708              		.loc 1 838 5 is_stmt 1 view .LVU111
 709 0012 4FF0B042 		mov	r2, #1476395008
 710 0016 D2F88830 		ldr	r3, [r2, #136]
 711 001a 43F48033 		orr	r3, r3, #65536
 712 001e C2F88830 		str	r3, [r2, #136]
 841:lib/Drivers/STM32H7xx_HAL_Driver/Src/stm32h7xx_hal_pwr.c ****   }
 713              		.loc 1 841 5 view .LVU112
 714 0022 FFF7FEFF 		bl	HAL_PWR_PVDCallback
 715              	.LVL8:
 844:lib/Drivers/STM32H7xx_HAL_Driver/Src/stm32h7xx_hal_pwr.c **** 
 716              		.loc 1 844 1 is_stmt 0 view .LVU113
 717 0026 F3E7     		b	.L55
 718              		.cfi_endproc
 719              	.LFE159:
 721              		.text
 722              	.Letext0:
 723              		.file 3 "/usr/arm-none-eabi/include/machine/_default_types.h"
 724              		.file 4 "/usr/arm-none-eabi/include/sys/_stdint.h"
 725              		.file 5 "lib/Drivers/CMSIS/Include/core_cm7.h"
 726              		.file 6 "lib/Drivers/CMSIS/Device/ST/STM32H7xx/Include/stm32h750xx.h"
ARM GAS  /tmp/ccc6MANg.s 			page 45


 727              		.file 7 "lib/Drivers/STM32H7xx_HAL_Driver/Inc/stm32h7xx_hal_pwr.h"
ARM GAS  /tmp/ccc6MANg.s 			page 46

