ARM GAS  /tmp/ccpTiR3W.s 			page 1


   1              		.cpu cortex-m7
   2              		.arch armv7e-m
   3              		.fpu fpv5-d16
   4              		.eabi_attribute 28, 1
   5              		.eabi_attribute 20, 1
   6              		.eabi_attribute 21, 1
   7              		.eabi_attribute 23, 3
   8              		.eabi_attribute 24, 1
   9              		.eabi_attribute 25, 1
  10              		.eabi_attribute 26, 1
  11              		.eabi_attribute 30, 1
  12              		.eabi_attribute 34, 1
  13              		.eabi_attribute 18, 4
  14              		.file	"stm32h7xx_hal_rcc.c"
  15              		.text
  16              	.Ltext0:
  17              		.cfi_sections	.debug_frame
  18              		.file 1 "lib/Drivers/STM32H7xx_HAL_Driver/Src/stm32h7xx_hal_rcc.c"
  19              		.section	.text.HAL_RCC_DeInit,"ax",%progbits
  20              		.align	1
  21              		.global	HAL_RCC_DeInit
  22              		.syntax unified
  23              		.thumb
  24              		.thumb_func
  26              	HAL_RCC_DeInit:
  27              	.LFB144:
   1:lib/Drivers/STM32H7xx_HAL_Driver/Src/stm32h7xx_hal_rcc.c **** /**
   2:lib/Drivers/STM32H7xx_HAL_Driver/Src/stm32h7xx_hal_rcc.c ****   ******************************************************************************
   3:lib/Drivers/STM32H7xx_HAL_Driver/Src/stm32h7xx_hal_rcc.c ****   * @file    stm32h7xx_hal_rcc.c
   4:lib/Drivers/STM32H7xx_HAL_Driver/Src/stm32h7xx_hal_rcc.c ****   * @author  MCD Application Team
   5:lib/Drivers/STM32H7xx_HAL_Driver/Src/stm32h7xx_hal_rcc.c ****   * @brief   RCC HAL module driver.
   6:lib/Drivers/STM32H7xx_HAL_Driver/Src/stm32h7xx_hal_rcc.c ****   *          This file provides firmware functions to manage the following
   7:lib/Drivers/STM32H7xx_HAL_Driver/Src/stm32h7xx_hal_rcc.c ****   *          functionalities of the Reset and Clock Control (RCC) peripheral:
   8:lib/Drivers/STM32H7xx_HAL_Driver/Src/stm32h7xx_hal_rcc.c ****   *           + Initialization and de-initialization functions
   9:lib/Drivers/STM32H7xx_HAL_Driver/Src/stm32h7xx_hal_rcc.c ****   *           + Peripheral Control functions
  10:lib/Drivers/STM32H7xx_HAL_Driver/Src/stm32h7xx_hal_rcc.c ****   *
  11:lib/Drivers/STM32H7xx_HAL_Driver/Src/stm32h7xx_hal_rcc.c ****   @verbatim
  12:lib/Drivers/STM32H7xx_HAL_Driver/Src/stm32h7xx_hal_rcc.c ****   ==============================================================================
  13:lib/Drivers/STM32H7xx_HAL_Driver/Src/stm32h7xx_hal_rcc.c ****                       ##### RCC specific features #####
  14:lib/Drivers/STM32H7xx_HAL_Driver/Src/stm32h7xx_hal_rcc.c ****   ==============================================================================
  15:lib/Drivers/STM32H7xx_HAL_Driver/Src/stm32h7xx_hal_rcc.c ****     [..]
  16:lib/Drivers/STM32H7xx_HAL_Driver/Src/stm32h7xx_hal_rcc.c ****       After reset the device is running from Internal High Speed oscillator
  17:lib/Drivers/STM32H7xx_HAL_Driver/Src/stm32h7xx_hal_rcc.c ****       (HSI 64MHz) with Flash 0 wait state,and all peripherals are off except
  18:lib/Drivers/STM32H7xx_HAL_Driver/Src/stm32h7xx_hal_rcc.c ****       internal SRAM, Flash, JTAG and PWR
  19:lib/Drivers/STM32H7xx_HAL_Driver/Src/stm32h7xx_hal_rcc.c ****       (+) There is no pre-scaler on High speed (AHB) and Low speed (APB) buses;
  20:lib/Drivers/STM32H7xx_HAL_Driver/Src/stm32h7xx_hal_rcc.c ****           all peripherals mapped on these buses are running at HSI speed.
  21:lib/Drivers/STM32H7xx_HAL_Driver/Src/stm32h7xx_hal_rcc.c ****       (+) The clock for all peripherals is switched off, except the SRAM and FLASH.
  22:lib/Drivers/STM32H7xx_HAL_Driver/Src/stm32h7xx_hal_rcc.c ****       (+) All GPIOs are in analogue mode , except the JTAG pins which
  23:lib/Drivers/STM32H7xx_HAL_Driver/Src/stm32h7xx_hal_rcc.c ****           are assigned to be used for debug purpose.
  24:lib/Drivers/STM32H7xx_HAL_Driver/Src/stm32h7xx_hal_rcc.c **** 
  25:lib/Drivers/STM32H7xx_HAL_Driver/Src/stm32h7xx_hal_rcc.c ****     [..]
  26:lib/Drivers/STM32H7xx_HAL_Driver/Src/stm32h7xx_hal_rcc.c ****       Once the device started from reset, the user application has to:
  27:lib/Drivers/STM32H7xx_HAL_Driver/Src/stm32h7xx_hal_rcc.c ****       (+) Configure the clock source to be used to drive the System clock
  28:lib/Drivers/STM32H7xx_HAL_Driver/Src/stm32h7xx_hal_rcc.c ****           (if the application needs higher frequency/performance)
  29:lib/Drivers/STM32H7xx_HAL_Driver/Src/stm32h7xx_hal_rcc.c ****       (+) Configure the System clock frequency and Flash settings
  30:lib/Drivers/STM32H7xx_HAL_Driver/Src/stm32h7xx_hal_rcc.c ****       (+) Configure the AHB and APB buses pre-scalers
  31:lib/Drivers/STM32H7xx_HAL_Driver/Src/stm32h7xx_hal_rcc.c ****       (+) Enable the clock for the peripheral(s) to be used
ARM GAS  /tmp/ccpTiR3W.s 			page 2


  32:lib/Drivers/STM32H7xx_HAL_Driver/Src/stm32h7xx_hal_rcc.c ****       (+) Configure the clock kernel source(s) for peripherals which clocks are not
  33:lib/Drivers/STM32H7xx_HAL_Driver/Src/stm32h7xx_hal_rcc.c ****           derived from the System clock through :RCC_D1CCIPR,RCC_D2CCIP1R,RCC_D2CCIP2R
  34:lib/Drivers/STM32H7xx_HAL_Driver/Src/stm32h7xx_hal_rcc.c ****           and RCC_D3CCIPR registers
  35:lib/Drivers/STM32H7xx_HAL_Driver/Src/stm32h7xx_hal_rcc.c **** 
  36:lib/Drivers/STM32H7xx_HAL_Driver/Src/stm32h7xx_hal_rcc.c ****                       ##### RCC Limitations #####
  37:lib/Drivers/STM32H7xx_HAL_Driver/Src/stm32h7xx_hal_rcc.c ****   ==============================================================================
  38:lib/Drivers/STM32H7xx_HAL_Driver/Src/stm32h7xx_hal_rcc.c ****     [..]
  39:lib/Drivers/STM32H7xx_HAL_Driver/Src/stm32h7xx_hal_rcc.c ****       A delay between an RCC peripheral clock enable and the effective peripheral
  40:lib/Drivers/STM32H7xx_HAL_Driver/Src/stm32h7xx_hal_rcc.c ****       enabling should be taken into account in order to manage the peripheral read/write
  41:lib/Drivers/STM32H7xx_HAL_Driver/Src/stm32h7xx_hal_rcc.c ****       from/to registers.
  42:lib/Drivers/STM32H7xx_HAL_Driver/Src/stm32h7xx_hal_rcc.c ****       (+) This delay depends on the peripheral mapping.
  43:lib/Drivers/STM32H7xx_HAL_Driver/Src/stm32h7xx_hal_rcc.c ****       (+) If peripheral is mapped on AHB: the delay is 2 AHB clock cycle
  44:lib/Drivers/STM32H7xx_HAL_Driver/Src/stm32h7xx_hal_rcc.c ****           after the clock enable bit is set on the hardware register
  45:lib/Drivers/STM32H7xx_HAL_Driver/Src/stm32h7xx_hal_rcc.c ****       (+) If peripheral is mapped on APB: the delay is 2 APB clock cycle
  46:lib/Drivers/STM32H7xx_HAL_Driver/Src/stm32h7xx_hal_rcc.c ****           after the clock enable bit is set on the hardware register
  47:lib/Drivers/STM32H7xx_HAL_Driver/Src/stm32h7xx_hal_rcc.c **** 
  48:lib/Drivers/STM32H7xx_HAL_Driver/Src/stm32h7xx_hal_rcc.c ****     [..]
  49:lib/Drivers/STM32H7xx_HAL_Driver/Src/stm32h7xx_hal_rcc.c ****       Implemented Workaround:
  50:lib/Drivers/STM32H7xx_HAL_Driver/Src/stm32h7xx_hal_rcc.c ****       (+) For AHB & APB peripherals, a dummy read to the peripheral register has been
  51:lib/Drivers/STM32H7xx_HAL_Driver/Src/stm32h7xx_hal_rcc.c ****           inserted in each __HAL_RCC_PPP_CLK_ENABLE() macro.
  52:lib/Drivers/STM32H7xx_HAL_Driver/Src/stm32h7xx_hal_rcc.c **** 
  53:lib/Drivers/STM32H7xx_HAL_Driver/Src/stm32h7xx_hal_rcc.c ****   @endverbatim
  54:lib/Drivers/STM32H7xx_HAL_Driver/Src/stm32h7xx_hal_rcc.c ****  ******************************************************************************
  55:lib/Drivers/STM32H7xx_HAL_Driver/Src/stm32h7xx_hal_rcc.c ****   * @attention
  56:lib/Drivers/STM32H7xx_HAL_Driver/Src/stm32h7xx_hal_rcc.c ****   *
  57:lib/Drivers/STM32H7xx_HAL_Driver/Src/stm32h7xx_hal_rcc.c ****   * Copyright (c) 2017 STMicroelectronics.
  58:lib/Drivers/STM32H7xx_HAL_Driver/Src/stm32h7xx_hal_rcc.c ****   * All rights reserved.
  59:lib/Drivers/STM32H7xx_HAL_Driver/Src/stm32h7xx_hal_rcc.c ****   *
  60:lib/Drivers/STM32H7xx_HAL_Driver/Src/stm32h7xx_hal_rcc.c ****   * This software is licensed under terms that can be found in the LICENSE file in
  61:lib/Drivers/STM32H7xx_HAL_Driver/Src/stm32h7xx_hal_rcc.c ****   * the root directory of this software component.
  62:lib/Drivers/STM32H7xx_HAL_Driver/Src/stm32h7xx_hal_rcc.c ****   * If no LICENSE file comes with this software, it is provided AS-IS.
  63:lib/Drivers/STM32H7xx_HAL_Driver/Src/stm32h7xx_hal_rcc.c ****   ******************************************************************************
  64:lib/Drivers/STM32H7xx_HAL_Driver/Src/stm32h7xx_hal_rcc.c ****   */
  65:lib/Drivers/STM32H7xx_HAL_Driver/Src/stm32h7xx_hal_rcc.c **** 
  66:lib/Drivers/STM32H7xx_HAL_Driver/Src/stm32h7xx_hal_rcc.c **** /* Includes ------------------------------------------------------------------*/
  67:lib/Drivers/STM32H7xx_HAL_Driver/Src/stm32h7xx_hal_rcc.c **** #include "stm32h7xx_hal.h"
  68:lib/Drivers/STM32H7xx_HAL_Driver/Src/stm32h7xx_hal_rcc.c **** 
  69:lib/Drivers/STM32H7xx_HAL_Driver/Src/stm32h7xx_hal_rcc.c **** /** @addtogroup STM32H7xx_HAL_Driver
  70:lib/Drivers/STM32H7xx_HAL_Driver/Src/stm32h7xx_hal_rcc.c ****   * @{
  71:lib/Drivers/STM32H7xx_HAL_Driver/Src/stm32h7xx_hal_rcc.c ****   */
  72:lib/Drivers/STM32H7xx_HAL_Driver/Src/stm32h7xx_hal_rcc.c **** 
  73:lib/Drivers/STM32H7xx_HAL_Driver/Src/stm32h7xx_hal_rcc.c **** /** @defgroup RCC  RCC
  74:lib/Drivers/STM32H7xx_HAL_Driver/Src/stm32h7xx_hal_rcc.c ****   * @brief RCC HAL module driver
  75:lib/Drivers/STM32H7xx_HAL_Driver/Src/stm32h7xx_hal_rcc.c ****   * @{
  76:lib/Drivers/STM32H7xx_HAL_Driver/Src/stm32h7xx_hal_rcc.c ****   */
  77:lib/Drivers/STM32H7xx_HAL_Driver/Src/stm32h7xx_hal_rcc.c **** 
  78:lib/Drivers/STM32H7xx_HAL_Driver/Src/stm32h7xx_hal_rcc.c **** #ifdef HAL_RCC_MODULE_ENABLED
  79:lib/Drivers/STM32H7xx_HAL_Driver/Src/stm32h7xx_hal_rcc.c **** 
  80:lib/Drivers/STM32H7xx_HAL_Driver/Src/stm32h7xx_hal_rcc.c **** /* Private typedef -----------------------------------------------------------*/
  81:lib/Drivers/STM32H7xx_HAL_Driver/Src/stm32h7xx_hal_rcc.c **** /* Private define ------------------------------------------------------------*/
  82:lib/Drivers/STM32H7xx_HAL_Driver/Src/stm32h7xx_hal_rcc.c **** /* Private macro -------------------------------------------------------------*/
  83:lib/Drivers/STM32H7xx_HAL_Driver/Src/stm32h7xx_hal_rcc.c **** /** @defgroup RCC_Private_Macros RCC Private Macros
  84:lib/Drivers/STM32H7xx_HAL_Driver/Src/stm32h7xx_hal_rcc.c ****   * @{
  85:lib/Drivers/STM32H7xx_HAL_Driver/Src/stm32h7xx_hal_rcc.c ****   */
  86:lib/Drivers/STM32H7xx_HAL_Driver/Src/stm32h7xx_hal_rcc.c **** #define MCO1_CLK_ENABLE()     __HAL_RCC_GPIOA_CLK_ENABLE()
  87:lib/Drivers/STM32H7xx_HAL_Driver/Src/stm32h7xx_hal_rcc.c **** #define MCO1_GPIO_PORT        GPIOA
  88:lib/Drivers/STM32H7xx_HAL_Driver/Src/stm32h7xx_hal_rcc.c **** #define MCO1_PIN              GPIO_PIN_8
ARM GAS  /tmp/ccpTiR3W.s 			page 3


  89:lib/Drivers/STM32H7xx_HAL_Driver/Src/stm32h7xx_hal_rcc.c **** 
  90:lib/Drivers/STM32H7xx_HAL_Driver/Src/stm32h7xx_hal_rcc.c **** #define MCO2_CLK_ENABLE()      __HAL_RCC_GPIOC_CLK_ENABLE()
  91:lib/Drivers/STM32H7xx_HAL_Driver/Src/stm32h7xx_hal_rcc.c **** #define MCO2_GPIO_PORT         GPIOC
  92:lib/Drivers/STM32H7xx_HAL_Driver/Src/stm32h7xx_hal_rcc.c **** #define MCO2_PIN               GPIO_PIN_9
  93:lib/Drivers/STM32H7xx_HAL_Driver/Src/stm32h7xx_hal_rcc.c **** 
  94:lib/Drivers/STM32H7xx_HAL_Driver/Src/stm32h7xx_hal_rcc.c **** /**
  95:lib/Drivers/STM32H7xx_HAL_Driver/Src/stm32h7xx_hal_rcc.c ****   * @}
  96:lib/Drivers/STM32H7xx_HAL_Driver/Src/stm32h7xx_hal_rcc.c ****   */
  97:lib/Drivers/STM32H7xx_HAL_Driver/Src/stm32h7xx_hal_rcc.c **** /* Private variables ---------------------------------------------------------*/
  98:lib/Drivers/STM32H7xx_HAL_Driver/Src/stm32h7xx_hal_rcc.c **** /** @defgroup RCC_Private_Variables RCC Private Variables
  99:lib/Drivers/STM32H7xx_HAL_Driver/Src/stm32h7xx_hal_rcc.c ****   * @{
 100:lib/Drivers/STM32H7xx_HAL_Driver/Src/stm32h7xx_hal_rcc.c ****   */
 101:lib/Drivers/STM32H7xx_HAL_Driver/Src/stm32h7xx_hal_rcc.c **** 
 102:lib/Drivers/STM32H7xx_HAL_Driver/Src/stm32h7xx_hal_rcc.c **** /**
 103:lib/Drivers/STM32H7xx_HAL_Driver/Src/stm32h7xx_hal_rcc.c ****   * @}
 104:lib/Drivers/STM32H7xx_HAL_Driver/Src/stm32h7xx_hal_rcc.c ****   */
 105:lib/Drivers/STM32H7xx_HAL_Driver/Src/stm32h7xx_hal_rcc.c **** /* Private function prototypes -----------------------------------------------*/
 106:lib/Drivers/STM32H7xx_HAL_Driver/Src/stm32h7xx_hal_rcc.c **** /* Exported functions --------------------------------------------------------*/
 107:lib/Drivers/STM32H7xx_HAL_Driver/Src/stm32h7xx_hal_rcc.c **** 
 108:lib/Drivers/STM32H7xx_HAL_Driver/Src/stm32h7xx_hal_rcc.c **** /** @defgroup RCC_Exported_Functions RCC Exported Functions
 109:lib/Drivers/STM32H7xx_HAL_Driver/Src/stm32h7xx_hal_rcc.c ****   * @{
 110:lib/Drivers/STM32H7xx_HAL_Driver/Src/stm32h7xx_hal_rcc.c ****   */
 111:lib/Drivers/STM32H7xx_HAL_Driver/Src/stm32h7xx_hal_rcc.c **** 
 112:lib/Drivers/STM32H7xx_HAL_Driver/Src/stm32h7xx_hal_rcc.c **** /** @defgroup RCC_Exported_Functions_Group1 Initialization and de-initialization functions
 113:lib/Drivers/STM32H7xx_HAL_Driver/Src/stm32h7xx_hal_rcc.c ****  *  @brief    Initialization and Configuration functions
 114:lib/Drivers/STM32H7xx_HAL_Driver/Src/stm32h7xx_hal_rcc.c ****  *
 115:lib/Drivers/STM32H7xx_HAL_Driver/Src/stm32h7xx_hal_rcc.c **** @verbatim
 116:lib/Drivers/STM32H7xx_HAL_Driver/Src/stm32h7xx_hal_rcc.c ****  ===============================================================================
 117:lib/Drivers/STM32H7xx_HAL_Driver/Src/stm32h7xx_hal_rcc.c ****            ##### Initialization and de-initialization functions #####
 118:lib/Drivers/STM32H7xx_HAL_Driver/Src/stm32h7xx_hal_rcc.c ****  ===============================================================================
 119:lib/Drivers/STM32H7xx_HAL_Driver/Src/stm32h7xx_hal_rcc.c ****     [..]
 120:lib/Drivers/STM32H7xx_HAL_Driver/Src/stm32h7xx_hal_rcc.c ****       This section provides functions allowing to configure the internal/external oscillators
 121:lib/Drivers/STM32H7xx_HAL_Driver/Src/stm32h7xx_hal_rcc.c ****       (HSE, HSI, LSE,CSI, LSI,HSI48, PLL, CSS and MCO) and the System buses clocks (SYSCLK, AHB3, A
 122:lib/Drivers/STM32H7xx_HAL_Driver/Src/stm32h7xx_hal_rcc.c ****        AHB2,AHB4,APB3, APB1L, APB1H, APB2, and APB4).
 123:lib/Drivers/STM32H7xx_HAL_Driver/Src/stm32h7xx_hal_rcc.c **** 
 124:lib/Drivers/STM32H7xx_HAL_Driver/Src/stm32h7xx_hal_rcc.c ****     [..] Internal/external clock and PLL configuration
 125:lib/Drivers/STM32H7xx_HAL_Driver/Src/stm32h7xx_hal_rcc.c ****          (#) HSI (high-speed internal), 64 MHz factory-trimmed RC used directly or through
 126:lib/Drivers/STM32H7xx_HAL_Driver/Src/stm32h7xx_hal_rcc.c ****              the PLL as System clock source.
 127:lib/Drivers/STM32H7xx_HAL_Driver/Src/stm32h7xx_hal_rcc.c ****          (#) CSI is a low-power RC oscillator which can be used directly as system clock, periphera
 128:lib/Drivers/STM32H7xx_HAL_Driver/Src/stm32h7xx_hal_rcc.c ****              clock, or PLL input.But even with frequency calibration, is less accurate than an
 129:lib/Drivers/STM32H7xx_HAL_Driver/Src/stm32h7xx_hal_rcc.c ****              external crystal oscillator or ceramic resonator.
 130:lib/Drivers/STM32H7xx_HAL_Driver/Src/stm32h7xx_hal_rcc.c ****          (#) LSI (low-speed internal), 32 KHz low consumption RC used as IWDG and/or RTC
 131:lib/Drivers/STM32H7xx_HAL_Driver/Src/stm32h7xx_hal_rcc.c ****              clock source.
 132:lib/Drivers/STM32H7xx_HAL_Driver/Src/stm32h7xx_hal_rcc.c **** 
 133:lib/Drivers/STM32H7xx_HAL_Driver/Src/stm32h7xx_hal_rcc.c ****          (#) HSE (high-speed external), 4 to 48 MHz crystal oscillator used directly or
 134:lib/Drivers/STM32H7xx_HAL_Driver/Src/stm32h7xx_hal_rcc.c ****              through the PLL as System clock source. Can be used also as RTC clock source.
 135:lib/Drivers/STM32H7xx_HAL_Driver/Src/stm32h7xx_hal_rcc.c **** 
 136:lib/Drivers/STM32H7xx_HAL_Driver/Src/stm32h7xx_hal_rcc.c ****          (#) LSE (low-speed external), 32 KHz oscillator used as RTC clock source.
 137:lib/Drivers/STM32H7xx_HAL_Driver/Src/stm32h7xx_hal_rcc.c **** 
 138:lib/Drivers/STM32H7xx_HAL_Driver/Src/stm32h7xx_hal_rcc.c ****          (#) PLL , The RCC features three independent PLLs (clocked by HSI , HSE or CSI),
 139:lib/Drivers/STM32H7xx_HAL_Driver/Src/stm32h7xx_hal_rcc.c ****              featuring three different output clocks and able  to work either in integer or Fractio
 140:lib/Drivers/STM32H7xx_HAL_Driver/Src/stm32h7xx_hal_rcc.c ****            (++) A main PLL, PLL1, which is generally used to provide clocks to the CPU
 141:lib/Drivers/STM32H7xx_HAL_Driver/Src/stm32h7xx_hal_rcc.c ****                 and to some peripherals.
 142:lib/Drivers/STM32H7xx_HAL_Driver/Src/stm32h7xx_hal_rcc.c ****            (++) Two dedicated PLLs, PLL2 and PLL3, which are used to generate the kernel clock for 
 143:lib/Drivers/STM32H7xx_HAL_Driver/Src/stm32h7xx_hal_rcc.c **** 
 144:lib/Drivers/STM32H7xx_HAL_Driver/Src/stm32h7xx_hal_rcc.c **** 
 145:lib/Drivers/STM32H7xx_HAL_Driver/Src/stm32h7xx_hal_rcc.c ****          (#) CSS (Clock security system), once enabled and if a HSE clock failure occurs
ARM GAS  /tmp/ccpTiR3W.s 			page 4


 146:lib/Drivers/STM32H7xx_HAL_Driver/Src/stm32h7xx_hal_rcc.c ****             (HSE used directly or through PLL as System clock source), the System clock
 147:lib/Drivers/STM32H7xx_HAL_Driver/Src/stm32h7xx_hal_rcc.c ****              is automatically switched to HSI and an interrupt is generated if enabled.
 148:lib/Drivers/STM32H7xx_HAL_Driver/Src/stm32h7xx_hal_rcc.c ****              The interrupt is linked to the Cortex-M NMI (Non-Mask-able Interrupt)
 149:lib/Drivers/STM32H7xx_HAL_Driver/Src/stm32h7xx_hal_rcc.c ****              exception vector.
 150:lib/Drivers/STM32H7xx_HAL_Driver/Src/stm32h7xx_hal_rcc.c **** 
 151:lib/Drivers/STM32H7xx_HAL_Driver/Src/stm32h7xx_hal_rcc.c ****          (#) MCO1 (micro controller clock output), used to output HSI, LSE, HSE, PLL1(PLL1_Q)
 152:lib/Drivers/STM32H7xx_HAL_Driver/Src/stm32h7xx_hal_rcc.c ****              or HSI48 clock (through a configurable pre-scaler) on PA8 pin.
 153:lib/Drivers/STM32H7xx_HAL_Driver/Src/stm32h7xx_hal_rcc.c **** 
 154:lib/Drivers/STM32H7xx_HAL_Driver/Src/stm32h7xx_hal_rcc.c ****          (#) MCO2 (micro controller clock output), used to output HSE, PLL2(PLL2_P), SYSCLK,
 155:lib/Drivers/STM32H7xx_HAL_Driver/Src/stm32h7xx_hal_rcc.c ****              LSI, CSI, or PLL1(PLL1_P) clock (through a configurable pre-scaler) on PC9 pin.
 156:lib/Drivers/STM32H7xx_HAL_Driver/Src/stm32h7xx_hal_rcc.c **** 
 157:lib/Drivers/STM32H7xx_HAL_Driver/Src/stm32h7xx_hal_rcc.c ****     [..] System, AHB and APB buses clocks configuration
 158:lib/Drivers/STM32H7xx_HAL_Driver/Src/stm32h7xx_hal_rcc.c ****          (#) Several clock sources can be used to drive the System clock (SYSCLK): CSI,HSI,
 159:lib/Drivers/STM32H7xx_HAL_Driver/Src/stm32h7xx_hal_rcc.c ****              HSE and PLL.
 160:lib/Drivers/STM32H7xx_HAL_Driver/Src/stm32h7xx_hal_rcc.c ****              The AHB clock (HCLK) is derived from System core clock through configurable
 161:lib/Drivers/STM32H7xx_HAL_Driver/Src/stm32h7xx_hal_rcc.c ****              pre-scaler and used to clock the CPU, memory and peripherals mapped
 162:lib/Drivers/STM32H7xx_HAL_Driver/Src/stm32h7xx_hal_rcc.c ****              on AHB and APB bus of the 3 Domains (D1, D2, D3)* through configurable pre-scalers
 163:lib/Drivers/STM32H7xx_HAL_Driver/Src/stm32h7xx_hal_rcc.c ****              and used to clock the peripherals mapped on these buses. You can use
 164:lib/Drivers/STM32H7xx_HAL_Driver/Src/stm32h7xx_hal_rcc.c ****              "HAL_RCC_GetSysClockFreq()" function to retrieve system clock frequency.
 165:lib/Drivers/STM32H7xx_HAL_Driver/Src/stm32h7xx_hal_rcc.c **** 
 166:lib/Drivers/STM32H7xx_HAL_Driver/Src/stm32h7xx_hal_rcc.c ****          -@- All the peripheral clocks are derived from the System clock (SYSCLK) except those
 167:lib/Drivers/STM32H7xx_HAL_Driver/Src/stm32h7xx_hal_rcc.c ****              with dual clock domain where kernel source clock could be selected through
 168:lib/Drivers/STM32H7xx_HAL_Driver/Src/stm32h7xx_hal_rcc.c ****              RCC_D1CCIPR,RCC_D2CCIP1R,RCC_D2CCIP2R and RCC_D3CCIPR registers.
 169:lib/Drivers/STM32H7xx_HAL_Driver/Src/stm32h7xx_hal_rcc.c **** 
 170:lib/Drivers/STM32H7xx_HAL_Driver/Src/stm32h7xx_hal_rcc.c ****      (*) : 2 Domains (CD and SRD) for stm32h7a3xx and stm32h7b3xx family lines.
 171:lib/Drivers/STM32H7xx_HAL_Driver/Src/stm32h7xx_hal_rcc.c **** @endverbatim
 172:lib/Drivers/STM32H7xx_HAL_Driver/Src/stm32h7xx_hal_rcc.c ****   * @{
 173:lib/Drivers/STM32H7xx_HAL_Driver/Src/stm32h7xx_hal_rcc.c ****   */
 174:lib/Drivers/STM32H7xx_HAL_Driver/Src/stm32h7xx_hal_rcc.c **** 
 175:lib/Drivers/STM32H7xx_HAL_Driver/Src/stm32h7xx_hal_rcc.c **** /**
 176:lib/Drivers/STM32H7xx_HAL_Driver/Src/stm32h7xx_hal_rcc.c ****   * @brief  Resets the RCC clock configuration to the default reset state.
 177:lib/Drivers/STM32H7xx_HAL_Driver/Src/stm32h7xx_hal_rcc.c ****   * @note   The default reset state of the clock configuration is given below:
 178:lib/Drivers/STM32H7xx_HAL_Driver/Src/stm32h7xx_hal_rcc.c ****   *            - HSI ON and used as system clock source
 179:lib/Drivers/STM32H7xx_HAL_Driver/Src/stm32h7xx_hal_rcc.c ****   *            - HSE, PLL1, PLL2 and PLL3 OFF
 180:lib/Drivers/STM32H7xx_HAL_Driver/Src/stm32h7xx_hal_rcc.c ****   *            - AHB, APB Bus pre-scaler set to 1.
 181:lib/Drivers/STM32H7xx_HAL_Driver/Src/stm32h7xx_hal_rcc.c ****   *            - CSS, MCO1 and MCO2 OFF
 182:lib/Drivers/STM32H7xx_HAL_Driver/Src/stm32h7xx_hal_rcc.c ****   *            - All interrupts disabled
 183:lib/Drivers/STM32H7xx_HAL_Driver/Src/stm32h7xx_hal_rcc.c ****   * @note   This function doesn't modify the configuration of the
 184:lib/Drivers/STM32H7xx_HAL_Driver/Src/stm32h7xx_hal_rcc.c ****   *            - Peripheral clocks
 185:lib/Drivers/STM32H7xx_HAL_Driver/Src/stm32h7xx_hal_rcc.c ****   *            - LSI, LSE and RTC clocks
 186:lib/Drivers/STM32H7xx_HAL_Driver/Src/stm32h7xx_hal_rcc.c ****   * @retval HAL status
 187:lib/Drivers/STM32H7xx_HAL_Driver/Src/stm32h7xx_hal_rcc.c ****   */
 188:lib/Drivers/STM32H7xx_HAL_Driver/Src/stm32h7xx_hal_rcc.c **** HAL_StatusTypeDef HAL_RCC_DeInit(void)
 189:lib/Drivers/STM32H7xx_HAL_Driver/Src/stm32h7xx_hal_rcc.c **** {
  28              		.loc 1 189 1 view -0
  29              		.cfi_startproc
  30              		@ args = 0, pretend = 0, frame = 0
  31              		@ frame_needed = 0, uses_anonymous_args = 0
  32 0000 38B5     		push	{r3, r4, r5, lr}
  33              	.LCFI0:
  34              		.cfi_def_cfa_offset 16
  35              		.cfi_offset 3, -16
  36              		.cfi_offset 4, -12
  37              		.cfi_offset 5, -8
  38              		.cfi_offset 14, -4
 190:lib/Drivers/STM32H7xx_HAL_Driver/Src/stm32h7xx_hal_rcc.c ****   uint32_t tickstart;
  39              		.loc 1 190 3 view .LVU1
ARM GAS  /tmp/ccpTiR3W.s 			page 5


 191:lib/Drivers/STM32H7xx_HAL_Driver/Src/stm32h7xx_hal_rcc.c **** 
 192:lib/Drivers/STM32H7xx_HAL_Driver/Src/stm32h7xx_hal_rcc.c ****         /* Increasing the CPU frequency */
 193:lib/Drivers/STM32H7xx_HAL_Driver/Src/stm32h7xx_hal_rcc.c ****   if(FLASH_LATENCY_DEFAULT  > __HAL_FLASH_GET_LATENCY())
  40              		.loc 1 193 3 view .LVU2
  41              		.loc 1 193 31 is_stmt 0 view .LVU3
  42 0002 684B     		ldr	r3, .L33
  43 0004 1B68     		ldr	r3, [r3]
  44 0006 03F00F03 		and	r3, r3, #15
  45              		.loc 1 193 5 view .LVU4
  46 000a 062B     		cmp	r3, #6
  47 000c 0CD8     		bhi	.L2
 194:lib/Drivers/STM32H7xx_HAL_Driver/Src/stm32h7xx_hal_rcc.c ****   {
 195:lib/Drivers/STM32H7xx_HAL_Driver/Src/stm32h7xx_hal_rcc.c ****     /* Program the new number of wait states to the LATENCY bits in the FLASH_ACR register */
 196:lib/Drivers/STM32H7xx_HAL_Driver/Src/stm32h7xx_hal_rcc.c ****     __HAL_FLASH_SET_LATENCY(FLASH_LATENCY_DEFAULT);
  48              		.loc 1 196 5 is_stmt 1 view .LVU5
  49 000e 654A     		ldr	r2, .L33
  50 0010 1368     		ldr	r3, [r2]
  51 0012 23F00F03 		bic	r3, r3, #15
  52 0016 43F00703 		orr	r3, r3, #7
  53 001a 1360     		str	r3, [r2]
 197:lib/Drivers/STM32H7xx_HAL_Driver/Src/stm32h7xx_hal_rcc.c **** 
 198:lib/Drivers/STM32H7xx_HAL_Driver/Src/stm32h7xx_hal_rcc.c ****     /* Check that the new number of wait states is taken into account to access the Flash
 199:lib/Drivers/STM32H7xx_HAL_Driver/Src/stm32h7xx_hal_rcc.c ****     memory by reading the FLASH_ACR register */
 200:lib/Drivers/STM32H7xx_HAL_Driver/Src/stm32h7xx_hal_rcc.c ****     if(__HAL_FLASH_GET_LATENCY() != FLASH_LATENCY_DEFAULT)
  54              		.loc 1 200 5 view .LVU6
  55              		.loc 1 200 8 is_stmt 0 view .LVU7
  56 001c 1368     		ldr	r3, [r2]
  57 001e 03F00F03 		and	r3, r3, #15
  58              		.loc 1 200 7 view .LVU8
  59 0022 072B     		cmp	r3, #7
  60 0024 40F0BA80 		bne	.L16
  61              	.L2:
 201:lib/Drivers/STM32H7xx_HAL_Driver/Src/stm32h7xx_hal_rcc.c ****     {
 202:lib/Drivers/STM32H7xx_HAL_Driver/Src/stm32h7xx_hal_rcc.c ****       return HAL_ERROR;
 203:lib/Drivers/STM32H7xx_HAL_Driver/Src/stm32h7xx_hal_rcc.c ****     }
 204:lib/Drivers/STM32H7xx_HAL_Driver/Src/stm32h7xx_hal_rcc.c **** 
 205:lib/Drivers/STM32H7xx_HAL_Driver/Src/stm32h7xx_hal_rcc.c ****   }
 206:lib/Drivers/STM32H7xx_HAL_Driver/Src/stm32h7xx_hal_rcc.c **** 
 207:lib/Drivers/STM32H7xx_HAL_Driver/Src/stm32h7xx_hal_rcc.c **** 
 208:lib/Drivers/STM32H7xx_HAL_Driver/Src/stm32h7xx_hal_rcc.c ****   /* Get Start Tick */
 209:lib/Drivers/STM32H7xx_HAL_Driver/Src/stm32h7xx_hal_rcc.c ****   tickstart = HAL_GetTick();
  62              		.loc 1 209 3 is_stmt 1 view .LVU9
  63              		.loc 1 209 15 is_stmt 0 view .LVU10
  64 0028 FFF7FEFF 		bl	HAL_GetTick
  65              	.LVL0:
  66 002c 0446     		mov	r4, r0
  67              	.LVL1:
 210:lib/Drivers/STM32H7xx_HAL_Driver/Src/stm32h7xx_hal_rcc.c **** 
 211:lib/Drivers/STM32H7xx_HAL_Driver/Src/stm32h7xx_hal_rcc.c ****   /* Set HSION bit */
 212:lib/Drivers/STM32H7xx_HAL_Driver/Src/stm32h7xx_hal_rcc.c ****   SET_BIT(RCC->CR, RCC_CR_HSION);
  68              		.loc 1 212 3 is_stmt 1 view .LVU11
  69 002e 5E4A     		ldr	r2, .L33+4
  70 0030 1368     		ldr	r3, [r2]
  71 0032 43F00103 		orr	r3, r3, #1
  72 0036 1360     		str	r3, [r2]
 213:lib/Drivers/STM32H7xx_HAL_Driver/Src/stm32h7xx_hal_rcc.c **** 
 214:lib/Drivers/STM32H7xx_HAL_Driver/Src/stm32h7xx_hal_rcc.c ****   /* Wait till HSI is ready */
ARM GAS  /tmp/ccpTiR3W.s 			page 6


 215:lib/Drivers/STM32H7xx_HAL_Driver/Src/stm32h7xx_hal_rcc.c ****   while (READ_BIT(RCC->CR, RCC_CR_HSIRDY) == 0U)
  73              		.loc 1 215 3 view .LVU12
  74              	.LVL2:
  75              	.L4:
  76              		.loc 1 215 43 view .LVU13
  77              		.loc 1 215 10 is_stmt 0 view .LVU14
  78 0038 5B4B     		ldr	r3, .L33+4
  79 003a 1B68     		ldr	r3, [r3]
  80              		.loc 1 215 43 view .LVU15
  81 003c 13F0040F 		tst	r3, #4
  82 0040 06D1     		bne	.L26
 216:lib/Drivers/STM32H7xx_HAL_Driver/Src/stm32h7xx_hal_rcc.c ****   {
 217:lib/Drivers/STM32H7xx_HAL_Driver/Src/stm32h7xx_hal_rcc.c ****     if ((HAL_GetTick() - tickstart) > HSI_TIMEOUT_VALUE)
  83              		.loc 1 217 5 is_stmt 1 view .LVU16
  84              		.loc 1 217 10 is_stmt 0 view .LVU17
  85 0042 FFF7FEFF 		bl	HAL_GetTick
  86              	.LVL3:
  87              		.loc 1 217 24 view .LVU18
  88 0046 001B     		subs	r0, r0, r4
  89              		.loc 1 217 8 view .LVU19
  90 0048 0228     		cmp	r0, #2
  91 004a F5D9     		bls	.L4
 218:lib/Drivers/STM32H7xx_HAL_Driver/Src/stm32h7xx_hal_rcc.c ****     {
 219:lib/Drivers/STM32H7xx_HAL_Driver/Src/stm32h7xx_hal_rcc.c ****       return HAL_TIMEOUT;
  92              		.loc 1 219 14 view .LVU20
  93 004c 0324     		movs	r4, #3
  94              	.LVL4:
  95              		.loc 1 219 14 view .LVU21
  96 004e A6E0     		b	.L3
  97              	.LVL5:
  98              	.L26:
 220:lib/Drivers/STM32H7xx_HAL_Driver/Src/stm32h7xx_hal_rcc.c ****     }
 221:lib/Drivers/STM32H7xx_HAL_Driver/Src/stm32h7xx_hal_rcc.c ****   }
 222:lib/Drivers/STM32H7xx_HAL_Driver/Src/stm32h7xx_hal_rcc.c **** 
 223:lib/Drivers/STM32H7xx_HAL_Driver/Src/stm32h7xx_hal_rcc.c ****   /* Set HSITRIM[6:0] bits to the reset value */
 224:lib/Drivers/STM32H7xx_HAL_Driver/Src/stm32h7xx_hal_rcc.c ****   SET_BIT(RCC->HSICFGR, RCC_HSICFGR_HSITRIM_6);
  99              		.loc 1 224 3 is_stmt 1 view .LVU22
 100 0050 554B     		ldr	r3, .L33+4
 101 0052 5A68     		ldr	r2, [r3, #4]
 102 0054 42F08042 		orr	r2, r2, #1073741824
 103 0058 5A60     		str	r2, [r3, #4]
 225:lib/Drivers/STM32H7xx_HAL_Driver/Src/stm32h7xx_hal_rcc.c **** 
 226:lib/Drivers/STM32H7xx_HAL_Driver/Src/stm32h7xx_hal_rcc.c ****   /* Reset CFGR register */
 227:lib/Drivers/STM32H7xx_HAL_Driver/Src/stm32h7xx_hal_rcc.c ****   CLEAR_REG(RCC->CFGR);
 104              		.loc 1 227 3 view .LVU23
 105 005a 0022     		movs	r2, #0
 106 005c 1A61     		str	r2, [r3, #16]
 228:lib/Drivers/STM32H7xx_HAL_Driver/Src/stm32h7xx_hal_rcc.c **** 
 229:lib/Drivers/STM32H7xx_HAL_Driver/Src/stm32h7xx_hal_rcc.c ****   /* Update the SystemCoreClock and SystemD2Clock global variables */
 230:lib/Drivers/STM32H7xx_HAL_Driver/Src/stm32h7xx_hal_rcc.c ****   SystemCoreClock = HSI_VALUE;
 107              		.loc 1 230 3 view .LVU24
 108              		.loc 1 230 19 is_stmt 0 view .LVU25
 109 005e 534B     		ldr	r3, .L33+8
 110 0060 534A     		ldr	r2, .L33+12
 111 0062 1360     		str	r3, [r2]
 231:lib/Drivers/STM32H7xx_HAL_Driver/Src/stm32h7xx_hal_rcc.c ****   SystemD2Clock = HSI_VALUE;
 112              		.loc 1 231 3 is_stmt 1 view .LVU26
ARM GAS  /tmp/ccpTiR3W.s 			page 7


 113              		.loc 1 231 17 is_stmt 0 view .LVU27
 114 0064 534A     		ldr	r2, .L33+16
 115 0066 1360     		str	r3, [r2]
 232:lib/Drivers/STM32H7xx_HAL_Driver/Src/stm32h7xx_hal_rcc.c **** 
 233:lib/Drivers/STM32H7xx_HAL_Driver/Src/stm32h7xx_hal_rcc.c ****   /* Adapt Systick interrupt period */
 234:lib/Drivers/STM32H7xx_HAL_Driver/Src/stm32h7xx_hal_rcc.c ****   if(HAL_InitTick(uwTickPrio) != HAL_OK)
 116              		.loc 1 234 3 is_stmt 1 view .LVU28
 117              		.loc 1 234 6 is_stmt 0 view .LVU29
 118 0068 534B     		ldr	r3, .L33+20
 119 006a 1868     		ldr	r0, [r3]
 120 006c FFF7FEFF 		bl	HAL_InitTick
 121              	.LVL6:
 122              		.loc 1 234 5 view .LVU30
 123 0070 0446     		mov	r4, r0
 124              	.LVL7:
 125              		.loc 1 234 5 view .LVU31
 126 0072 08B1     		cbz	r0, .L27
 235:lib/Drivers/STM32H7xx_HAL_Driver/Src/stm32h7xx_hal_rcc.c ****   {
 236:lib/Drivers/STM32H7xx_HAL_Driver/Src/stm32h7xx_hal_rcc.c ****     return HAL_ERROR;
 127              		.loc 1 236 12 view .LVU32
 128 0074 0124     		movs	r4, #1
 129 0076 92E0     		b	.L3
 130              	.L27:
 237:lib/Drivers/STM32H7xx_HAL_Driver/Src/stm32h7xx_hal_rcc.c ****   }
 238:lib/Drivers/STM32H7xx_HAL_Driver/Src/stm32h7xx_hal_rcc.c **** 
 239:lib/Drivers/STM32H7xx_HAL_Driver/Src/stm32h7xx_hal_rcc.c ****   /* Get Start Tick */
 240:lib/Drivers/STM32H7xx_HAL_Driver/Src/stm32h7xx_hal_rcc.c ****   tickstart = HAL_GetTick();
 131              		.loc 1 240 3 is_stmt 1 view .LVU33
 132              		.loc 1 240 15 is_stmt 0 view .LVU34
 133 0078 FFF7FEFF 		bl	HAL_GetTick
 134              	.LVL8:
 135 007c 0546     		mov	r5, r0
 136              	.LVL9:
 241:lib/Drivers/STM32H7xx_HAL_Driver/Src/stm32h7xx_hal_rcc.c **** 
 242:lib/Drivers/STM32H7xx_HAL_Driver/Src/stm32h7xx_hal_rcc.c ****   /* Wait till clock switch is ready */
 243:lib/Drivers/STM32H7xx_HAL_Driver/Src/stm32h7xx_hal_rcc.c ****   while (READ_BIT(RCC->CFGR, RCC_CFGR_SWS) != 0U)
 137              		.loc 1 243 3 is_stmt 1 view .LVU35
 138              	.L6:
 139              		.loc 1 243 44 view .LVU36
 140              		.loc 1 243 10 is_stmt 0 view .LVU37
 141 007e 4A4B     		ldr	r3, .L33+4
 142 0080 1B69     		ldr	r3, [r3, #16]
 143              		.loc 1 243 44 view .LVU38
 144 0082 13F0380F 		tst	r3, #56
 145 0086 08D0     		beq	.L28
 244:lib/Drivers/STM32H7xx_HAL_Driver/Src/stm32h7xx_hal_rcc.c ****   {
 245:lib/Drivers/STM32H7xx_HAL_Driver/Src/stm32h7xx_hal_rcc.c ****     if ((HAL_GetTick() - tickstart) > CLOCKSWITCH_TIMEOUT_VALUE)
 146              		.loc 1 245 5 is_stmt 1 view .LVU39
 147              		.loc 1 245 10 is_stmt 0 view .LVU40
 148 0088 FFF7FEFF 		bl	HAL_GetTick
 149              	.LVL10:
 150              		.loc 1 245 24 view .LVU41
 151 008c 401B     		subs	r0, r0, r5
 152              		.loc 1 245 8 view .LVU42
 153 008e 41F28833 		movw	r3, #5000
 154 0092 9842     		cmp	r0, r3
 155 0094 F3D9     		bls	.L6
ARM GAS  /tmp/ccpTiR3W.s 			page 8


 246:lib/Drivers/STM32H7xx_HAL_Driver/Src/stm32h7xx_hal_rcc.c ****     {
 247:lib/Drivers/STM32H7xx_HAL_Driver/Src/stm32h7xx_hal_rcc.c ****       return HAL_TIMEOUT;
 156              		.loc 1 247 14 view .LVU43
 157 0096 0324     		movs	r4, #3
 158 0098 81E0     		b	.L3
 159              	.L28:
 248:lib/Drivers/STM32H7xx_HAL_Driver/Src/stm32h7xx_hal_rcc.c ****     }
 249:lib/Drivers/STM32H7xx_HAL_Driver/Src/stm32h7xx_hal_rcc.c ****   }
 250:lib/Drivers/STM32H7xx_HAL_Driver/Src/stm32h7xx_hal_rcc.c **** 
 251:lib/Drivers/STM32H7xx_HAL_Driver/Src/stm32h7xx_hal_rcc.c ****   /* Get Start Tick */
 252:lib/Drivers/STM32H7xx_HAL_Driver/Src/stm32h7xx_hal_rcc.c ****   tickstart = HAL_GetTick();
 160              		.loc 1 252 3 is_stmt 1 view .LVU44
 161              		.loc 1 252 15 is_stmt 0 view .LVU45
 162 009a FFF7FEFF 		bl	HAL_GetTick
 163              	.LVL11:
 164 009e 0546     		mov	r5, r0
 165              	.LVL12:
 253:lib/Drivers/STM32H7xx_HAL_Driver/Src/stm32h7xx_hal_rcc.c **** 
 254:lib/Drivers/STM32H7xx_HAL_Driver/Src/stm32h7xx_hal_rcc.c ****   /* Reset CSION, CSIKERON, HSEON, HSI48ON, HSECSSON, HSIDIV bits */
 255:lib/Drivers/STM32H7xx_HAL_Driver/Src/stm32h7xx_hal_rcc.c ****   CLEAR_BIT(RCC->CR, RCC_CR_HSEON | RCC_CR_HSIKERON| RCC_CR_HSIDIV| RCC_CR_HSIDIVF| RCC_CR_CSION | 
 166              		.loc 1 255 3 is_stmt 1 view .LVU46
 167 00a0 414A     		ldr	r2, .L33+4
 168 00a2 1168     		ldr	r1, [r2]
 169 00a4 454B     		ldr	r3, .L33+24
 170 00a6 0B40     		ands	r3, r3, r1
 171 00a8 1360     		str	r3, [r2]
 256:lib/Drivers/STM32H7xx_HAL_Driver/Src/stm32h7xx_hal_rcc.c ****   | RCC_CR_HSI48ON | RCC_CR_CSSHSEON);
 257:lib/Drivers/STM32H7xx_HAL_Driver/Src/stm32h7xx_hal_rcc.c **** 
 258:lib/Drivers/STM32H7xx_HAL_Driver/Src/stm32h7xx_hal_rcc.c ****   /* Wait till HSE is disabled */
 259:lib/Drivers/STM32H7xx_HAL_Driver/Src/stm32h7xx_hal_rcc.c ****   while (READ_BIT(RCC->CR, RCC_CR_HSERDY) != 0U)
 172              		.loc 1 259 3 view .LVU47
 173              	.LVL13:
 174              	.L8:
 175              		.loc 1 259 43 view .LVU48
 176              		.loc 1 259 10 is_stmt 0 view .LVU49
 177 00aa 3F4B     		ldr	r3, .L33+4
 178 00ac 1B68     		ldr	r3, [r3]
 179              		.loc 1 259 43 view .LVU50
 180 00ae 13F4003F 		tst	r3, #131072
 181 00b2 06D0     		beq	.L29
 260:lib/Drivers/STM32H7xx_HAL_Driver/Src/stm32h7xx_hal_rcc.c ****   {
 261:lib/Drivers/STM32H7xx_HAL_Driver/Src/stm32h7xx_hal_rcc.c ****     if ((HAL_GetTick() - tickstart) > HSE_TIMEOUT_VALUE)
 182              		.loc 1 261 5 is_stmt 1 view .LVU51
 183              		.loc 1 261 10 is_stmt 0 view .LVU52
 184 00b4 FFF7FEFF 		bl	HAL_GetTick
 185              	.LVL14:
 186              		.loc 1 261 24 view .LVU53
 187 00b8 401B     		subs	r0, r0, r5
 188              		.loc 1 261 8 view .LVU54
 189 00ba 6428     		cmp	r0, #100
 190 00bc F5D9     		bls	.L8
 262:lib/Drivers/STM32H7xx_HAL_Driver/Src/stm32h7xx_hal_rcc.c ****     {
 263:lib/Drivers/STM32H7xx_HAL_Driver/Src/stm32h7xx_hal_rcc.c ****       return HAL_TIMEOUT;
 191              		.loc 1 263 14 view .LVU55
 192 00be 0324     		movs	r4, #3
 193 00c0 6DE0     		b	.L3
 194              	.L29:
ARM GAS  /tmp/ccpTiR3W.s 			page 9


 264:lib/Drivers/STM32H7xx_HAL_Driver/Src/stm32h7xx_hal_rcc.c ****     }
 265:lib/Drivers/STM32H7xx_HAL_Driver/Src/stm32h7xx_hal_rcc.c ****   }
 266:lib/Drivers/STM32H7xx_HAL_Driver/Src/stm32h7xx_hal_rcc.c **** 
 267:lib/Drivers/STM32H7xx_HAL_Driver/Src/stm32h7xx_hal_rcc.c ****   /* Get Start Tick */
 268:lib/Drivers/STM32H7xx_HAL_Driver/Src/stm32h7xx_hal_rcc.c ****   tickstart = HAL_GetTick();
 195              		.loc 1 268 3 is_stmt 1 view .LVU56
 196              		.loc 1 268 15 is_stmt 0 view .LVU57
 197 00c2 FFF7FEFF 		bl	HAL_GetTick
 198              	.LVL15:
 199 00c6 0546     		mov	r5, r0
 200              	.LVL16:
 269:lib/Drivers/STM32H7xx_HAL_Driver/Src/stm32h7xx_hal_rcc.c **** 
 270:lib/Drivers/STM32H7xx_HAL_Driver/Src/stm32h7xx_hal_rcc.c ****   /* Clear PLLON bit */
 271:lib/Drivers/STM32H7xx_HAL_Driver/Src/stm32h7xx_hal_rcc.c ****   CLEAR_BIT(RCC->CR, RCC_CR_PLL1ON);
 201              		.loc 1 271 3 is_stmt 1 view .LVU58
 202 00c8 374A     		ldr	r2, .L33+4
 203 00ca 1368     		ldr	r3, [r2]
 204 00cc 23F08073 		bic	r3, r3, #16777216
 205 00d0 1360     		str	r3, [r2]
 272:lib/Drivers/STM32H7xx_HAL_Driver/Src/stm32h7xx_hal_rcc.c **** 
 273:lib/Drivers/STM32H7xx_HAL_Driver/Src/stm32h7xx_hal_rcc.c ****   /* Wait till PLL is disabled */
 274:lib/Drivers/STM32H7xx_HAL_Driver/Src/stm32h7xx_hal_rcc.c ****   while (READ_BIT(RCC->CR, RCC_CR_PLL1RDY) != 0U)
 206              		.loc 1 274 3 view .LVU59
 207              	.LVL17:
 208              	.L10:
 209              		.loc 1 274 44 view .LVU60
 210              		.loc 1 274 10 is_stmt 0 view .LVU61
 211 00d2 354B     		ldr	r3, .L33+4
 212 00d4 1B68     		ldr	r3, [r3]
 213              		.loc 1 274 44 view .LVU62
 214 00d6 13F0007F 		tst	r3, #33554432
 215 00da 06D0     		beq	.L30
 275:lib/Drivers/STM32H7xx_HAL_Driver/Src/stm32h7xx_hal_rcc.c ****   {
 276:lib/Drivers/STM32H7xx_HAL_Driver/Src/stm32h7xx_hal_rcc.c ****     if ((HAL_GetTick() - tickstart) > PLL_TIMEOUT_VALUE)
 216              		.loc 1 276 5 is_stmt 1 view .LVU63
 217              		.loc 1 276 10 is_stmt 0 view .LVU64
 218 00dc FFF7FEFF 		bl	HAL_GetTick
 219              	.LVL18:
 220              		.loc 1 276 24 view .LVU65
 221 00e0 401B     		subs	r0, r0, r5
 222              		.loc 1 276 8 view .LVU66
 223 00e2 0228     		cmp	r0, #2
 224 00e4 F5D9     		bls	.L10
 277:lib/Drivers/STM32H7xx_HAL_Driver/Src/stm32h7xx_hal_rcc.c ****     {
 278:lib/Drivers/STM32H7xx_HAL_Driver/Src/stm32h7xx_hal_rcc.c ****       return HAL_TIMEOUT;
 225              		.loc 1 278 14 view .LVU67
 226 00e6 0324     		movs	r4, #3
 227 00e8 59E0     		b	.L3
 228              	.L30:
 279:lib/Drivers/STM32H7xx_HAL_Driver/Src/stm32h7xx_hal_rcc.c ****     }
 280:lib/Drivers/STM32H7xx_HAL_Driver/Src/stm32h7xx_hal_rcc.c ****   }
 281:lib/Drivers/STM32H7xx_HAL_Driver/Src/stm32h7xx_hal_rcc.c **** 
 282:lib/Drivers/STM32H7xx_HAL_Driver/Src/stm32h7xx_hal_rcc.c ****   /* Get Start Tick */
 283:lib/Drivers/STM32H7xx_HAL_Driver/Src/stm32h7xx_hal_rcc.c ****   tickstart = HAL_GetTick();
 229              		.loc 1 283 3 is_stmt 1 view .LVU68
 230              		.loc 1 283 15 is_stmt 0 view .LVU69
 231 00ea FFF7FEFF 		bl	HAL_GetTick
ARM GAS  /tmp/ccpTiR3W.s 			page 10


 232              	.LVL19:
 233 00ee 0546     		mov	r5, r0
 234              	.LVL20:
 284:lib/Drivers/STM32H7xx_HAL_Driver/Src/stm32h7xx_hal_rcc.c **** 
 285:lib/Drivers/STM32H7xx_HAL_Driver/Src/stm32h7xx_hal_rcc.c ****   /* Reset PLL2ON bit */
 286:lib/Drivers/STM32H7xx_HAL_Driver/Src/stm32h7xx_hal_rcc.c ****   CLEAR_BIT(RCC->CR, RCC_CR_PLL2ON);
 235              		.loc 1 286 3 is_stmt 1 view .LVU70
 236 00f0 2D4A     		ldr	r2, .L33+4
 237 00f2 1368     		ldr	r3, [r2]
 238 00f4 23F08063 		bic	r3, r3, #67108864
 239 00f8 1360     		str	r3, [r2]
 287:lib/Drivers/STM32H7xx_HAL_Driver/Src/stm32h7xx_hal_rcc.c **** 
 288:lib/Drivers/STM32H7xx_HAL_Driver/Src/stm32h7xx_hal_rcc.c ****   /* Wait till PLL2 is disabled */
 289:lib/Drivers/STM32H7xx_HAL_Driver/Src/stm32h7xx_hal_rcc.c ****   while (READ_BIT(RCC->CR, RCC_CR_PLL2RDY) != 0U)
 240              		.loc 1 289 3 view .LVU71
 241              	.LVL21:
 242              	.L12:
 243              		.loc 1 289 44 view .LVU72
 244              		.loc 1 289 10 is_stmt 0 view .LVU73
 245 00fa 2B4B     		ldr	r3, .L33+4
 246 00fc 1B68     		ldr	r3, [r3]
 247              		.loc 1 289 44 view .LVU74
 248 00fe 13F0006F 		tst	r3, #134217728
 249 0102 06D0     		beq	.L31
 290:lib/Drivers/STM32H7xx_HAL_Driver/Src/stm32h7xx_hal_rcc.c ****   {
 291:lib/Drivers/STM32H7xx_HAL_Driver/Src/stm32h7xx_hal_rcc.c ****     if ((HAL_GetTick() - tickstart) > PLL_TIMEOUT_VALUE)
 250              		.loc 1 291 5 is_stmt 1 view .LVU75
 251              		.loc 1 291 10 is_stmt 0 view .LVU76
 252 0104 FFF7FEFF 		bl	HAL_GetTick
 253              	.LVL22:
 254              		.loc 1 291 24 view .LVU77
 255 0108 401B     		subs	r0, r0, r5
 256              		.loc 1 291 8 view .LVU78
 257 010a 0228     		cmp	r0, #2
 258 010c F5D9     		bls	.L12
 292:lib/Drivers/STM32H7xx_HAL_Driver/Src/stm32h7xx_hal_rcc.c ****     {
 293:lib/Drivers/STM32H7xx_HAL_Driver/Src/stm32h7xx_hal_rcc.c ****       return HAL_TIMEOUT;
 259              		.loc 1 293 14 view .LVU79
 260 010e 0324     		movs	r4, #3
 261 0110 45E0     		b	.L3
 262              	.L31:
 294:lib/Drivers/STM32H7xx_HAL_Driver/Src/stm32h7xx_hal_rcc.c ****     }
 295:lib/Drivers/STM32H7xx_HAL_Driver/Src/stm32h7xx_hal_rcc.c ****   }
 296:lib/Drivers/STM32H7xx_HAL_Driver/Src/stm32h7xx_hal_rcc.c **** 
 297:lib/Drivers/STM32H7xx_HAL_Driver/Src/stm32h7xx_hal_rcc.c ****   /* Get Start Tick */
 298:lib/Drivers/STM32H7xx_HAL_Driver/Src/stm32h7xx_hal_rcc.c ****   tickstart = HAL_GetTick();
 263              		.loc 1 298 3 is_stmt 1 view .LVU80
 264              		.loc 1 298 15 is_stmt 0 view .LVU81
 265 0112 FFF7FEFF 		bl	HAL_GetTick
 266              	.LVL23:
 267 0116 0546     		mov	r5, r0
 268              	.LVL24:
 299:lib/Drivers/STM32H7xx_HAL_Driver/Src/stm32h7xx_hal_rcc.c **** 
 300:lib/Drivers/STM32H7xx_HAL_Driver/Src/stm32h7xx_hal_rcc.c ****   /* Reset PLL3 bit */
 301:lib/Drivers/STM32H7xx_HAL_Driver/Src/stm32h7xx_hal_rcc.c ****   CLEAR_BIT(RCC->CR, RCC_CR_PLL3ON);
 269              		.loc 1 301 3 is_stmt 1 view .LVU82
 270 0118 234A     		ldr	r2, .L33+4
ARM GAS  /tmp/ccpTiR3W.s 			page 11


 271 011a 1368     		ldr	r3, [r2]
 272 011c 23F08053 		bic	r3, r3, #268435456
 273 0120 1360     		str	r3, [r2]
 302:lib/Drivers/STM32H7xx_HAL_Driver/Src/stm32h7xx_hal_rcc.c **** 
 303:lib/Drivers/STM32H7xx_HAL_Driver/Src/stm32h7xx_hal_rcc.c ****   /* Wait till PLL3 is disabled */
 304:lib/Drivers/STM32H7xx_HAL_Driver/Src/stm32h7xx_hal_rcc.c ****   while (READ_BIT(RCC->CR, RCC_CR_PLL3RDY) != 0U)
 274              		.loc 1 304 3 view .LVU83
 275              	.LVL25:
 276              	.L14:
 277              		.loc 1 304 44 view .LVU84
 278              		.loc 1 304 10 is_stmt 0 view .LVU85
 279 0122 214B     		ldr	r3, .L33+4
 280 0124 1B68     		ldr	r3, [r3]
 281              		.loc 1 304 44 view .LVU86
 282 0126 13F0005F 		tst	r3, #536870912
 283 012a 06D0     		beq	.L32
 305:lib/Drivers/STM32H7xx_HAL_Driver/Src/stm32h7xx_hal_rcc.c ****   {
 306:lib/Drivers/STM32H7xx_HAL_Driver/Src/stm32h7xx_hal_rcc.c ****     if ((HAL_GetTick() - tickstart) > PLL_TIMEOUT_VALUE)
 284              		.loc 1 306 5 is_stmt 1 view .LVU87
 285              		.loc 1 306 10 is_stmt 0 view .LVU88
 286 012c FFF7FEFF 		bl	HAL_GetTick
 287              	.LVL26:
 288              		.loc 1 306 24 view .LVU89
 289 0130 401B     		subs	r0, r0, r5
 290              		.loc 1 306 8 view .LVU90
 291 0132 0228     		cmp	r0, #2
 292 0134 F5D9     		bls	.L14
 307:lib/Drivers/STM32H7xx_HAL_Driver/Src/stm32h7xx_hal_rcc.c ****     {
 308:lib/Drivers/STM32H7xx_HAL_Driver/Src/stm32h7xx_hal_rcc.c ****       return HAL_TIMEOUT;
 293              		.loc 1 308 14 view .LVU91
 294 0136 0324     		movs	r4, #3
 295 0138 31E0     		b	.L3
 296              	.L32:
 309:lib/Drivers/STM32H7xx_HAL_Driver/Src/stm32h7xx_hal_rcc.c ****     }
 310:lib/Drivers/STM32H7xx_HAL_Driver/Src/stm32h7xx_hal_rcc.c ****   }
 311:lib/Drivers/STM32H7xx_HAL_Driver/Src/stm32h7xx_hal_rcc.c **** 
 312:lib/Drivers/STM32H7xx_HAL_Driver/Src/stm32h7xx_hal_rcc.c **** #if defined(RCC_D1CFGR_HPRE)
 313:lib/Drivers/STM32H7xx_HAL_Driver/Src/stm32h7xx_hal_rcc.c ****   /* Reset D1CFGR register */
 314:lib/Drivers/STM32H7xx_HAL_Driver/Src/stm32h7xx_hal_rcc.c ****   CLEAR_REG(RCC->D1CFGR);
 297              		.loc 1 314 3 is_stmt 1 view .LVU92
 298 013a 1B4B     		ldr	r3, .L33+4
 299 013c 0022     		movs	r2, #0
 300 013e 9A61     		str	r2, [r3, #24]
 315:lib/Drivers/STM32H7xx_HAL_Driver/Src/stm32h7xx_hal_rcc.c **** 
 316:lib/Drivers/STM32H7xx_HAL_Driver/Src/stm32h7xx_hal_rcc.c ****   /* Reset D2CFGR register */
 317:lib/Drivers/STM32H7xx_HAL_Driver/Src/stm32h7xx_hal_rcc.c ****   CLEAR_REG(RCC->D2CFGR);
 301              		.loc 1 317 3 view .LVU93
 302 0140 DA61     		str	r2, [r3, #28]
 318:lib/Drivers/STM32H7xx_HAL_Driver/Src/stm32h7xx_hal_rcc.c **** 
 319:lib/Drivers/STM32H7xx_HAL_Driver/Src/stm32h7xx_hal_rcc.c ****   /* Reset D3CFGR register */
 320:lib/Drivers/STM32H7xx_HAL_Driver/Src/stm32h7xx_hal_rcc.c ****   CLEAR_REG(RCC->D3CFGR);
 303              		.loc 1 320 3 view .LVU94
 304 0142 1A62     		str	r2, [r3, #32]
 321:lib/Drivers/STM32H7xx_HAL_Driver/Src/stm32h7xx_hal_rcc.c **** #else
 322:lib/Drivers/STM32H7xx_HAL_Driver/Src/stm32h7xx_hal_rcc.c ****   /* Reset CDCFGR1 register */
 323:lib/Drivers/STM32H7xx_HAL_Driver/Src/stm32h7xx_hal_rcc.c ****   CLEAR_REG(RCC->CDCFGR1);
 324:lib/Drivers/STM32H7xx_HAL_Driver/Src/stm32h7xx_hal_rcc.c **** 
ARM GAS  /tmp/ccpTiR3W.s 			page 12


 325:lib/Drivers/STM32H7xx_HAL_Driver/Src/stm32h7xx_hal_rcc.c ****   /* Reset CDCFGR2 register */
 326:lib/Drivers/STM32H7xx_HAL_Driver/Src/stm32h7xx_hal_rcc.c ****   CLEAR_REG(RCC->CDCFGR2);
 327:lib/Drivers/STM32H7xx_HAL_Driver/Src/stm32h7xx_hal_rcc.c **** 
 328:lib/Drivers/STM32H7xx_HAL_Driver/Src/stm32h7xx_hal_rcc.c ****   /* Reset SRDCFGR register */
 329:lib/Drivers/STM32H7xx_HAL_Driver/Src/stm32h7xx_hal_rcc.c ****   CLEAR_REG(RCC->SRDCFGR);
 330:lib/Drivers/STM32H7xx_HAL_Driver/Src/stm32h7xx_hal_rcc.c **** #endif
 331:lib/Drivers/STM32H7xx_HAL_Driver/Src/stm32h7xx_hal_rcc.c **** 
 332:lib/Drivers/STM32H7xx_HAL_Driver/Src/stm32h7xx_hal_rcc.c ****   /* Reset PLLCKSELR register to default value */
 333:lib/Drivers/STM32H7xx_HAL_Driver/Src/stm32h7xx_hal_rcc.c ****   RCC->PLLCKSELR= RCC_PLLCKSELR_DIVM1_5|RCC_PLLCKSELR_DIVM2_5|RCC_PLLCKSELR_DIVM3_5;
 305              		.loc 1 333 3 view .LVU95
 306              		.loc 1 333 17 is_stmt 0 view .LVU96
 307 0144 1E49     		ldr	r1, .L33+28
 308 0146 9962     		str	r1, [r3, #40]
 334:lib/Drivers/STM32H7xx_HAL_Driver/Src/stm32h7xx_hal_rcc.c **** 
 335:lib/Drivers/STM32H7xx_HAL_Driver/Src/stm32h7xx_hal_rcc.c ****   /* Reset PLLCFGR register to default value */
 336:lib/Drivers/STM32H7xx_HAL_Driver/Src/stm32h7xx_hal_rcc.c ****   WRITE_REG(RCC->PLLCFGR, 0x01FF0000U);
 309              		.loc 1 336 3 is_stmt 1 view .LVU97
 310 0148 1E49     		ldr	r1, .L33+32
 311 014a D962     		str	r1, [r3, #44]
 337:lib/Drivers/STM32H7xx_HAL_Driver/Src/stm32h7xx_hal_rcc.c **** 
 338:lib/Drivers/STM32H7xx_HAL_Driver/Src/stm32h7xx_hal_rcc.c ****   /* Reset PLL1DIVR register to default value */
 339:lib/Drivers/STM32H7xx_HAL_Driver/Src/stm32h7xx_hal_rcc.c ****   WRITE_REG(RCC->PLL1DIVR,0x01010280U);
 312              		.loc 1 339 3 view .LVU98
 313 014c 1E49     		ldr	r1, .L33+36
 314 014e 1963     		str	r1, [r3, #48]
 340:lib/Drivers/STM32H7xx_HAL_Driver/Src/stm32h7xx_hal_rcc.c **** 
 341:lib/Drivers/STM32H7xx_HAL_Driver/Src/stm32h7xx_hal_rcc.c ****   /* Reset PLL1FRACR register */
 342:lib/Drivers/STM32H7xx_HAL_Driver/Src/stm32h7xx_hal_rcc.c ****   CLEAR_REG(RCC->PLL1FRACR);
 315              		.loc 1 342 3 view .LVU99
 316 0150 5A63     		str	r2, [r3, #52]
 343:lib/Drivers/STM32H7xx_HAL_Driver/Src/stm32h7xx_hal_rcc.c **** 
 344:lib/Drivers/STM32H7xx_HAL_Driver/Src/stm32h7xx_hal_rcc.c ****   /* Reset PLL2DIVR register to default value */
 345:lib/Drivers/STM32H7xx_HAL_Driver/Src/stm32h7xx_hal_rcc.c ****   WRITE_REG(RCC->PLL2DIVR,0x01010280U);
 317              		.loc 1 345 3 view .LVU100
 318 0152 9963     		str	r1, [r3, #56]
 346:lib/Drivers/STM32H7xx_HAL_Driver/Src/stm32h7xx_hal_rcc.c **** 
 347:lib/Drivers/STM32H7xx_HAL_Driver/Src/stm32h7xx_hal_rcc.c ****   /* Reset PLL2FRACR register */
 348:lib/Drivers/STM32H7xx_HAL_Driver/Src/stm32h7xx_hal_rcc.c ****   CLEAR_REG(RCC->PLL2FRACR);
 319              		.loc 1 348 3 view .LVU101
 320 0154 DA63     		str	r2, [r3, #60]
 349:lib/Drivers/STM32H7xx_HAL_Driver/Src/stm32h7xx_hal_rcc.c **** 
 350:lib/Drivers/STM32H7xx_HAL_Driver/Src/stm32h7xx_hal_rcc.c ****   /* Reset PLL3DIVR register to default value */
 351:lib/Drivers/STM32H7xx_HAL_Driver/Src/stm32h7xx_hal_rcc.c ****   WRITE_REG(RCC->PLL3DIVR,0x01010280U);
 321              		.loc 1 351 3 view .LVU102
 322 0156 1964     		str	r1, [r3, #64]
 352:lib/Drivers/STM32H7xx_HAL_Driver/Src/stm32h7xx_hal_rcc.c **** 
 353:lib/Drivers/STM32H7xx_HAL_Driver/Src/stm32h7xx_hal_rcc.c ****   /* Reset PLL3FRACR register */
 354:lib/Drivers/STM32H7xx_HAL_Driver/Src/stm32h7xx_hal_rcc.c ****   CLEAR_REG(RCC->PLL3FRACR);
 323              		.loc 1 354 3 view .LVU103
 324 0158 5A64     		str	r2, [r3, #68]
 355:lib/Drivers/STM32H7xx_HAL_Driver/Src/stm32h7xx_hal_rcc.c **** 
 356:lib/Drivers/STM32H7xx_HAL_Driver/Src/stm32h7xx_hal_rcc.c **** #if defined(RCC_CR_HSEEXT)
 357:lib/Drivers/STM32H7xx_HAL_Driver/Src/stm32h7xx_hal_rcc.c ****   /* Reset HSEEXT  */
 358:lib/Drivers/STM32H7xx_HAL_Driver/Src/stm32h7xx_hal_rcc.c ****   CLEAR_BIT(RCC->CR, RCC_CR_HSEEXT);
 359:lib/Drivers/STM32H7xx_HAL_Driver/Src/stm32h7xx_hal_rcc.c **** #endif /* RCC_CR_HSEEXT */
 360:lib/Drivers/STM32H7xx_HAL_Driver/Src/stm32h7xx_hal_rcc.c **** 
 361:lib/Drivers/STM32H7xx_HAL_Driver/Src/stm32h7xx_hal_rcc.c ****   /* Reset HSEBYP bit */
ARM GAS  /tmp/ccpTiR3W.s 			page 13


 362:lib/Drivers/STM32H7xx_HAL_Driver/Src/stm32h7xx_hal_rcc.c ****   CLEAR_BIT(RCC->CR, RCC_CR_HSEBYP);
 325              		.loc 1 362 3 view .LVU104
 326 015a 1968     		ldr	r1, [r3]
 327 015c 21F48021 		bic	r1, r1, #262144
 328 0160 1960     		str	r1, [r3]
 363:lib/Drivers/STM32H7xx_HAL_Driver/Src/stm32h7xx_hal_rcc.c **** 
 364:lib/Drivers/STM32H7xx_HAL_Driver/Src/stm32h7xx_hal_rcc.c ****   /* Disable all interrupts */
 365:lib/Drivers/STM32H7xx_HAL_Driver/Src/stm32h7xx_hal_rcc.c ****   CLEAR_REG(RCC->CIER);
 329              		.loc 1 365 3 view .LVU105
 330 0162 1A66     		str	r2, [r3, #96]
 366:lib/Drivers/STM32H7xx_HAL_Driver/Src/stm32h7xx_hal_rcc.c **** 
 367:lib/Drivers/STM32H7xx_HAL_Driver/Src/stm32h7xx_hal_rcc.c ****   /* Clear all interrupts flags */
 368:lib/Drivers/STM32H7xx_HAL_Driver/Src/stm32h7xx_hal_rcc.c ****   WRITE_REG(RCC->CICR,0xFFFFFFFFU);
 331              		.loc 1 368 3 view .LVU106
 332 0164 4FF0FF32 		mov	r2, #-1
 333 0168 9A66     		str	r2, [r3, #104]
 369:lib/Drivers/STM32H7xx_HAL_Driver/Src/stm32h7xx_hal_rcc.c **** 
 370:lib/Drivers/STM32H7xx_HAL_Driver/Src/stm32h7xx_hal_rcc.c ****   /* Reset all RSR flags */
 371:lib/Drivers/STM32H7xx_HAL_Driver/Src/stm32h7xx_hal_rcc.c ****   SET_BIT(RCC->RSR, RCC_RSR_RMVF);
 334              		.loc 1 371 3 view .LVU107
 335 016a D3F8D020 		ldr	r2, [r3, #208]
 336 016e 42F48032 		orr	r2, r2, #65536
 337 0172 C3F8D020 		str	r2, [r3, #208]
 372:lib/Drivers/STM32H7xx_HAL_Driver/Src/stm32h7xx_hal_rcc.c **** 
 373:lib/Drivers/STM32H7xx_HAL_Driver/Src/stm32h7xx_hal_rcc.c ****       /* Decreasing the number of wait states because of lower CPU frequency */
 374:lib/Drivers/STM32H7xx_HAL_Driver/Src/stm32h7xx_hal_rcc.c ****   if(FLASH_LATENCY_DEFAULT  < __HAL_FLASH_GET_LATENCY())
 338              		.loc 1 374 3 view .LVU108
 339              		.loc 1 374 31 is_stmt 0 view .LVU109
 340 0176 0B4B     		ldr	r3, .L33
 341 0178 1B68     		ldr	r3, [r3]
 342              		.loc 1 374 5 view .LVU110
 343 017a 13F0080F 		tst	r3, #8
 344 017e 0ED0     		beq	.L3
 375:lib/Drivers/STM32H7xx_HAL_Driver/Src/stm32h7xx_hal_rcc.c ****   {
 376:lib/Drivers/STM32H7xx_HAL_Driver/Src/stm32h7xx_hal_rcc.c ****     /* Program the new number of wait states to the LATENCY bits in the FLASH_ACR register */
 377:lib/Drivers/STM32H7xx_HAL_Driver/Src/stm32h7xx_hal_rcc.c ****     __HAL_FLASH_SET_LATENCY(FLASH_LATENCY_DEFAULT);
 345              		.loc 1 377 5 is_stmt 1 view .LVU111
 346 0180 084A     		ldr	r2, .L33
 347 0182 1368     		ldr	r3, [r2]
 348 0184 23F00F03 		bic	r3, r3, #15
 349 0188 43F00703 		orr	r3, r3, #7
 350 018c 1360     		str	r3, [r2]
 378:lib/Drivers/STM32H7xx_HAL_Driver/Src/stm32h7xx_hal_rcc.c **** 
 379:lib/Drivers/STM32H7xx_HAL_Driver/Src/stm32h7xx_hal_rcc.c ****     /* Check that the new number of wait states is taken into account to access the Flash
 380:lib/Drivers/STM32H7xx_HAL_Driver/Src/stm32h7xx_hal_rcc.c ****     memory by reading the FLASH_ACR register */
 381:lib/Drivers/STM32H7xx_HAL_Driver/Src/stm32h7xx_hal_rcc.c ****     if(__HAL_FLASH_GET_LATENCY() != FLASH_LATENCY_DEFAULT)
 351              		.loc 1 381 5 view .LVU112
 352              		.loc 1 381 8 is_stmt 0 view .LVU113
 353 018e 1368     		ldr	r3, [r2]
 354 0190 03F00F03 		and	r3, r3, #15
 355              		.loc 1 381 7 view .LVU114
 356 0194 072B     		cmp	r3, #7
 357 0196 02D0     		beq	.L3
 382:lib/Drivers/STM32H7xx_HAL_Driver/Src/stm32h7xx_hal_rcc.c ****     {
 383:lib/Drivers/STM32H7xx_HAL_Driver/Src/stm32h7xx_hal_rcc.c ****       return HAL_ERROR;
 358              		.loc 1 383 14 view .LVU115
 359 0198 0124     		movs	r4, #1
ARM GAS  /tmp/ccpTiR3W.s 			page 14


 360 019a 00E0     		b	.L3
 361              	.LVL27:
 362              	.L16:
 202:lib/Drivers/STM32H7xx_HAL_Driver/Src/stm32h7xx_hal_rcc.c ****     }
 363              		.loc 1 202 14 view .LVU116
 364 019c 0124     		movs	r4, #1
 365              	.L3:
 384:lib/Drivers/STM32H7xx_HAL_Driver/Src/stm32h7xx_hal_rcc.c ****     }
 385:lib/Drivers/STM32H7xx_HAL_Driver/Src/stm32h7xx_hal_rcc.c **** 
 386:lib/Drivers/STM32H7xx_HAL_Driver/Src/stm32h7xx_hal_rcc.c **** }
 387:lib/Drivers/STM32H7xx_HAL_Driver/Src/stm32h7xx_hal_rcc.c **** 
 388:lib/Drivers/STM32H7xx_HAL_Driver/Src/stm32h7xx_hal_rcc.c ****   return HAL_OK;
 389:lib/Drivers/STM32H7xx_HAL_Driver/Src/stm32h7xx_hal_rcc.c **** }
 366              		.loc 1 389 1 view .LVU117
 367 019e 2046     		mov	r0, r4
 368 01a0 38BD     		pop	{r3, r4, r5, pc}
 369              	.L34:
 370 01a2 00BF     		.align	2
 371              	.L33:
 372 01a4 00200052 		.word	1375739904
 373 01a8 00440258 		.word	1476543488
 374 01ac 0090D003 		.word	64000000
 375 01b0 00000000 		.word	SystemCoreClock
 376 01b4 00000000 		.word	SystemD2Clock
 377 01b8 00000000 		.word	uwTickPrio
 378 01bc 45EDF6FF 		.word	-594619
 379 01c0 00020202 		.word	33686016
 380 01c4 0000FF01 		.word	33488896
 381 01c8 80020101 		.word	16843392
 382              		.cfi_endproc
 383              	.LFE144:
 385              		.section	.text.HAL_RCC_OscConfig,"ax",%progbits
 386              		.align	1
 387              		.weak	HAL_RCC_OscConfig
 388              		.syntax unified
 389              		.thumb
 390              		.thumb_func
 392              	HAL_RCC_OscConfig:
 393              	.LVL28:
 394              	.LFB145:
 390:lib/Drivers/STM32H7xx_HAL_Driver/Src/stm32h7xx_hal_rcc.c **** 
 391:lib/Drivers/STM32H7xx_HAL_Driver/Src/stm32h7xx_hal_rcc.c **** /**
 392:lib/Drivers/STM32H7xx_HAL_Driver/Src/stm32h7xx_hal_rcc.c ****   * @brief  Initializes the RCC Oscillators according to the specified parameters in the
 393:lib/Drivers/STM32H7xx_HAL_Driver/Src/stm32h7xx_hal_rcc.c ****   *         RCC_OscInitTypeDef.
 394:lib/Drivers/STM32H7xx_HAL_Driver/Src/stm32h7xx_hal_rcc.c ****   * @param  RCC_OscInitStruct: pointer to an RCC_OscInitTypeDef structure that
 395:lib/Drivers/STM32H7xx_HAL_Driver/Src/stm32h7xx_hal_rcc.c ****   *         contains the configuration information for the RCC Oscillators.
 396:lib/Drivers/STM32H7xx_HAL_Driver/Src/stm32h7xx_hal_rcc.c ****   * @note   The PLL is not disabled when used as system clock.
 397:lib/Drivers/STM32H7xx_HAL_Driver/Src/stm32h7xx_hal_rcc.c ****   * @note   Transitions LSE Bypass to LSE On and LSE On to LSE Bypass are not
 398:lib/Drivers/STM32H7xx_HAL_Driver/Src/stm32h7xx_hal_rcc.c ****   *         supported by this function. User should request a transition to LSE Off
 399:lib/Drivers/STM32H7xx_HAL_Driver/Src/stm32h7xx_hal_rcc.c ****   *         first and then LSE On or LSE Bypass.
 400:lib/Drivers/STM32H7xx_HAL_Driver/Src/stm32h7xx_hal_rcc.c ****   * @note   Transition HSE Bypass to HSE On and HSE On to HSE Bypass are not
 401:lib/Drivers/STM32H7xx_HAL_Driver/Src/stm32h7xx_hal_rcc.c ****   *         supported by this function. User should request a transition to HSE Off
 402:lib/Drivers/STM32H7xx_HAL_Driver/Src/stm32h7xx_hal_rcc.c ****   *         first and then HSE On or HSE Bypass.
 403:lib/Drivers/STM32H7xx_HAL_Driver/Src/stm32h7xx_hal_rcc.c ****   * @retval HAL status
 404:lib/Drivers/STM32H7xx_HAL_Driver/Src/stm32h7xx_hal_rcc.c ****   */
 405:lib/Drivers/STM32H7xx_HAL_Driver/Src/stm32h7xx_hal_rcc.c **** __weak HAL_StatusTypeDef HAL_RCC_OscConfig(RCC_OscInitTypeDef  *RCC_OscInitStruct)
 406:lib/Drivers/STM32H7xx_HAL_Driver/Src/stm32h7xx_hal_rcc.c **** {
ARM GAS  /tmp/ccpTiR3W.s 			page 15


 395              		.loc 1 406 1 is_stmt 1 view -0
 396              		.cfi_startproc
 397              		@ args = 0, pretend = 0, frame = 0
 398              		@ frame_needed = 0, uses_anonymous_args = 0
 407:lib/Drivers/STM32H7xx_HAL_Driver/Src/stm32h7xx_hal_rcc.c ****   uint32_t tickstart;
 399              		.loc 1 407 3 view .LVU119
 408:lib/Drivers/STM32H7xx_HAL_Driver/Src/stm32h7xx_hal_rcc.c ****   uint32_t temp1_pllckcfg, temp2_pllckcfg;
 400              		.loc 1 408 3 view .LVU120
 409:lib/Drivers/STM32H7xx_HAL_Driver/Src/stm32h7xx_hal_rcc.c **** 
 410:lib/Drivers/STM32H7xx_HAL_Driver/Src/stm32h7xx_hal_rcc.c ****     /* Check Null pointer */
 411:lib/Drivers/STM32H7xx_HAL_Driver/Src/stm32h7xx_hal_rcc.c ****   if(RCC_OscInitStruct == NULL)
 401              		.loc 1 411 3 view .LVU121
 402              		.loc 1 411 5 is_stmt 0 view .LVU122
 403 0000 0028     		cmp	r0, #0
 404 0002 00F01883 		beq	.L109
 406:lib/Drivers/STM32H7xx_HAL_Driver/Src/stm32h7xx_hal_rcc.c ****   uint32_t tickstart;
 405              		.loc 1 406 1 view .LVU123
 406 0006 38B5     		push	{r3, r4, r5, lr}
 407              	.LCFI1:
 408              		.cfi_def_cfa_offset 16
 409              		.cfi_offset 3, -16
 410              		.cfi_offset 4, -12
 411              		.cfi_offset 5, -8
 412              		.cfi_offset 14, -4
 413 0008 0446     		mov	r4, r0
 412:lib/Drivers/STM32H7xx_HAL_Driver/Src/stm32h7xx_hal_rcc.c ****   {
 413:lib/Drivers/STM32H7xx_HAL_Driver/Src/stm32h7xx_hal_rcc.c ****     return HAL_ERROR;
 414:lib/Drivers/STM32H7xx_HAL_Driver/Src/stm32h7xx_hal_rcc.c ****   }
 415:lib/Drivers/STM32H7xx_HAL_Driver/Src/stm32h7xx_hal_rcc.c **** 
 416:lib/Drivers/STM32H7xx_HAL_Driver/Src/stm32h7xx_hal_rcc.c ****   /* Check the parameters */
 417:lib/Drivers/STM32H7xx_HAL_Driver/Src/stm32h7xx_hal_rcc.c ****   assert_param(IS_RCC_OSCILLATORTYPE(RCC_OscInitStruct->OscillatorType));
 414              		.loc 1 417 3 is_stmt 1 view .LVU124
 418:lib/Drivers/STM32H7xx_HAL_Driver/Src/stm32h7xx_hal_rcc.c ****   /*------------------------------- HSE Configuration ------------------------*/
 419:lib/Drivers/STM32H7xx_HAL_Driver/Src/stm32h7xx_hal_rcc.c ****   if(((RCC_OscInitStruct->OscillatorType) & RCC_OSCILLATORTYPE_HSE) == RCC_OSCILLATORTYPE_HSE)
 415              		.loc 1 419 3 view .LVU125
 416              		.loc 1 419 25 is_stmt 0 view .LVU126
 417 000a 0368     		ldr	r3, [r0]
 418              		.loc 1 419 5 view .LVU127
 419 000c 13F0010F 		tst	r3, #1
 420 0010 25D0     		beq	.L37
 421              	.LBB2:
 420:lib/Drivers/STM32H7xx_HAL_Driver/Src/stm32h7xx_hal_rcc.c ****   {
 421:lib/Drivers/STM32H7xx_HAL_Driver/Src/stm32h7xx_hal_rcc.c ****     /* Check the parameters */
 422:lib/Drivers/STM32H7xx_HAL_Driver/Src/stm32h7xx_hal_rcc.c ****     assert_param(IS_RCC_HSE(RCC_OscInitStruct->HSEState));
 422              		.loc 1 422 5 is_stmt 1 view .LVU128
 423:lib/Drivers/STM32H7xx_HAL_Driver/Src/stm32h7xx_hal_rcc.c **** 
 424:lib/Drivers/STM32H7xx_HAL_Driver/Src/stm32h7xx_hal_rcc.c ****     const uint32_t temp_sysclksrc = __HAL_RCC_GET_SYSCLK_SOURCE();
 423              		.loc 1 424 5 view .LVU129
 424              		.loc 1 424 37 is_stmt 0 view .LVU130
 425 0012 944A     		ldr	r2, .L163
 426 0014 1369     		ldr	r3, [r2, #16]
 427              		.loc 1 424 20 view .LVU131
 428 0016 03F03803 		and	r3, r3, #56
 429              	.LVL29:
 425:lib/Drivers/STM32H7xx_HAL_Driver/Src/stm32h7xx_hal_rcc.c ****     const uint32_t temp_pllckselr = RCC->PLLCKSELR;
 430              		.loc 1 425 5 is_stmt 1 view .LVU132
 431              		.loc 1 425 20 is_stmt 0 view .LVU133
ARM GAS  /tmp/ccpTiR3W.s 			page 16


 432 001a 926A     		ldr	r2, [r2, #40]
 433              	.LVL30:
 426:lib/Drivers/STM32H7xx_HAL_Driver/Src/stm32h7xx_hal_rcc.c ****     /* When the HSE is used as system clock or clock source for PLL in these cases HSE will not dis
 427:lib/Drivers/STM32H7xx_HAL_Driver/Src/stm32h7xx_hal_rcc.c ****     if((temp_sysclksrc == RCC_CFGR_SWS_HSE) || ((temp_sysclksrc == RCC_CFGR_SWS_PLL1) && ((temp_pll
 434              		.loc 1 427 5 is_stmt 1 view .LVU134
 435              		.loc 1 427 7 is_stmt 0 view .LVU135
 436 001c 102B     		cmp	r3, #16
 437 001e 15D0     		beq	.L38
 438              		.loc 1 427 45 discriminator 1 view .LVU136
 439 0020 182B     		cmp	r3, #24
 440 0022 0FD0     		beq	.L142
 441              	.LVL31:
 442              	.L39:
 428:lib/Drivers/STM32H7xx_HAL_Driver/Src/stm32h7xx_hal_rcc.c ****     {
 429:lib/Drivers/STM32H7xx_HAL_Driver/Src/stm32h7xx_hal_rcc.c ****       if((__HAL_RCC_GET_FLAG(RCC_FLAG_HSERDY) != 0U) && (RCC_OscInitStruct->HSEState == RCC_HSE_OFF
 430:lib/Drivers/STM32H7xx_HAL_Driver/Src/stm32h7xx_hal_rcc.c ****       {
 431:lib/Drivers/STM32H7xx_HAL_Driver/Src/stm32h7xx_hal_rcc.c ****         return HAL_ERROR;
 432:lib/Drivers/STM32H7xx_HAL_Driver/Src/stm32h7xx_hal_rcc.c ****       }
 433:lib/Drivers/STM32H7xx_HAL_Driver/Src/stm32h7xx_hal_rcc.c ****     }
 434:lib/Drivers/STM32H7xx_HAL_Driver/Src/stm32h7xx_hal_rcc.c ****     else
 435:lib/Drivers/STM32H7xx_HAL_Driver/Src/stm32h7xx_hal_rcc.c ****     {
 436:lib/Drivers/STM32H7xx_HAL_Driver/Src/stm32h7xx_hal_rcc.c ****       /* Set the new HSE configuration ---------------------------------------*/
 437:lib/Drivers/STM32H7xx_HAL_Driver/Src/stm32h7xx_hal_rcc.c ****       __HAL_RCC_HSE_CONFIG(RCC_OscInitStruct->HSEState);
 443              		.loc 1 437 7 is_stmt 1 view .LVU137
 444              		.loc 1 437 7 view .LVU138
 445 0024 6368     		ldr	r3, [r4, #4]
 446              	.LVL32:
 447              		.loc 1 437 7 is_stmt 0 view .LVU139
 448 0026 B3F5803F 		cmp	r3, #65536
 449 002a 3FD0     		beq	.L143
 450              		.loc 1 437 7 is_stmt 1 discriminator 2 view .LVU140
 451 002c 002B     		cmp	r3, #0
 452 002e 53D1     		bne	.L42
 453              		.loc 1 437 7 discriminator 4 view .LVU141
 454 0030 8C4B     		ldr	r3, .L163
 455 0032 1A68     		ldr	r2, [r3]
 456 0034 22F48032 		bic	r2, r2, #65536
 457 0038 1A60     		str	r2, [r3]
 458              		.loc 1 437 7 discriminator 4 view .LVU142
 459 003a 1A68     		ldr	r2, [r3]
 460 003c 22F48022 		bic	r2, r2, #262144
 461 0040 1A60     		str	r2, [r3]
 462 0042 38E0     		b	.L41
 463              	.LVL33:
 464              	.L142:
 427:lib/Drivers/STM32H7xx_HAL_Driver/Src/stm32h7xx_hal_rcc.c ****     {
 465              		.loc 1 427 107 is_stmt 0 discriminator 2 view .LVU143
 466 0044 02F00302 		and	r2, r2, #3
 467              	.LVL34:
 427:lib/Drivers/STM32H7xx_HAL_Driver/Src/stm32h7xx_hal_rcc.c ****     {
 468              		.loc 1 427 87 discriminator 2 view .LVU144
 469 0048 022A     		cmp	r2, #2
 470 004a EBD1     		bne	.L39
 471              	.L38:
 429:lib/Drivers/STM32H7xx_HAL_Driver/Src/stm32h7xx_hal_rcc.c ****       {
 472              		.loc 1 429 7 is_stmt 1 view .LVU145
 429:lib/Drivers/STM32H7xx_HAL_Driver/Src/stm32h7xx_hal_rcc.c ****       {
ARM GAS  /tmp/ccpTiR3W.s 			page 17


 473              		.loc 1 429 11 is_stmt 0 view .LVU146
 474 004c 854B     		ldr	r3, .L163
 475              	.LVL35:
 429:lib/Drivers/STM32H7xx_HAL_Driver/Src/stm32h7xx_hal_rcc.c ****       {
 476              		.loc 1 429 11 view .LVU147
 477 004e 1B68     		ldr	r3, [r3]
 429:lib/Drivers/STM32H7xx_HAL_Driver/Src/stm32h7xx_hal_rcc.c ****       {
 478              		.loc 1 429 9 view .LVU148
 479 0050 13F4003F 		tst	r3, #131072
 480 0054 03D0     		beq	.L37
 429:lib/Drivers/STM32H7xx_HAL_Driver/Src/stm32h7xx_hal_rcc.c ****       {
 481              		.loc 1 429 75 discriminator 1 view .LVU149
 482 0056 6368     		ldr	r3, [r4, #4]
 429:lib/Drivers/STM32H7xx_HAL_Driver/Src/stm32h7xx_hal_rcc.c ****       {
 483              		.loc 1 429 54 discriminator 1 view .LVU150
 484 0058 002B     		cmp	r3, #0
 485 005a 00F0EE82 		beq	.L144
 486              	.LVL36:
 487              	.L37:
 429:lib/Drivers/STM32H7xx_HAL_Driver/Src/stm32h7xx_hal_rcc.c ****       {
 488              		.loc 1 429 54 discriminator 1 view .LVU151
 489              	.LBE2:
 438:lib/Drivers/STM32H7xx_HAL_Driver/Src/stm32h7xx_hal_rcc.c **** 
 439:lib/Drivers/STM32H7xx_HAL_Driver/Src/stm32h7xx_hal_rcc.c ****       /* Check the HSE State */
 440:lib/Drivers/STM32H7xx_HAL_Driver/Src/stm32h7xx_hal_rcc.c ****       if(RCC_OscInitStruct->HSEState != RCC_HSE_OFF)
 441:lib/Drivers/STM32H7xx_HAL_Driver/Src/stm32h7xx_hal_rcc.c ****       {
 442:lib/Drivers/STM32H7xx_HAL_Driver/Src/stm32h7xx_hal_rcc.c ****         /* Get Start Tick*/
 443:lib/Drivers/STM32H7xx_HAL_Driver/Src/stm32h7xx_hal_rcc.c ****         tickstart = HAL_GetTick();
 444:lib/Drivers/STM32H7xx_HAL_Driver/Src/stm32h7xx_hal_rcc.c **** 
 445:lib/Drivers/STM32H7xx_HAL_Driver/Src/stm32h7xx_hal_rcc.c ****         /* Wait till HSE is ready */
 446:lib/Drivers/STM32H7xx_HAL_Driver/Src/stm32h7xx_hal_rcc.c ****         while(__HAL_RCC_GET_FLAG(RCC_FLAG_HSERDY) == 0U)
 447:lib/Drivers/STM32H7xx_HAL_Driver/Src/stm32h7xx_hal_rcc.c ****         {
 448:lib/Drivers/STM32H7xx_HAL_Driver/Src/stm32h7xx_hal_rcc.c ****           if((uint32_t) (HAL_GetTick() - tickstart ) > HSE_TIMEOUT_VALUE)
 449:lib/Drivers/STM32H7xx_HAL_Driver/Src/stm32h7xx_hal_rcc.c ****           {
 450:lib/Drivers/STM32H7xx_HAL_Driver/Src/stm32h7xx_hal_rcc.c ****             return HAL_TIMEOUT;
 451:lib/Drivers/STM32H7xx_HAL_Driver/Src/stm32h7xx_hal_rcc.c ****           }
 452:lib/Drivers/STM32H7xx_HAL_Driver/Src/stm32h7xx_hal_rcc.c ****         }
 453:lib/Drivers/STM32H7xx_HAL_Driver/Src/stm32h7xx_hal_rcc.c ****       }
 454:lib/Drivers/STM32H7xx_HAL_Driver/Src/stm32h7xx_hal_rcc.c ****       else
 455:lib/Drivers/STM32H7xx_HAL_Driver/Src/stm32h7xx_hal_rcc.c ****       {
 456:lib/Drivers/STM32H7xx_HAL_Driver/Src/stm32h7xx_hal_rcc.c ****         /* Get Start Tick*/
 457:lib/Drivers/STM32H7xx_HAL_Driver/Src/stm32h7xx_hal_rcc.c ****         tickstart = HAL_GetTick();
 458:lib/Drivers/STM32H7xx_HAL_Driver/Src/stm32h7xx_hal_rcc.c **** 
 459:lib/Drivers/STM32H7xx_HAL_Driver/Src/stm32h7xx_hal_rcc.c ****         /* Wait till HSE is disabled */
 460:lib/Drivers/STM32H7xx_HAL_Driver/Src/stm32h7xx_hal_rcc.c ****         while(__HAL_RCC_GET_FLAG(RCC_FLAG_HSERDY) != 0U)
 461:lib/Drivers/STM32H7xx_HAL_Driver/Src/stm32h7xx_hal_rcc.c ****         {
 462:lib/Drivers/STM32H7xx_HAL_Driver/Src/stm32h7xx_hal_rcc.c ****           if((uint32_t) (HAL_GetTick() - tickstart ) > HSE_TIMEOUT_VALUE)
 463:lib/Drivers/STM32H7xx_HAL_Driver/Src/stm32h7xx_hal_rcc.c ****           {
 464:lib/Drivers/STM32H7xx_HAL_Driver/Src/stm32h7xx_hal_rcc.c ****             return HAL_TIMEOUT;
 465:lib/Drivers/STM32H7xx_HAL_Driver/Src/stm32h7xx_hal_rcc.c ****           }
 466:lib/Drivers/STM32H7xx_HAL_Driver/Src/stm32h7xx_hal_rcc.c ****         }
 467:lib/Drivers/STM32H7xx_HAL_Driver/Src/stm32h7xx_hal_rcc.c ****       }
 468:lib/Drivers/STM32H7xx_HAL_Driver/Src/stm32h7xx_hal_rcc.c ****     }
 469:lib/Drivers/STM32H7xx_HAL_Driver/Src/stm32h7xx_hal_rcc.c ****   }
 470:lib/Drivers/STM32H7xx_HAL_Driver/Src/stm32h7xx_hal_rcc.c ****   /*----------------------------- HSI Configuration --------------------------*/
 471:lib/Drivers/STM32H7xx_HAL_Driver/Src/stm32h7xx_hal_rcc.c ****   if(((RCC_OscInitStruct->OscillatorType) & RCC_OSCILLATORTYPE_HSI) == RCC_OSCILLATORTYPE_HSI)
 490              		.loc 1 471 3 is_stmt 1 view .LVU152
ARM GAS  /tmp/ccpTiR3W.s 			page 18


 491              		.loc 1 471 25 is_stmt 0 view .LVU153
 492 005e 2368     		ldr	r3, [r4]
 493              		.loc 1 471 5 view .LVU154
 494 0060 13F0020F 		tst	r3, #2
 495 0064 00F0A180 		beq	.L49
 496              	.LBB3:
 472:lib/Drivers/STM32H7xx_HAL_Driver/Src/stm32h7xx_hal_rcc.c ****   {
 473:lib/Drivers/STM32H7xx_HAL_Driver/Src/stm32h7xx_hal_rcc.c ****     /* Check the parameters */
 474:lib/Drivers/STM32H7xx_HAL_Driver/Src/stm32h7xx_hal_rcc.c ****     assert_param(IS_RCC_HSI(RCC_OscInitStruct->HSIState));
 497              		.loc 1 474 5 is_stmt 1 view .LVU155
 475:lib/Drivers/STM32H7xx_HAL_Driver/Src/stm32h7xx_hal_rcc.c ****     assert_param(IS_RCC_HSICALIBRATION_VALUE(RCC_OscInitStruct->HSICalibrationValue));
 498              		.loc 1 475 5 view .LVU156
 476:lib/Drivers/STM32H7xx_HAL_Driver/Src/stm32h7xx_hal_rcc.c **** 
 477:lib/Drivers/STM32H7xx_HAL_Driver/Src/stm32h7xx_hal_rcc.c ****     /* When the HSI is used as system clock it will not be disabled */
 478:lib/Drivers/STM32H7xx_HAL_Driver/Src/stm32h7xx_hal_rcc.c ****     const uint32_t temp_sysclksrc = __HAL_RCC_GET_SYSCLK_SOURCE();
 499              		.loc 1 478 5 view .LVU157
 500              		.loc 1 478 37 is_stmt 0 view .LVU158
 501 0068 7E4A     		ldr	r2, .L163
 502 006a 1369     		ldr	r3, [r2, #16]
 503              	.LVL37:
 479:lib/Drivers/STM32H7xx_HAL_Driver/Src/stm32h7xx_hal_rcc.c ****     const uint32_t temp_pllckselr = RCC->PLLCKSELR;
 504              		.loc 1 479 5 is_stmt 1 view .LVU159
 505              		.loc 1 479 20 is_stmt 0 view .LVU160
 506 006c 926A     		ldr	r2, [r2, #40]
 507              	.LVL38:
 480:lib/Drivers/STM32H7xx_HAL_Driver/Src/stm32h7xx_hal_rcc.c ****     if((temp_sysclksrc == RCC_CFGR_SWS_HSI) || ((temp_sysclksrc == RCC_CFGR_SWS_PLL1) && ((temp_pll
 508              		.loc 1 480 5 is_stmt 1 view .LVU161
 509              		.loc 1 480 7 is_stmt 0 view .LVU162
 510 006e 13F03803 		ands	r3, r3, #56
 511              	.LVL39:
 512              		.loc 1 480 7 view .LVU163
 513 0072 5AD0     		beq	.L50
 514              		.loc 1 480 45 discriminator 1 view .LVU164
 515 0074 182B     		cmp	r3, #24
 516 0076 55D0     		beq	.L145
 517              	.L51:
 481:lib/Drivers/STM32H7xx_HAL_Driver/Src/stm32h7xx_hal_rcc.c ****     {
 482:lib/Drivers/STM32H7xx_HAL_Driver/Src/stm32h7xx_hal_rcc.c ****       /* When HSI is used as system clock it will not be disabled */
 483:lib/Drivers/STM32H7xx_HAL_Driver/Src/stm32h7xx_hal_rcc.c ****       if((__HAL_RCC_GET_FLAG(RCC_FLAG_HSIRDY) != 0U) && (RCC_OscInitStruct->HSIState == RCC_HSI_OFF
 484:lib/Drivers/STM32H7xx_HAL_Driver/Src/stm32h7xx_hal_rcc.c ****       {
 485:lib/Drivers/STM32H7xx_HAL_Driver/Src/stm32h7xx_hal_rcc.c ****         return HAL_ERROR;
 486:lib/Drivers/STM32H7xx_HAL_Driver/Src/stm32h7xx_hal_rcc.c ****       }
 487:lib/Drivers/STM32H7xx_HAL_Driver/Src/stm32h7xx_hal_rcc.c ****       /* Otherwise, only HSI division and calibration are allowed */
 488:lib/Drivers/STM32H7xx_HAL_Driver/Src/stm32h7xx_hal_rcc.c ****       else
 489:lib/Drivers/STM32H7xx_HAL_Driver/Src/stm32h7xx_hal_rcc.c ****       {
 490:lib/Drivers/STM32H7xx_HAL_Driver/Src/stm32h7xx_hal_rcc.c ****           /* Enable the Internal High Speed oscillator (HSI, HSIDIV2, HSIDIV4, or HSIDIV8) */
 491:lib/Drivers/STM32H7xx_HAL_Driver/Src/stm32h7xx_hal_rcc.c ****           __HAL_RCC_HSI_CONFIG(RCC_OscInitStruct->HSIState);
 492:lib/Drivers/STM32H7xx_HAL_Driver/Src/stm32h7xx_hal_rcc.c **** 
 493:lib/Drivers/STM32H7xx_HAL_Driver/Src/stm32h7xx_hal_rcc.c ****           /* Get Start Tick*/
 494:lib/Drivers/STM32H7xx_HAL_Driver/Src/stm32h7xx_hal_rcc.c ****           tickstart = HAL_GetTick();
 495:lib/Drivers/STM32H7xx_HAL_Driver/Src/stm32h7xx_hal_rcc.c **** 
 496:lib/Drivers/STM32H7xx_HAL_Driver/Src/stm32h7xx_hal_rcc.c ****           /* Wait till HSI is ready */
 497:lib/Drivers/STM32H7xx_HAL_Driver/Src/stm32h7xx_hal_rcc.c ****           while(__HAL_RCC_GET_FLAG(RCC_FLAG_HSIRDY) == 0U)
 498:lib/Drivers/STM32H7xx_HAL_Driver/Src/stm32h7xx_hal_rcc.c ****           {
 499:lib/Drivers/STM32H7xx_HAL_Driver/Src/stm32h7xx_hal_rcc.c ****             if((uint32_t) (HAL_GetTick() - tickstart ) > HSI_TIMEOUT_VALUE)
 500:lib/Drivers/STM32H7xx_HAL_Driver/Src/stm32h7xx_hal_rcc.c ****             {
 501:lib/Drivers/STM32H7xx_HAL_Driver/Src/stm32h7xx_hal_rcc.c ****               return HAL_TIMEOUT;
ARM GAS  /tmp/ccpTiR3W.s 			page 19


 502:lib/Drivers/STM32H7xx_HAL_Driver/Src/stm32h7xx_hal_rcc.c ****             }
 503:lib/Drivers/STM32H7xx_HAL_Driver/Src/stm32h7xx_hal_rcc.c ****           }
 504:lib/Drivers/STM32H7xx_HAL_Driver/Src/stm32h7xx_hal_rcc.c ****         /* Adjusts the Internal High Speed oscillator (HSI) calibration value.*/
 505:lib/Drivers/STM32H7xx_HAL_Driver/Src/stm32h7xx_hal_rcc.c ****         __HAL_RCC_HSI_CALIBRATIONVALUE_ADJUST(RCC_OscInitStruct->HSICalibrationValue);
 506:lib/Drivers/STM32H7xx_HAL_Driver/Src/stm32h7xx_hal_rcc.c ****       }
 507:lib/Drivers/STM32H7xx_HAL_Driver/Src/stm32h7xx_hal_rcc.c ****     }
 508:lib/Drivers/STM32H7xx_HAL_Driver/Src/stm32h7xx_hal_rcc.c **** 
 509:lib/Drivers/STM32H7xx_HAL_Driver/Src/stm32h7xx_hal_rcc.c ****     else
 510:lib/Drivers/STM32H7xx_HAL_Driver/Src/stm32h7xx_hal_rcc.c ****     {
 511:lib/Drivers/STM32H7xx_HAL_Driver/Src/stm32h7xx_hal_rcc.c ****       /* Check the HSI State */
 512:lib/Drivers/STM32H7xx_HAL_Driver/Src/stm32h7xx_hal_rcc.c ****       if((RCC_OscInitStruct->HSIState)!= RCC_HSI_OFF)
 518              		.loc 1 512 7 is_stmt 1 view .LVU165
 519              		.loc 1 512 28 is_stmt 0 view .LVU166
 520 0078 E368     		ldr	r3, [r4, #12]
 521              	.LVL40:
 522              		.loc 1 512 9 view .LVU167
 523 007a 002B     		cmp	r3, #0
 524 007c 00F0DE80 		beq	.L57
 513:lib/Drivers/STM32H7xx_HAL_Driver/Src/stm32h7xx_hal_rcc.c ****       {
 514:lib/Drivers/STM32H7xx_HAL_Driver/Src/stm32h7xx_hal_rcc.c ****      /* Enable the Internal High Speed oscillator (HSI, HSIDIV2,HSIDIV4, or HSIDIV8) */
 515:lib/Drivers/STM32H7xx_HAL_Driver/Src/stm32h7xx_hal_rcc.c ****         __HAL_RCC_HSI_CONFIG(RCC_OscInitStruct->HSIState);
 525              		.loc 1 515 9 is_stmt 1 view .LVU168
 526 0080 7849     		ldr	r1, .L163
 527 0082 0A68     		ldr	r2, [r1]
 528              	.LVL41:
 529              		.loc 1 515 9 is_stmt 0 view .LVU169
 530 0084 22F01902 		bic	r2, r2, #25
 531 0088 1343     		orrs	r3, r3, r2
 532 008a 0B60     		str	r3, [r1]
 516:lib/Drivers/STM32H7xx_HAL_Driver/Src/stm32h7xx_hal_rcc.c **** 
 517:lib/Drivers/STM32H7xx_HAL_Driver/Src/stm32h7xx_hal_rcc.c ****         /* Get Start Tick*/
 518:lib/Drivers/STM32H7xx_HAL_Driver/Src/stm32h7xx_hal_rcc.c ****         tickstart = HAL_GetTick();
 533              		.loc 1 518 9 is_stmt 1 view .LVU170
 534              		.loc 1 518 21 is_stmt 0 view .LVU171
 535 008c FFF7FEFF 		bl	HAL_GetTick
 536              	.LVL42:
 537 0090 0546     		mov	r5, r0
 538              	.LVL43:
 519:lib/Drivers/STM32H7xx_HAL_Driver/Src/stm32h7xx_hal_rcc.c **** 
 520:lib/Drivers/STM32H7xx_HAL_Driver/Src/stm32h7xx_hal_rcc.c ****         /* Wait till HSI is ready */
 521:lib/Drivers/STM32H7xx_HAL_Driver/Src/stm32h7xx_hal_rcc.c ****         while(__HAL_RCC_GET_FLAG(RCC_FLAG_HSIRDY) == 0U)
 539              		.loc 1 521 9 is_stmt 1 view .LVU172
 540              	.L58:
 541              		.loc 1 521 51 view .LVU173
 542              		.loc 1 521 15 is_stmt 0 view .LVU174
 543 0092 744B     		ldr	r3, .L163
 544 0094 1B68     		ldr	r3, [r3]
 545              		.loc 1 521 51 view .LVU175
 546 0096 13F0040F 		tst	r3, #4
 547 009a 40F0AD80 		bne	.L146
 522:lib/Drivers/STM32H7xx_HAL_Driver/Src/stm32h7xx_hal_rcc.c ****         {
 523:lib/Drivers/STM32H7xx_HAL_Driver/Src/stm32h7xx_hal_rcc.c ****           if((HAL_GetTick() - tickstart ) > HSI_TIMEOUT_VALUE)
 548              		.loc 1 523 11 is_stmt 1 view .LVU176
 549              		.loc 1 523 15 is_stmt 0 view .LVU177
 550 009e FFF7FEFF 		bl	HAL_GetTick
 551              	.LVL44:
 552              		.loc 1 523 29 view .LVU178
ARM GAS  /tmp/ccpTiR3W.s 			page 20


 553 00a2 401B     		subs	r0, r0, r5
 554              		.loc 1 523 13 view .LVU179
 555 00a4 0228     		cmp	r0, #2
 556 00a6 F4D9     		bls	.L58
 524:lib/Drivers/STM32H7xx_HAL_Driver/Src/stm32h7xx_hal_rcc.c ****           {
 525:lib/Drivers/STM32H7xx_HAL_Driver/Src/stm32h7xx_hal_rcc.c ****             return HAL_TIMEOUT;
 557              		.loc 1 525 20 view .LVU180
 558 00a8 0320     		movs	r0, #3
 559 00aa CDE2     		b	.L36
 560              	.LVL45:
 561              	.L143:
 562              		.loc 1 525 20 view .LVU181
 563              	.LBE3:
 564              	.LBB4:
 437:lib/Drivers/STM32H7xx_HAL_Driver/Src/stm32h7xx_hal_rcc.c **** 
 565              		.loc 1 437 7 is_stmt 1 discriminator 1 view .LVU182
 566 00ac 6D4A     		ldr	r2, .L163
 567 00ae 1368     		ldr	r3, [r2]
 568 00b0 43F48033 		orr	r3, r3, #65536
 569 00b4 1360     		str	r3, [r2]
 570              	.L41:
 437:lib/Drivers/STM32H7xx_HAL_Driver/Src/stm32h7xx_hal_rcc.c **** 
 571              		.loc 1 437 7 discriminator 10 view .LVU183
 440:lib/Drivers/STM32H7xx_HAL_Driver/Src/stm32h7xx_hal_rcc.c ****       {
 572              		.loc 1 440 7 discriminator 10 view .LVU184
 440:lib/Drivers/STM32H7xx_HAL_Driver/Src/stm32h7xx_hal_rcc.c ****       {
 573              		.loc 1 440 27 is_stmt 0 discriminator 10 view .LVU185
 574 00b6 6368     		ldr	r3, [r4, #4]
 440:lib/Drivers/STM32H7xx_HAL_Driver/Src/stm32h7xx_hal_rcc.c ****       {
 575              		.loc 1 440 9 discriminator 10 view .LVU186
 576 00b8 2BB3     		cbz	r3, .L44
 443:lib/Drivers/STM32H7xx_HAL_Driver/Src/stm32h7xx_hal_rcc.c **** 
 577              		.loc 1 443 9 is_stmt 1 view .LVU187
 443:lib/Drivers/STM32H7xx_HAL_Driver/Src/stm32h7xx_hal_rcc.c **** 
 578              		.loc 1 443 21 is_stmt 0 view .LVU188
 579 00ba FFF7FEFF 		bl	HAL_GetTick
 580              	.LVL46:
 443:lib/Drivers/STM32H7xx_HAL_Driver/Src/stm32h7xx_hal_rcc.c **** 
 581              		.loc 1 443 21 view .LVU189
 582 00be 0546     		mov	r5, r0
 583              	.LVL47:
 446:lib/Drivers/STM32H7xx_HAL_Driver/Src/stm32h7xx_hal_rcc.c ****         {
 584              		.loc 1 446 9 is_stmt 1 view .LVU190
 585              	.L45:
 446:lib/Drivers/STM32H7xx_HAL_Driver/Src/stm32h7xx_hal_rcc.c ****         {
 586              		.loc 1 446 51 view .LVU191
 446:lib/Drivers/STM32H7xx_HAL_Driver/Src/stm32h7xx_hal_rcc.c ****         {
 587              		.loc 1 446 15 is_stmt 0 view .LVU192
 588 00c0 684B     		ldr	r3, .L163
 589 00c2 1B68     		ldr	r3, [r3]
 446:lib/Drivers/STM32H7xx_HAL_Driver/Src/stm32h7xx_hal_rcc.c ****         {
 590              		.loc 1 446 51 view .LVU193
 591 00c4 13F4003F 		tst	r3, #131072
 592 00c8 C9D1     		bne	.L37
 448:lib/Drivers/STM32H7xx_HAL_Driver/Src/stm32h7xx_hal_rcc.c ****           {
 593              		.loc 1 448 11 is_stmt 1 view .LVU194
 448:lib/Drivers/STM32H7xx_HAL_Driver/Src/stm32h7xx_hal_rcc.c ****           {
ARM GAS  /tmp/ccpTiR3W.s 			page 21


 594              		.loc 1 448 26 is_stmt 0 view .LVU195
 595 00ca FFF7FEFF 		bl	HAL_GetTick
 596              	.LVL48:
 448:lib/Drivers/STM32H7xx_HAL_Driver/Src/stm32h7xx_hal_rcc.c ****           {
 597              		.loc 1 448 40 view .LVU196
 598 00ce 401B     		subs	r0, r0, r5
 448:lib/Drivers/STM32H7xx_HAL_Driver/Src/stm32h7xx_hal_rcc.c ****           {
 599              		.loc 1 448 13 view .LVU197
 600 00d0 6428     		cmp	r0, #100
 601 00d2 F5D9     		bls	.L45
 450:lib/Drivers/STM32H7xx_HAL_Driver/Src/stm32h7xx_hal_rcc.c ****           }
 602              		.loc 1 450 20 view .LVU198
 603 00d4 0320     		movs	r0, #3
 604 00d6 B7E2     		b	.L36
 605              	.LVL49:
 606              	.L42:
 437:lib/Drivers/STM32H7xx_HAL_Driver/Src/stm32h7xx_hal_rcc.c **** 
 607              		.loc 1 437 7 is_stmt 1 discriminator 5 view .LVU199
 608 00d8 B3F5A02F 		cmp	r3, #327680
 609 00dc 09D0     		beq	.L147
 437:lib/Drivers/STM32H7xx_HAL_Driver/Src/stm32h7xx_hal_rcc.c **** 
 610              		.loc 1 437 7 discriminator 8 view .LVU200
 611 00de 614B     		ldr	r3, .L163
 612 00e0 1A68     		ldr	r2, [r3]
 613 00e2 22F48032 		bic	r2, r2, #65536
 614 00e6 1A60     		str	r2, [r3]
 437:lib/Drivers/STM32H7xx_HAL_Driver/Src/stm32h7xx_hal_rcc.c **** 
 615              		.loc 1 437 7 discriminator 8 view .LVU201
 616 00e8 1A68     		ldr	r2, [r3]
 617 00ea 22F48022 		bic	r2, r2, #262144
 618 00ee 1A60     		str	r2, [r3]
 619 00f0 E1E7     		b	.L41
 620              	.L147:
 437:lib/Drivers/STM32H7xx_HAL_Driver/Src/stm32h7xx_hal_rcc.c **** 
 621              		.loc 1 437 7 discriminator 7 view .LVU202
 622 00f2 5C4B     		ldr	r3, .L163
 623 00f4 1A68     		ldr	r2, [r3]
 624 00f6 42F48022 		orr	r2, r2, #262144
 625 00fa 1A60     		str	r2, [r3]
 437:lib/Drivers/STM32H7xx_HAL_Driver/Src/stm32h7xx_hal_rcc.c **** 
 626              		.loc 1 437 7 discriminator 7 view .LVU203
 627 00fc 1A68     		ldr	r2, [r3]
 628 00fe 42F48032 		orr	r2, r2, #65536
 629 0102 1A60     		str	r2, [r3]
 630 0104 D7E7     		b	.L41
 631              	.L44:
 457:lib/Drivers/STM32H7xx_HAL_Driver/Src/stm32h7xx_hal_rcc.c **** 
 632              		.loc 1 457 9 view .LVU204
 457:lib/Drivers/STM32H7xx_HAL_Driver/Src/stm32h7xx_hal_rcc.c **** 
 633              		.loc 1 457 21 is_stmt 0 view .LVU205
 634 0106 FFF7FEFF 		bl	HAL_GetTick
 635              	.LVL50:
 457:lib/Drivers/STM32H7xx_HAL_Driver/Src/stm32h7xx_hal_rcc.c **** 
 636              		.loc 1 457 21 view .LVU206
 637 010a 0546     		mov	r5, r0
 638              	.LVL51:
 460:lib/Drivers/STM32H7xx_HAL_Driver/Src/stm32h7xx_hal_rcc.c ****         {
ARM GAS  /tmp/ccpTiR3W.s 			page 22


 639              		.loc 1 460 9 is_stmt 1 view .LVU207
 640              	.L47:
 460:lib/Drivers/STM32H7xx_HAL_Driver/Src/stm32h7xx_hal_rcc.c ****         {
 641              		.loc 1 460 51 view .LVU208
 460:lib/Drivers/STM32H7xx_HAL_Driver/Src/stm32h7xx_hal_rcc.c ****         {
 642              		.loc 1 460 15 is_stmt 0 view .LVU209
 643 010c 554B     		ldr	r3, .L163
 644 010e 1B68     		ldr	r3, [r3]
 460:lib/Drivers/STM32H7xx_HAL_Driver/Src/stm32h7xx_hal_rcc.c ****         {
 645              		.loc 1 460 51 view .LVU210
 646 0110 13F4003F 		tst	r3, #131072
 647 0114 A3D0     		beq	.L37
 462:lib/Drivers/STM32H7xx_HAL_Driver/Src/stm32h7xx_hal_rcc.c ****           {
 648              		.loc 1 462 11 is_stmt 1 view .LVU211
 462:lib/Drivers/STM32H7xx_HAL_Driver/Src/stm32h7xx_hal_rcc.c ****           {
 649              		.loc 1 462 26 is_stmt 0 view .LVU212
 650 0116 FFF7FEFF 		bl	HAL_GetTick
 651              	.LVL52:
 462:lib/Drivers/STM32H7xx_HAL_Driver/Src/stm32h7xx_hal_rcc.c ****           {
 652              		.loc 1 462 40 view .LVU213
 653 011a 401B     		subs	r0, r0, r5
 462:lib/Drivers/STM32H7xx_HAL_Driver/Src/stm32h7xx_hal_rcc.c ****           {
 654              		.loc 1 462 13 view .LVU214
 655 011c 6428     		cmp	r0, #100
 656 011e F5D9     		bls	.L47
 464:lib/Drivers/STM32H7xx_HAL_Driver/Src/stm32h7xx_hal_rcc.c ****           }
 657              		.loc 1 464 20 view .LVU215
 658 0120 0320     		movs	r0, #3
 659 0122 91E2     		b	.L36
 660              	.LVL53:
 661              	.L145:
 464:lib/Drivers/STM32H7xx_HAL_Driver/Src/stm32h7xx_hal_rcc.c ****           }
 662              		.loc 1 464 20 view .LVU216
 663              	.LBE4:
 664              	.LBB5:
 480:lib/Drivers/STM32H7xx_HAL_Driver/Src/stm32h7xx_hal_rcc.c ****     {
 665              		.loc 1 480 87 discriminator 2 view .LVU217
 666 0124 12F0030F 		tst	r2, #3
 667 0128 A6D1     		bne	.L51
 668              	.L50:
 483:lib/Drivers/STM32H7xx_HAL_Driver/Src/stm32h7xx_hal_rcc.c ****       {
 669              		.loc 1 483 7 is_stmt 1 view .LVU218
 483:lib/Drivers/STM32H7xx_HAL_Driver/Src/stm32h7xx_hal_rcc.c ****       {
 670              		.loc 1 483 11 is_stmt 0 view .LVU219
 671 012a 4E4B     		ldr	r3, .L163
 672              	.LVL54:
 483:lib/Drivers/STM32H7xx_HAL_Driver/Src/stm32h7xx_hal_rcc.c ****       {
 673              		.loc 1 483 11 view .LVU220
 674 012c 1B68     		ldr	r3, [r3]
 483:lib/Drivers/STM32H7xx_HAL_Driver/Src/stm32h7xx_hal_rcc.c ****       {
 675              		.loc 1 483 9 view .LVU221
 676 012e 13F0040F 		tst	r3, #4
 677 0132 03D0     		beq	.L52
 483:lib/Drivers/STM32H7xx_HAL_Driver/Src/stm32h7xx_hal_rcc.c ****       {
 678              		.loc 1 483 75 discriminator 1 view .LVU222
 679 0134 E368     		ldr	r3, [r4, #12]
 483:lib/Drivers/STM32H7xx_HAL_Driver/Src/stm32h7xx_hal_rcc.c ****       {
ARM GAS  /tmp/ccpTiR3W.s 			page 23


 680              		.loc 1 483 54 discriminator 1 view .LVU223
 681 0136 002B     		cmp	r3, #0
 682 0138 00F08182 		beq	.L113
 683              	.L52:
 491:lib/Drivers/STM32H7xx_HAL_Driver/Src/stm32h7xx_hal_rcc.c **** 
 684              		.loc 1 491 11 is_stmt 1 view .LVU224
 685 013c 494A     		ldr	r2, .L163
 686              	.LVL55:
 491:lib/Drivers/STM32H7xx_HAL_Driver/Src/stm32h7xx_hal_rcc.c **** 
 687              		.loc 1 491 11 is_stmt 0 view .LVU225
 688 013e 1368     		ldr	r3, [r2]
 689 0140 23F01903 		bic	r3, r3, #25
 690 0144 E168     		ldr	r1, [r4, #12]
 691 0146 0B43     		orrs	r3, r3, r1
 692 0148 1360     		str	r3, [r2]
 494:lib/Drivers/STM32H7xx_HAL_Driver/Src/stm32h7xx_hal_rcc.c **** 
 693              		.loc 1 494 11 is_stmt 1 view .LVU226
 494:lib/Drivers/STM32H7xx_HAL_Driver/Src/stm32h7xx_hal_rcc.c **** 
 694              		.loc 1 494 23 is_stmt 0 view .LVU227
 695 014a FFF7FEFF 		bl	HAL_GetTick
 696              	.LVL56:
 697 014e 0546     		mov	r5, r0
 698              	.LVL57:
 497:lib/Drivers/STM32H7xx_HAL_Driver/Src/stm32h7xx_hal_rcc.c ****           {
 699              		.loc 1 497 11 is_stmt 1 view .LVU228
 700              	.L53:
 497:lib/Drivers/STM32H7xx_HAL_Driver/Src/stm32h7xx_hal_rcc.c ****           {
 701              		.loc 1 497 53 view .LVU229
 497:lib/Drivers/STM32H7xx_HAL_Driver/Src/stm32h7xx_hal_rcc.c ****           {
 702              		.loc 1 497 17 is_stmt 0 view .LVU230
 703 0150 444B     		ldr	r3, .L163
 704 0152 1B68     		ldr	r3, [r3]
 497:lib/Drivers/STM32H7xx_HAL_Driver/Src/stm32h7xx_hal_rcc.c ****           {
 705              		.loc 1 497 53 view .LVU231
 706 0154 13F0040F 		tst	r3, #4
 707 0158 06D1     		bne	.L148
 499:lib/Drivers/STM32H7xx_HAL_Driver/Src/stm32h7xx_hal_rcc.c ****             {
 708              		.loc 1 499 13 is_stmt 1 view .LVU232
 499:lib/Drivers/STM32H7xx_HAL_Driver/Src/stm32h7xx_hal_rcc.c ****             {
 709              		.loc 1 499 28 is_stmt 0 view .LVU233
 710 015a FFF7FEFF 		bl	HAL_GetTick
 711              	.LVL58:
 499:lib/Drivers/STM32H7xx_HAL_Driver/Src/stm32h7xx_hal_rcc.c ****             {
 712              		.loc 1 499 42 view .LVU234
 713 015e 401B     		subs	r0, r0, r5
 499:lib/Drivers/STM32H7xx_HAL_Driver/Src/stm32h7xx_hal_rcc.c ****             {
 714              		.loc 1 499 15 view .LVU235
 715 0160 0228     		cmp	r0, #2
 716 0162 F5D9     		bls	.L53
 501:lib/Drivers/STM32H7xx_HAL_Driver/Src/stm32h7xx_hal_rcc.c ****             }
 717              		.loc 1 501 22 view .LVU236
 718 0164 0320     		movs	r0, #3
 719 0166 6FE2     		b	.L36
 720              	.L148:
 505:lib/Drivers/STM32H7xx_HAL_Driver/Src/stm32h7xx_hal_rcc.c ****       }
 721              		.loc 1 505 9 is_stmt 1 view .LVU237
 505:lib/Drivers/STM32H7xx_HAL_Driver/Src/stm32h7xx_hal_rcc.c ****       }
ARM GAS  /tmp/ccpTiR3W.s 			page 24


 722              		.loc 1 505 9 view .LVU238
 723 0168 FFF7FEFF 		bl	HAL_GetREVID
 724              	.LVL59:
 725 016c 41F20303 		movw	r3, #4099
 726 0170 9842     		cmp	r0, r3
 727 0172 12D8     		bhi	.L55
 505:lib/Drivers/STM32H7xx_HAL_Driver/Src/stm32h7xx_hal_rcc.c ****       }
 728              		.loc 1 505 9 discriminator 1 view .LVU239
 729 0174 2269     		ldr	r2, [r4, #16]
 730 0176 402A     		cmp	r2, #64
 731 0178 07D0     		beq	.L149
 505:lib/Drivers/STM32H7xx_HAL_Driver/Src/stm32h7xx_hal_rcc.c ****       }
 732              		.loc 1 505 9 discriminator 4 view .LVU240
 733 017a 3A49     		ldr	r1, .L163
 734 017c 4B68     		ldr	r3, [r1, #4]
 735 017e 23F47C33 		bic	r3, r3, #258048
 736 0182 43EA0233 		orr	r3, r3, r2, lsl #12
 737 0186 4B60     		str	r3, [r1, #4]
 738 0188 0FE0     		b	.L49
 739              	.L149:
 505:lib/Drivers/STM32H7xx_HAL_Driver/Src/stm32h7xx_hal_rcc.c ****       }
 740              		.loc 1 505 9 discriminator 3 view .LVU241
 741 018a 364A     		ldr	r2, .L163
 742 018c 5368     		ldr	r3, [r2, #4]
 743 018e 23F47C33 		bic	r3, r3, #258048
 744 0192 43F40033 		orr	r3, r3, #131072
 745 0196 5360     		str	r3, [r2, #4]
 746 0198 07E0     		b	.L49
 747              	.L55:
 505:lib/Drivers/STM32H7xx_HAL_Driver/Src/stm32h7xx_hal_rcc.c ****       }
 748              		.loc 1 505 9 discriminator 2 view .LVU242
 749 019a 324A     		ldr	r2, .L163
 750 019c 5368     		ldr	r3, [r2, #4]
 751 019e 23F0FE43 		bic	r3, r3, #2130706432
 752 01a2 2169     		ldr	r1, [r4, #16]
 753 01a4 43EA0163 		orr	r3, r3, r1, lsl #24
 754 01a8 5360     		str	r3, [r2, #4]
 755              	.LVL60:
 756              	.L49:
 505:lib/Drivers/STM32H7xx_HAL_Driver/Src/stm32h7xx_hal_rcc.c ****       }
 757              		.loc 1 505 9 is_stmt 0 discriminator 2 view .LVU243
 758              	.LBE5:
 526:lib/Drivers/STM32H7xx_HAL_Driver/Src/stm32h7xx_hal_rcc.c ****           }
 527:lib/Drivers/STM32H7xx_HAL_Driver/Src/stm32h7xx_hal_rcc.c ****         }
 528:lib/Drivers/STM32H7xx_HAL_Driver/Src/stm32h7xx_hal_rcc.c **** 
 529:lib/Drivers/STM32H7xx_HAL_Driver/Src/stm32h7xx_hal_rcc.c ****         /* Adjusts the Internal High Speed oscillator (HSI) calibration value.*/
 530:lib/Drivers/STM32H7xx_HAL_Driver/Src/stm32h7xx_hal_rcc.c ****         __HAL_RCC_HSI_CALIBRATIONVALUE_ADJUST(RCC_OscInitStruct->HSICalibrationValue);
 531:lib/Drivers/STM32H7xx_HAL_Driver/Src/stm32h7xx_hal_rcc.c ****       }
 532:lib/Drivers/STM32H7xx_HAL_Driver/Src/stm32h7xx_hal_rcc.c ****       else
 533:lib/Drivers/STM32H7xx_HAL_Driver/Src/stm32h7xx_hal_rcc.c ****       {
 534:lib/Drivers/STM32H7xx_HAL_Driver/Src/stm32h7xx_hal_rcc.c ****         /* Disable the Internal High Speed oscillator (HSI). */
 535:lib/Drivers/STM32H7xx_HAL_Driver/Src/stm32h7xx_hal_rcc.c ****         __HAL_RCC_HSI_DISABLE();
 536:lib/Drivers/STM32H7xx_HAL_Driver/Src/stm32h7xx_hal_rcc.c **** 
 537:lib/Drivers/STM32H7xx_HAL_Driver/Src/stm32h7xx_hal_rcc.c ****         /* Get Start Tick*/
 538:lib/Drivers/STM32H7xx_HAL_Driver/Src/stm32h7xx_hal_rcc.c ****         tickstart = HAL_GetTick();
 539:lib/Drivers/STM32H7xx_HAL_Driver/Src/stm32h7xx_hal_rcc.c **** 
 540:lib/Drivers/STM32H7xx_HAL_Driver/Src/stm32h7xx_hal_rcc.c ****         /* Wait till HSI is disabled */
ARM GAS  /tmp/ccpTiR3W.s 			page 25


 541:lib/Drivers/STM32H7xx_HAL_Driver/Src/stm32h7xx_hal_rcc.c ****         while(__HAL_RCC_GET_FLAG(RCC_FLAG_HSIRDY) != 0U)
 542:lib/Drivers/STM32H7xx_HAL_Driver/Src/stm32h7xx_hal_rcc.c ****         {
 543:lib/Drivers/STM32H7xx_HAL_Driver/Src/stm32h7xx_hal_rcc.c ****           if((HAL_GetTick() - tickstart ) > HSI_TIMEOUT_VALUE)
 544:lib/Drivers/STM32H7xx_HAL_Driver/Src/stm32h7xx_hal_rcc.c ****           {
 545:lib/Drivers/STM32H7xx_HAL_Driver/Src/stm32h7xx_hal_rcc.c ****             return HAL_TIMEOUT;
 546:lib/Drivers/STM32H7xx_HAL_Driver/Src/stm32h7xx_hal_rcc.c ****           }
 547:lib/Drivers/STM32H7xx_HAL_Driver/Src/stm32h7xx_hal_rcc.c ****         }
 548:lib/Drivers/STM32H7xx_HAL_Driver/Src/stm32h7xx_hal_rcc.c ****       }
 549:lib/Drivers/STM32H7xx_HAL_Driver/Src/stm32h7xx_hal_rcc.c ****     }
 550:lib/Drivers/STM32H7xx_HAL_Driver/Src/stm32h7xx_hal_rcc.c ****   }
 551:lib/Drivers/STM32H7xx_HAL_Driver/Src/stm32h7xx_hal_rcc.c ****   /*----------------------------- CSI Configuration --------------------------*/
 552:lib/Drivers/STM32H7xx_HAL_Driver/Src/stm32h7xx_hal_rcc.c ****   if(((RCC_OscInitStruct->OscillatorType) & RCC_OSCILLATORTYPE_CSI) == RCC_OSCILLATORTYPE_CSI)
 759              		.loc 1 552 3 is_stmt 1 view .LVU244
 760              		.loc 1 552 25 is_stmt 0 view .LVU245
 761 01aa 2368     		ldr	r3, [r4]
 762              		.loc 1 552 5 view .LVU246
 763 01ac 13F0100F 		tst	r3, #16
 764 01b0 00F08880 		beq	.L64
 765              	.LBB6:
 553:lib/Drivers/STM32H7xx_HAL_Driver/Src/stm32h7xx_hal_rcc.c ****   {
 554:lib/Drivers/STM32H7xx_HAL_Driver/Src/stm32h7xx_hal_rcc.c ****     /* Check the parameters */
 555:lib/Drivers/STM32H7xx_HAL_Driver/Src/stm32h7xx_hal_rcc.c ****     assert_param(IS_RCC_CSI(RCC_OscInitStruct->CSIState));
 766              		.loc 1 555 5 is_stmt 1 view .LVU247
 556:lib/Drivers/STM32H7xx_HAL_Driver/Src/stm32h7xx_hal_rcc.c ****     assert_param(IS_RCC_CSICALIBRATION_VALUE(RCC_OscInitStruct->CSICalibrationValue));
 767              		.loc 1 556 5 view .LVU248
 557:lib/Drivers/STM32H7xx_HAL_Driver/Src/stm32h7xx_hal_rcc.c **** 
 558:lib/Drivers/STM32H7xx_HAL_Driver/Src/stm32h7xx_hal_rcc.c ****     /* When the CSI is used as system clock it will not disabled */
 559:lib/Drivers/STM32H7xx_HAL_Driver/Src/stm32h7xx_hal_rcc.c ****     const uint32_t temp_sysclksrc = __HAL_RCC_GET_SYSCLK_SOURCE();
 768              		.loc 1 559 5 view .LVU249
 769              		.loc 1 559 37 is_stmt 0 view .LVU250
 770 01b4 2B4A     		ldr	r2, .L163
 771 01b6 1369     		ldr	r3, [r2, #16]
 772              		.loc 1 559 20 view .LVU251
 773 01b8 03F03803 		and	r3, r3, #56
 774              	.LVL61:
 560:lib/Drivers/STM32H7xx_HAL_Driver/Src/stm32h7xx_hal_rcc.c ****     const uint32_t temp_pllckselr = RCC->PLLCKSELR;
 775              		.loc 1 560 5 is_stmt 1 view .LVU252
 776              		.loc 1 560 20 is_stmt 0 view .LVU253
 777 01bc 926A     		ldr	r2, [r2, #40]
 778              	.LVL62:
 561:lib/Drivers/STM32H7xx_HAL_Driver/Src/stm32h7xx_hal_rcc.c ****     if((temp_sysclksrc == RCC_CFGR_SWS_CSI) || ((temp_sysclksrc == RCC_CFGR_SWS_PLL1) && ((temp_pll
 779              		.loc 1 561 5 is_stmt 1 view .LVU254
 780              		.loc 1 561 7 is_stmt 0 view .LVU255
 781 01be 082B     		cmp	r3, #8
 782 01c0 56D0     		beq	.L65
 783              		.loc 1 561 45 discriminator 1 view .LVU256
 784 01c2 182B     		cmp	r3, #24
 785 01c4 50D0     		beq	.L150
 786              	.LVL63:
 787              	.L66:
 562:lib/Drivers/STM32H7xx_HAL_Driver/Src/stm32h7xx_hal_rcc.c ****     {
 563:lib/Drivers/STM32H7xx_HAL_Driver/Src/stm32h7xx_hal_rcc.c ****       /* When CSI is used as system clock it will not disabled */
 564:lib/Drivers/STM32H7xx_HAL_Driver/Src/stm32h7xx_hal_rcc.c ****       if((__HAL_RCC_GET_FLAG(RCC_FLAG_CSIRDY) != 0U) && (RCC_OscInitStruct->CSIState != RCC_CSI_ON)
 565:lib/Drivers/STM32H7xx_HAL_Driver/Src/stm32h7xx_hal_rcc.c ****       {
 566:lib/Drivers/STM32H7xx_HAL_Driver/Src/stm32h7xx_hal_rcc.c ****         return HAL_ERROR;
 567:lib/Drivers/STM32H7xx_HAL_Driver/Src/stm32h7xx_hal_rcc.c ****       }
 568:lib/Drivers/STM32H7xx_HAL_Driver/Src/stm32h7xx_hal_rcc.c ****       /* Otherwise, just the calibration is allowed */
ARM GAS  /tmp/ccpTiR3W.s 			page 26


 569:lib/Drivers/STM32H7xx_HAL_Driver/Src/stm32h7xx_hal_rcc.c ****       else
 570:lib/Drivers/STM32H7xx_HAL_Driver/Src/stm32h7xx_hal_rcc.c ****       {
 571:lib/Drivers/STM32H7xx_HAL_Driver/Src/stm32h7xx_hal_rcc.c ****         /* Adjusts the Internal High Speed oscillator (CSI) calibration value.*/
 572:lib/Drivers/STM32H7xx_HAL_Driver/Src/stm32h7xx_hal_rcc.c ****         __HAL_RCC_CSI_CALIBRATIONVALUE_ADJUST(RCC_OscInitStruct->CSICalibrationValue);
 573:lib/Drivers/STM32H7xx_HAL_Driver/Src/stm32h7xx_hal_rcc.c ****       }
 574:lib/Drivers/STM32H7xx_HAL_Driver/Src/stm32h7xx_hal_rcc.c ****     }
 575:lib/Drivers/STM32H7xx_HAL_Driver/Src/stm32h7xx_hal_rcc.c ****     else
 576:lib/Drivers/STM32H7xx_HAL_Driver/Src/stm32h7xx_hal_rcc.c ****     {
 577:lib/Drivers/STM32H7xx_HAL_Driver/Src/stm32h7xx_hal_rcc.c ****       /* Check the CSI State */
 578:lib/Drivers/STM32H7xx_HAL_Driver/Src/stm32h7xx_hal_rcc.c ****       if((RCC_OscInitStruct->CSIState)!= RCC_CSI_OFF)
 788              		.loc 1 578 7 is_stmt 1 view .LVU257
 789              		.loc 1 578 28 is_stmt 0 view .LVU258
 790 01c6 E369     		ldr	r3, [r4, #28]
 791              	.LVL64:
 792              		.loc 1 578 9 view .LVU259
 793 01c8 002B     		cmp	r3, #0
 794 01ca 00F0B880 		beq	.L70
 579:lib/Drivers/STM32H7xx_HAL_Driver/Src/stm32h7xx_hal_rcc.c ****       {
 580:lib/Drivers/STM32H7xx_HAL_Driver/Src/stm32h7xx_hal_rcc.c ****         /* Enable the Internal High Speed oscillator (CSI). */
 581:lib/Drivers/STM32H7xx_HAL_Driver/Src/stm32h7xx_hal_rcc.c ****         __HAL_RCC_CSI_ENABLE();
 795              		.loc 1 581 9 is_stmt 1 view .LVU260
 796 01ce 254A     		ldr	r2, .L163
 797 01d0 1368     		ldr	r3, [r2]
 798 01d2 43F08003 		orr	r3, r3, #128
 799 01d6 1360     		str	r3, [r2]
 582:lib/Drivers/STM32H7xx_HAL_Driver/Src/stm32h7xx_hal_rcc.c **** 
 583:lib/Drivers/STM32H7xx_HAL_Driver/Src/stm32h7xx_hal_rcc.c ****         /* Get Start Tick*/
 584:lib/Drivers/STM32H7xx_HAL_Driver/Src/stm32h7xx_hal_rcc.c ****         tickstart = HAL_GetTick();
 800              		.loc 1 584 9 view .LVU261
 801              		.loc 1 584 21 is_stmt 0 view .LVU262
 802 01d8 FFF7FEFF 		bl	HAL_GetTick
 803              	.LVL65:
 804 01dc 0546     		mov	r5, r0
 805              	.LVL66:
 585:lib/Drivers/STM32H7xx_HAL_Driver/Src/stm32h7xx_hal_rcc.c **** 
 586:lib/Drivers/STM32H7xx_HAL_Driver/Src/stm32h7xx_hal_rcc.c ****         /* Wait till CSI is ready */
 587:lib/Drivers/STM32H7xx_HAL_Driver/Src/stm32h7xx_hal_rcc.c ****         while(__HAL_RCC_GET_FLAG(RCC_FLAG_CSIRDY) == 0U)
 806              		.loc 1 587 9 is_stmt 1 view .LVU263
 807              	.L71:
 808              		.loc 1 587 51 view .LVU264
 809              		.loc 1 587 15 is_stmt 0 view .LVU265
 810 01de 214B     		ldr	r3, .L163
 811 01e0 1B68     		ldr	r3, [r3]
 812              		.loc 1 587 51 view .LVU266
 813 01e2 13F4807F 		tst	r3, #256
 814 01e6 40F08880 		bne	.L151
 588:lib/Drivers/STM32H7xx_HAL_Driver/Src/stm32h7xx_hal_rcc.c ****         {
 589:lib/Drivers/STM32H7xx_HAL_Driver/Src/stm32h7xx_hal_rcc.c ****           if((HAL_GetTick() - tickstart ) > CSI_TIMEOUT_VALUE)
 815              		.loc 1 589 11 is_stmt 1 view .LVU267
 816              		.loc 1 589 15 is_stmt 0 view .LVU268
 817 01ea FFF7FEFF 		bl	HAL_GetTick
 818              	.LVL67:
 819              		.loc 1 589 29 view .LVU269
 820 01ee 401B     		subs	r0, r0, r5
 821              		.loc 1 589 13 view .LVU270
 822 01f0 0228     		cmp	r0, #2
 823 01f2 F4D9     		bls	.L71
ARM GAS  /tmp/ccpTiR3W.s 			page 27


 590:lib/Drivers/STM32H7xx_HAL_Driver/Src/stm32h7xx_hal_rcc.c ****           {
 591:lib/Drivers/STM32H7xx_HAL_Driver/Src/stm32h7xx_hal_rcc.c ****             return HAL_TIMEOUT;
 824              		.loc 1 591 20 view .LVU271
 825 01f4 0320     		movs	r0, #3
 826 01f6 27E2     		b	.L36
 827              	.LVL68:
 828              	.L146:
 829              		.loc 1 591 20 view .LVU272
 830              	.LBE6:
 831              	.LBB7:
 530:lib/Drivers/STM32H7xx_HAL_Driver/Src/stm32h7xx_hal_rcc.c ****       }
 832              		.loc 1 530 9 is_stmt 1 view .LVU273
 530:lib/Drivers/STM32H7xx_HAL_Driver/Src/stm32h7xx_hal_rcc.c ****       }
 833              		.loc 1 530 9 view .LVU274
 834 01f8 FFF7FEFF 		bl	HAL_GetREVID
 835              	.LVL69:
 836 01fc 41F20303 		movw	r3, #4099
 837 0200 9842     		cmp	r0, r3
 838 0202 12D8     		bhi	.L60
 530:lib/Drivers/STM32H7xx_HAL_Driver/Src/stm32h7xx_hal_rcc.c ****       }
 839              		.loc 1 530 9 discriminator 1 view .LVU275
 840 0204 2269     		ldr	r2, [r4, #16]
 841 0206 402A     		cmp	r2, #64
 842 0208 07D0     		beq	.L152
 530:lib/Drivers/STM32H7xx_HAL_Driver/Src/stm32h7xx_hal_rcc.c ****       }
 843              		.loc 1 530 9 discriminator 4 view .LVU276
 844 020a 1649     		ldr	r1, .L163
 845 020c 4B68     		ldr	r3, [r1, #4]
 846 020e 23F47C33 		bic	r3, r3, #258048
 847 0212 43EA0233 		orr	r3, r3, r2, lsl #12
 848 0216 4B60     		str	r3, [r1, #4]
 849 0218 C7E7     		b	.L49
 850              	.L152:
 530:lib/Drivers/STM32H7xx_HAL_Driver/Src/stm32h7xx_hal_rcc.c ****       }
 851              		.loc 1 530 9 discriminator 3 view .LVU277
 852 021a 124A     		ldr	r2, .L163
 853 021c 5368     		ldr	r3, [r2, #4]
 854 021e 23F47C33 		bic	r3, r3, #258048
 855 0222 43F40033 		orr	r3, r3, #131072
 856 0226 5360     		str	r3, [r2, #4]
 857 0228 BFE7     		b	.L49
 858              	.L60:
 530:lib/Drivers/STM32H7xx_HAL_Driver/Src/stm32h7xx_hal_rcc.c ****       }
 859              		.loc 1 530 9 discriminator 2 view .LVU278
 860 022a 0E4A     		ldr	r2, .L163
 861 022c 5368     		ldr	r3, [r2, #4]
 862 022e 23F0FE43 		bic	r3, r3, #2130706432
 863 0232 2169     		ldr	r1, [r4, #16]
 864 0234 43EA0163 		orr	r3, r3, r1, lsl #24
 865 0238 5360     		str	r3, [r2, #4]
 866 023a B6E7     		b	.L49
 867              	.LVL70:
 868              	.L57:
 535:lib/Drivers/STM32H7xx_HAL_Driver/Src/stm32h7xx_hal_rcc.c **** 
 869              		.loc 1 535 9 view .LVU279
 870 023c 094A     		ldr	r2, .L163
 871              	.LVL71:
ARM GAS  /tmp/ccpTiR3W.s 			page 28


 535:lib/Drivers/STM32H7xx_HAL_Driver/Src/stm32h7xx_hal_rcc.c **** 
 872              		.loc 1 535 9 is_stmt 0 view .LVU280
 873 023e 1368     		ldr	r3, [r2]
 874 0240 23F00103 		bic	r3, r3, #1
 875 0244 1360     		str	r3, [r2]
 538:lib/Drivers/STM32H7xx_HAL_Driver/Src/stm32h7xx_hal_rcc.c **** 
 876              		.loc 1 538 9 is_stmt 1 view .LVU281
 538:lib/Drivers/STM32H7xx_HAL_Driver/Src/stm32h7xx_hal_rcc.c **** 
 877              		.loc 1 538 21 is_stmt 0 view .LVU282
 878 0246 FFF7FEFF 		bl	HAL_GetTick
 879              	.LVL72:
 880 024a 0546     		mov	r5, r0
 881              	.LVL73:
 541:lib/Drivers/STM32H7xx_HAL_Driver/Src/stm32h7xx_hal_rcc.c ****         {
 882              		.loc 1 541 9 is_stmt 1 view .LVU283
 883              	.L62:
 541:lib/Drivers/STM32H7xx_HAL_Driver/Src/stm32h7xx_hal_rcc.c ****         {
 884              		.loc 1 541 51 view .LVU284
 541:lib/Drivers/STM32H7xx_HAL_Driver/Src/stm32h7xx_hal_rcc.c ****         {
 885              		.loc 1 541 15 is_stmt 0 view .LVU285
 886 024c 054B     		ldr	r3, .L163
 887 024e 1B68     		ldr	r3, [r3]
 541:lib/Drivers/STM32H7xx_HAL_Driver/Src/stm32h7xx_hal_rcc.c ****         {
 888              		.loc 1 541 51 view .LVU286
 889 0250 13F0040F 		tst	r3, #4
 890 0254 A9D0     		beq	.L49
 543:lib/Drivers/STM32H7xx_HAL_Driver/Src/stm32h7xx_hal_rcc.c ****           {
 891              		.loc 1 543 11 is_stmt 1 view .LVU287
 543:lib/Drivers/STM32H7xx_HAL_Driver/Src/stm32h7xx_hal_rcc.c ****           {
 892              		.loc 1 543 15 is_stmt 0 view .LVU288
 893 0256 FFF7FEFF 		bl	HAL_GetTick
 894              	.LVL74:
 543:lib/Drivers/STM32H7xx_HAL_Driver/Src/stm32h7xx_hal_rcc.c ****           {
 895              		.loc 1 543 29 view .LVU289
 896 025a 401B     		subs	r0, r0, r5
 543:lib/Drivers/STM32H7xx_HAL_Driver/Src/stm32h7xx_hal_rcc.c ****           {
 897              		.loc 1 543 13 view .LVU290
 898 025c 0228     		cmp	r0, #2
 899 025e F5D9     		bls	.L62
 545:lib/Drivers/STM32H7xx_HAL_Driver/Src/stm32h7xx_hal_rcc.c ****           }
 900              		.loc 1 545 20 view .LVU291
 901 0260 0320     		movs	r0, #3
 902 0262 F1E1     		b	.L36
 903              	.L164:
 904              		.align	2
 905              	.L163:
 906 0264 00440258 		.word	1476543488
 907              	.LVL75:
 908              	.L150:
 545:lib/Drivers/STM32H7xx_HAL_Driver/Src/stm32h7xx_hal_rcc.c ****           }
 909              		.loc 1 545 20 view .LVU292
 910              	.LBE7:
 911              	.LBB8:
 561:lib/Drivers/STM32H7xx_HAL_Driver/Src/stm32h7xx_hal_rcc.c ****     {
 912              		.loc 1 561 107 discriminator 2 view .LVU293
 913 0268 02F00302 		and	r2, r2, #3
 914              	.LVL76:
ARM GAS  /tmp/ccpTiR3W.s 			page 29


 561:lib/Drivers/STM32H7xx_HAL_Driver/Src/stm32h7xx_hal_rcc.c ****     {
 915              		.loc 1 561 87 discriminator 2 view .LVU294
 916 026c 012A     		cmp	r2, #1
 917 026e AAD1     		bne	.L66
 918              	.L65:
 564:lib/Drivers/STM32H7xx_HAL_Driver/Src/stm32h7xx_hal_rcc.c ****       {
 919              		.loc 1 564 7 is_stmt 1 view .LVU295
 564:lib/Drivers/STM32H7xx_HAL_Driver/Src/stm32h7xx_hal_rcc.c ****       {
 920              		.loc 1 564 11 is_stmt 0 view .LVU296
 921 0270 A14B     		ldr	r3, .L165
 922              	.LVL77:
 564:lib/Drivers/STM32H7xx_HAL_Driver/Src/stm32h7xx_hal_rcc.c ****       {
 923              		.loc 1 564 11 view .LVU297
 924 0272 1B68     		ldr	r3, [r3]
 564:lib/Drivers/STM32H7xx_HAL_Driver/Src/stm32h7xx_hal_rcc.c ****       {
 925              		.loc 1 564 9 view .LVU298
 926 0274 13F4807F 		tst	r3, #256
 927 0278 03D0     		beq	.L67
 564:lib/Drivers/STM32H7xx_HAL_Driver/Src/stm32h7xx_hal_rcc.c ****       {
 928              		.loc 1 564 75 discriminator 1 view .LVU299
 929 027a E369     		ldr	r3, [r4, #28]
 564:lib/Drivers/STM32H7xx_HAL_Driver/Src/stm32h7xx_hal_rcc.c ****       {
 930              		.loc 1 564 54 discriminator 1 view .LVU300
 931 027c 802B     		cmp	r3, #128
 932 027e 40F0E081 		bne	.L117
 933              	.L67:
 572:lib/Drivers/STM32H7xx_HAL_Driver/Src/stm32h7xx_hal_rcc.c ****       }
 934              		.loc 1 572 9 is_stmt 1 view .LVU301
 572:lib/Drivers/STM32H7xx_HAL_Driver/Src/stm32h7xx_hal_rcc.c ****       }
 935              		.loc 1 572 9 view .LVU302
 936 0282 FFF7FEFF 		bl	HAL_GetREVID
 937              	.LVL78:
 938 0286 41F20303 		movw	r3, #4099
 939 028a 9842     		cmp	r0, r3
 940 028c 12D8     		bhi	.L68
 572:lib/Drivers/STM32H7xx_HAL_Driver/Src/stm32h7xx_hal_rcc.c ****       }
 941              		.loc 1 572 9 discriminator 1 view .LVU303
 942 028e 226A     		ldr	r2, [r4, #32]
 943 0290 202A     		cmp	r2, #32
 944 0292 07D0     		beq	.L153
 572:lib/Drivers/STM32H7xx_HAL_Driver/Src/stm32h7xx_hal_rcc.c ****       }
 945              		.loc 1 572 9 discriminator 4 view .LVU304
 946 0294 9849     		ldr	r1, .L165
 947 0296 4B68     		ldr	r3, [r1, #4]
 948 0298 23F0F843 		bic	r3, r3, #2080374784
 949 029c 43EA8263 		orr	r3, r3, r2, lsl #26
 950 02a0 4B60     		str	r3, [r1, #4]
 951 02a2 0FE0     		b	.L64
 952              	.L153:
 572:lib/Drivers/STM32H7xx_HAL_Driver/Src/stm32h7xx_hal_rcc.c ****       }
 953              		.loc 1 572 9 discriminator 3 view .LVU305
 954 02a4 944A     		ldr	r2, .L165
 955 02a6 5368     		ldr	r3, [r2, #4]
 956 02a8 23F0F843 		bic	r3, r3, #2080374784
 957 02ac 43F08043 		orr	r3, r3, #1073741824
 958 02b0 5360     		str	r3, [r2, #4]
 959 02b2 07E0     		b	.L64
ARM GAS  /tmp/ccpTiR3W.s 			page 30


 960              	.L68:
 572:lib/Drivers/STM32H7xx_HAL_Driver/Src/stm32h7xx_hal_rcc.c ****       }
 961              		.loc 1 572 9 discriminator 2 view .LVU306
 962 02b4 904A     		ldr	r2, .L165
 963 02b6 D368     		ldr	r3, [r2, #12]
 964 02b8 23F07C53 		bic	r3, r3, #1056964608
 965 02bc 216A     		ldr	r1, [r4, #32]
 966 02be 43EA0163 		orr	r3, r3, r1, lsl #24
 967 02c2 D360     		str	r3, [r2, #12]
 968              	.LVL79:
 969              	.L64:
 572:lib/Drivers/STM32H7xx_HAL_Driver/Src/stm32h7xx_hal_rcc.c ****       }
 970              		.loc 1 572 9 is_stmt 0 discriminator 2 view .LVU307
 971              	.LBE8:
 592:lib/Drivers/STM32H7xx_HAL_Driver/Src/stm32h7xx_hal_rcc.c ****           }
 593:lib/Drivers/STM32H7xx_HAL_Driver/Src/stm32h7xx_hal_rcc.c ****         }
 594:lib/Drivers/STM32H7xx_HAL_Driver/Src/stm32h7xx_hal_rcc.c **** 
 595:lib/Drivers/STM32H7xx_HAL_Driver/Src/stm32h7xx_hal_rcc.c ****         /* Adjusts the Internal High Speed oscillator (CSI) calibration value.*/
 596:lib/Drivers/STM32H7xx_HAL_Driver/Src/stm32h7xx_hal_rcc.c ****         __HAL_RCC_CSI_CALIBRATIONVALUE_ADJUST(RCC_OscInitStruct->CSICalibrationValue);
 597:lib/Drivers/STM32H7xx_HAL_Driver/Src/stm32h7xx_hal_rcc.c ****       }
 598:lib/Drivers/STM32H7xx_HAL_Driver/Src/stm32h7xx_hal_rcc.c ****       else
 599:lib/Drivers/STM32H7xx_HAL_Driver/Src/stm32h7xx_hal_rcc.c ****       {
 600:lib/Drivers/STM32H7xx_HAL_Driver/Src/stm32h7xx_hal_rcc.c ****         /* Disable the Internal High Speed oscillator (CSI). */
 601:lib/Drivers/STM32H7xx_HAL_Driver/Src/stm32h7xx_hal_rcc.c ****         __HAL_RCC_CSI_DISABLE();
 602:lib/Drivers/STM32H7xx_HAL_Driver/Src/stm32h7xx_hal_rcc.c **** 
 603:lib/Drivers/STM32H7xx_HAL_Driver/Src/stm32h7xx_hal_rcc.c ****         /* Get Start Tick*/
 604:lib/Drivers/STM32H7xx_HAL_Driver/Src/stm32h7xx_hal_rcc.c ****         tickstart = HAL_GetTick();
 605:lib/Drivers/STM32H7xx_HAL_Driver/Src/stm32h7xx_hal_rcc.c **** 
 606:lib/Drivers/STM32H7xx_HAL_Driver/Src/stm32h7xx_hal_rcc.c ****         /* Wait till CSI is disabled */
 607:lib/Drivers/STM32H7xx_HAL_Driver/Src/stm32h7xx_hal_rcc.c ****         while(__HAL_RCC_GET_FLAG(RCC_FLAG_CSIRDY) != 0U)
 608:lib/Drivers/STM32H7xx_HAL_Driver/Src/stm32h7xx_hal_rcc.c ****         {
 609:lib/Drivers/STM32H7xx_HAL_Driver/Src/stm32h7xx_hal_rcc.c ****           if((HAL_GetTick() - tickstart ) > CSI_TIMEOUT_VALUE)
 610:lib/Drivers/STM32H7xx_HAL_Driver/Src/stm32h7xx_hal_rcc.c ****           {
 611:lib/Drivers/STM32H7xx_HAL_Driver/Src/stm32h7xx_hal_rcc.c ****             return HAL_TIMEOUT;
 612:lib/Drivers/STM32H7xx_HAL_Driver/Src/stm32h7xx_hal_rcc.c ****           }
 613:lib/Drivers/STM32H7xx_HAL_Driver/Src/stm32h7xx_hal_rcc.c ****         }
 614:lib/Drivers/STM32H7xx_HAL_Driver/Src/stm32h7xx_hal_rcc.c ****       }
 615:lib/Drivers/STM32H7xx_HAL_Driver/Src/stm32h7xx_hal_rcc.c ****     }
 616:lib/Drivers/STM32H7xx_HAL_Driver/Src/stm32h7xx_hal_rcc.c ****   }
 617:lib/Drivers/STM32H7xx_HAL_Driver/Src/stm32h7xx_hal_rcc.c ****   /*------------------------------ LSI Configuration -------------------------*/
 618:lib/Drivers/STM32H7xx_HAL_Driver/Src/stm32h7xx_hal_rcc.c ****   if(((RCC_OscInitStruct->OscillatorType) & RCC_OSCILLATORTYPE_LSI) == RCC_OSCILLATORTYPE_LSI)
 972              		.loc 1 618 3 is_stmt 1 view .LVU308
 973              		.loc 1 618 25 is_stmt 0 view .LVU309
 974 02c4 2368     		ldr	r3, [r4]
 975              		.loc 1 618 5 view .LVU310
 976 02c6 13F0080F 		tst	r3, #8
 977 02ca 60D0     		beq	.L77
 619:lib/Drivers/STM32H7xx_HAL_Driver/Src/stm32h7xx_hal_rcc.c ****   {
 620:lib/Drivers/STM32H7xx_HAL_Driver/Src/stm32h7xx_hal_rcc.c ****     /* Check the parameters */
 621:lib/Drivers/STM32H7xx_HAL_Driver/Src/stm32h7xx_hal_rcc.c ****     assert_param(IS_RCC_LSI(RCC_OscInitStruct->LSIState));
 978              		.loc 1 621 5 is_stmt 1 view .LVU311
 622:lib/Drivers/STM32H7xx_HAL_Driver/Src/stm32h7xx_hal_rcc.c **** 
 623:lib/Drivers/STM32H7xx_HAL_Driver/Src/stm32h7xx_hal_rcc.c ****     /* Check the LSI State */
 624:lib/Drivers/STM32H7xx_HAL_Driver/Src/stm32h7xx_hal_rcc.c ****     if((RCC_OscInitStruct->LSIState)!= RCC_LSI_OFF)
 979              		.loc 1 624 5 view .LVU312
 980              		.loc 1 624 26 is_stmt 0 view .LVU313
 981 02cc 6369     		ldr	r3, [r4, #20]
ARM GAS  /tmp/ccpTiR3W.s 			page 31


 982              		.loc 1 624 7 view .LVU314
 983 02ce 002B     		cmp	r3, #0
 984 02d0 49D0     		beq	.L78
 625:lib/Drivers/STM32H7xx_HAL_Driver/Src/stm32h7xx_hal_rcc.c ****     {
 626:lib/Drivers/STM32H7xx_HAL_Driver/Src/stm32h7xx_hal_rcc.c ****       /* Enable the Internal Low Speed oscillator (LSI). */
 627:lib/Drivers/STM32H7xx_HAL_Driver/Src/stm32h7xx_hal_rcc.c ****       __HAL_RCC_LSI_ENABLE();
 985              		.loc 1 627 7 is_stmt 1 view .LVU315
 986 02d2 894A     		ldr	r2, .L165
 987 02d4 536F     		ldr	r3, [r2, #116]
 988 02d6 43F00103 		orr	r3, r3, #1
 989 02da 5367     		str	r3, [r2, #116]
 628:lib/Drivers/STM32H7xx_HAL_Driver/Src/stm32h7xx_hal_rcc.c **** 
 629:lib/Drivers/STM32H7xx_HAL_Driver/Src/stm32h7xx_hal_rcc.c ****       /* Get Start Tick*/
 630:lib/Drivers/STM32H7xx_HAL_Driver/Src/stm32h7xx_hal_rcc.c ****       tickstart = HAL_GetTick();
 990              		.loc 1 630 7 view .LVU316
 991              		.loc 1 630 19 is_stmt 0 view .LVU317
 992 02dc FFF7FEFF 		bl	HAL_GetTick
 993              	.LVL80:
 994 02e0 0546     		mov	r5, r0
 995              	.LVL81:
 631:lib/Drivers/STM32H7xx_HAL_Driver/Src/stm32h7xx_hal_rcc.c **** 
 632:lib/Drivers/STM32H7xx_HAL_Driver/Src/stm32h7xx_hal_rcc.c ****       /* Wait till LSI is ready */
 633:lib/Drivers/STM32H7xx_HAL_Driver/Src/stm32h7xx_hal_rcc.c ****       while(__HAL_RCC_GET_FLAG(RCC_FLAG_LSIRDY) == 0U)
 996              		.loc 1 633 7 is_stmt 1 view .LVU318
 997              	.L79:
 998              		.loc 1 633 49 view .LVU319
 999              		.loc 1 633 13 is_stmt 0 view .LVU320
 1000 02e2 854B     		ldr	r3, .L165
 1001 02e4 5B6F     		ldr	r3, [r3, #116]
 1002              		.loc 1 633 49 view .LVU321
 1003 02e6 13F0020F 		tst	r3, #2
 1004 02ea 50D1     		bne	.L77
 634:lib/Drivers/STM32H7xx_HAL_Driver/Src/stm32h7xx_hal_rcc.c ****       {
 635:lib/Drivers/STM32H7xx_HAL_Driver/Src/stm32h7xx_hal_rcc.c ****         if((HAL_GetTick() - tickstart ) > LSI_TIMEOUT_VALUE)
 1005              		.loc 1 635 9 is_stmt 1 view .LVU322
 1006              		.loc 1 635 13 is_stmt 0 view .LVU323
 1007 02ec FFF7FEFF 		bl	HAL_GetTick
 1008              	.LVL82:
 1009              		.loc 1 635 27 view .LVU324
 1010 02f0 401B     		subs	r0, r0, r5
 1011              		.loc 1 635 11 view .LVU325
 1012 02f2 0228     		cmp	r0, #2
 1013 02f4 F5D9     		bls	.L79
 636:lib/Drivers/STM32H7xx_HAL_Driver/Src/stm32h7xx_hal_rcc.c ****         {
 637:lib/Drivers/STM32H7xx_HAL_Driver/Src/stm32h7xx_hal_rcc.c ****           return HAL_TIMEOUT;
 1014              		.loc 1 637 18 view .LVU326
 1015 02f6 0320     		movs	r0, #3
 1016 02f8 A6E1     		b	.L36
 1017              	.LVL83:
 1018              	.L151:
 1019              	.LBB9:
 596:lib/Drivers/STM32H7xx_HAL_Driver/Src/stm32h7xx_hal_rcc.c ****       }
 1020              		.loc 1 596 9 is_stmt 1 view .LVU327
 596:lib/Drivers/STM32H7xx_HAL_Driver/Src/stm32h7xx_hal_rcc.c ****       }
 1021              		.loc 1 596 9 view .LVU328
 1022 02fa FFF7FEFF 		bl	HAL_GetREVID
 1023              	.LVL84:
ARM GAS  /tmp/ccpTiR3W.s 			page 32


 1024 02fe 41F20303 		movw	r3, #4099
 1025 0302 9842     		cmp	r0, r3
 1026 0304 12D8     		bhi	.L73
 596:lib/Drivers/STM32H7xx_HAL_Driver/Src/stm32h7xx_hal_rcc.c ****       }
 1027              		.loc 1 596 9 discriminator 1 view .LVU329
 1028 0306 226A     		ldr	r2, [r4, #32]
 1029 0308 202A     		cmp	r2, #32
 1030 030a 07D0     		beq	.L154
 596:lib/Drivers/STM32H7xx_HAL_Driver/Src/stm32h7xx_hal_rcc.c ****       }
 1031              		.loc 1 596 9 discriminator 4 view .LVU330
 1032 030c 7A49     		ldr	r1, .L165
 1033 030e 4B68     		ldr	r3, [r1, #4]
 1034 0310 23F0F843 		bic	r3, r3, #2080374784
 1035 0314 43EA8263 		orr	r3, r3, r2, lsl #26
 1036 0318 4B60     		str	r3, [r1, #4]
 1037 031a D3E7     		b	.L64
 1038              	.L154:
 596:lib/Drivers/STM32H7xx_HAL_Driver/Src/stm32h7xx_hal_rcc.c ****       }
 1039              		.loc 1 596 9 discriminator 3 view .LVU331
 1040 031c 764A     		ldr	r2, .L165
 1041 031e 5368     		ldr	r3, [r2, #4]
 1042 0320 23F0F843 		bic	r3, r3, #2080374784
 1043 0324 43F08043 		orr	r3, r3, #1073741824
 1044 0328 5360     		str	r3, [r2, #4]
 1045 032a CBE7     		b	.L64
 1046              	.L73:
 596:lib/Drivers/STM32H7xx_HAL_Driver/Src/stm32h7xx_hal_rcc.c ****       }
 1047              		.loc 1 596 9 discriminator 2 view .LVU332
 1048 032c 724A     		ldr	r2, .L165
 1049 032e D368     		ldr	r3, [r2, #12]
 1050 0330 23F07C53 		bic	r3, r3, #1056964608
 1051 0334 216A     		ldr	r1, [r4, #32]
 1052 0336 43EA0163 		orr	r3, r3, r1, lsl #24
 1053 033a D360     		str	r3, [r2, #12]
 1054 033c C2E7     		b	.L64
 1055              	.LVL85:
 1056              	.L70:
 601:lib/Drivers/STM32H7xx_HAL_Driver/Src/stm32h7xx_hal_rcc.c **** 
 1057              		.loc 1 601 9 view .LVU333
 1058 033e 6E4A     		ldr	r2, .L165
 1059 0340 1368     		ldr	r3, [r2]
 1060 0342 23F08003 		bic	r3, r3, #128
 1061 0346 1360     		str	r3, [r2]
 604:lib/Drivers/STM32H7xx_HAL_Driver/Src/stm32h7xx_hal_rcc.c **** 
 1062              		.loc 1 604 9 view .LVU334
 604:lib/Drivers/STM32H7xx_HAL_Driver/Src/stm32h7xx_hal_rcc.c **** 
 1063              		.loc 1 604 21 is_stmt 0 view .LVU335
 1064 0348 FFF7FEFF 		bl	HAL_GetTick
 1065              	.LVL86:
 1066 034c 0546     		mov	r5, r0
 1067              	.LVL87:
 607:lib/Drivers/STM32H7xx_HAL_Driver/Src/stm32h7xx_hal_rcc.c ****         {
 1068              		.loc 1 607 9 is_stmt 1 view .LVU336
 1069              	.L75:
 607:lib/Drivers/STM32H7xx_HAL_Driver/Src/stm32h7xx_hal_rcc.c ****         {
 1070              		.loc 1 607 51 view .LVU337
 607:lib/Drivers/STM32H7xx_HAL_Driver/Src/stm32h7xx_hal_rcc.c ****         {
ARM GAS  /tmp/ccpTiR3W.s 			page 33


 1071              		.loc 1 607 15 is_stmt 0 view .LVU338
 1072 034e 6A4B     		ldr	r3, .L165
 1073 0350 1B68     		ldr	r3, [r3]
 607:lib/Drivers/STM32H7xx_HAL_Driver/Src/stm32h7xx_hal_rcc.c ****         {
 1074              		.loc 1 607 51 view .LVU339
 1075 0352 13F4807F 		tst	r3, #256
 1076 0356 B5D0     		beq	.L64
 609:lib/Drivers/STM32H7xx_HAL_Driver/Src/stm32h7xx_hal_rcc.c ****           {
 1077              		.loc 1 609 11 is_stmt 1 view .LVU340
 609:lib/Drivers/STM32H7xx_HAL_Driver/Src/stm32h7xx_hal_rcc.c ****           {
 1078              		.loc 1 609 15 is_stmt 0 view .LVU341
 1079 0358 FFF7FEFF 		bl	HAL_GetTick
 1080              	.LVL88:
 609:lib/Drivers/STM32H7xx_HAL_Driver/Src/stm32h7xx_hal_rcc.c ****           {
 1081              		.loc 1 609 29 view .LVU342
 1082 035c 401B     		subs	r0, r0, r5
 609:lib/Drivers/STM32H7xx_HAL_Driver/Src/stm32h7xx_hal_rcc.c ****           {
 1083              		.loc 1 609 13 view .LVU343
 1084 035e 0228     		cmp	r0, #2
 1085 0360 F5D9     		bls	.L75
 611:lib/Drivers/STM32H7xx_HAL_Driver/Src/stm32h7xx_hal_rcc.c ****           }
 1086              		.loc 1 611 20 view .LVU344
 1087 0362 0320     		movs	r0, #3
 1088 0364 70E1     		b	.L36
 1089              	.LVL89:
 1090              	.L78:
 611:lib/Drivers/STM32H7xx_HAL_Driver/Src/stm32h7xx_hal_rcc.c ****           }
 1091              		.loc 1 611 20 view .LVU345
 1092              	.LBE9:
 638:lib/Drivers/STM32H7xx_HAL_Driver/Src/stm32h7xx_hal_rcc.c ****         }
 639:lib/Drivers/STM32H7xx_HAL_Driver/Src/stm32h7xx_hal_rcc.c ****       }
 640:lib/Drivers/STM32H7xx_HAL_Driver/Src/stm32h7xx_hal_rcc.c ****     }
 641:lib/Drivers/STM32H7xx_HAL_Driver/Src/stm32h7xx_hal_rcc.c ****     else
 642:lib/Drivers/STM32H7xx_HAL_Driver/Src/stm32h7xx_hal_rcc.c ****     {
 643:lib/Drivers/STM32H7xx_HAL_Driver/Src/stm32h7xx_hal_rcc.c ****       /* Disable the Internal Low Speed oscillator (LSI). */
 644:lib/Drivers/STM32H7xx_HAL_Driver/Src/stm32h7xx_hal_rcc.c ****       __HAL_RCC_LSI_DISABLE();
 1093              		.loc 1 644 7 is_stmt 1 view .LVU346
 1094 0366 644A     		ldr	r2, .L165
 1095 0368 536F     		ldr	r3, [r2, #116]
 1096 036a 23F00103 		bic	r3, r3, #1
 1097 036e 5367     		str	r3, [r2, #116]
 645:lib/Drivers/STM32H7xx_HAL_Driver/Src/stm32h7xx_hal_rcc.c **** 
 646:lib/Drivers/STM32H7xx_HAL_Driver/Src/stm32h7xx_hal_rcc.c ****       /* Get Start Tick*/
 647:lib/Drivers/STM32H7xx_HAL_Driver/Src/stm32h7xx_hal_rcc.c ****       tickstart = HAL_GetTick();
 1098              		.loc 1 647 7 view .LVU347
 1099              		.loc 1 647 19 is_stmt 0 view .LVU348
 1100 0370 FFF7FEFF 		bl	HAL_GetTick
 1101              	.LVL90:
 1102 0374 0546     		mov	r5, r0
 1103              	.LVL91:
 648:lib/Drivers/STM32H7xx_HAL_Driver/Src/stm32h7xx_hal_rcc.c **** 
 649:lib/Drivers/STM32H7xx_HAL_Driver/Src/stm32h7xx_hal_rcc.c ****       /* Wait till LSI is ready */
 650:lib/Drivers/STM32H7xx_HAL_Driver/Src/stm32h7xx_hal_rcc.c ****       while(__HAL_RCC_GET_FLAG(RCC_FLAG_LSIRDY) != 0U)
 1104              		.loc 1 650 7 is_stmt 1 view .LVU349
 1105              	.L81:
 1106              		.loc 1 650 49 view .LVU350
 1107              		.loc 1 650 13 is_stmt 0 view .LVU351
ARM GAS  /tmp/ccpTiR3W.s 			page 34


 1108 0376 604B     		ldr	r3, .L165
 1109 0378 5B6F     		ldr	r3, [r3, #116]
 1110              		.loc 1 650 49 view .LVU352
 1111 037a 13F0020F 		tst	r3, #2
 1112 037e 06D0     		beq	.L77
 651:lib/Drivers/STM32H7xx_HAL_Driver/Src/stm32h7xx_hal_rcc.c ****       {
 652:lib/Drivers/STM32H7xx_HAL_Driver/Src/stm32h7xx_hal_rcc.c ****         if((HAL_GetTick() - tickstart ) > LSI_TIMEOUT_VALUE)
 1113              		.loc 1 652 9 is_stmt 1 view .LVU353
 1114              		.loc 1 652 13 is_stmt 0 view .LVU354
 1115 0380 FFF7FEFF 		bl	HAL_GetTick
 1116              	.LVL92:
 1117              		.loc 1 652 27 view .LVU355
 1118 0384 401B     		subs	r0, r0, r5
 1119              		.loc 1 652 11 view .LVU356
 1120 0386 0228     		cmp	r0, #2
 1121 0388 F5D9     		bls	.L81
 653:lib/Drivers/STM32H7xx_HAL_Driver/Src/stm32h7xx_hal_rcc.c ****         {
 654:lib/Drivers/STM32H7xx_HAL_Driver/Src/stm32h7xx_hal_rcc.c ****           return HAL_TIMEOUT;
 1122              		.loc 1 654 18 view .LVU357
 1123 038a 0320     		movs	r0, #3
 1124 038c 5CE1     		b	.L36
 1125              	.LVL93:
 1126              	.L77:
 655:lib/Drivers/STM32H7xx_HAL_Driver/Src/stm32h7xx_hal_rcc.c ****         }
 656:lib/Drivers/STM32H7xx_HAL_Driver/Src/stm32h7xx_hal_rcc.c ****       }
 657:lib/Drivers/STM32H7xx_HAL_Driver/Src/stm32h7xx_hal_rcc.c ****     }
 658:lib/Drivers/STM32H7xx_HAL_Driver/Src/stm32h7xx_hal_rcc.c ****   }
 659:lib/Drivers/STM32H7xx_HAL_Driver/Src/stm32h7xx_hal_rcc.c **** 
 660:lib/Drivers/STM32H7xx_HAL_Driver/Src/stm32h7xx_hal_rcc.c ****   /*------------------------------ HSI48 Configuration -------------------------*/
 661:lib/Drivers/STM32H7xx_HAL_Driver/Src/stm32h7xx_hal_rcc.c ****   if(((RCC_OscInitStruct->OscillatorType) & RCC_OSCILLATORTYPE_HSI48) == RCC_OSCILLATORTYPE_HSI48)
 1127              		.loc 1 661 3 is_stmt 1 view .LVU358
 1128              		.loc 1 661 25 is_stmt 0 view .LVU359
 1129 038e 2368     		ldr	r3, [r4]
 1130              		.loc 1 661 5 view .LVU360
 1131 0390 13F0200F 		tst	r3, #32
 1132 0394 29D0     		beq	.L83
 662:lib/Drivers/STM32H7xx_HAL_Driver/Src/stm32h7xx_hal_rcc.c ****   {
 663:lib/Drivers/STM32H7xx_HAL_Driver/Src/stm32h7xx_hal_rcc.c ****     /* Check the parameters */
 664:lib/Drivers/STM32H7xx_HAL_Driver/Src/stm32h7xx_hal_rcc.c ****     assert_param(IS_RCC_HSI48(RCC_OscInitStruct->HSI48State));
 1133              		.loc 1 664 5 is_stmt 1 view .LVU361
 665:lib/Drivers/STM32H7xx_HAL_Driver/Src/stm32h7xx_hal_rcc.c **** 
 666:lib/Drivers/STM32H7xx_HAL_Driver/Src/stm32h7xx_hal_rcc.c ****     /* Check the HSI48 State */
 667:lib/Drivers/STM32H7xx_HAL_Driver/Src/stm32h7xx_hal_rcc.c ****     if((RCC_OscInitStruct->HSI48State)!= RCC_HSI48_OFF)
 1134              		.loc 1 667 5 view .LVU362
 1135              		.loc 1 667 26 is_stmt 0 view .LVU363
 1136 0396 A369     		ldr	r3, [r4, #24]
 1137              		.loc 1 667 7 view .LVU364
 1138 0398 9BB1     		cbz	r3, .L84
 668:lib/Drivers/STM32H7xx_HAL_Driver/Src/stm32h7xx_hal_rcc.c ****     {
 669:lib/Drivers/STM32H7xx_HAL_Driver/Src/stm32h7xx_hal_rcc.c ****       /* Enable the Internal Low Speed oscillator (HSI48). */
 670:lib/Drivers/STM32H7xx_HAL_Driver/Src/stm32h7xx_hal_rcc.c ****       __HAL_RCC_HSI48_ENABLE();
 1139              		.loc 1 670 7 is_stmt 1 view .LVU365
 1140 039a 574A     		ldr	r2, .L165
 1141 039c 1368     		ldr	r3, [r2]
 1142 039e 43F48053 		orr	r3, r3, #4096
 1143 03a2 1360     		str	r3, [r2]
 1144              		.loc 1 670 31 view .LVU366
ARM GAS  /tmp/ccpTiR3W.s 			page 35


 671:lib/Drivers/STM32H7xx_HAL_Driver/Src/stm32h7xx_hal_rcc.c **** 
 672:lib/Drivers/STM32H7xx_HAL_Driver/Src/stm32h7xx_hal_rcc.c ****       /* Get time-out */
 673:lib/Drivers/STM32H7xx_HAL_Driver/Src/stm32h7xx_hal_rcc.c ****       tickstart = HAL_GetTick();
 1145              		.loc 1 673 7 view .LVU367
 1146              		.loc 1 673 19 is_stmt 0 view .LVU368
 1147 03a4 FFF7FEFF 		bl	HAL_GetTick
 1148              	.LVL94:
 1149 03a8 0546     		mov	r5, r0
 1150              	.LVL95:
 674:lib/Drivers/STM32H7xx_HAL_Driver/Src/stm32h7xx_hal_rcc.c **** 
 675:lib/Drivers/STM32H7xx_HAL_Driver/Src/stm32h7xx_hal_rcc.c ****       /* Wait till HSI48 is ready */
 676:lib/Drivers/STM32H7xx_HAL_Driver/Src/stm32h7xx_hal_rcc.c ****       while(__HAL_RCC_GET_FLAG(RCC_FLAG_HSI48RDY) == 0U)
 1151              		.loc 1 676 7 is_stmt 1 view .LVU369
 1152              	.L85:
 1153              		.loc 1 676 51 view .LVU370
 1154              		.loc 1 676 13 is_stmt 0 view .LVU371
 1155 03aa 534B     		ldr	r3, .L165
 1156 03ac 1B68     		ldr	r3, [r3]
 1157              		.loc 1 676 51 view .LVU372
 1158 03ae 13F4005F 		tst	r3, #8192
 1159 03b2 1AD1     		bne	.L83
 677:lib/Drivers/STM32H7xx_HAL_Driver/Src/stm32h7xx_hal_rcc.c ****       {
 678:lib/Drivers/STM32H7xx_HAL_Driver/Src/stm32h7xx_hal_rcc.c ****         if((HAL_GetTick() - tickstart ) > HSI48_TIMEOUT_VALUE)
 1160              		.loc 1 678 9 is_stmt 1 view .LVU373
 1161              		.loc 1 678 13 is_stmt 0 view .LVU374
 1162 03b4 FFF7FEFF 		bl	HAL_GetTick
 1163              	.LVL96:
 1164              		.loc 1 678 27 view .LVU375
 1165 03b8 401B     		subs	r0, r0, r5
 1166              		.loc 1 678 11 view .LVU376
 1167 03ba 0228     		cmp	r0, #2
 1168 03bc F5D9     		bls	.L85
 679:lib/Drivers/STM32H7xx_HAL_Driver/Src/stm32h7xx_hal_rcc.c ****         {
 680:lib/Drivers/STM32H7xx_HAL_Driver/Src/stm32h7xx_hal_rcc.c ****           return HAL_TIMEOUT;
 1169              		.loc 1 680 18 view .LVU377
 1170 03be 0320     		movs	r0, #3
 1171 03c0 42E1     		b	.L36
 1172              	.LVL97:
 1173              	.L84:
 681:lib/Drivers/STM32H7xx_HAL_Driver/Src/stm32h7xx_hal_rcc.c ****         }
 682:lib/Drivers/STM32H7xx_HAL_Driver/Src/stm32h7xx_hal_rcc.c ****       }
 683:lib/Drivers/STM32H7xx_HAL_Driver/Src/stm32h7xx_hal_rcc.c ****     }
 684:lib/Drivers/STM32H7xx_HAL_Driver/Src/stm32h7xx_hal_rcc.c ****     else
 685:lib/Drivers/STM32H7xx_HAL_Driver/Src/stm32h7xx_hal_rcc.c ****     {
 686:lib/Drivers/STM32H7xx_HAL_Driver/Src/stm32h7xx_hal_rcc.c ****       /* Disable the Internal Low Speed oscillator (HSI48). */
 687:lib/Drivers/STM32H7xx_HAL_Driver/Src/stm32h7xx_hal_rcc.c ****       __HAL_RCC_HSI48_DISABLE();
 1174              		.loc 1 687 7 is_stmt 1 view .LVU378
 1175 03c2 4D4A     		ldr	r2, .L165
 1176 03c4 1368     		ldr	r3, [r2]
 1177 03c6 23F48053 		bic	r3, r3, #4096
 1178 03ca 1360     		str	r3, [r2]
 1179              		.loc 1 687 32 view .LVU379
 688:lib/Drivers/STM32H7xx_HAL_Driver/Src/stm32h7xx_hal_rcc.c **** 
 689:lib/Drivers/STM32H7xx_HAL_Driver/Src/stm32h7xx_hal_rcc.c ****       /* Get time-out */
 690:lib/Drivers/STM32H7xx_HAL_Driver/Src/stm32h7xx_hal_rcc.c ****       tickstart = HAL_GetTick();
 1180              		.loc 1 690 7 view .LVU380
 1181              		.loc 1 690 19 is_stmt 0 view .LVU381
ARM GAS  /tmp/ccpTiR3W.s 			page 36


 1182 03cc FFF7FEFF 		bl	HAL_GetTick
 1183              	.LVL98:
 1184 03d0 0546     		mov	r5, r0
 1185              	.LVL99:
 691:lib/Drivers/STM32H7xx_HAL_Driver/Src/stm32h7xx_hal_rcc.c **** 
 692:lib/Drivers/STM32H7xx_HAL_Driver/Src/stm32h7xx_hal_rcc.c ****       /* Wait till HSI48 is ready */
 693:lib/Drivers/STM32H7xx_HAL_Driver/Src/stm32h7xx_hal_rcc.c ****       while(__HAL_RCC_GET_FLAG(RCC_FLAG_HSI48RDY) != 0U)
 1186              		.loc 1 693 7 is_stmt 1 view .LVU382
 1187              	.L87:
 1188              		.loc 1 693 51 view .LVU383
 1189              		.loc 1 693 13 is_stmt 0 view .LVU384
 1190 03d2 494B     		ldr	r3, .L165
 1191 03d4 1B68     		ldr	r3, [r3]
 1192              		.loc 1 693 51 view .LVU385
 1193 03d6 13F4005F 		tst	r3, #8192
 1194 03da 06D0     		beq	.L83
 694:lib/Drivers/STM32H7xx_HAL_Driver/Src/stm32h7xx_hal_rcc.c ****       {
 695:lib/Drivers/STM32H7xx_HAL_Driver/Src/stm32h7xx_hal_rcc.c ****         if((HAL_GetTick() - tickstart ) > HSI48_TIMEOUT_VALUE)
 1195              		.loc 1 695 9 is_stmt 1 view .LVU386
 1196              		.loc 1 695 13 is_stmt 0 view .LVU387
 1197 03dc FFF7FEFF 		bl	HAL_GetTick
 1198              	.LVL100:
 1199              		.loc 1 695 27 view .LVU388
 1200 03e0 401B     		subs	r0, r0, r5
 1201              		.loc 1 695 11 view .LVU389
 1202 03e2 0228     		cmp	r0, #2
 1203 03e4 F5D9     		bls	.L87
 696:lib/Drivers/STM32H7xx_HAL_Driver/Src/stm32h7xx_hal_rcc.c ****         {
 697:lib/Drivers/STM32H7xx_HAL_Driver/Src/stm32h7xx_hal_rcc.c ****           return HAL_TIMEOUT;
 1204              		.loc 1 697 18 view .LVU390
 1205 03e6 0320     		movs	r0, #3
 1206 03e8 2EE1     		b	.L36
 1207              	.LVL101:
 1208              	.L83:
 698:lib/Drivers/STM32H7xx_HAL_Driver/Src/stm32h7xx_hal_rcc.c ****         }
 699:lib/Drivers/STM32H7xx_HAL_Driver/Src/stm32h7xx_hal_rcc.c ****       }
 700:lib/Drivers/STM32H7xx_HAL_Driver/Src/stm32h7xx_hal_rcc.c ****     }
 701:lib/Drivers/STM32H7xx_HAL_Driver/Src/stm32h7xx_hal_rcc.c ****   }
 702:lib/Drivers/STM32H7xx_HAL_Driver/Src/stm32h7xx_hal_rcc.c ****   /*------------------------------ LSE Configuration -------------------------*/
 703:lib/Drivers/STM32H7xx_HAL_Driver/Src/stm32h7xx_hal_rcc.c ****   if(((RCC_OscInitStruct->OscillatorType) & RCC_OSCILLATORTYPE_LSE) == RCC_OSCILLATORTYPE_LSE)
 1209              		.loc 1 703 3 is_stmt 1 view .LVU391
 1210              		.loc 1 703 25 is_stmt 0 view .LVU392
 1211 03ea 2368     		ldr	r3, [r4]
 1212              		.loc 1 703 5 view .LVU393
 1213 03ec 13F0040F 		tst	r3, #4
 1214 03f0 21D1     		bne	.L155
 1215              	.L89:
 704:lib/Drivers/STM32H7xx_HAL_Driver/Src/stm32h7xx_hal_rcc.c ****   {
 705:lib/Drivers/STM32H7xx_HAL_Driver/Src/stm32h7xx_hal_rcc.c ****     /* Check the parameters */
 706:lib/Drivers/STM32H7xx_HAL_Driver/Src/stm32h7xx_hal_rcc.c ****     assert_param(IS_RCC_LSE(RCC_OscInitStruct->LSEState));
 707:lib/Drivers/STM32H7xx_HAL_Driver/Src/stm32h7xx_hal_rcc.c **** 
 708:lib/Drivers/STM32H7xx_HAL_Driver/Src/stm32h7xx_hal_rcc.c ****     /* Enable write access to Backup domain */
 709:lib/Drivers/STM32H7xx_HAL_Driver/Src/stm32h7xx_hal_rcc.c ****     PWR->CR1 |= PWR_CR1_DBP;
 710:lib/Drivers/STM32H7xx_HAL_Driver/Src/stm32h7xx_hal_rcc.c **** 
 711:lib/Drivers/STM32H7xx_HAL_Driver/Src/stm32h7xx_hal_rcc.c ****     /* Wait for Backup domain Write protection disable */
 712:lib/Drivers/STM32H7xx_HAL_Driver/Src/stm32h7xx_hal_rcc.c ****     tickstart = HAL_GetTick();
 713:lib/Drivers/STM32H7xx_HAL_Driver/Src/stm32h7xx_hal_rcc.c **** 
ARM GAS  /tmp/ccpTiR3W.s 			page 37


 714:lib/Drivers/STM32H7xx_HAL_Driver/Src/stm32h7xx_hal_rcc.c ****     while((PWR->CR1 & PWR_CR1_DBP) == 0U)
 715:lib/Drivers/STM32H7xx_HAL_Driver/Src/stm32h7xx_hal_rcc.c ****     {
 716:lib/Drivers/STM32H7xx_HAL_Driver/Src/stm32h7xx_hal_rcc.c ****       if((HAL_GetTick() - tickstart ) > RCC_DBP_TIMEOUT_VALUE)
 717:lib/Drivers/STM32H7xx_HAL_Driver/Src/stm32h7xx_hal_rcc.c ****       {
 718:lib/Drivers/STM32H7xx_HAL_Driver/Src/stm32h7xx_hal_rcc.c ****         return HAL_TIMEOUT;
 719:lib/Drivers/STM32H7xx_HAL_Driver/Src/stm32h7xx_hal_rcc.c ****       }
 720:lib/Drivers/STM32H7xx_HAL_Driver/Src/stm32h7xx_hal_rcc.c ****     }
 721:lib/Drivers/STM32H7xx_HAL_Driver/Src/stm32h7xx_hal_rcc.c **** 
 722:lib/Drivers/STM32H7xx_HAL_Driver/Src/stm32h7xx_hal_rcc.c ****     /* Set the new LSE configuration -----------------------------------------*/
 723:lib/Drivers/STM32H7xx_HAL_Driver/Src/stm32h7xx_hal_rcc.c ****     __HAL_RCC_LSE_CONFIG(RCC_OscInitStruct->LSEState);
 724:lib/Drivers/STM32H7xx_HAL_Driver/Src/stm32h7xx_hal_rcc.c ****     /* Check the LSE State */
 725:lib/Drivers/STM32H7xx_HAL_Driver/Src/stm32h7xx_hal_rcc.c ****     if((RCC_OscInitStruct->LSEState) != RCC_LSE_OFF)
 726:lib/Drivers/STM32H7xx_HAL_Driver/Src/stm32h7xx_hal_rcc.c ****     {
 727:lib/Drivers/STM32H7xx_HAL_Driver/Src/stm32h7xx_hal_rcc.c ****       /* Get Start Tick*/
 728:lib/Drivers/STM32H7xx_HAL_Driver/Src/stm32h7xx_hal_rcc.c ****       tickstart = HAL_GetTick();
 729:lib/Drivers/STM32H7xx_HAL_Driver/Src/stm32h7xx_hal_rcc.c **** 
 730:lib/Drivers/STM32H7xx_HAL_Driver/Src/stm32h7xx_hal_rcc.c ****       /* Wait till LSE is ready */
 731:lib/Drivers/STM32H7xx_HAL_Driver/Src/stm32h7xx_hal_rcc.c ****       while(__HAL_RCC_GET_FLAG(RCC_FLAG_LSERDY) == 0U)
 732:lib/Drivers/STM32H7xx_HAL_Driver/Src/stm32h7xx_hal_rcc.c ****       {
 733:lib/Drivers/STM32H7xx_HAL_Driver/Src/stm32h7xx_hal_rcc.c ****         if((HAL_GetTick() - tickstart ) > RCC_LSE_TIMEOUT_VALUE)
 734:lib/Drivers/STM32H7xx_HAL_Driver/Src/stm32h7xx_hal_rcc.c ****         {
 735:lib/Drivers/STM32H7xx_HAL_Driver/Src/stm32h7xx_hal_rcc.c ****           return HAL_TIMEOUT;
 736:lib/Drivers/STM32H7xx_HAL_Driver/Src/stm32h7xx_hal_rcc.c ****         }
 737:lib/Drivers/STM32H7xx_HAL_Driver/Src/stm32h7xx_hal_rcc.c ****       }
 738:lib/Drivers/STM32H7xx_HAL_Driver/Src/stm32h7xx_hal_rcc.c ****     }
 739:lib/Drivers/STM32H7xx_HAL_Driver/Src/stm32h7xx_hal_rcc.c ****     else
 740:lib/Drivers/STM32H7xx_HAL_Driver/Src/stm32h7xx_hal_rcc.c ****     {
 741:lib/Drivers/STM32H7xx_HAL_Driver/Src/stm32h7xx_hal_rcc.c ****       /* Get Start Tick*/
 742:lib/Drivers/STM32H7xx_HAL_Driver/Src/stm32h7xx_hal_rcc.c ****       tickstart = HAL_GetTick();
 743:lib/Drivers/STM32H7xx_HAL_Driver/Src/stm32h7xx_hal_rcc.c **** 
 744:lib/Drivers/STM32H7xx_HAL_Driver/Src/stm32h7xx_hal_rcc.c ****       /* Wait till LSE is disabled */
 745:lib/Drivers/STM32H7xx_HAL_Driver/Src/stm32h7xx_hal_rcc.c ****       while(__HAL_RCC_GET_FLAG(RCC_FLAG_LSERDY) != 0U)
 746:lib/Drivers/STM32H7xx_HAL_Driver/Src/stm32h7xx_hal_rcc.c ****       {
 747:lib/Drivers/STM32H7xx_HAL_Driver/Src/stm32h7xx_hal_rcc.c ****         if((HAL_GetTick() - tickstart ) > RCC_LSE_TIMEOUT_VALUE)
 748:lib/Drivers/STM32H7xx_HAL_Driver/Src/stm32h7xx_hal_rcc.c ****         {
 749:lib/Drivers/STM32H7xx_HAL_Driver/Src/stm32h7xx_hal_rcc.c ****           return HAL_TIMEOUT;
 750:lib/Drivers/STM32H7xx_HAL_Driver/Src/stm32h7xx_hal_rcc.c ****         }
 751:lib/Drivers/STM32H7xx_HAL_Driver/Src/stm32h7xx_hal_rcc.c ****       }
 752:lib/Drivers/STM32H7xx_HAL_Driver/Src/stm32h7xx_hal_rcc.c ****     }
 753:lib/Drivers/STM32H7xx_HAL_Driver/Src/stm32h7xx_hal_rcc.c ****   }
 754:lib/Drivers/STM32H7xx_HAL_Driver/Src/stm32h7xx_hal_rcc.c ****   /*-------------------------------- PLL Configuration -----------------------*/
 755:lib/Drivers/STM32H7xx_HAL_Driver/Src/stm32h7xx_hal_rcc.c ****   /* Check the parameters */
 756:lib/Drivers/STM32H7xx_HAL_Driver/Src/stm32h7xx_hal_rcc.c ****   assert_param(IS_RCC_PLL(RCC_OscInitStruct->PLL.PLLState));
 1216              		.loc 1 756 3 is_stmt 1 view .LVU394
 757:lib/Drivers/STM32H7xx_HAL_Driver/Src/stm32h7xx_hal_rcc.c ****   if ((RCC_OscInitStruct->PLL.PLLState) != RCC_PLL_NONE)
 1217              		.loc 1 757 3 view .LVU395
 1218              		.loc 1 757 30 is_stmt 0 view .LVU396
 1219 03f2 636A     		ldr	r3, [r4, #36]
 1220              		.loc 1 757 6 view .LVU397
 1221 03f4 002B     		cmp	r3, #0
 1222 03f6 00F02681 		beq	.L127
 758:lib/Drivers/STM32H7xx_HAL_Driver/Src/stm32h7xx_hal_rcc.c ****   {
 759:lib/Drivers/STM32H7xx_HAL_Driver/Src/stm32h7xx_hal_rcc.c ****     /* Check if the PLL is used as system clock or not */
 760:lib/Drivers/STM32H7xx_HAL_Driver/Src/stm32h7xx_hal_rcc.c ****     if(__HAL_RCC_GET_SYSCLK_SOURCE() != RCC_CFGR_SWS_PLL1)
 1223              		.loc 1 760 5 is_stmt 1 view .LVU398
 1224              		.loc 1 760 8 is_stmt 0 view .LVU399
 1225 03fa 3F4A     		ldr	r2, .L165
ARM GAS  /tmp/ccpTiR3W.s 			page 38


 1226 03fc 1269     		ldr	r2, [r2, #16]
 1227 03fe 02F03802 		and	r2, r2, #56
 1228              		.loc 1 760 7 view .LVU400
 1229 0402 182A     		cmp	r2, #24
 1230 0404 00F0EE80 		beq	.L101
 761:lib/Drivers/STM32H7xx_HAL_Driver/Src/stm32h7xx_hal_rcc.c ****     {
 762:lib/Drivers/STM32H7xx_HAL_Driver/Src/stm32h7xx_hal_rcc.c ****       if((RCC_OscInitStruct->PLL.PLLState) == RCC_PLL_ON)
 1231              		.loc 1 762 7 is_stmt 1 view .LVU401
 1232              		.loc 1 762 9 is_stmt 0 view .LVU402
 1233 0408 022B     		cmp	r3, #2
 1234 040a 79D0     		beq	.L156
 763:lib/Drivers/STM32H7xx_HAL_Driver/Src/stm32h7xx_hal_rcc.c ****       {
 764:lib/Drivers/STM32H7xx_HAL_Driver/Src/stm32h7xx_hal_rcc.c ****         /* Check the parameters */
 765:lib/Drivers/STM32H7xx_HAL_Driver/Src/stm32h7xx_hal_rcc.c ****         assert_param(IS_RCC_PLLSOURCE(RCC_OscInitStruct->PLL.PLLSource));
 766:lib/Drivers/STM32H7xx_HAL_Driver/Src/stm32h7xx_hal_rcc.c ****         assert_param(IS_RCC_PLLRGE_VALUE(RCC_OscInitStruct->PLL.PLLRGE));
 767:lib/Drivers/STM32H7xx_HAL_Driver/Src/stm32h7xx_hal_rcc.c ****         assert_param(IS_RCC_PLLVCO_VALUE(RCC_OscInitStruct->PLL.PLLVCOSEL));
 768:lib/Drivers/STM32H7xx_HAL_Driver/Src/stm32h7xx_hal_rcc.c ****         assert_param(IS_RCC_PLLM_VALUE(RCC_OscInitStruct->PLL.PLLM));
 769:lib/Drivers/STM32H7xx_HAL_Driver/Src/stm32h7xx_hal_rcc.c ****         assert_param(IS_RCC_PLLN_VALUE(RCC_OscInitStruct->PLL.PLLN));
 770:lib/Drivers/STM32H7xx_HAL_Driver/Src/stm32h7xx_hal_rcc.c ****         assert_param(IS_RCC_PLLP_VALUE(RCC_OscInitStruct->PLL.PLLP));
 771:lib/Drivers/STM32H7xx_HAL_Driver/Src/stm32h7xx_hal_rcc.c ****         assert_param(IS_RCC_PLLQ_VALUE(RCC_OscInitStruct->PLL.PLLQ));
 772:lib/Drivers/STM32H7xx_HAL_Driver/Src/stm32h7xx_hal_rcc.c ****         assert_param(IS_RCC_PLLR_VALUE(RCC_OscInitStruct->PLL.PLLR));
 773:lib/Drivers/STM32H7xx_HAL_Driver/Src/stm32h7xx_hal_rcc.c ****         assert_param(IS_RCC_PLLFRACN_VALUE(RCC_OscInitStruct->PLL.PLLFRACN));
 774:lib/Drivers/STM32H7xx_HAL_Driver/Src/stm32h7xx_hal_rcc.c **** 
 775:lib/Drivers/STM32H7xx_HAL_Driver/Src/stm32h7xx_hal_rcc.c ****         /* Disable the main PLL. */
 776:lib/Drivers/STM32H7xx_HAL_Driver/Src/stm32h7xx_hal_rcc.c ****         __HAL_RCC_PLL_DISABLE();
 777:lib/Drivers/STM32H7xx_HAL_Driver/Src/stm32h7xx_hal_rcc.c **** 
 778:lib/Drivers/STM32H7xx_HAL_Driver/Src/stm32h7xx_hal_rcc.c ****         /* Get Start Tick*/
 779:lib/Drivers/STM32H7xx_HAL_Driver/Src/stm32h7xx_hal_rcc.c ****         tickstart = HAL_GetTick();
 780:lib/Drivers/STM32H7xx_HAL_Driver/Src/stm32h7xx_hal_rcc.c **** 
 781:lib/Drivers/STM32H7xx_HAL_Driver/Src/stm32h7xx_hal_rcc.c ****         /* Wait till PLL is disabled */
 782:lib/Drivers/STM32H7xx_HAL_Driver/Src/stm32h7xx_hal_rcc.c ****         while(__HAL_RCC_GET_FLAG(RCC_FLAG_PLLRDY) != 0U)
 783:lib/Drivers/STM32H7xx_HAL_Driver/Src/stm32h7xx_hal_rcc.c ****         {
 784:lib/Drivers/STM32H7xx_HAL_Driver/Src/stm32h7xx_hal_rcc.c ****           if((HAL_GetTick() - tickstart ) > PLL_TIMEOUT_VALUE)
 785:lib/Drivers/STM32H7xx_HAL_Driver/Src/stm32h7xx_hal_rcc.c ****           {
 786:lib/Drivers/STM32H7xx_HAL_Driver/Src/stm32h7xx_hal_rcc.c ****             return HAL_TIMEOUT;
 787:lib/Drivers/STM32H7xx_HAL_Driver/Src/stm32h7xx_hal_rcc.c ****           }
 788:lib/Drivers/STM32H7xx_HAL_Driver/Src/stm32h7xx_hal_rcc.c ****         }
 789:lib/Drivers/STM32H7xx_HAL_Driver/Src/stm32h7xx_hal_rcc.c **** 
 790:lib/Drivers/STM32H7xx_HAL_Driver/Src/stm32h7xx_hal_rcc.c ****         /* Configure the main PLL clock source, multiplication and division factors. */
 791:lib/Drivers/STM32H7xx_HAL_Driver/Src/stm32h7xx_hal_rcc.c ****         __HAL_RCC_PLL_CONFIG(RCC_OscInitStruct->PLL.PLLSource,
 792:lib/Drivers/STM32H7xx_HAL_Driver/Src/stm32h7xx_hal_rcc.c ****                              RCC_OscInitStruct->PLL.PLLM,
 793:lib/Drivers/STM32H7xx_HAL_Driver/Src/stm32h7xx_hal_rcc.c ****                              RCC_OscInitStruct->PLL.PLLN,
 794:lib/Drivers/STM32H7xx_HAL_Driver/Src/stm32h7xx_hal_rcc.c ****                              RCC_OscInitStruct->PLL.PLLP,
 795:lib/Drivers/STM32H7xx_HAL_Driver/Src/stm32h7xx_hal_rcc.c ****                              RCC_OscInitStruct->PLL.PLLQ,
 796:lib/Drivers/STM32H7xx_HAL_Driver/Src/stm32h7xx_hal_rcc.c ****                              RCC_OscInitStruct->PLL.PLLR);
 797:lib/Drivers/STM32H7xx_HAL_Driver/Src/stm32h7xx_hal_rcc.c **** 
 798:lib/Drivers/STM32H7xx_HAL_Driver/Src/stm32h7xx_hal_rcc.c ****          /* Disable PLLFRACN . */
 799:lib/Drivers/STM32H7xx_HAL_Driver/Src/stm32h7xx_hal_rcc.c ****          __HAL_RCC_PLLFRACN_DISABLE();
 800:lib/Drivers/STM32H7xx_HAL_Driver/Src/stm32h7xx_hal_rcc.c **** 
 801:lib/Drivers/STM32H7xx_HAL_Driver/Src/stm32h7xx_hal_rcc.c ****          /* Configure PLL PLL1FRACN */
 802:lib/Drivers/STM32H7xx_HAL_Driver/Src/stm32h7xx_hal_rcc.c ****          __HAL_RCC_PLLFRACN_CONFIG(RCC_OscInitStruct->PLL.PLLFRACN);
 803:lib/Drivers/STM32H7xx_HAL_Driver/Src/stm32h7xx_hal_rcc.c **** 
 804:lib/Drivers/STM32H7xx_HAL_Driver/Src/stm32h7xx_hal_rcc.c ****         /* Select PLL1 input reference frequency range: VCI */
 805:lib/Drivers/STM32H7xx_HAL_Driver/Src/stm32h7xx_hal_rcc.c ****         __HAL_RCC_PLL_VCIRANGE(RCC_OscInitStruct->PLL.PLLRGE) ;
 806:lib/Drivers/STM32H7xx_HAL_Driver/Src/stm32h7xx_hal_rcc.c **** 
 807:lib/Drivers/STM32H7xx_HAL_Driver/Src/stm32h7xx_hal_rcc.c ****         /* Select PLL1 output frequency range : VCO */
 808:lib/Drivers/STM32H7xx_HAL_Driver/Src/stm32h7xx_hal_rcc.c ****         __HAL_RCC_PLL_VCORANGE(RCC_OscInitStruct->PLL.PLLVCOSEL) ;
ARM GAS  /tmp/ccpTiR3W.s 			page 39


 809:lib/Drivers/STM32H7xx_HAL_Driver/Src/stm32h7xx_hal_rcc.c **** 
 810:lib/Drivers/STM32H7xx_HAL_Driver/Src/stm32h7xx_hal_rcc.c ****         /* Enable PLL System Clock output. */
 811:lib/Drivers/STM32H7xx_HAL_Driver/Src/stm32h7xx_hal_rcc.c ****          __HAL_RCC_PLLCLKOUT_ENABLE(RCC_PLL1_DIVP);
 812:lib/Drivers/STM32H7xx_HAL_Driver/Src/stm32h7xx_hal_rcc.c **** 
 813:lib/Drivers/STM32H7xx_HAL_Driver/Src/stm32h7xx_hal_rcc.c ****         /* Enable PLL1Q Clock output. */
 814:lib/Drivers/STM32H7xx_HAL_Driver/Src/stm32h7xx_hal_rcc.c ****          __HAL_RCC_PLLCLKOUT_ENABLE(RCC_PLL1_DIVQ);
 815:lib/Drivers/STM32H7xx_HAL_Driver/Src/stm32h7xx_hal_rcc.c **** 
 816:lib/Drivers/STM32H7xx_HAL_Driver/Src/stm32h7xx_hal_rcc.c ****         /* Enable PLL1R  Clock output. */
 817:lib/Drivers/STM32H7xx_HAL_Driver/Src/stm32h7xx_hal_rcc.c ****          __HAL_RCC_PLLCLKOUT_ENABLE(RCC_PLL1_DIVR);
 818:lib/Drivers/STM32H7xx_HAL_Driver/Src/stm32h7xx_hal_rcc.c **** 
 819:lib/Drivers/STM32H7xx_HAL_Driver/Src/stm32h7xx_hal_rcc.c ****         /* Enable PLL1FRACN . */
 820:lib/Drivers/STM32H7xx_HAL_Driver/Src/stm32h7xx_hal_rcc.c ****          __HAL_RCC_PLLFRACN_ENABLE();
 821:lib/Drivers/STM32H7xx_HAL_Driver/Src/stm32h7xx_hal_rcc.c **** 
 822:lib/Drivers/STM32H7xx_HAL_Driver/Src/stm32h7xx_hal_rcc.c ****         /* Enable the main PLL. */
 823:lib/Drivers/STM32H7xx_HAL_Driver/Src/stm32h7xx_hal_rcc.c ****         __HAL_RCC_PLL_ENABLE();
 824:lib/Drivers/STM32H7xx_HAL_Driver/Src/stm32h7xx_hal_rcc.c **** 
 825:lib/Drivers/STM32H7xx_HAL_Driver/Src/stm32h7xx_hal_rcc.c ****         /* Get Start Tick*/
 826:lib/Drivers/STM32H7xx_HAL_Driver/Src/stm32h7xx_hal_rcc.c ****         tickstart = HAL_GetTick();
 827:lib/Drivers/STM32H7xx_HAL_Driver/Src/stm32h7xx_hal_rcc.c **** 
 828:lib/Drivers/STM32H7xx_HAL_Driver/Src/stm32h7xx_hal_rcc.c ****         /* Wait till PLL is ready */
 829:lib/Drivers/STM32H7xx_HAL_Driver/Src/stm32h7xx_hal_rcc.c ****         while(__HAL_RCC_GET_FLAG(RCC_FLAG_PLLRDY) == 0U)
 830:lib/Drivers/STM32H7xx_HAL_Driver/Src/stm32h7xx_hal_rcc.c ****         {
 831:lib/Drivers/STM32H7xx_HAL_Driver/Src/stm32h7xx_hal_rcc.c ****           if((HAL_GetTick() - tickstart ) > PLL_TIMEOUT_VALUE)
 832:lib/Drivers/STM32H7xx_HAL_Driver/Src/stm32h7xx_hal_rcc.c ****           {
 833:lib/Drivers/STM32H7xx_HAL_Driver/Src/stm32h7xx_hal_rcc.c ****             return HAL_TIMEOUT;
 834:lib/Drivers/STM32H7xx_HAL_Driver/Src/stm32h7xx_hal_rcc.c ****           }
 835:lib/Drivers/STM32H7xx_HAL_Driver/Src/stm32h7xx_hal_rcc.c ****         }
 836:lib/Drivers/STM32H7xx_HAL_Driver/Src/stm32h7xx_hal_rcc.c ****       }
 837:lib/Drivers/STM32H7xx_HAL_Driver/Src/stm32h7xx_hal_rcc.c ****       else
 838:lib/Drivers/STM32H7xx_HAL_Driver/Src/stm32h7xx_hal_rcc.c ****       {
 839:lib/Drivers/STM32H7xx_HAL_Driver/Src/stm32h7xx_hal_rcc.c ****         /* Disable the main PLL. */
 840:lib/Drivers/STM32H7xx_HAL_Driver/Src/stm32h7xx_hal_rcc.c ****         __HAL_RCC_PLL_DISABLE();
 1235              		.loc 1 840 9 is_stmt 1 view .LVU403
 1236 040c 3A4A     		ldr	r2, .L165
 1237 040e 1368     		ldr	r3, [r2]
 1238 0410 23F08073 		bic	r3, r3, #16777216
 1239 0414 1360     		str	r3, [r2]
 841:lib/Drivers/STM32H7xx_HAL_Driver/Src/stm32h7xx_hal_rcc.c **** 
 842:lib/Drivers/STM32H7xx_HAL_Driver/Src/stm32h7xx_hal_rcc.c ****         /* Get Start Tick*/
 843:lib/Drivers/STM32H7xx_HAL_Driver/Src/stm32h7xx_hal_rcc.c ****         tickstart = HAL_GetTick();
 1240              		.loc 1 843 9 view .LVU404
 1241              		.loc 1 843 21 is_stmt 0 view .LVU405
 1242 0416 FFF7FEFF 		bl	HAL_GetTick
 1243              	.LVL102:
 1244 041a 0446     		mov	r4, r0
 1245              	.LVL103:
 844:lib/Drivers/STM32H7xx_HAL_Driver/Src/stm32h7xx_hal_rcc.c **** 
 845:lib/Drivers/STM32H7xx_HAL_Driver/Src/stm32h7xx_hal_rcc.c ****         /* Wait till PLL is disabled */
 846:lib/Drivers/STM32H7xx_HAL_Driver/Src/stm32h7xx_hal_rcc.c ****         while(__HAL_RCC_GET_FLAG(RCC_FLAG_PLLRDY) != 0U)
 1246              		.loc 1 846 9 is_stmt 1 view .LVU406
 1247              	.L107:
 1248              		.loc 1 846 51 view .LVU407
 1249              		.loc 1 846 15 is_stmt 0 view .LVU408
 1250 041c 364B     		ldr	r3, .L165
 1251 041e 1B68     		ldr	r3, [r3]
 1252              		.loc 1 846 51 view .LVU409
 1253 0420 13F0007F 		tst	r3, #33554432
ARM GAS  /tmp/ccpTiR3W.s 			page 40


 1254 0424 00F0DC80 		beq	.L157
 847:lib/Drivers/STM32H7xx_HAL_Driver/Src/stm32h7xx_hal_rcc.c ****         {
 848:lib/Drivers/STM32H7xx_HAL_Driver/Src/stm32h7xx_hal_rcc.c ****           if((HAL_GetTick() - tickstart ) > PLL_TIMEOUT_VALUE)
 1255              		.loc 1 848 11 is_stmt 1 view .LVU410
 1256              		.loc 1 848 15 is_stmt 0 view .LVU411
 1257 0428 FFF7FEFF 		bl	HAL_GetTick
 1258              	.LVL104:
 1259              		.loc 1 848 29 view .LVU412
 1260 042c 001B     		subs	r0, r0, r4
 1261              		.loc 1 848 13 view .LVU413
 1262 042e 0228     		cmp	r0, #2
 1263 0430 F4D9     		bls	.L107
 849:lib/Drivers/STM32H7xx_HAL_Driver/Src/stm32h7xx_hal_rcc.c ****           {
 850:lib/Drivers/STM32H7xx_HAL_Driver/Src/stm32h7xx_hal_rcc.c ****             return HAL_TIMEOUT;
 1264              		.loc 1 850 20 view .LVU414
 1265 0432 0320     		movs	r0, #3
 1266 0434 08E1     		b	.L36
 1267              	.LVL105:
 1268              	.L155:
 706:lib/Drivers/STM32H7xx_HAL_Driver/Src/stm32h7xx_hal_rcc.c **** 
 1269              		.loc 1 706 5 is_stmt 1 view .LVU415
 709:lib/Drivers/STM32H7xx_HAL_Driver/Src/stm32h7xx_hal_rcc.c **** 
 1270              		.loc 1 709 5 view .LVU416
 709:lib/Drivers/STM32H7xx_HAL_Driver/Src/stm32h7xx_hal_rcc.c **** 
 1271              		.loc 1 709 8 is_stmt 0 view .LVU417
 1272 0436 314A     		ldr	r2, .L165+4
 1273 0438 1368     		ldr	r3, [r2]
 709:lib/Drivers/STM32H7xx_HAL_Driver/Src/stm32h7xx_hal_rcc.c **** 
 1274              		.loc 1 709 14 view .LVU418
 1275 043a 43F48073 		orr	r3, r3, #256
 1276 043e 1360     		str	r3, [r2]
 712:lib/Drivers/STM32H7xx_HAL_Driver/Src/stm32h7xx_hal_rcc.c **** 
 1277              		.loc 1 712 5 is_stmt 1 view .LVU419
 712:lib/Drivers/STM32H7xx_HAL_Driver/Src/stm32h7xx_hal_rcc.c **** 
 1278              		.loc 1 712 17 is_stmt 0 view .LVU420
 1279 0440 FFF7FEFF 		bl	HAL_GetTick
 1280              	.LVL106:
 1281 0444 0546     		mov	r5, r0
 1282              	.LVL107:
 714:lib/Drivers/STM32H7xx_HAL_Driver/Src/stm32h7xx_hal_rcc.c ****     {
 1283              		.loc 1 714 5 is_stmt 1 view .LVU421
 1284              	.L90:
 714:lib/Drivers/STM32H7xx_HAL_Driver/Src/stm32h7xx_hal_rcc.c ****     {
 1285              		.loc 1 714 36 view .LVU422
 714:lib/Drivers/STM32H7xx_HAL_Driver/Src/stm32h7xx_hal_rcc.c ****     {
 1286              		.loc 1 714 15 is_stmt 0 view .LVU423
 1287 0446 2D4B     		ldr	r3, .L165+4
 1288 0448 1B68     		ldr	r3, [r3]
 714:lib/Drivers/STM32H7xx_HAL_Driver/Src/stm32h7xx_hal_rcc.c ****     {
 1289              		.loc 1 714 36 view .LVU424
 1290 044a 13F4807F 		tst	r3, #256
 1291 044e 06D1     		bne	.L158
 716:lib/Drivers/STM32H7xx_HAL_Driver/Src/stm32h7xx_hal_rcc.c ****       {
 1292              		.loc 1 716 7 is_stmt 1 view .LVU425
 716:lib/Drivers/STM32H7xx_HAL_Driver/Src/stm32h7xx_hal_rcc.c ****       {
 1293              		.loc 1 716 11 is_stmt 0 view .LVU426
 1294 0450 FFF7FEFF 		bl	HAL_GetTick
ARM GAS  /tmp/ccpTiR3W.s 			page 41


 1295              	.LVL108:
 716:lib/Drivers/STM32H7xx_HAL_Driver/Src/stm32h7xx_hal_rcc.c ****       {
 1296              		.loc 1 716 25 view .LVU427
 1297 0454 401B     		subs	r0, r0, r5
 716:lib/Drivers/STM32H7xx_HAL_Driver/Src/stm32h7xx_hal_rcc.c ****       {
 1298              		.loc 1 716 9 view .LVU428
 1299 0456 6428     		cmp	r0, #100
 1300 0458 F5D9     		bls	.L90
 718:lib/Drivers/STM32H7xx_HAL_Driver/Src/stm32h7xx_hal_rcc.c ****       }
 1301              		.loc 1 718 16 view .LVU429
 1302 045a 0320     		movs	r0, #3
 1303 045c F4E0     		b	.L36
 1304              	.L158:
 723:lib/Drivers/STM32H7xx_HAL_Driver/Src/stm32h7xx_hal_rcc.c ****     /* Check the LSE State */
 1305              		.loc 1 723 5 is_stmt 1 view .LVU430
 723:lib/Drivers/STM32H7xx_HAL_Driver/Src/stm32h7xx_hal_rcc.c ****     /* Check the LSE State */
 1306              		.loc 1 723 5 view .LVU431
 1307 045e A368     		ldr	r3, [r4, #8]
 1308 0460 012B     		cmp	r3, #1
 1309 0462 0AD0     		beq	.L159
 723:lib/Drivers/STM32H7xx_HAL_Driver/Src/stm32h7xx_hal_rcc.c ****     /* Check the LSE State */
 1310              		.loc 1 723 5 discriminator 2 view .LVU432
 1311 0464 0BBB     		cbnz	r3, .L94
 723:lib/Drivers/STM32H7xx_HAL_Driver/Src/stm32h7xx_hal_rcc.c ****     /* Check the LSE State */
 1312              		.loc 1 723 5 discriminator 4 view .LVU433
 1313 0466 244B     		ldr	r3, .L165
 1314 0468 1A6F     		ldr	r2, [r3, #112]
 1315 046a 22F00102 		bic	r2, r2, #1
 1316 046e 1A67     		str	r2, [r3, #112]
 723:lib/Drivers/STM32H7xx_HAL_Driver/Src/stm32h7xx_hal_rcc.c ****     /* Check the LSE State */
 1317              		.loc 1 723 5 discriminator 4 view .LVU434
 1318 0470 1A6F     		ldr	r2, [r3, #112]
 1319 0472 22F00402 		bic	r2, r2, #4
 1320 0476 1A67     		str	r2, [r3, #112]
 1321 0478 04E0     		b	.L93
 1322              	.L159:
 723:lib/Drivers/STM32H7xx_HAL_Driver/Src/stm32h7xx_hal_rcc.c ****     /* Check the LSE State */
 1323              		.loc 1 723 5 discriminator 1 view .LVU435
 1324 047a 1F4A     		ldr	r2, .L165
 1325 047c 136F     		ldr	r3, [r2, #112]
 1326 047e 43F00103 		orr	r3, r3, #1
 1327 0482 1367     		str	r3, [r2, #112]
 1328              	.L93:
 723:lib/Drivers/STM32H7xx_HAL_Driver/Src/stm32h7xx_hal_rcc.c ****     /* Check the LSE State */
 1329              		.loc 1 723 5 discriminator 10 view .LVU436
 725:lib/Drivers/STM32H7xx_HAL_Driver/Src/stm32h7xx_hal_rcc.c ****     {
 1330              		.loc 1 725 5 discriminator 10 view .LVU437
 725:lib/Drivers/STM32H7xx_HAL_Driver/Src/stm32h7xx_hal_rcc.c ****     {
 1331              		.loc 1 725 26 is_stmt 0 discriminator 10 view .LVU438
 1332 0484 A368     		ldr	r3, [r4, #8]
 725:lib/Drivers/STM32H7xx_HAL_Driver/Src/stm32h7xx_hal_rcc.c ****     {
 1333              		.loc 1 725 7 discriminator 10 view .LVU439
 1334 0486 33B3     		cbz	r3, .L96
 728:lib/Drivers/STM32H7xx_HAL_Driver/Src/stm32h7xx_hal_rcc.c **** 
 1335              		.loc 1 728 7 is_stmt 1 view .LVU440
 728:lib/Drivers/STM32H7xx_HAL_Driver/Src/stm32h7xx_hal_rcc.c **** 
 1336              		.loc 1 728 19 is_stmt 0 view .LVU441
ARM GAS  /tmp/ccpTiR3W.s 			page 42


 1337 0488 FFF7FEFF 		bl	HAL_GetTick
 1338              	.LVL109:
 1339 048c 0546     		mov	r5, r0
 1340              	.LVL110:
 731:lib/Drivers/STM32H7xx_HAL_Driver/Src/stm32h7xx_hal_rcc.c ****       {
 1341              		.loc 1 731 7 is_stmt 1 view .LVU442
 1342              	.L97:
 731:lib/Drivers/STM32H7xx_HAL_Driver/Src/stm32h7xx_hal_rcc.c ****       {
 1343              		.loc 1 731 49 view .LVU443
 731:lib/Drivers/STM32H7xx_HAL_Driver/Src/stm32h7xx_hal_rcc.c ****       {
 1344              		.loc 1 731 13 is_stmt 0 view .LVU444
 1345 048e 1A4B     		ldr	r3, .L165
 1346 0490 1B6F     		ldr	r3, [r3, #112]
 731:lib/Drivers/STM32H7xx_HAL_Driver/Src/stm32h7xx_hal_rcc.c ****       {
 1347              		.loc 1 731 49 view .LVU445
 1348 0492 13F0020F 		tst	r3, #2
 1349 0496 ACD1     		bne	.L89
 733:lib/Drivers/STM32H7xx_HAL_Driver/Src/stm32h7xx_hal_rcc.c ****         {
 1350              		.loc 1 733 9 is_stmt 1 view .LVU446
 733:lib/Drivers/STM32H7xx_HAL_Driver/Src/stm32h7xx_hal_rcc.c ****         {
 1351              		.loc 1 733 13 is_stmt 0 view .LVU447
 1352 0498 FFF7FEFF 		bl	HAL_GetTick
 1353              	.LVL111:
 733:lib/Drivers/STM32H7xx_HAL_Driver/Src/stm32h7xx_hal_rcc.c ****         {
 1354              		.loc 1 733 27 view .LVU448
 1355 049c 401B     		subs	r0, r0, r5
 733:lib/Drivers/STM32H7xx_HAL_Driver/Src/stm32h7xx_hal_rcc.c ****         {
 1356              		.loc 1 733 11 view .LVU449
 1357 049e 41F28833 		movw	r3, #5000
 1358 04a2 9842     		cmp	r0, r3
 1359 04a4 F3D9     		bls	.L97
 735:lib/Drivers/STM32H7xx_HAL_Driver/Src/stm32h7xx_hal_rcc.c ****         }
 1360              		.loc 1 735 18 view .LVU450
 1361 04a6 0320     		movs	r0, #3
 1362 04a8 CEE0     		b	.L36
 1363              	.L94:
 723:lib/Drivers/STM32H7xx_HAL_Driver/Src/stm32h7xx_hal_rcc.c ****     /* Check the LSE State */
 1364              		.loc 1 723 5 is_stmt 1 discriminator 5 view .LVU451
 1365 04aa 052B     		cmp	r3, #5
 1366 04ac 09D0     		beq	.L160
 723:lib/Drivers/STM32H7xx_HAL_Driver/Src/stm32h7xx_hal_rcc.c ****     /* Check the LSE State */
 1367              		.loc 1 723 5 discriminator 8 view .LVU452
 1368 04ae 124B     		ldr	r3, .L165
 1369 04b0 1A6F     		ldr	r2, [r3, #112]
 1370 04b2 22F00102 		bic	r2, r2, #1
 1371 04b6 1A67     		str	r2, [r3, #112]
 723:lib/Drivers/STM32H7xx_HAL_Driver/Src/stm32h7xx_hal_rcc.c ****     /* Check the LSE State */
 1372              		.loc 1 723 5 discriminator 8 view .LVU453
 1373 04b8 1A6F     		ldr	r2, [r3, #112]
 1374 04ba 22F00402 		bic	r2, r2, #4
 1375 04be 1A67     		str	r2, [r3, #112]
 1376 04c0 E0E7     		b	.L93
 1377              	.L160:
 723:lib/Drivers/STM32H7xx_HAL_Driver/Src/stm32h7xx_hal_rcc.c ****     /* Check the LSE State */
 1378              		.loc 1 723 5 discriminator 7 view .LVU454
 1379 04c2 0D4B     		ldr	r3, .L165
 1380 04c4 1A6F     		ldr	r2, [r3, #112]
ARM GAS  /tmp/ccpTiR3W.s 			page 43


 1381 04c6 42F00402 		orr	r2, r2, #4
 1382 04ca 1A67     		str	r2, [r3, #112]
 723:lib/Drivers/STM32H7xx_HAL_Driver/Src/stm32h7xx_hal_rcc.c ****     /* Check the LSE State */
 1383              		.loc 1 723 5 discriminator 7 view .LVU455
 1384 04cc 1A6F     		ldr	r2, [r3, #112]
 1385 04ce 42F00102 		orr	r2, r2, #1
 1386 04d2 1A67     		str	r2, [r3, #112]
 1387 04d4 D6E7     		b	.L93
 1388              	.L96:
 742:lib/Drivers/STM32H7xx_HAL_Driver/Src/stm32h7xx_hal_rcc.c **** 
 1389              		.loc 1 742 7 view .LVU456
 742:lib/Drivers/STM32H7xx_HAL_Driver/Src/stm32h7xx_hal_rcc.c **** 
 1390              		.loc 1 742 19 is_stmt 0 view .LVU457
 1391 04d6 FFF7FEFF 		bl	HAL_GetTick
 1392              	.LVL112:
 1393 04da 0546     		mov	r5, r0
 1394              	.LVL113:
 745:lib/Drivers/STM32H7xx_HAL_Driver/Src/stm32h7xx_hal_rcc.c ****       {
 1395              		.loc 1 745 7 is_stmt 1 view .LVU458
 1396              	.L99:
 745:lib/Drivers/STM32H7xx_HAL_Driver/Src/stm32h7xx_hal_rcc.c ****       {
 1397              		.loc 1 745 49 view .LVU459
 745:lib/Drivers/STM32H7xx_HAL_Driver/Src/stm32h7xx_hal_rcc.c ****       {
 1398              		.loc 1 745 13 is_stmt 0 view .LVU460
 1399 04dc 064B     		ldr	r3, .L165
 1400 04de 1B6F     		ldr	r3, [r3, #112]
 745:lib/Drivers/STM32H7xx_HAL_Driver/Src/stm32h7xx_hal_rcc.c ****       {
 1401              		.loc 1 745 49 view .LVU461
 1402 04e0 13F0020F 		tst	r3, #2
 1403 04e4 85D0     		beq	.L89
 747:lib/Drivers/STM32H7xx_HAL_Driver/Src/stm32h7xx_hal_rcc.c ****         {
 1404              		.loc 1 747 9 is_stmt 1 view .LVU462
 747:lib/Drivers/STM32H7xx_HAL_Driver/Src/stm32h7xx_hal_rcc.c ****         {
 1405              		.loc 1 747 13 is_stmt 0 view .LVU463
 1406 04e6 FFF7FEFF 		bl	HAL_GetTick
 1407              	.LVL114:
 747:lib/Drivers/STM32H7xx_HAL_Driver/Src/stm32h7xx_hal_rcc.c ****         {
 1408              		.loc 1 747 27 view .LVU464
 1409 04ea 401B     		subs	r0, r0, r5
 747:lib/Drivers/STM32H7xx_HAL_Driver/Src/stm32h7xx_hal_rcc.c ****         {
 1410              		.loc 1 747 11 view .LVU465
 1411 04ec 41F28833 		movw	r3, #5000
 1412 04f0 9842     		cmp	r0, r3
 1413 04f2 F3D9     		bls	.L99
 749:lib/Drivers/STM32H7xx_HAL_Driver/Src/stm32h7xx_hal_rcc.c ****         }
 1414              		.loc 1 749 18 view .LVU466
 1415 04f4 0320     		movs	r0, #3
 1416 04f6 A7E0     		b	.L36
 1417              	.L166:
 1418              		.align	2
 1419              	.L165:
 1420 04f8 00440258 		.word	1476543488
 1421 04fc 00480258 		.word	1476544512
 1422              	.LVL115:
 1423              	.L156:
 765:lib/Drivers/STM32H7xx_HAL_Driver/Src/stm32h7xx_hal_rcc.c ****         assert_param(IS_RCC_PLLRGE_VALUE(RCC_OscInitStruct->PLL.PLLRGE));
 1424              		.loc 1 765 9 is_stmt 1 view .LVU467
ARM GAS  /tmp/ccpTiR3W.s 			page 44


 766:lib/Drivers/STM32H7xx_HAL_Driver/Src/stm32h7xx_hal_rcc.c ****         assert_param(IS_RCC_PLLVCO_VALUE(RCC_OscInitStruct->PLL.PLLVCOSEL));
 1425              		.loc 1 766 9 view .LVU468
 767:lib/Drivers/STM32H7xx_HAL_Driver/Src/stm32h7xx_hal_rcc.c ****         assert_param(IS_RCC_PLLM_VALUE(RCC_OscInitStruct->PLL.PLLM));
 1426              		.loc 1 767 9 view .LVU469
 768:lib/Drivers/STM32H7xx_HAL_Driver/Src/stm32h7xx_hal_rcc.c ****         assert_param(IS_RCC_PLLN_VALUE(RCC_OscInitStruct->PLL.PLLN));
 1427              		.loc 1 768 9 view .LVU470
 769:lib/Drivers/STM32H7xx_HAL_Driver/Src/stm32h7xx_hal_rcc.c ****         assert_param(IS_RCC_PLLP_VALUE(RCC_OscInitStruct->PLL.PLLP));
 1428              		.loc 1 769 9 view .LVU471
 770:lib/Drivers/STM32H7xx_HAL_Driver/Src/stm32h7xx_hal_rcc.c ****         assert_param(IS_RCC_PLLQ_VALUE(RCC_OscInitStruct->PLL.PLLQ));
 1429              		.loc 1 770 9 view .LVU472
 771:lib/Drivers/STM32H7xx_HAL_Driver/Src/stm32h7xx_hal_rcc.c ****         assert_param(IS_RCC_PLLR_VALUE(RCC_OscInitStruct->PLL.PLLR));
 1430              		.loc 1 771 9 view .LVU473
 772:lib/Drivers/STM32H7xx_HAL_Driver/Src/stm32h7xx_hal_rcc.c ****         assert_param(IS_RCC_PLLFRACN_VALUE(RCC_OscInitStruct->PLL.PLLFRACN));
 1431              		.loc 1 772 9 view .LVU474
 773:lib/Drivers/STM32H7xx_HAL_Driver/Src/stm32h7xx_hal_rcc.c **** 
 1432              		.loc 1 773 9 view .LVU475
 776:lib/Drivers/STM32H7xx_HAL_Driver/Src/stm32h7xx_hal_rcc.c **** 
 1433              		.loc 1 776 9 view .LVU476
 1434 0500 594A     		ldr	r2, .L167
 1435 0502 1368     		ldr	r3, [r2]
 1436 0504 23F08073 		bic	r3, r3, #16777216
 1437 0508 1360     		str	r3, [r2]
 779:lib/Drivers/STM32H7xx_HAL_Driver/Src/stm32h7xx_hal_rcc.c **** 
 1438              		.loc 1 779 9 view .LVU477
 779:lib/Drivers/STM32H7xx_HAL_Driver/Src/stm32h7xx_hal_rcc.c **** 
 1439              		.loc 1 779 21 is_stmt 0 view .LVU478
 1440 050a FFF7FEFF 		bl	HAL_GetTick
 1441              	.LVL116:
 1442 050e 0546     		mov	r5, r0
 1443              	.LVL117:
 782:lib/Drivers/STM32H7xx_HAL_Driver/Src/stm32h7xx_hal_rcc.c ****         {
 1444              		.loc 1 782 9 is_stmt 1 view .LVU479
 1445              	.L103:
 782:lib/Drivers/STM32H7xx_HAL_Driver/Src/stm32h7xx_hal_rcc.c ****         {
 1446              		.loc 1 782 51 view .LVU480
 782:lib/Drivers/STM32H7xx_HAL_Driver/Src/stm32h7xx_hal_rcc.c ****         {
 1447              		.loc 1 782 15 is_stmt 0 view .LVU481
 1448 0510 554B     		ldr	r3, .L167
 1449 0512 1B68     		ldr	r3, [r3]
 782:lib/Drivers/STM32H7xx_HAL_Driver/Src/stm32h7xx_hal_rcc.c ****         {
 1450              		.loc 1 782 51 view .LVU482
 1451 0514 13F0007F 		tst	r3, #33554432
 1452 0518 06D0     		beq	.L161
 784:lib/Drivers/STM32H7xx_HAL_Driver/Src/stm32h7xx_hal_rcc.c ****           {
 1453              		.loc 1 784 11 is_stmt 1 view .LVU483
 784:lib/Drivers/STM32H7xx_HAL_Driver/Src/stm32h7xx_hal_rcc.c ****           {
 1454              		.loc 1 784 15 is_stmt 0 view .LVU484
 1455 051a FFF7FEFF 		bl	HAL_GetTick
 1456              	.LVL118:
 784:lib/Drivers/STM32H7xx_HAL_Driver/Src/stm32h7xx_hal_rcc.c ****           {
 1457              		.loc 1 784 29 view .LVU485
 1458 051e 401B     		subs	r0, r0, r5
 784:lib/Drivers/STM32H7xx_HAL_Driver/Src/stm32h7xx_hal_rcc.c ****           {
 1459              		.loc 1 784 13 view .LVU486
 1460 0520 0228     		cmp	r0, #2
 1461 0522 F5D9     		bls	.L103
 786:lib/Drivers/STM32H7xx_HAL_Driver/Src/stm32h7xx_hal_rcc.c ****           }
ARM GAS  /tmp/ccpTiR3W.s 			page 45


 1462              		.loc 1 786 20 view .LVU487
 1463 0524 0320     		movs	r0, #3
 1464 0526 8FE0     		b	.L36
 1465              	.L161:
 791:lib/Drivers/STM32H7xx_HAL_Driver/Src/stm32h7xx_hal_rcc.c ****                              RCC_OscInitStruct->PLL.PLLM,
 1466              		.loc 1 791 9 is_stmt 1 view .LVU488
 791:lib/Drivers/STM32H7xx_HAL_Driver/Src/stm32h7xx_hal_rcc.c ****                              RCC_OscInitStruct->PLL.PLLM,
 1467              		.loc 1 791 9 view .LVU489
 1468 0528 4F4B     		ldr	r3, .L167
 1469 052a 996A     		ldr	r1, [r3, #40]
 1470 052c 4F4A     		ldr	r2, .L167+4
 1471 052e 0A40     		ands	r2, r2, r1
 1472 0530 A16A     		ldr	r1, [r4, #40]
 1473 0532 E06A     		ldr	r0, [r4, #44]
 1474 0534 41EA0011 		orr	r1, r1, r0, lsl #4
 1475 0538 0A43     		orrs	r2, r2, r1
 1476 053a 9A62     		str	r2, [r3, #40]
 791:lib/Drivers/STM32H7xx_HAL_Driver/Src/stm32h7xx_hal_rcc.c ****                              RCC_OscInitStruct->PLL.PLLM,
 1477              		.loc 1 791 9 view .LVU490
 1478 053c 226B     		ldr	r2, [r4, #48]
 1479 053e 013A     		subs	r2, r2, #1
 1480 0540 C2F30802 		ubfx	r2, r2, #0, #9
 1481 0544 616B     		ldr	r1, [r4, #52]
 1482 0546 0139     		subs	r1, r1, #1
 1483 0548 4902     		lsls	r1, r1, #9
 1484 054a 89B2     		uxth	r1, r1
 1485 054c 0A43     		orrs	r2, r2, r1
 1486 054e A16B     		ldr	r1, [r4, #56]
 1487 0550 0139     		subs	r1, r1, #1
 1488 0552 0904     		lsls	r1, r1, #16
 1489 0554 01F4FE01 		and	r1, r1, #8323072
 1490 0558 0A43     		orrs	r2, r2, r1
 1491 055a E16B     		ldr	r1, [r4, #60]
 1492 055c 0139     		subs	r1, r1, #1
 1493 055e 0906     		lsls	r1, r1, #24
 1494 0560 01F0FE41 		and	r1, r1, #2130706432
 1495 0564 0A43     		orrs	r2, r2, r1
 1496 0566 1A63     		str	r2, [r3, #48]
 791:lib/Drivers/STM32H7xx_HAL_Driver/Src/stm32h7xx_hal_rcc.c ****                              RCC_OscInitStruct->PLL.PLLM,
 1497              		.loc 1 791 9 view .LVU491
 799:lib/Drivers/STM32H7xx_HAL_Driver/Src/stm32h7xx_hal_rcc.c **** 
 1498              		.loc 1 799 10 view .LVU492
 1499 0568 DA6A     		ldr	r2, [r3, #44]
 1500 056a 22F00102 		bic	r2, r2, #1
 1501 056e DA62     		str	r2, [r3, #44]
 802:lib/Drivers/STM32H7xx_HAL_Driver/Src/stm32h7xx_hal_rcc.c **** 
 1502              		.loc 1 802 10 view .LVU493
 1503 0570 596B     		ldr	r1, [r3, #52]
 1504 0572 3F4A     		ldr	r2, .L167+8
 1505 0574 0A40     		ands	r2, r2, r1
 1506 0576 A16C     		ldr	r1, [r4, #72]
 1507 0578 42EAC102 		orr	r2, r2, r1, lsl #3
 1508 057c 5A63     		str	r2, [r3, #52]
 805:lib/Drivers/STM32H7xx_HAL_Driver/Src/stm32h7xx_hal_rcc.c **** 
 1509              		.loc 1 805 9 view .LVU494
 1510 057e DA6A     		ldr	r2, [r3, #44]
 1511 0580 22F00C02 		bic	r2, r2, #12
ARM GAS  /tmp/ccpTiR3W.s 			page 46


 1512 0584 216C     		ldr	r1, [r4, #64]
 1513 0586 0A43     		orrs	r2, r2, r1
 1514 0588 DA62     		str	r2, [r3, #44]
 808:lib/Drivers/STM32H7xx_HAL_Driver/Src/stm32h7xx_hal_rcc.c **** 
 1515              		.loc 1 808 9 view .LVU495
 1516 058a DA6A     		ldr	r2, [r3, #44]
 1517 058c 22F00202 		bic	r2, r2, #2
 1518 0590 616C     		ldr	r1, [r4, #68]
 1519 0592 0A43     		orrs	r2, r2, r1
 1520 0594 DA62     		str	r2, [r3, #44]
 811:lib/Drivers/STM32H7xx_HAL_Driver/Src/stm32h7xx_hal_rcc.c **** 
 1521              		.loc 1 811 10 view .LVU496
 1522 0596 DA6A     		ldr	r2, [r3, #44]
 1523 0598 42F48032 		orr	r2, r2, #65536
 1524 059c DA62     		str	r2, [r3, #44]
 814:lib/Drivers/STM32H7xx_HAL_Driver/Src/stm32h7xx_hal_rcc.c **** 
 1525              		.loc 1 814 10 view .LVU497
 1526 059e DA6A     		ldr	r2, [r3, #44]
 1527 05a0 42F40032 		orr	r2, r2, #131072
 1528 05a4 DA62     		str	r2, [r3, #44]
 817:lib/Drivers/STM32H7xx_HAL_Driver/Src/stm32h7xx_hal_rcc.c **** 
 1529              		.loc 1 817 10 view .LVU498
 1530 05a6 DA6A     		ldr	r2, [r3, #44]
 1531 05a8 42F48022 		orr	r2, r2, #262144
 1532 05ac DA62     		str	r2, [r3, #44]
 820:lib/Drivers/STM32H7xx_HAL_Driver/Src/stm32h7xx_hal_rcc.c **** 
 1533              		.loc 1 820 10 view .LVU499
 1534 05ae DA6A     		ldr	r2, [r3, #44]
 1535 05b0 42F00102 		orr	r2, r2, #1
 1536 05b4 DA62     		str	r2, [r3, #44]
 823:lib/Drivers/STM32H7xx_HAL_Driver/Src/stm32h7xx_hal_rcc.c **** 
 1537              		.loc 1 823 9 view .LVU500
 1538 05b6 1A68     		ldr	r2, [r3]
 1539 05b8 42F08072 		orr	r2, r2, #16777216
 1540 05bc 1A60     		str	r2, [r3]
 826:lib/Drivers/STM32H7xx_HAL_Driver/Src/stm32h7xx_hal_rcc.c **** 
 1541              		.loc 1 826 9 view .LVU501
 826:lib/Drivers/STM32H7xx_HAL_Driver/Src/stm32h7xx_hal_rcc.c **** 
 1542              		.loc 1 826 21 is_stmt 0 view .LVU502
 1543 05be FFF7FEFF 		bl	HAL_GetTick
 1544              	.LVL119:
 1545 05c2 0446     		mov	r4, r0
 1546              	.LVL120:
 829:lib/Drivers/STM32H7xx_HAL_Driver/Src/stm32h7xx_hal_rcc.c ****         {
 1547              		.loc 1 829 9 is_stmt 1 view .LVU503
 1548              	.L105:
 829:lib/Drivers/STM32H7xx_HAL_Driver/Src/stm32h7xx_hal_rcc.c ****         {
 1549              		.loc 1 829 51 view .LVU504
 829:lib/Drivers/STM32H7xx_HAL_Driver/Src/stm32h7xx_hal_rcc.c ****         {
 1550              		.loc 1 829 15 is_stmt 0 view .LVU505
 1551 05c4 284B     		ldr	r3, .L167
 1552 05c6 1B68     		ldr	r3, [r3]
 829:lib/Drivers/STM32H7xx_HAL_Driver/Src/stm32h7xx_hal_rcc.c ****         {
 1553              		.loc 1 829 51 view .LVU506
 1554 05c8 13F0007F 		tst	r3, #33554432
 1555 05cc 06D1     		bne	.L162
 831:lib/Drivers/STM32H7xx_HAL_Driver/Src/stm32h7xx_hal_rcc.c ****           {
ARM GAS  /tmp/ccpTiR3W.s 			page 47


 1556              		.loc 1 831 11 is_stmt 1 view .LVU507
 831:lib/Drivers/STM32H7xx_HAL_Driver/Src/stm32h7xx_hal_rcc.c ****           {
 1557              		.loc 1 831 15 is_stmt 0 view .LVU508
 1558 05ce FFF7FEFF 		bl	HAL_GetTick
 1559              	.LVL121:
 831:lib/Drivers/STM32H7xx_HAL_Driver/Src/stm32h7xx_hal_rcc.c ****           {
 1560              		.loc 1 831 29 view .LVU509
 1561 05d2 001B     		subs	r0, r0, r4
 831:lib/Drivers/STM32H7xx_HAL_Driver/Src/stm32h7xx_hal_rcc.c ****           {
 1562              		.loc 1 831 13 view .LVU510
 1563 05d4 0228     		cmp	r0, #2
 1564 05d6 F5D9     		bls	.L105
 833:lib/Drivers/STM32H7xx_HAL_Driver/Src/stm32h7xx_hal_rcc.c ****           }
 1565              		.loc 1 833 20 view .LVU511
 1566 05d8 0320     		movs	r0, #3
 1567 05da 35E0     		b	.L36
 1568              	.L162:
 851:lib/Drivers/STM32H7xx_HAL_Driver/Src/stm32h7xx_hal_rcc.c ****           }
 852:lib/Drivers/STM32H7xx_HAL_Driver/Src/stm32h7xx_hal_rcc.c ****         }
 853:lib/Drivers/STM32H7xx_HAL_Driver/Src/stm32h7xx_hal_rcc.c ****       }
 854:lib/Drivers/STM32H7xx_HAL_Driver/Src/stm32h7xx_hal_rcc.c ****     }
 855:lib/Drivers/STM32H7xx_HAL_Driver/Src/stm32h7xx_hal_rcc.c ****     else
 856:lib/Drivers/STM32H7xx_HAL_Driver/Src/stm32h7xx_hal_rcc.c ****     {
 857:lib/Drivers/STM32H7xx_HAL_Driver/Src/stm32h7xx_hal_rcc.c ****       /* Do not return HAL_ERROR if request repeats the current configuration */
 858:lib/Drivers/STM32H7xx_HAL_Driver/Src/stm32h7xx_hal_rcc.c ****       temp1_pllckcfg = RCC->PLLCKSELR;
 859:lib/Drivers/STM32H7xx_HAL_Driver/Src/stm32h7xx_hal_rcc.c ****       temp2_pllckcfg = RCC->PLL1DIVR;
 860:lib/Drivers/STM32H7xx_HAL_Driver/Src/stm32h7xx_hal_rcc.c ****       if(((RCC_OscInitStruct->PLL.PLLState) == RCC_PLL_OFF) ||
 861:lib/Drivers/STM32H7xx_HAL_Driver/Src/stm32h7xx_hal_rcc.c **** 	 (READ_BIT(temp1_pllckcfg, RCC_PLLCKSELR_PLLSRC) != RCC_OscInitStruct->PLL.PLLSource) ||
 862:lib/Drivers/STM32H7xx_HAL_Driver/Src/stm32h7xx_hal_rcc.c ****          ((READ_BIT(temp1_pllckcfg, RCC_PLLCKSELR_DIVM1) >> RCC_PLLCKSELR_DIVM1_Pos) != RCC_OscInit
 863:lib/Drivers/STM32H7xx_HAL_Driver/Src/stm32h7xx_hal_rcc.c ****          (READ_BIT(temp2_pllckcfg, RCC_PLL1DIVR_N1) != (RCC_OscInitStruct->PLL.PLLN - 1U)) ||
 864:lib/Drivers/STM32H7xx_HAL_Driver/Src/stm32h7xx_hal_rcc.c ****          ((READ_BIT(temp2_pllckcfg, RCC_PLL1DIVR_P1) >> RCC_PLL1DIVR_P1_Pos) != (RCC_OscInitStruct-
 865:lib/Drivers/STM32H7xx_HAL_Driver/Src/stm32h7xx_hal_rcc.c ****          ((READ_BIT(temp2_pllckcfg, RCC_PLL1DIVR_Q1) >> RCC_PLL1DIVR_Q1_Pos) != (RCC_OscInitStruct-
 866:lib/Drivers/STM32H7xx_HAL_Driver/Src/stm32h7xx_hal_rcc.c ****          ((READ_BIT(temp2_pllckcfg, RCC_PLL1DIVR_R1) >> RCC_PLL1DIVR_R1_Pos) != (RCC_OscInitStruct-
 867:lib/Drivers/STM32H7xx_HAL_Driver/Src/stm32h7xx_hal_rcc.c ****       {
 868:lib/Drivers/STM32H7xx_HAL_Driver/Src/stm32h7xx_hal_rcc.c ****         return HAL_ERROR;
 869:lib/Drivers/STM32H7xx_HAL_Driver/Src/stm32h7xx_hal_rcc.c ****       }
 870:lib/Drivers/STM32H7xx_HAL_Driver/Src/stm32h7xx_hal_rcc.c ****     }
 871:lib/Drivers/STM32H7xx_HAL_Driver/Src/stm32h7xx_hal_rcc.c ****   }
 872:lib/Drivers/STM32H7xx_HAL_Driver/Src/stm32h7xx_hal_rcc.c ****   return HAL_OK;
 1569              		.loc 1 872 10 view .LVU512
 1570 05dc 0020     		movs	r0, #0
 1571 05de 33E0     		b	.L36
 1572              	.L157:
 1573              		.loc 1 872 10 view .LVU513
 1574 05e0 0020     		movs	r0, #0
 1575 05e2 31E0     		b	.L36
 1576              	.LVL122:
 1577              	.L101:
 858:lib/Drivers/STM32H7xx_HAL_Driver/Src/stm32h7xx_hal_rcc.c ****       temp2_pllckcfg = RCC->PLL1DIVR;
 1578              		.loc 1 858 7 is_stmt 1 view .LVU514
 858:lib/Drivers/STM32H7xx_HAL_Driver/Src/stm32h7xx_hal_rcc.c ****       temp2_pllckcfg = RCC->PLL1DIVR;
 1579              		.loc 1 858 22 is_stmt 0 view .LVU515
 1580 05e4 204A     		ldr	r2, .L167
 1581 05e6 916A     		ldr	r1, [r2, #40]
 1582              	.LVL123:
 859:lib/Drivers/STM32H7xx_HAL_Driver/Src/stm32h7xx_hal_rcc.c ****       if(((RCC_OscInitStruct->PLL.PLLState) == RCC_PLL_OFF) ||
 1583              		.loc 1 859 7 is_stmt 1 view .LVU516
ARM GAS  /tmp/ccpTiR3W.s 			page 48


 859:lib/Drivers/STM32H7xx_HAL_Driver/Src/stm32h7xx_hal_rcc.c ****       if(((RCC_OscInitStruct->PLL.PLLState) == RCC_PLL_OFF) ||
 1584              		.loc 1 859 22 is_stmt 0 view .LVU517
 1585 05e8 106B     		ldr	r0, [r2, #48]
 1586              	.LVL124:
 860:lib/Drivers/STM32H7xx_HAL_Driver/Src/stm32h7xx_hal_rcc.c **** 	 (READ_BIT(temp1_pllckcfg, RCC_PLLCKSELR_PLLSRC) != RCC_OscInitStruct->PLL.PLLSource) ||
 1587              		.loc 1 860 7 is_stmt 1 view .LVU518
 860:lib/Drivers/STM32H7xx_HAL_Driver/Src/stm32h7xx_hal_rcc.c **** 	 (READ_BIT(temp1_pllckcfg, RCC_PLLCKSELR_PLLSRC) != RCC_OscInitStruct->PLL.PLLSource) ||
 1588              		.loc 1 860 9 is_stmt 0 view .LVU519
 1589 05ea 012B     		cmp	r3, #1
 1590 05ec 2DD0     		beq	.L131
 861:lib/Drivers/STM32H7xx_HAL_Driver/Src/stm32h7xx_hal_rcc.c ****          ((READ_BIT(temp1_pllckcfg, RCC_PLLCKSELR_DIVM1) >> RCC_PLLCKSELR_DIVM1_Pos) != RCC_OscInit
 1591              		.loc 1 861 4 discriminator 1 view .LVU520
 1592 05ee 01F00303 		and	r3, r1, #3
 861:lib/Drivers/STM32H7xx_HAL_Driver/Src/stm32h7xx_hal_rcc.c ****          ((READ_BIT(temp1_pllckcfg, RCC_PLLCKSELR_DIVM1) >> RCC_PLLCKSELR_DIVM1_Pos) != RCC_OscInit
 1593              		.loc 1 861 76 discriminator 1 view .LVU521
 1594 05f2 A26A     		ldr	r2, [r4, #40]
 860:lib/Drivers/STM32H7xx_HAL_Driver/Src/stm32h7xx_hal_rcc.c **** 	 (READ_BIT(temp1_pllckcfg, RCC_PLLCKSELR_PLLSRC) != RCC_OscInitStruct->PLL.PLLSource) ||
 1595              		.loc 1 860 61 discriminator 1 view .LVU522
 1596 05f4 9342     		cmp	r3, r2
 1597 05f6 2AD1     		bne	.L132
 862:lib/Drivers/STM32H7xx_HAL_Driver/Src/stm32h7xx_hal_rcc.c ****          (READ_BIT(temp2_pllckcfg, RCC_PLL1DIVR_N1) != (RCC_OscInitStruct->PLL.PLLN - 1U)) ||
 1598              		.loc 1 862 58 view .LVU523
 1599 05f8 C1F30511 		ubfx	r1, r1, #4, #6
 1600              	.LVL125:
 862:lib/Drivers/STM32H7xx_HAL_Driver/Src/stm32h7xx_hal_rcc.c ****          (READ_BIT(temp2_pllckcfg, RCC_PLL1DIVR_N1) != (RCC_OscInitStruct->PLL.PLLN - 1U)) ||
 1601              		.loc 1 862 111 view .LVU524
 1602 05fc E36A     		ldr	r3, [r4, #44]
 861:lib/Drivers/STM32H7xx_HAL_Driver/Src/stm32h7xx_hal_rcc.c ****          ((READ_BIT(temp1_pllckcfg, RCC_PLLCKSELR_DIVM1) >> RCC_PLLCKSELR_DIVM1_Pos) != RCC_OscInit
 1603              		.loc 1 861 88 view .LVU525
 1604 05fe 9942     		cmp	r1, r3
 1605 0600 27D1     		bne	.L133
 863:lib/Drivers/STM32H7xx_HAL_Driver/Src/stm32h7xx_hal_rcc.c ****          ((READ_BIT(temp2_pllckcfg, RCC_PLL1DIVR_P1) >> RCC_PLL1DIVR_P1_Pos) != (RCC_OscInitStruct-
 1606              		.loc 1 863 11 view .LVU526
 1607 0602 C0F30802 		ubfx	r2, r0, #0, #9
 863:lib/Drivers/STM32H7xx_HAL_Driver/Src/stm32h7xx_hal_rcc.c ****          ((READ_BIT(temp2_pllckcfg, RCC_PLL1DIVR_P1) >> RCC_PLL1DIVR_P1_Pos) != (RCC_OscInitStruct-
 1608              		.loc 1 863 79 view .LVU527
 1609 0606 236B     		ldr	r3, [r4, #48]
 863:lib/Drivers/STM32H7xx_HAL_Driver/Src/stm32h7xx_hal_rcc.c ****          ((READ_BIT(temp2_pllckcfg, RCC_PLL1DIVR_P1) >> RCC_PLL1DIVR_P1_Pos) != (RCC_OscInitStruct-
 1610              		.loc 1 863 85 view .LVU528
 1611 0608 013B     		subs	r3, r3, #1
 862:lib/Drivers/STM32H7xx_HAL_Driver/Src/stm32h7xx_hal_rcc.c ****          (READ_BIT(temp2_pllckcfg, RCC_PLL1DIVR_N1) != (RCC_OscInitStruct->PLL.PLLN - 1U)) ||
 1612              		.loc 1 862 118 view .LVU529
 1613 060a 9A42     		cmp	r2, r3
 1614 060c 23D1     		bne	.L134
 864:lib/Drivers/STM32H7xx_HAL_Driver/Src/stm32h7xx_hal_rcc.c ****          ((READ_BIT(temp2_pllckcfg, RCC_PLL1DIVR_Q1) >> RCC_PLL1DIVR_Q1_Pos) != (RCC_OscInitStruct-
 1615              		.loc 1 864 54 view .LVU530
 1616 060e C0F34622 		ubfx	r2, r0, #9, #7
 864:lib/Drivers/STM32H7xx_HAL_Driver/Src/stm32h7xx_hal_rcc.c ****          ((READ_BIT(temp2_pllckcfg, RCC_PLL1DIVR_Q1) >> RCC_PLL1DIVR_Q1_Pos) != (RCC_OscInitStruct-
 1617              		.loc 1 864 104 view .LVU531
 1618 0612 636B     		ldr	r3, [r4, #52]
 864:lib/Drivers/STM32H7xx_HAL_Driver/Src/stm32h7xx_hal_rcc.c ****          ((READ_BIT(temp2_pllckcfg, RCC_PLL1DIVR_Q1) >> RCC_PLL1DIVR_Q1_Pos) != (RCC_OscInitStruct-
 1619              		.loc 1 864 110 view .LVU532
 1620 0614 013B     		subs	r3, r3, #1
 863:lib/Drivers/STM32H7xx_HAL_Driver/Src/stm32h7xx_hal_rcc.c ****          ((READ_BIT(temp2_pllckcfg, RCC_PLL1DIVR_P1) >> RCC_PLL1DIVR_P1_Pos) != (RCC_OscInitStruct-
 1621              		.loc 1 863 92 view .LVU533
 1622 0616 9A42     		cmp	r2, r3
 1623 0618 1FD1     		bne	.L135
ARM GAS  /tmp/ccpTiR3W.s 			page 49


 865:lib/Drivers/STM32H7xx_HAL_Driver/Src/stm32h7xx_hal_rcc.c ****          ((READ_BIT(temp2_pllckcfg, RCC_PLL1DIVR_R1) >> RCC_PLL1DIVR_R1_Pos) != (RCC_OscInitStruct-
 1624              		.loc 1 865 54 view .LVU534
 1625 061a C0F30642 		ubfx	r2, r0, #16, #7
 865:lib/Drivers/STM32H7xx_HAL_Driver/Src/stm32h7xx_hal_rcc.c ****          ((READ_BIT(temp2_pllckcfg, RCC_PLL1DIVR_R1) >> RCC_PLL1DIVR_R1_Pos) != (RCC_OscInitStruct-
 1626              		.loc 1 865 104 view .LVU535
 1627 061e A36B     		ldr	r3, [r4, #56]
 865:lib/Drivers/STM32H7xx_HAL_Driver/Src/stm32h7xx_hal_rcc.c ****          ((READ_BIT(temp2_pllckcfg, RCC_PLL1DIVR_R1) >> RCC_PLL1DIVR_R1_Pos) != (RCC_OscInitStruct-
 1628              		.loc 1 865 110 view .LVU536
 1629 0620 013B     		subs	r3, r3, #1
 864:lib/Drivers/STM32H7xx_HAL_Driver/Src/stm32h7xx_hal_rcc.c ****          ((READ_BIT(temp2_pllckcfg, RCC_PLL1DIVR_Q1) >> RCC_PLL1DIVR_Q1_Pos) != (RCC_OscInitStruct-
 1630              		.loc 1 864 117 view .LVU537
 1631 0622 9A42     		cmp	r2, r3
 1632 0624 1BD1     		bne	.L136
 866:lib/Drivers/STM32H7xx_HAL_Driver/Src/stm32h7xx_hal_rcc.c ****       {
 1633              		.loc 1 866 54 view .LVU538
 1634 0626 C0F30660 		ubfx	r0, r0, #24, #7
 1635              	.LVL126:
 866:lib/Drivers/STM32H7xx_HAL_Driver/Src/stm32h7xx_hal_rcc.c ****       {
 1636              		.loc 1 866 104 view .LVU539
 1637 062a E36B     		ldr	r3, [r4, #60]
 866:lib/Drivers/STM32H7xx_HAL_Driver/Src/stm32h7xx_hal_rcc.c ****       {
 1638              		.loc 1 866 110 view .LVU540
 1639 062c 013B     		subs	r3, r3, #1
 865:lib/Drivers/STM32H7xx_HAL_Driver/Src/stm32h7xx_hal_rcc.c ****          ((READ_BIT(temp2_pllckcfg, RCC_PLL1DIVR_R1) >> RCC_PLL1DIVR_R1_Pos) != (RCC_OscInitStruct-
 1640              		.loc 1 865 117 view .LVU541
 1641 062e 9842     		cmp	r0, r3
 1642 0630 17D1     		bne	.L137
 1643              		.loc 1 872 10 view .LVU542
 1644 0632 0020     		movs	r0, #0
 1645 0634 08E0     		b	.L36
 1646              	.LVL127:
 1647              	.L109:
 1648              	.LCFI2:
 1649              		.cfi_def_cfa_offset 0
 1650              		.cfi_restore 3
 1651              		.cfi_restore 4
 1652              		.cfi_restore 5
 1653              		.cfi_restore 14
 413:lib/Drivers/STM32H7xx_HAL_Driver/Src/stm32h7xx_hal_rcc.c ****   }
 1654              		.loc 1 413 12 view .LVU543
 1655 0636 0120     		movs	r0, #1
 1656              	.LVL128:
 873:lib/Drivers/STM32H7xx_HAL_Driver/Src/stm32h7xx_hal_rcc.c **** }
 1657              		.loc 1 873 1 view .LVU544
 1658 0638 7047     		bx	lr
 1659              	.LVL129:
 1660              	.L144:
 1661              	.LCFI3:
 1662              		.cfi_def_cfa_offset 16
 1663              		.cfi_offset 3, -16
 1664              		.cfi_offset 4, -12
 1665              		.cfi_offset 5, -8
 1666              		.cfi_offset 14, -4
 1667              	.LBB10:
 431:lib/Drivers/STM32H7xx_HAL_Driver/Src/stm32h7xx_hal_rcc.c ****       }
 1668              		.loc 1 431 16 view .LVU545
 1669 063a 0120     		movs	r0, #1
ARM GAS  /tmp/ccpTiR3W.s 			page 50


 1670              	.LVL130:
 431:lib/Drivers/STM32H7xx_HAL_Driver/Src/stm32h7xx_hal_rcc.c ****       }
 1671              		.loc 1 431 16 view .LVU546
 1672 063c 04E0     		b	.L36
 1673              	.LVL131:
 1674              	.L113:
 431:lib/Drivers/STM32H7xx_HAL_Driver/Src/stm32h7xx_hal_rcc.c ****       }
 1675              		.loc 1 431 16 view .LVU547
 1676              	.LBE10:
 1677              	.LBB11:
 485:lib/Drivers/STM32H7xx_HAL_Driver/Src/stm32h7xx_hal_rcc.c ****       }
 1678              		.loc 1 485 16 view .LVU548
 1679 063e 0120     		movs	r0, #1
 1680 0640 02E0     		b	.L36
 1681              	.LVL132:
 1682              	.L117:
 485:lib/Drivers/STM32H7xx_HAL_Driver/Src/stm32h7xx_hal_rcc.c ****       }
 1683              		.loc 1 485 16 view .LVU549
 1684              	.LBE11:
 1685              	.LBB12:
 566:lib/Drivers/STM32H7xx_HAL_Driver/Src/stm32h7xx_hal_rcc.c ****       }
 1686              		.loc 1 566 16 view .LVU550
 1687 0642 0120     		movs	r0, #1
 1688 0644 00E0     		b	.L36
 1689              	.LVL133:
 1690              	.L127:
 566:lib/Drivers/STM32H7xx_HAL_Driver/Src/stm32h7xx_hal_rcc.c ****       }
 1691              		.loc 1 566 16 view .LVU551
 1692              	.LBE12:
 872:lib/Drivers/STM32H7xx_HAL_Driver/Src/stm32h7xx_hal_rcc.c **** }
 1693              		.loc 1 872 10 view .LVU552
 1694 0646 0020     		movs	r0, #0
 1695              	.LVL134:
 1696              	.L36:
 1697              		.loc 1 873 1 view .LVU553
 1698 0648 38BD     		pop	{r3, r4, r5, pc}
 1699              	.LVL135:
 1700              	.L131:
 868:lib/Drivers/STM32H7xx_HAL_Driver/Src/stm32h7xx_hal_rcc.c ****       }
 1701              		.loc 1 868 16 view .LVU554
 1702 064a 0120     		movs	r0, #1
 1703              	.LVL136:
 868:lib/Drivers/STM32H7xx_HAL_Driver/Src/stm32h7xx_hal_rcc.c ****       }
 1704              		.loc 1 868 16 view .LVU555
 1705 064c FCE7     		b	.L36
 1706              	.LVL137:
 1707              	.L132:
 868:lib/Drivers/STM32H7xx_HAL_Driver/Src/stm32h7xx_hal_rcc.c ****       }
 1708              		.loc 1 868 16 view .LVU556
 1709 064e 0120     		movs	r0, #1
 1710              	.LVL138:
 868:lib/Drivers/STM32H7xx_HAL_Driver/Src/stm32h7xx_hal_rcc.c ****       }
 1711              		.loc 1 868 16 view .LVU557
 1712 0650 FAE7     		b	.L36
 1713              	.LVL139:
 1714              	.L133:
 868:lib/Drivers/STM32H7xx_HAL_Driver/Src/stm32h7xx_hal_rcc.c ****       }
ARM GAS  /tmp/ccpTiR3W.s 			page 51


 1715              		.loc 1 868 16 view .LVU558
 1716 0652 0120     		movs	r0, #1
 1717              	.LVL140:
 868:lib/Drivers/STM32H7xx_HAL_Driver/Src/stm32h7xx_hal_rcc.c ****       }
 1718              		.loc 1 868 16 view .LVU559
 1719 0654 F8E7     		b	.L36
 1720              	.LVL141:
 1721              	.L134:
 868:lib/Drivers/STM32H7xx_HAL_Driver/Src/stm32h7xx_hal_rcc.c ****       }
 1722              		.loc 1 868 16 view .LVU560
 1723 0656 0120     		movs	r0, #1
 1724              	.LVL142:
 868:lib/Drivers/STM32H7xx_HAL_Driver/Src/stm32h7xx_hal_rcc.c ****       }
 1725              		.loc 1 868 16 view .LVU561
 1726 0658 F6E7     		b	.L36
 1727              	.LVL143:
 1728              	.L135:
 868:lib/Drivers/STM32H7xx_HAL_Driver/Src/stm32h7xx_hal_rcc.c ****       }
 1729              		.loc 1 868 16 view .LVU562
 1730 065a 0120     		movs	r0, #1
 1731              	.LVL144:
 868:lib/Drivers/STM32H7xx_HAL_Driver/Src/stm32h7xx_hal_rcc.c ****       }
 1732              		.loc 1 868 16 view .LVU563
 1733 065c F4E7     		b	.L36
 1734              	.LVL145:
 1735              	.L136:
 868:lib/Drivers/STM32H7xx_HAL_Driver/Src/stm32h7xx_hal_rcc.c ****       }
 1736              		.loc 1 868 16 view .LVU564
 1737 065e 0120     		movs	r0, #1
 1738              	.LVL146:
 868:lib/Drivers/STM32H7xx_HAL_Driver/Src/stm32h7xx_hal_rcc.c ****       }
 1739              		.loc 1 868 16 view .LVU565
 1740 0660 F2E7     		b	.L36
 1741              	.L137:
 1742 0662 0120     		movs	r0, #1
 1743 0664 F0E7     		b	.L36
 1744              	.L168:
 1745 0666 00BF     		.align	2
 1746              	.L167:
 1747 0668 00440258 		.word	1476543488
 1748 066c 0CFCFFFF 		.word	-1012
 1749 0670 0700FFFF 		.word	-65529
 1750              		.cfi_endproc
 1751              	.LFE145:
 1753              		.section	.text.HAL_RCC_MCOConfig,"ax",%progbits
 1754              		.align	1
 1755              		.global	HAL_RCC_MCOConfig
 1756              		.syntax unified
 1757              		.thumb
 1758              		.thumb_func
 1760              	HAL_RCC_MCOConfig:
 1761              	.LVL147:
 1762              	.LFB147:
 874:lib/Drivers/STM32H7xx_HAL_Driver/Src/stm32h7xx_hal_rcc.c **** 
 875:lib/Drivers/STM32H7xx_HAL_Driver/Src/stm32h7xx_hal_rcc.c **** /**
 876:lib/Drivers/STM32H7xx_HAL_Driver/Src/stm32h7xx_hal_rcc.c ****   * @brief  Initializes the CPU, AHB and APB buses clocks according to the specified
 877:lib/Drivers/STM32H7xx_HAL_Driver/Src/stm32h7xx_hal_rcc.c ****   *         parameters in the RCC_ClkInitStruct.
ARM GAS  /tmp/ccpTiR3W.s 			page 52


 878:lib/Drivers/STM32H7xx_HAL_Driver/Src/stm32h7xx_hal_rcc.c ****   * @param  RCC_ClkInitStruct: pointer to an RCC_OscInitTypeDef structure that
 879:lib/Drivers/STM32H7xx_HAL_Driver/Src/stm32h7xx_hal_rcc.c ****   *         contains the configuration information for the RCC peripheral.
 880:lib/Drivers/STM32H7xx_HAL_Driver/Src/stm32h7xx_hal_rcc.c ****   * @param  FLatency: FLASH Latency, this parameter depend on device selected
 881:lib/Drivers/STM32H7xx_HAL_Driver/Src/stm32h7xx_hal_rcc.c ****   *
 882:lib/Drivers/STM32H7xx_HAL_Driver/Src/stm32h7xx_hal_rcc.c ****   * @note   The SystemCoreClock CMSIS variable is used to store System Core Clock Frequency
 883:lib/Drivers/STM32H7xx_HAL_Driver/Src/stm32h7xx_hal_rcc.c ****   *         and updated by HAL_InitTick() function called within this function
 884:lib/Drivers/STM32H7xx_HAL_Driver/Src/stm32h7xx_hal_rcc.c ****   *
 885:lib/Drivers/STM32H7xx_HAL_Driver/Src/stm32h7xx_hal_rcc.c ****   * @note   The HSI is used (enabled by hardware) as system clock source after
 886:lib/Drivers/STM32H7xx_HAL_Driver/Src/stm32h7xx_hal_rcc.c ****   *         start-up from Reset, wake-up from STOP and STANDBY mode, or in case
 887:lib/Drivers/STM32H7xx_HAL_Driver/Src/stm32h7xx_hal_rcc.c ****   *         of failure of the HSE used directly or indirectly as system clock
 888:lib/Drivers/STM32H7xx_HAL_Driver/Src/stm32h7xx_hal_rcc.c ****   *         (if the Clock Security System CSS is enabled).
 889:lib/Drivers/STM32H7xx_HAL_Driver/Src/stm32h7xx_hal_rcc.c ****   *
 890:lib/Drivers/STM32H7xx_HAL_Driver/Src/stm32h7xx_hal_rcc.c ****   * @note   A switch from one clock source to another occurs only if the target
 891:lib/Drivers/STM32H7xx_HAL_Driver/Src/stm32h7xx_hal_rcc.c ****   *         clock source is ready (clock stable after start-up delay or PLL locked).
 892:lib/Drivers/STM32H7xx_HAL_Driver/Src/stm32h7xx_hal_rcc.c ****   *         If a clock source which is not yet ready is selected, the switch will
 893:lib/Drivers/STM32H7xx_HAL_Driver/Src/stm32h7xx_hal_rcc.c ****   *         occur when the clock source will be ready.
 894:lib/Drivers/STM32H7xx_HAL_Driver/Src/stm32h7xx_hal_rcc.c ****   *         You can use HAL_RCC_GetClockConfig() function to know which clock is
 895:lib/Drivers/STM32H7xx_HAL_Driver/Src/stm32h7xx_hal_rcc.c ****   *         currently used as system clock source.
 896:lib/Drivers/STM32H7xx_HAL_Driver/Src/stm32h7xx_hal_rcc.c ****   * @note   Depending on the device voltage range, the software has to set correctly
 897:lib/Drivers/STM32H7xx_HAL_Driver/Src/stm32h7xx_hal_rcc.c ****   *         D1CPRE[3:0] bits to ensure that  Domain1 core clock not exceed the maximum allowed freq
 898:lib/Drivers/STM32H7xx_HAL_Driver/Src/stm32h7xx_hal_rcc.c ****   *         (for more details refer to section above "Initialization/de-initialization functions")
 899:lib/Drivers/STM32H7xx_HAL_Driver/Src/stm32h7xx_hal_rcc.c ****   * @retval None
 900:lib/Drivers/STM32H7xx_HAL_Driver/Src/stm32h7xx_hal_rcc.c ****   */
 901:lib/Drivers/STM32H7xx_HAL_Driver/Src/stm32h7xx_hal_rcc.c **** HAL_StatusTypeDef HAL_RCC_ClockConfig(RCC_ClkInitTypeDef  *RCC_ClkInitStruct, uint32_t FLatency)
 902:lib/Drivers/STM32H7xx_HAL_Driver/Src/stm32h7xx_hal_rcc.c **** {
 903:lib/Drivers/STM32H7xx_HAL_Driver/Src/stm32h7xx_hal_rcc.c ****   HAL_StatusTypeDef halstatus;
 904:lib/Drivers/STM32H7xx_HAL_Driver/Src/stm32h7xx_hal_rcc.c ****   uint32_t tickstart;
 905:lib/Drivers/STM32H7xx_HAL_Driver/Src/stm32h7xx_hal_rcc.c ****   uint32_t common_system_clock;
 906:lib/Drivers/STM32H7xx_HAL_Driver/Src/stm32h7xx_hal_rcc.c **** 
 907:lib/Drivers/STM32H7xx_HAL_Driver/Src/stm32h7xx_hal_rcc.c ****    /* Check Null pointer */
 908:lib/Drivers/STM32H7xx_HAL_Driver/Src/stm32h7xx_hal_rcc.c ****   if(RCC_ClkInitStruct == NULL)
 909:lib/Drivers/STM32H7xx_HAL_Driver/Src/stm32h7xx_hal_rcc.c ****   {
 910:lib/Drivers/STM32H7xx_HAL_Driver/Src/stm32h7xx_hal_rcc.c ****     return HAL_ERROR;
 911:lib/Drivers/STM32H7xx_HAL_Driver/Src/stm32h7xx_hal_rcc.c ****   }
 912:lib/Drivers/STM32H7xx_HAL_Driver/Src/stm32h7xx_hal_rcc.c **** 
 913:lib/Drivers/STM32H7xx_HAL_Driver/Src/stm32h7xx_hal_rcc.c ****   /* Check the parameters */
 914:lib/Drivers/STM32H7xx_HAL_Driver/Src/stm32h7xx_hal_rcc.c ****   assert_param(IS_RCC_CLOCKTYPE(RCC_ClkInitStruct->ClockType));
 915:lib/Drivers/STM32H7xx_HAL_Driver/Src/stm32h7xx_hal_rcc.c ****   assert_param(IS_FLASH_LATENCY(FLatency));
 916:lib/Drivers/STM32H7xx_HAL_Driver/Src/stm32h7xx_hal_rcc.c **** 
 917:lib/Drivers/STM32H7xx_HAL_Driver/Src/stm32h7xx_hal_rcc.c ****   /* To correctly read data from FLASH memory, the number of wait states (LATENCY)
 918:lib/Drivers/STM32H7xx_HAL_Driver/Src/stm32h7xx_hal_rcc.c ****     must be correctly programmed according to the frequency of the CPU clock
 919:lib/Drivers/STM32H7xx_HAL_Driver/Src/stm32h7xx_hal_rcc.c ****     (HCLK) and the supply voltage of the device. */
 920:lib/Drivers/STM32H7xx_HAL_Driver/Src/stm32h7xx_hal_rcc.c **** 
 921:lib/Drivers/STM32H7xx_HAL_Driver/Src/stm32h7xx_hal_rcc.c ****   /* Increasing the CPU frequency */
 922:lib/Drivers/STM32H7xx_HAL_Driver/Src/stm32h7xx_hal_rcc.c ****   if(FLatency > __HAL_FLASH_GET_LATENCY())
 923:lib/Drivers/STM32H7xx_HAL_Driver/Src/stm32h7xx_hal_rcc.c ****   {
 924:lib/Drivers/STM32H7xx_HAL_Driver/Src/stm32h7xx_hal_rcc.c ****     /* Program the new number of wait states to the LATENCY bits in the FLASH_ACR register */
 925:lib/Drivers/STM32H7xx_HAL_Driver/Src/stm32h7xx_hal_rcc.c ****     __HAL_FLASH_SET_LATENCY(FLatency);
 926:lib/Drivers/STM32H7xx_HAL_Driver/Src/stm32h7xx_hal_rcc.c **** 
 927:lib/Drivers/STM32H7xx_HAL_Driver/Src/stm32h7xx_hal_rcc.c ****     /* Check that the new number of wait states is taken into account to access the Flash
 928:lib/Drivers/STM32H7xx_HAL_Driver/Src/stm32h7xx_hal_rcc.c ****     memory by reading the FLASH_ACR register */
 929:lib/Drivers/STM32H7xx_HAL_Driver/Src/stm32h7xx_hal_rcc.c ****     if(__HAL_FLASH_GET_LATENCY() != FLatency)
 930:lib/Drivers/STM32H7xx_HAL_Driver/Src/stm32h7xx_hal_rcc.c ****     {
 931:lib/Drivers/STM32H7xx_HAL_Driver/Src/stm32h7xx_hal_rcc.c ****       return HAL_ERROR;
 932:lib/Drivers/STM32H7xx_HAL_Driver/Src/stm32h7xx_hal_rcc.c ****     }
 933:lib/Drivers/STM32H7xx_HAL_Driver/Src/stm32h7xx_hal_rcc.c **** 
 934:lib/Drivers/STM32H7xx_HAL_Driver/Src/stm32h7xx_hal_rcc.c ****   }
ARM GAS  /tmp/ccpTiR3W.s 			page 53


 935:lib/Drivers/STM32H7xx_HAL_Driver/Src/stm32h7xx_hal_rcc.c **** 
 936:lib/Drivers/STM32H7xx_HAL_Driver/Src/stm32h7xx_hal_rcc.c ****   /* Increasing the BUS frequency divider */
 937:lib/Drivers/STM32H7xx_HAL_Driver/Src/stm32h7xx_hal_rcc.c ****   /*-------------------------- D1PCLK1/CDPCLK1 Configuration ---------------------------*/
 938:lib/Drivers/STM32H7xx_HAL_Driver/Src/stm32h7xx_hal_rcc.c ****   if(((RCC_ClkInitStruct->ClockType) & RCC_CLOCKTYPE_D1PCLK1) == RCC_CLOCKTYPE_D1PCLK1)
 939:lib/Drivers/STM32H7xx_HAL_Driver/Src/stm32h7xx_hal_rcc.c ****   {
 940:lib/Drivers/STM32H7xx_HAL_Driver/Src/stm32h7xx_hal_rcc.c **** #if defined (RCC_D1CFGR_D1PPRE)
 941:lib/Drivers/STM32H7xx_HAL_Driver/Src/stm32h7xx_hal_rcc.c ****     if((RCC_ClkInitStruct->APB3CLKDivider) > (RCC->D1CFGR & RCC_D1CFGR_D1PPRE))
 942:lib/Drivers/STM32H7xx_HAL_Driver/Src/stm32h7xx_hal_rcc.c ****     {
 943:lib/Drivers/STM32H7xx_HAL_Driver/Src/stm32h7xx_hal_rcc.c ****       assert_param(IS_RCC_D1PCLK1(RCC_ClkInitStruct->APB3CLKDivider));
 944:lib/Drivers/STM32H7xx_HAL_Driver/Src/stm32h7xx_hal_rcc.c ****       MODIFY_REG(RCC->D1CFGR, RCC_D1CFGR_D1PPRE, RCC_ClkInitStruct->APB3CLKDivider);
 945:lib/Drivers/STM32H7xx_HAL_Driver/Src/stm32h7xx_hal_rcc.c ****     }
 946:lib/Drivers/STM32H7xx_HAL_Driver/Src/stm32h7xx_hal_rcc.c **** #else
 947:lib/Drivers/STM32H7xx_HAL_Driver/Src/stm32h7xx_hal_rcc.c ****     if((RCC_ClkInitStruct->APB3CLKDivider) > (RCC->CDCFGR1 & RCC_CDCFGR1_CDPPRE))
 948:lib/Drivers/STM32H7xx_HAL_Driver/Src/stm32h7xx_hal_rcc.c ****     {
 949:lib/Drivers/STM32H7xx_HAL_Driver/Src/stm32h7xx_hal_rcc.c ****       assert_param(IS_RCC_CDPCLK1(RCC_ClkInitStruct->APB3CLKDivider));
 950:lib/Drivers/STM32H7xx_HAL_Driver/Src/stm32h7xx_hal_rcc.c ****       MODIFY_REG(RCC->CDCFGR1, RCC_CDCFGR1_CDPPRE, RCC_ClkInitStruct->APB3CLKDivider);
 951:lib/Drivers/STM32H7xx_HAL_Driver/Src/stm32h7xx_hal_rcc.c ****     }
 952:lib/Drivers/STM32H7xx_HAL_Driver/Src/stm32h7xx_hal_rcc.c **** #endif
 953:lib/Drivers/STM32H7xx_HAL_Driver/Src/stm32h7xx_hal_rcc.c ****   }
 954:lib/Drivers/STM32H7xx_HAL_Driver/Src/stm32h7xx_hal_rcc.c **** 
 955:lib/Drivers/STM32H7xx_HAL_Driver/Src/stm32h7xx_hal_rcc.c ****   /*-------------------------- PCLK1 Configuration ---------------------------*/
 956:lib/Drivers/STM32H7xx_HAL_Driver/Src/stm32h7xx_hal_rcc.c ****   if(((RCC_ClkInitStruct->ClockType) & RCC_CLOCKTYPE_PCLK1) == RCC_CLOCKTYPE_PCLK1)
 957:lib/Drivers/STM32H7xx_HAL_Driver/Src/stm32h7xx_hal_rcc.c ****   {
 958:lib/Drivers/STM32H7xx_HAL_Driver/Src/stm32h7xx_hal_rcc.c **** #if defined (RCC_D2CFGR_D2PPRE1)
 959:lib/Drivers/STM32H7xx_HAL_Driver/Src/stm32h7xx_hal_rcc.c ****     if((RCC_ClkInitStruct->APB1CLKDivider) > (RCC->D2CFGR & RCC_D2CFGR_D2PPRE1))
 960:lib/Drivers/STM32H7xx_HAL_Driver/Src/stm32h7xx_hal_rcc.c ****     {
 961:lib/Drivers/STM32H7xx_HAL_Driver/Src/stm32h7xx_hal_rcc.c ****       assert_param(IS_RCC_PCLK1(RCC_ClkInitStruct->APB1CLKDivider));
 962:lib/Drivers/STM32H7xx_HAL_Driver/Src/stm32h7xx_hal_rcc.c ****       MODIFY_REG(RCC->D2CFGR, RCC_D2CFGR_D2PPRE1, (RCC_ClkInitStruct->APB1CLKDivider));
 963:lib/Drivers/STM32H7xx_HAL_Driver/Src/stm32h7xx_hal_rcc.c ****     }
 964:lib/Drivers/STM32H7xx_HAL_Driver/Src/stm32h7xx_hal_rcc.c **** #else
 965:lib/Drivers/STM32H7xx_HAL_Driver/Src/stm32h7xx_hal_rcc.c ****     if((RCC_ClkInitStruct->APB1CLKDivider) > (RCC->CDCFGR2 & RCC_CDCFGR2_CDPPRE1))
 966:lib/Drivers/STM32H7xx_HAL_Driver/Src/stm32h7xx_hal_rcc.c ****     {
 967:lib/Drivers/STM32H7xx_HAL_Driver/Src/stm32h7xx_hal_rcc.c ****       assert_param(IS_RCC_PCLK1(RCC_ClkInitStruct->APB1CLKDivider));
 968:lib/Drivers/STM32H7xx_HAL_Driver/Src/stm32h7xx_hal_rcc.c ****       MODIFY_REG(RCC->CDCFGR2, RCC_CDCFGR2_CDPPRE1, (RCC_ClkInitStruct->APB1CLKDivider));
 969:lib/Drivers/STM32H7xx_HAL_Driver/Src/stm32h7xx_hal_rcc.c ****   }
 970:lib/Drivers/STM32H7xx_HAL_Driver/Src/stm32h7xx_hal_rcc.c **** #endif
 971:lib/Drivers/STM32H7xx_HAL_Driver/Src/stm32h7xx_hal_rcc.c ****     }
 972:lib/Drivers/STM32H7xx_HAL_Driver/Src/stm32h7xx_hal_rcc.c ****   /*-------------------------- PCLK2 Configuration ---------------------------*/
 973:lib/Drivers/STM32H7xx_HAL_Driver/Src/stm32h7xx_hal_rcc.c ****   if(((RCC_ClkInitStruct->ClockType) & RCC_CLOCKTYPE_PCLK2) == RCC_CLOCKTYPE_PCLK2)
 974:lib/Drivers/STM32H7xx_HAL_Driver/Src/stm32h7xx_hal_rcc.c ****   {
 975:lib/Drivers/STM32H7xx_HAL_Driver/Src/stm32h7xx_hal_rcc.c **** #if defined(RCC_D2CFGR_D2PPRE2)
 976:lib/Drivers/STM32H7xx_HAL_Driver/Src/stm32h7xx_hal_rcc.c ****     if((RCC_ClkInitStruct->APB2CLKDivider) > (RCC->D2CFGR & RCC_D2CFGR_D2PPRE2))
 977:lib/Drivers/STM32H7xx_HAL_Driver/Src/stm32h7xx_hal_rcc.c ****     {
 978:lib/Drivers/STM32H7xx_HAL_Driver/Src/stm32h7xx_hal_rcc.c ****       assert_param(IS_RCC_PCLK2(RCC_ClkInitStruct->APB2CLKDivider));
 979:lib/Drivers/STM32H7xx_HAL_Driver/Src/stm32h7xx_hal_rcc.c ****       MODIFY_REG(RCC->D2CFGR, RCC_D2CFGR_D2PPRE2, (RCC_ClkInitStruct->APB2CLKDivider));
 980:lib/Drivers/STM32H7xx_HAL_Driver/Src/stm32h7xx_hal_rcc.c ****     }
 981:lib/Drivers/STM32H7xx_HAL_Driver/Src/stm32h7xx_hal_rcc.c **** #else
 982:lib/Drivers/STM32H7xx_HAL_Driver/Src/stm32h7xx_hal_rcc.c ****      if((RCC_ClkInitStruct->APB2CLKDivider) > (RCC->CDCFGR2 & RCC_CDCFGR2_CDPPRE2))
 983:lib/Drivers/STM32H7xx_HAL_Driver/Src/stm32h7xx_hal_rcc.c ****     {
 984:lib/Drivers/STM32H7xx_HAL_Driver/Src/stm32h7xx_hal_rcc.c ****       assert_param(IS_RCC_PCLK2(RCC_ClkInitStruct->APB2CLKDivider));
 985:lib/Drivers/STM32H7xx_HAL_Driver/Src/stm32h7xx_hal_rcc.c ****       MODIFY_REG(RCC->CDCFGR2, RCC_CDCFGR2_CDPPRE2, (RCC_ClkInitStruct->APB2CLKDivider));
 986:lib/Drivers/STM32H7xx_HAL_Driver/Src/stm32h7xx_hal_rcc.c ****     }
 987:lib/Drivers/STM32H7xx_HAL_Driver/Src/stm32h7xx_hal_rcc.c **** #endif
 988:lib/Drivers/STM32H7xx_HAL_Driver/Src/stm32h7xx_hal_rcc.c ****   }
 989:lib/Drivers/STM32H7xx_HAL_Driver/Src/stm32h7xx_hal_rcc.c **** 
 990:lib/Drivers/STM32H7xx_HAL_Driver/Src/stm32h7xx_hal_rcc.c ****   /*-------------------------- D3PCLK1 Configuration ---------------------------*/
 991:lib/Drivers/STM32H7xx_HAL_Driver/Src/stm32h7xx_hal_rcc.c ****   if(((RCC_ClkInitStruct->ClockType) & RCC_CLOCKTYPE_D3PCLK1) == RCC_CLOCKTYPE_D3PCLK1)
ARM GAS  /tmp/ccpTiR3W.s 			page 54


 992:lib/Drivers/STM32H7xx_HAL_Driver/Src/stm32h7xx_hal_rcc.c ****   {
 993:lib/Drivers/STM32H7xx_HAL_Driver/Src/stm32h7xx_hal_rcc.c **** #if defined(RCC_D3CFGR_D3PPRE)
 994:lib/Drivers/STM32H7xx_HAL_Driver/Src/stm32h7xx_hal_rcc.c ****     if((RCC_ClkInitStruct->APB4CLKDivider) > (RCC->D3CFGR & RCC_D3CFGR_D3PPRE))
 995:lib/Drivers/STM32H7xx_HAL_Driver/Src/stm32h7xx_hal_rcc.c ****     {
 996:lib/Drivers/STM32H7xx_HAL_Driver/Src/stm32h7xx_hal_rcc.c ****       assert_param(IS_RCC_D3PCLK1(RCC_ClkInitStruct->APB4CLKDivider));
 997:lib/Drivers/STM32H7xx_HAL_Driver/Src/stm32h7xx_hal_rcc.c ****       MODIFY_REG(RCC->D3CFGR, RCC_D3CFGR_D3PPRE, (RCC_ClkInitStruct->APB4CLKDivider) );
 998:lib/Drivers/STM32H7xx_HAL_Driver/Src/stm32h7xx_hal_rcc.c ****     }
 999:lib/Drivers/STM32H7xx_HAL_Driver/Src/stm32h7xx_hal_rcc.c **** #else
1000:lib/Drivers/STM32H7xx_HAL_Driver/Src/stm32h7xx_hal_rcc.c ****     if((RCC_ClkInitStruct->APB4CLKDivider) > (RCC->SRDCFGR & RCC_SRDCFGR_SRDPPRE))
1001:lib/Drivers/STM32H7xx_HAL_Driver/Src/stm32h7xx_hal_rcc.c ****     {
1002:lib/Drivers/STM32H7xx_HAL_Driver/Src/stm32h7xx_hal_rcc.c ****       assert_param(IS_RCC_D3PCLK1(RCC_ClkInitStruct->APB4CLKDivider));
1003:lib/Drivers/STM32H7xx_HAL_Driver/Src/stm32h7xx_hal_rcc.c ****       MODIFY_REG(RCC->SRDCFGR, RCC_SRDCFGR_SRDPPRE, (RCC_ClkInitStruct->APB4CLKDivider) );
1004:lib/Drivers/STM32H7xx_HAL_Driver/Src/stm32h7xx_hal_rcc.c ****     }
1005:lib/Drivers/STM32H7xx_HAL_Driver/Src/stm32h7xx_hal_rcc.c **** #endif
1006:lib/Drivers/STM32H7xx_HAL_Driver/Src/stm32h7xx_hal_rcc.c ****   }
1007:lib/Drivers/STM32H7xx_HAL_Driver/Src/stm32h7xx_hal_rcc.c **** 
1008:lib/Drivers/STM32H7xx_HAL_Driver/Src/stm32h7xx_hal_rcc.c ****    /*-------------------------- HCLK Configuration --------------------------*/
1009:lib/Drivers/STM32H7xx_HAL_Driver/Src/stm32h7xx_hal_rcc.c ****   if(((RCC_ClkInitStruct->ClockType) & RCC_CLOCKTYPE_HCLK) == RCC_CLOCKTYPE_HCLK)
1010:lib/Drivers/STM32H7xx_HAL_Driver/Src/stm32h7xx_hal_rcc.c ****   {
1011:lib/Drivers/STM32H7xx_HAL_Driver/Src/stm32h7xx_hal_rcc.c **** #if defined (RCC_D1CFGR_HPRE)
1012:lib/Drivers/STM32H7xx_HAL_Driver/Src/stm32h7xx_hal_rcc.c ****     if((RCC_ClkInitStruct->AHBCLKDivider) > (RCC->D1CFGR & RCC_D1CFGR_HPRE))
1013:lib/Drivers/STM32H7xx_HAL_Driver/Src/stm32h7xx_hal_rcc.c ****     {
1014:lib/Drivers/STM32H7xx_HAL_Driver/Src/stm32h7xx_hal_rcc.c ****       /* Set the new HCLK clock divider */
1015:lib/Drivers/STM32H7xx_HAL_Driver/Src/stm32h7xx_hal_rcc.c ****       assert_param(IS_RCC_HCLK(RCC_ClkInitStruct->AHBCLKDivider));
1016:lib/Drivers/STM32H7xx_HAL_Driver/Src/stm32h7xx_hal_rcc.c ****       MODIFY_REG(RCC->D1CFGR, RCC_D1CFGR_HPRE, RCC_ClkInitStruct->AHBCLKDivider);
1017:lib/Drivers/STM32H7xx_HAL_Driver/Src/stm32h7xx_hal_rcc.c ****     }
1018:lib/Drivers/STM32H7xx_HAL_Driver/Src/stm32h7xx_hal_rcc.c **** #else
1019:lib/Drivers/STM32H7xx_HAL_Driver/Src/stm32h7xx_hal_rcc.c ****         if((RCC_ClkInitStruct->AHBCLKDivider) > (RCC->CDCFGR1 & RCC_CDCFGR1_HPRE))
1020:lib/Drivers/STM32H7xx_HAL_Driver/Src/stm32h7xx_hal_rcc.c ****     {
1021:lib/Drivers/STM32H7xx_HAL_Driver/Src/stm32h7xx_hal_rcc.c ****       /* Set the new HCLK clock divider */
1022:lib/Drivers/STM32H7xx_HAL_Driver/Src/stm32h7xx_hal_rcc.c ****       assert_param(IS_RCC_HCLK(RCC_ClkInitStruct->AHBCLKDivider));
1023:lib/Drivers/STM32H7xx_HAL_Driver/Src/stm32h7xx_hal_rcc.c ****       MODIFY_REG(RCC->CDCFGR1, RCC_CDCFGR1_HPRE, RCC_ClkInitStruct->AHBCLKDivider);
1024:lib/Drivers/STM32H7xx_HAL_Driver/Src/stm32h7xx_hal_rcc.c ****     }
1025:lib/Drivers/STM32H7xx_HAL_Driver/Src/stm32h7xx_hal_rcc.c **** #endif
1026:lib/Drivers/STM32H7xx_HAL_Driver/Src/stm32h7xx_hal_rcc.c ****   }
1027:lib/Drivers/STM32H7xx_HAL_Driver/Src/stm32h7xx_hal_rcc.c **** 
1028:lib/Drivers/STM32H7xx_HAL_Driver/Src/stm32h7xx_hal_rcc.c ****     /*------------------------- SYSCLK Configuration -------------------------*/
1029:lib/Drivers/STM32H7xx_HAL_Driver/Src/stm32h7xx_hal_rcc.c ****     if(((RCC_ClkInitStruct->ClockType) & RCC_CLOCKTYPE_SYSCLK) == RCC_CLOCKTYPE_SYSCLK)
1030:lib/Drivers/STM32H7xx_HAL_Driver/Src/stm32h7xx_hal_rcc.c ****     {
1031:lib/Drivers/STM32H7xx_HAL_Driver/Src/stm32h7xx_hal_rcc.c ****       assert_param(IS_RCC_SYSCLK(RCC_ClkInitStruct->SYSCLKDivider));
1032:lib/Drivers/STM32H7xx_HAL_Driver/Src/stm32h7xx_hal_rcc.c ****       assert_param(IS_RCC_SYSCLKSOURCE(RCC_ClkInitStruct->SYSCLKSource));
1033:lib/Drivers/STM32H7xx_HAL_Driver/Src/stm32h7xx_hal_rcc.c **** #if defined(RCC_D1CFGR_D1CPRE)
1034:lib/Drivers/STM32H7xx_HAL_Driver/Src/stm32h7xx_hal_rcc.c ****       MODIFY_REG(RCC->D1CFGR, RCC_D1CFGR_D1CPRE, RCC_ClkInitStruct->SYSCLKDivider);
1035:lib/Drivers/STM32H7xx_HAL_Driver/Src/stm32h7xx_hal_rcc.c **** #else
1036:lib/Drivers/STM32H7xx_HAL_Driver/Src/stm32h7xx_hal_rcc.c ****       MODIFY_REG(RCC->CDCFGR1, RCC_CDCFGR1_CDCPRE, RCC_ClkInitStruct->SYSCLKDivider);
1037:lib/Drivers/STM32H7xx_HAL_Driver/Src/stm32h7xx_hal_rcc.c **** #endif
1038:lib/Drivers/STM32H7xx_HAL_Driver/Src/stm32h7xx_hal_rcc.c ****       /* HSE is selected as System Clock Source */
1039:lib/Drivers/STM32H7xx_HAL_Driver/Src/stm32h7xx_hal_rcc.c ****       if(RCC_ClkInitStruct->SYSCLKSource == RCC_SYSCLKSOURCE_HSE)
1040:lib/Drivers/STM32H7xx_HAL_Driver/Src/stm32h7xx_hal_rcc.c ****       {
1041:lib/Drivers/STM32H7xx_HAL_Driver/Src/stm32h7xx_hal_rcc.c ****         /* Check the HSE ready flag */
1042:lib/Drivers/STM32H7xx_HAL_Driver/Src/stm32h7xx_hal_rcc.c ****         if(__HAL_RCC_GET_FLAG(RCC_FLAG_HSERDY) == 0U)
1043:lib/Drivers/STM32H7xx_HAL_Driver/Src/stm32h7xx_hal_rcc.c ****         {
1044:lib/Drivers/STM32H7xx_HAL_Driver/Src/stm32h7xx_hal_rcc.c ****           return HAL_ERROR;
1045:lib/Drivers/STM32H7xx_HAL_Driver/Src/stm32h7xx_hal_rcc.c ****         }
1046:lib/Drivers/STM32H7xx_HAL_Driver/Src/stm32h7xx_hal_rcc.c ****       }
1047:lib/Drivers/STM32H7xx_HAL_Driver/Src/stm32h7xx_hal_rcc.c ****       /* PLL is selected as System Clock Source */
1048:lib/Drivers/STM32H7xx_HAL_Driver/Src/stm32h7xx_hal_rcc.c ****       else if(RCC_ClkInitStruct->SYSCLKSource == RCC_SYSCLKSOURCE_PLLCLK)
ARM GAS  /tmp/ccpTiR3W.s 			page 55


1049:lib/Drivers/STM32H7xx_HAL_Driver/Src/stm32h7xx_hal_rcc.c ****       {
1050:lib/Drivers/STM32H7xx_HAL_Driver/Src/stm32h7xx_hal_rcc.c ****         /* Check the PLL ready flag */
1051:lib/Drivers/STM32H7xx_HAL_Driver/Src/stm32h7xx_hal_rcc.c ****         if(__HAL_RCC_GET_FLAG(RCC_FLAG_PLLRDY) == 0U)
1052:lib/Drivers/STM32H7xx_HAL_Driver/Src/stm32h7xx_hal_rcc.c ****         {
1053:lib/Drivers/STM32H7xx_HAL_Driver/Src/stm32h7xx_hal_rcc.c ****           return HAL_ERROR;
1054:lib/Drivers/STM32H7xx_HAL_Driver/Src/stm32h7xx_hal_rcc.c ****         }
1055:lib/Drivers/STM32H7xx_HAL_Driver/Src/stm32h7xx_hal_rcc.c ****       }
1056:lib/Drivers/STM32H7xx_HAL_Driver/Src/stm32h7xx_hal_rcc.c ****       /* CSI is selected as System Clock Source */
1057:lib/Drivers/STM32H7xx_HAL_Driver/Src/stm32h7xx_hal_rcc.c ****       else if(RCC_ClkInitStruct->SYSCLKSource == RCC_SYSCLKSOURCE_CSI)
1058:lib/Drivers/STM32H7xx_HAL_Driver/Src/stm32h7xx_hal_rcc.c ****       {
1059:lib/Drivers/STM32H7xx_HAL_Driver/Src/stm32h7xx_hal_rcc.c ****         /* Check the PLL ready flag */
1060:lib/Drivers/STM32H7xx_HAL_Driver/Src/stm32h7xx_hal_rcc.c ****         if(__HAL_RCC_GET_FLAG(RCC_FLAG_CSIRDY) == 0U)
1061:lib/Drivers/STM32H7xx_HAL_Driver/Src/stm32h7xx_hal_rcc.c ****         {
1062:lib/Drivers/STM32H7xx_HAL_Driver/Src/stm32h7xx_hal_rcc.c ****           return HAL_ERROR;
1063:lib/Drivers/STM32H7xx_HAL_Driver/Src/stm32h7xx_hal_rcc.c ****         }
1064:lib/Drivers/STM32H7xx_HAL_Driver/Src/stm32h7xx_hal_rcc.c ****       }
1065:lib/Drivers/STM32H7xx_HAL_Driver/Src/stm32h7xx_hal_rcc.c ****       /* HSI is selected as System Clock Source */
1066:lib/Drivers/STM32H7xx_HAL_Driver/Src/stm32h7xx_hal_rcc.c ****       else
1067:lib/Drivers/STM32H7xx_HAL_Driver/Src/stm32h7xx_hal_rcc.c ****       {
1068:lib/Drivers/STM32H7xx_HAL_Driver/Src/stm32h7xx_hal_rcc.c ****         /* Check the HSI ready flag */
1069:lib/Drivers/STM32H7xx_HAL_Driver/Src/stm32h7xx_hal_rcc.c ****         if(__HAL_RCC_GET_FLAG(RCC_FLAG_HSIRDY) == 0U)
1070:lib/Drivers/STM32H7xx_HAL_Driver/Src/stm32h7xx_hal_rcc.c ****         {
1071:lib/Drivers/STM32H7xx_HAL_Driver/Src/stm32h7xx_hal_rcc.c ****           return HAL_ERROR;
1072:lib/Drivers/STM32H7xx_HAL_Driver/Src/stm32h7xx_hal_rcc.c ****         }
1073:lib/Drivers/STM32H7xx_HAL_Driver/Src/stm32h7xx_hal_rcc.c ****       }
1074:lib/Drivers/STM32H7xx_HAL_Driver/Src/stm32h7xx_hal_rcc.c ****       MODIFY_REG(RCC->CFGR, RCC_CFGR_SW, RCC_ClkInitStruct->SYSCLKSource);
1075:lib/Drivers/STM32H7xx_HAL_Driver/Src/stm32h7xx_hal_rcc.c **** 
1076:lib/Drivers/STM32H7xx_HAL_Driver/Src/stm32h7xx_hal_rcc.c ****       /* Get Start Tick*/
1077:lib/Drivers/STM32H7xx_HAL_Driver/Src/stm32h7xx_hal_rcc.c ****       tickstart = HAL_GetTick();
1078:lib/Drivers/STM32H7xx_HAL_Driver/Src/stm32h7xx_hal_rcc.c **** 
1079:lib/Drivers/STM32H7xx_HAL_Driver/Src/stm32h7xx_hal_rcc.c ****         while (__HAL_RCC_GET_SYSCLK_SOURCE() !=  (RCC_ClkInitStruct->SYSCLKSource << RCC_CFGR_SWS_P
1080:lib/Drivers/STM32H7xx_HAL_Driver/Src/stm32h7xx_hal_rcc.c ****         {
1081:lib/Drivers/STM32H7xx_HAL_Driver/Src/stm32h7xx_hal_rcc.c ****           if((HAL_GetTick() - tickstart ) > CLOCKSWITCH_TIMEOUT_VALUE)
1082:lib/Drivers/STM32H7xx_HAL_Driver/Src/stm32h7xx_hal_rcc.c ****           {
1083:lib/Drivers/STM32H7xx_HAL_Driver/Src/stm32h7xx_hal_rcc.c ****             return HAL_TIMEOUT;
1084:lib/Drivers/STM32H7xx_HAL_Driver/Src/stm32h7xx_hal_rcc.c ****           }
1085:lib/Drivers/STM32H7xx_HAL_Driver/Src/stm32h7xx_hal_rcc.c ****         }
1086:lib/Drivers/STM32H7xx_HAL_Driver/Src/stm32h7xx_hal_rcc.c **** 
1087:lib/Drivers/STM32H7xx_HAL_Driver/Src/stm32h7xx_hal_rcc.c ****     }
1088:lib/Drivers/STM32H7xx_HAL_Driver/Src/stm32h7xx_hal_rcc.c **** 
1089:lib/Drivers/STM32H7xx_HAL_Driver/Src/stm32h7xx_hal_rcc.c ****     /* Decreasing the BUS frequency divider */
1090:lib/Drivers/STM32H7xx_HAL_Driver/Src/stm32h7xx_hal_rcc.c ****    /*-------------------------- HCLK Configuration --------------------------*/
1091:lib/Drivers/STM32H7xx_HAL_Driver/Src/stm32h7xx_hal_rcc.c ****   if(((RCC_ClkInitStruct->ClockType) & RCC_CLOCKTYPE_HCLK) == RCC_CLOCKTYPE_HCLK)
1092:lib/Drivers/STM32H7xx_HAL_Driver/Src/stm32h7xx_hal_rcc.c ****   {
1093:lib/Drivers/STM32H7xx_HAL_Driver/Src/stm32h7xx_hal_rcc.c **** #if defined(RCC_D1CFGR_HPRE)
1094:lib/Drivers/STM32H7xx_HAL_Driver/Src/stm32h7xx_hal_rcc.c ****     if((RCC_ClkInitStruct->AHBCLKDivider) < (RCC->D1CFGR & RCC_D1CFGR_HPRE))
1095:lib/Drivers/STM32H7xx_HAL_Driver/Src/stm32h7xx_hal_rcc.c ****     {
1096:lib/Drivers/STM32H7xx_HAL_Driver/Src/stm32h7xx_hal_rcc.c ****       /* Set the new HCLK clock divider */
1097:lib/Drivers/STM32H7xx_HAL_Driver/Src/stm32h7xx_hal_rcc.c ****       assert_param(IS_RCC_HCLK(RCC_ClkInitStruct->AHBCLKDivider));
1098:lib/Drivers/STM32H7xx_HAL_Driver/Src/stm32h7xx_hal_rcc.c ****       MODIFY_REG(RCC->D1CFGR, RCC_D1CFGR_HPRE, RCC_ClkInitStruct->AHBCLKDivider);
1099:lib/Drivers/STM32H7xx_HAL_Driver/Src/stm32h7xx_hal_rcc.c ****     }
1100:lib/Drivers/STM32H7xx_HAL_Driver/Src/stm32h7xx_hal_rcc.c **** #else
1101:lib/Drivers/STM32H7xx_HAL_Driver/Src/stm32h7xx_hal_rcc.c ****     if((RCC_ClkInitStruct->AHBCLKDivider) < (RCC->CDCFGR1 & RCC_CDCFGR1_HPRE))
1102:lib/Drivers/STM32H7xx_HAL_Driver/Src/stm32h7xx_hal_rcc.c ****     {
1103:lib/Drivers/STM32H7xx_HAL_Driver/Src/stm32h7xx_hal_rcc.c ****       /* Set the new HCLK clock divider */
1104:lib/Drivers/STM32H7xx_HAL_Driver/Src/stm32h7xx_hal_rcc.c ****       assert_param(IS_RCC_HCLK(RCC_ClkInitStruct->AHBCLKDivider));
1105:lib/Drivers/STM32H7xx_HAL_Driver/Src/stm32h7xx_hal_rcc.c ****       MODIFY_REG(RCC->CDCFGR1, RCC_CDCFGR1_HPRE, RCC_ClkInitStruct->AHBCLKDivider);
ARM GAS  /tmp/ccpTiR3W.s 			page 56


1106:lib/Drivers/STM32H7xx_HAL_Driver/Src/stm32h7xx_hal_rcc.c ****     }
1107:lib/Drivers/STM32H7xx_HAL_Driver/Src/stm32h7xx_hal_rcc.c **** #endif
1108:lib/Drivers/STM32H7xx_HAL_Driver/Src/stm32h7xx_hal_rcc.c ****   }
1109:lib/Drivers/STM32H7xx_HAL_Driver/Src/stm32h7xx_hal_rcc.c **** 
1110:lib/Drivers/STM32H7xx_HAL_Driver/Src/stm32h7xx_hal_rcc.c ****   /* Decreasing the number of wait states because of lower CPU frequency */
1111:lib/Drivers/STM32H7xx_HAL_Driver/Src/stm32h7xx_hal_rcc.c ****   if(FLatency < __HAL_FLASH_GET_LATENCY())
1112:lib/Drivers/STM32H7xx_HAL_Driver/Src/stm32h7xx_hal_rcc.c ****   {
1113:lib/Drivers/STM32H7xx_HAL_Driver/Src/stm32h7xx_hal_rcc.c ****     /* Program the new number of wait states to the LATENCY bits in the FLASH_ACR register */
1114:lib/Drivers/STM32H7xx_HAL_Driver/Src/stm32h7xx_hal_rcc.c ****     __HAL_FLASH_SET_LATENCY(FLatency);
1115:lib/Drivers/STM32H7xx_HAL_Driver/Src/stm32h7xx_hal_rcc.c **** 
1116:lib/Drivers/STM32H7xx_HAL_Driver/Src/stm32h7xx_hal_rcc.c ****     /* Check that the new number of wait states is taken into account to access the Flash
1117:lib/Drivers/STM32H7xx_HAL_Driver/Src/stm32h7xx_hal_rcc.c ****     memory by reading the FLASH_ACR register */
1118:lib/Drivers/STM32H7xx_HAL_Driver/Src/stm32h7xx_hal_rcc.c ****     if(__HAL_FLASH_GET_LATENCY() != FLatency)
1119:lib/Drivers/STM32H7xx_HAL_Driver/Src/stm32h7xx_hal_rcc.c ****     {
1120:lib/Drivers/STM32H7xx_HAL_Driver/Src/stm32h7xx_hal_rcc.c ****       return HAL_ERROR;
1121:lib/Drivers/STM32H7xx_HAL_Driver/Src/stm32h7xx_hal_rcc.c ****     }
1122:lib/Drivers/STM32H7xx_HAL_Driver/Src/stm32h7xx_hal_rcc.c ****  }
1123:lib/Drivers/STM32H7xx_HAL_Driver/Src/stm32h7xx_hal_rcc.c **** 
1124:lib/Drivers/STM32H7xx_HAL_Driver/Src/stm32h7xx_hal_rcc.c ****   /*-------------------------- D1PCLK1/CDPCLK Configuration ---------------------------*/
1125:lib/Drivers/STM32H7xx_HAL_Driver/Src/stm32h7xx_hal_rcc.c ****  if(((RCC_ClkInitStruct->ClockType) & RCC_CLOCKTYPE_D1PCLK1) == RCC_CLOCKTYPE_D1PCLK1)
1126:lib/Drivers/STM32H7xx_HAL_Driver/Src/stm32h7xx_hal_rcc.c ****  {
1127:lib/Drivers/STM32H7xx_HAL_Driver/Src/stm32h7xx_hal_rcc.c **** #if defined(RCC_D1CFGR_D1PPRE)
1128:lib/Drivers/STM32H7xx_HAL_Driver/Src/stm32h7xx_hal_rcc.c ****    if((RCC_ClkInitStruct->APB3CLKDivider) < (RCC->D1CFGR & RCC_D1CFGR_D1PPRE))
1129:lib/Drivers/STM32H7xx_HAL_Driver/Src/stm32h7xx_hal_rcc.c ****    {
1130:lib/Drivers/STM32H7xx_HAL_Driver/Src/stm32h7xx_hal_rcc.c ****      assert_param(IS_RCC_D1PCLK1(RCC_ClkInitStruct->APB3CLKDivider));
1131:lib/Drivers/STM32H7xx_HAL_Driver/Src/stm32h7xx_hal_rcc.c ****      MODIFY_REG(RCC->D1CFGR, RCC_D1CFGR_D1PPRE, RCC_ClkInitStruct->APB3CLKDivider);
1132:lib/Drivers/STM32H7xx_HAL_Driver/Src/stm32h7xx_hal_rcc.c ****    }
1133:lib/Drivers/STM32H7xx_HAL_Driver/Src/stm32h7xx_hal_rcc.c **** #else
1134:lib/Drivers/STM32H7xx_HAL_Driver/Src/stm32h7xx_hal_rcc.c ****    if((RCC_ClkInitStruct->APB3CLKDivider) < (RCC->CDCFGR1 & RCC_CDCFGR1_CDPPRE))
1135:lib/Drivers/STM32H7xx_HAL_Driver/Src/stm32h7xx_hal_rcc.c ****    {
1136:lib/Drivers/STM32H7xx_HAL_Driver/Src/stm32h7xx_hal_rcc.c ****      assert_param(IS_RCC_CDPCLK1(RCC_ClkInitStruct->APB3CLKDivider));
1137:lib/Drivers/STM32H7xx_HAL_Driver/Src/stm32h7xx_hal_rcc.c ****      MODIFY_REG(RCC->CDCFGR1, RCC_CDCFGR1_CDPPRE, RCC_ClkInitStruct->APB3CLKDivider);
1138:lib/Drivers/STM32H7xx_HAL_Driver/Src/stm32h7xx_hal_rcc.c ****    }
1139:lib/Drivers/STM32H7xx_HAL_Driver/Src/stm32h7xx_hal_rcc.c **** #endif
1140:lib/Drivers/STM32H7xx_HAL_Driver/Src/stm32h7xx_hal_rcc.c ****  }
1141:lib/Drivers/STM32H7xx_HAL_Driver/Src/stm32h7xx_hal_rcc.c **** 
1142:lib/Drivers/STM32H7xx_HAL_Driver/Src/stm32h7xx_hal_rcc.c ****   /*-------------------------- PCLK1 Configuration ---------------------------*/
1143:lib/Drivers/STM32H7xx_HAL_Driver/Src/stm32h7xx_hal_rcc.c ****  if(((RCC_ClkInitStruct->ClockType) & RCC_CLOCKTYPE_PCLK1) == RCC_CLOCKTYPE_PCLK1)
1144:lib/Drivers/STM32H7xx_HAL_Driver/Src/stm32h7xx_hal_rcc.c ****  {
1145:lib/Drivers/STM32H7xx_HAL_Driver/Src/stm32h7xx_hal_rcc.c **** #if defined(RCC_D2CFGR_D2PPRE1)
1146:lib/Drivers/STM32H7xx_HAL_Driver/Src/stm32h7xx_hal_rcc.c ****    if((RCC_ClkInitStruct->APB1CLKDivider) < (RCC->D2CFGR & RCC_D2CFGR_D2PPRE1))
1147:lib/Drivers/STM32H7xx_HAL_Driver/Src/stm32h7xx_hal_rcc.c ****    {
1148:lib/Drivers/STM32H7xx_HAL_Driver/Src/stm32h7xx_hal_rcc.c ****      assert_param(IS_RCC_PCLK1(RCC_ClkInitStruct->APB1CLKDivider));
1149:lib/Drivers/STM32H7xx_HAL_Driver/Src/stm32h7xx_hal_rcc.c ****      MODIFY_REG(RCC->D2CFGR, RCC_D2CFGR_D2PPRE1, (RCC_ClkInitStruct->APB1CLKDivider));
1150:lib/Drivers/STM32H7xx_HAL_Driver/Src/stm32h7xx_hal_rcc.c ****    }
1151:lib/Drivers/STM32H7xx_HAL_Driver/Src/stm32h7xx_hal_rcc.c **** #else
1152:lib/Drivers/STM32H7xx_HAL_Driver/Src/stm32h7xx_hal_rcc.c ****    if((RCC_ClkInitStruct->APB1CLKDivider) < (RCC->CDCFGR2 & RCC_CDCFGR2_CDPPRE1))
1153:lib/Drivers/STM32H7xx_HAL_Driver/Src/stm32h7xx_hal_rcc.c ****    {
1154:lib/Drivers/STM32H7xx_HAL_Driver/Src/stm32h7xx_hal_rcc.c ****      assert_param(IS_RCC_PCLK1(RCC_ClkInitStruct->APB1CLKDivider));
1155:lib/Drivers/STM32H7xx_HAL_Driver/Src/stm32h7xx_hal_rcc.c ****      MODIFY_REG(RCC->CDCFGR2, RCC_CDCFGR2_CDPPRE1, (RCC_ClkInitStruct->APB1CLKDivider));
1156:lib/Drivers/STM32H7xx_HAL_Driver/Src/stm32h7xx_hal_rcc.c ****    }
1157:lib/Drivers/STM32H7xx_HAL_Driver/Src/stm32h7xx_hal_rcc.c **** #endif
1158:lib/Drivers/STM32H7xx_HAL_Driver/Src/stm32h7xx_hal_rcc.c ****  }
1159:lib/Drivers/STM32H7xx_HAL_Driver/Src/stm32h7xx_hal_rcc.c **** 
1160:lib/Drivers/STM32H7xx_HAL_Driver/Src/stm32h7xx_hal_rcc.c ****   /*-------------------------- PCLK2 Configuration ---------------------------*/
1161:lib/Drivers/STM32H7xx_HAL_Driver/Src/stm32h7xx_hal_rcc.c ****  if(((RCC_ClkInitStruct->ClockType) & RCC_CLOCKTYPE_PCLK2) == RCC_CLOCKTYPE_PCLK2)
1162:lib/Drivers/STM32H7xx_HAL_Driver/Src/stm32h7xx_hal_rcc.c ****  {
ARM GAS  /tmp/ccpTiR3W.s 			page 57


1163:lib/Drivers/STM32H7xx_HAL_Driver/Src/stm32h7xx_hal_rcc.c **** #if defined (RCC_D2CFGR_D2PPRE2)
1164:lib/Drivers/STM32H7xx_HAL_Driver/Src/stm32h7xx_hal_rcc.c ****    if((RCC_ClkInitStruct->APB2CLKDivider) < (RCC->D2CFGR & RCC_D2CFGR_D2PPRE2))
1165:lib/Drivers/STM32H7xx_HAL_Driver/Src/stm32h7xx_hal_rcc.c ****    {
1166:lib/Drivers/STM32H7xx_HAL_Driver/Src/stm32h7xx_hal_rcc.c ****      assert_param(IS_RCC_PCLK2(RCC_ClkInitStruct->APB2CLKDivider));
1167:lib/Drivers/STM32H7xx_HAL_Driver/Src/stm32h7xx_hal_rcc.c ****      MODIFY_REG(RCC->D2CFGR, RCC_D2CFGR_D2PPRE2, (RCC_ClkInitStruct->APB2CLKDivider));
1168:lib/Drivers/STM32H7xx_HAL_Driver/Src/stm32h7xx_hal_rcc.c ****    }
1169:lib/Drivers/STM32H7xx_HAL_Driver/Src/stm32h7xx_hal_rcc.c **** #else
1170:lib/Drivers/STM32H7xx_HAL_Driver/Src/stm32h7xx_hal_rcc.c ****    if((RCC_ClkInitStruct->APB2CLKDivider) < (RCC->CDCFGR2 & RCC_CDCFGR2_CDPPRE2))
1171:lib/Drivers/STM32H7xx_HAL_Driver/Src/stm32h7xx_hal_rcc.c ****    {
1172:lib/Drivers/STM32H7xx_HAL_Driver/Src/stm32h7xx_hal_rcc.c ****      assert_param(IS_RCC_PCLK2(RCC_ClkInitStruct->APB2CLKDivider));
1173:lib/Drivers/STM32H7xx_HAL_Driver/Src/stm32h7xx_hal_rcc.c ****      MODIFY_REG(RCC->CDCFGR2, RCC_CDCFGR2_CDPPRE2, (RCC_ClkInitStruct->APB2CLKDivider));
1174:lib/Drivers/STM32H7xx_HAL_Driver/Src/stm32h7xx_hal_rcc.c ****    }
1175:lib/Drivers/STM32H7xx_HAL_Driver/Src/stm32h7xx_hal_rcc.c **** #endif
1176:lib/Drivers/STM32H7xx_HAL_Driver/Src/stm32h7xx_hal_rcc.c ****  }
1177:lib/Drivers/STM32H7xx_HAL_Driver/Src/stm32h7xx_hal_rcc.c **** 
1178:lib/Drivers/STM32H7xx_HAL_Driver/Src/stm32h7xx_hal_rcc.c ****   /*-------------------------- D3PCLK1/SRDPCLK1 Configuration ---------------------------*/
1179:lib/Drivers/STM32H7xx_HAL_Driver/Src/stm32h7xx_hal_rcc.c ****  if(((RCC_ClkInitStruct->ClockType) & RCC_CLOCKTYPE_D3PCLK1) == RCC_CLOCKTYPE_D3PCLK1)
1180:lib/Drivers/STM32H7xx_HAL_Driver/Src/stm32h7xx_hal_rcc.c ****  {
1181:lib/Drivers/STM32H7xx_HAL_Driver/Src/stm32h7xx_hal_rcc.c **** #if defined(RCC_D3CFGR_D3PPRE)
1182:lib/Drivers/STM32H7xx_HAL_Driver/Src/stm32h7xx_hal_rcc.c ****    if((RCC_ClkInitStruct->APB4CLKDivider) < (RCC->D3CFGR & RCC_D3CFGR_D3PPRE))
1183:lib/Drivers/STM32H7xx_HAL_Driver/Src/stm32h7xx_hal_rcc.c ****    {
1184:lib/Drivers/STM32H7xx_HAL_Driver/Src/stm32h7xx_hal_rcc.c ****      assert_param(IS_RCC_D3PCLK1(RCC_ClkInitStruct->APB4CLKDivider));
1185:lib/Drivers/STM32H7xx_HAL_Driver/Src/stm32h7xx_hal_rcc.c ****      MODIFY_REG(RCC->D3CFGR, RCC_D3CFGR_D3PPRE, (RCC_ClkInitStruct->APB4CLKDivider) );
1186:lib/Drivers/STM32H7xx_HAL_Driver/Src/stm32h7xx_hal_rcc.c ****    }
1187:lib/Drivers/STM32H7xx_HAL_Driver/Src/stm32h7xx_hal_rcc.c **** #else
1188:lib/Drivers/STM32H7xx_HAL_Driver/Src/stm32h7xx_hal_rcc.c ****    if((RCC_ClkInitStruct->APB4CLKDivider) < (RCC->SRDCFGR & RCC_SRDCFGR_SRDPPRE))
1189:lib/Drivers/STM32H7xx_HAL_Driver/Src/stm32h7xx_hal_rcc.c ****    {
1190:lib/Drivers/STM32H7xx_HAL_Driver/Src/stm32h7xx_hal_rcc.c ****      assert_param(IS_RCC_SRDPCLK1(RCC_ClkInitStruct->APB4CLKDivider));
1191:lib/Drivers/STM32H7xx_HAL_Driver/Src/stm32h7xx_hal_rcc.c ****      MODIFY_REG(RCC->SRDCFGR, RCC_SRDCFGR_SRDPPRE, (RCC_ClkInitStruct->APB4CLKDivider) );
1192:lib/Drivers/STM32H7xx_HAL_Driver/Src/stm32h7xx_hal_rcc.c ****    }
1193:lib/Drivers/STM32H7xx_HAL_Driver/Src/stm32h7xx_hal_rcc.c **** #endif
1194:lib/Drivers/STM32H7xx_HAL_Driver/Src/stm32h7xx_hal_rcc.c ****  }
1195:lib/Drivers/STM32H7xx_HAL_Driver/Src/stm32h7xx_hal_rcc.c **** 
1196:lib/Drivers/STM32H7xx_HAL_Driver/Src/stm32h7xx_hal_rcc.c ****   /* Update the SystemCoreClock global variable */
1197:lib/Drivers/STM32H7xx_HAL_Driver/Src/stm32h7xx_hal_rcc.c **** #if defined(RCC_D1CFGR_D1CPRE)
1198:lib/Drivers/STM32H7xx_HAL_Driver/Src/stm32h7xx_hal_rcc.c ****   common_system_clock = HAL_RCC_GetSysClockFreq() >> ((D1CorePrescTable[(RCC->D1CFGR & RCC_D1CFGR_D
1199:lib/Drivers/STM32H7xx_HAL_Driver/Src/stm32h7xx_hal_rcc.c **** #else
1200:lib/Drivers/STM32H7xx_HAL_Driver/Src/stm32h7xx_hal_rcc.c ****   common_system_clock = HAL_RCC_GetSysClockFreq() >> ((D1CorePrescTable[(RCC->CDCFGR1 & RCC_CDCFGR1
1201:lib/Drivers/STM32H7xx_HAL_Driver/Src/stm32h7xx_hal_rcc.c **** #endif
1202:lib/Drivers/STM32H7xx_HAL_Driver/Src/stm32h7xx_hal_rcc.c **** 
1203:lib/Drivers/STM32H7xx_HAL_Driver/Src/stm32h7xx_hal_rcc.c **** #if defined(RCC_D1CFGR_HPRE)
1204:lib/Drivers/STM32H7xx_HAL_Driver/Src/stm32h7xx_hal_rcc.c ****   SystemD2Clock = (common_system_clock >> ((D1CorePrescTable[(RCC->D1CFGR & RCC_D1CFGR_HPRE)>> RCC_
1205:lib/Drivers/STM32H7xx_HAL_Driver/Src/stm32h7xx_hal_rcc.c **** #else
1206:lib/Drivers/STM32H7xx_HAL_Driver/Src/stm32h7xx_hal_rcc.c ****   SystemD2Clock = (common_system_clock >> ((D1CorePrescTable[(RCC->CDCFGR1 & RCC_CDCFGR1_HPRE)>> RC
1207:lib/Drivers/STM32H7xx_HAL_Driver/Src/stm32h7xx_hal_rcc.c **** #endif
1208:lib/Drivers/STM32H7xx_HAL_Driver/Src/stm32h7xx_hal_rcc.c **** 
1209:lib/Drivers/STM32H7xx_HAL_Driver/Src/stm32h7xx_hal_rcc.c **** #if defined(DUAL_CORE) && defined(CORE_CM4)
1210:lib/Drivers/STM32H7xx_HAL_Driver/Src/stm32h7xx_hal_rcc.c ****   SystemCoreClock = SystemD2Clock;
1211:lib/Drivers/STM32H7xx_HAL_Driver/Src/stm32h7xx_hal_rcc.c **** #else
1212:lib/Drivers/STM32H7xx_HAL_Driver/Src/stm32h7xx_hal_rcc.c ****   SystemCoreClock = common_system_clock;
1213:lib/Drivers/STM32H7xx_HAL_Driver/Src/stm32h7xx_hal_rcc.c **** #endif /* DUAL_CORE && CORE_CM4 */
1214:lib/Drivers/STM32H7xx_HAL_Driver/Src/stm32h7xx_hal_rcc.c **** 
1215:lib/Drivers/STM32H7xx_HAL_Driver/Src/stm32h7xx_hal_rcc.c ****   /* Configure the source of time base considering new system clocks settings*/
1216:lib/Drivers/STM32H7xx_HAL_Driver/Src/stm32h7xx_hal_rcc.c ****   halstatus = HAL_InitTick (uwTickPrio);
1217:lib/Drivers/STM32H7xx_HAL_Driver/Src/stm32h7xx_hal_rcc.c **** 
1218:lib/Drivers/STM32H7xx_HAL_Driver/Src/stm32h7xx_hal_rcc.c ****   return halstatus;
1219:lib/Drivers/STM32H7xx_HAL_Driver/Src/stm32h7xx_hal_rcc.c **** }
ARM GAS  /tmp/ccpTiR3W.s 			page 58


1220:lib/Drivers/STM32H7xx_HAL_Driver/Src/stm32h7xx_hal_rcc.c **** 
1221:lib/Drivers/STM32H7xx_HAL_Driver/Src/stm32h7xx_hal_rcc.c **** /**
1222:lib/Drivers/STM32H7xx_HAL_Driver/Src/stm32h7xx_hal_rcc.c ****   * @}
1223:lib/Drivers/STM32H7xx_HAL_Driver/Src/stm32h7xx_hal_rcc.c ****   */
1224:lib/Drivers/STM32H7xx_HAL_Driver/Src/stm32h7xx_hal_rcc.c **** 
1225:lib/Drivers/STM32H7xx_HAL_Driver/Src/stm32h7xx_hal_rcc.c **** /** @defgroup RCC_Group2 Peripheral Control functions
1226:lib/Drivers/STM32H7xx_HAL_Driver/Src/stm32h7xx_hal_rcc.c ****  *  @brief   RCC clocks control functions
1227:lib/Drivers/STM32H7xx_HAL_Driver/Src/stm32h7xx_hal_rcc.c ****  *
1228:lib/Drivers/STM32H7xx_HAL_Driver/Src/stm32h7xx_hal_rcc.c **** @verbatim
1229:lib/Drivers/STM32H7xx_HAL_Driver/Src/stm32h7xx_hal_rcc.c ****  ===============================================================================
1230:lib/Drivers/STM32H7xx_HAL_Driver/Src/stm32h7xx_hal_rcc.c ****                       ##### Peripheral Control functions #####
1231:lib/Drivers/STM32H7xx_HAL_Driver/Src/stm32h7xx_hal_rcc.c ****  ===============================================================================
1232:lib/Drivers/STM32H7xx_HAL_Driver/Src/stm32h7xx_hal_rcc.c ****     [..]
1233:lib/Drivers/STM32H7xx_HAL_Driver/Src/stm32h7xx_hal_rcc.c ****     This subsection provides a set of functions allowing to control the RCC Clocks
1234:lib/Drivers/STM32H7xx_HAL_Driver/Src/stm32h7xx_hal_rcc.c ****     frequencies.
1235:lib/Drivers/STM32H7xx_HAL_Driver/Src/stm32h7xx_hal_rcc.c **** 
1236:lib/Drivers/STM32H7xx_HAL_Driver/Src/stm32h7xx_hal_rcc.c **** @endverbatim
1237:lib/Drivers/STM32H7xx_HAL_Driver/Src/stm32h7xx_hal_rcc.c ****   * @{
1238:lib/Drivers/STM32H7xx_HAL_Driver/Src/stm32h7xx_hal_rcc.c ****   */
1239:lib/Drivers/STM32H7xx_HAL_Driver/Src/stm32h7xx_hal_rcc.c **** 
1240:lib/Drivers/STM32H7xx_HAL_Driver/Src/stm32h7xx_hal_rcc.c **** /**
1241:lib/Drivers/STM32H7xx_HAL_Driver/Src/stm32h7xx_hal_rcc.c ****   * @brief  Selects the clock source to output on MCO1 pin(PA8) or on MCO2 pin(PC9).
1242:lib/Drivers/STM32H7xx_HAL_Driver/Src/stm32h7xx_hal_rcc.c ****   * @note   PA8/PC9 should be configured in alternate function mode.
1243:lib/Drivers/STM32H7xx_HAL_Driver/Src/stm32h7xx_hal_rcc.c ****   * @param  RCC_MCOx: specifies the output direction for the clock source.
1244:lib/Drivers/STM32H7xx_HAL_Driver/Src/stm32h7xx_hal_rcc.c ****   *          This parameter can be one of the following values:
1245:lib/Drivers/STM32H7xx_HAL_Driver/Src/stm32h7xx_hal_rcc.c ****   *            @arg RCC_MCO1: Clock source to output on MCO1 pin(PA8).
1246:lib/Drivers/STM32H7xx_HAL_Driver/Src/stm32h7xx_hal_rcc.c ****   *            @arg RCC_MCO2: Clock source to output on MCO2 pin(PC9).
1247:lib/Drivers/STM32H7xx_HAL_Driver/Src/stm32h7xx_hal_rcc.c ****   * @param  RCC_MCOSource: specifies the clock source to output.
1248:lib/Drivers/STM32H7xx_HAL_Driver/Src/stm32h7xx_hal_rcc.c ****   *          This parameter can be one of the following values:
1249:lib/Drivers/STM32H7xx_HAL_Driver/Src/stm32h7xx_hal_rcc.c ****   *            @arg RCC_MCO1SOURCE_HSI: HSI clock selected as MCO1 source
1250:lib/Drivers/STM32H7xx_HAL_Driver/Src/stm32h7xx_hal_rcc.c ****   *            @arg RCC_MCO1SOURCE_LSE: LSE clock selected as MCO1 source
1251:lib/Drivers/STM32H7xx_HAL_Driver/Src/stm32h7xx_hal_rcc.c ****   *            @arg RCC_MCO1SOURCE_HSE: HSE clock selected as MCO1 source
1252:lib/Drivers/STM32H7xx_HAL_Driver/Src/stm32h7xx_hal_rcc.c ****   *            @arg RCC_MCO1SOURCE_PLL1QCLK:  PLL1Q clock selected as MCO1 source
1253:lib/Drivers/STM32H7xx_HAL_Driver/Src/stm32h7xx_hal_rcc.c ****   *            @arg RCC_MCO1SOURCE_HSI48: HSI48 (48MHZ) selected as MCO1 source
1254:lib/Drivers/STM32H7xx_HAL_Driver/Src/stm32h7xx_hal_rcc.c ****   *            @arg RCC_MCO2SOURCE_SYSCLK: System clock (SYSCLK) selected as MCO2 source
1255:lib/Drivers/STM32H7xx_HAL_Driver/Src/stm32h7xx_hal_rcc.c ****   *            @arg RCC_MCO2SOURCE_PLL2PCLK: PLL2P clock selected as MCO2 source
1256:lib/Drivers/STM32H7xx_HAL_Driver/Src/stm32h7xx_hal_rcc.c ****   *            @arg RCC_MCO2SOURCE_HSE: HSE clock selected as MCO2 source
1257:lib/Drivers/STM32H7xx_HAL_Driver/Src/stm32h7xx_hal_rcc.c ****   *            @arg RCC_MCO2SOURCE_PLLCLK:  PLL1P clock selected as MCO2 source
1258:lib/Drivers/STM32H7xx_HAL_Driver/Src/stm32h7xx_hal_rcc.c ****   *            @arg RCC_MCO2SOURCE_CSICLK:  CSI clock selected as MCO2 source
1259:lib/Drivers/STM32H7xx_HAL_Driver/Src/stm32h7xx_hal_rcc.c ****   *            @arg RCC_MCO2SOURCE_LSICLK:  LSI clock selected as MCO2 source
1260:lib/Drivers/STM32H7xx_HAL_Driver/Src/stm32h7xx_hal_rcc.c ****   * @param  RCC_MCODiv: specifies the MCOx pre-scaler.
1261:lib/Drivers/STM32H7xx_HAL_Driver/Src/stm32h7xx_hal_rcc.c ****   *          This parameter can be one of the following values:
1262:lib/Drivers/STM32H7xx_HAL_Driver/Src/stm32h7xx_hal_rcc.c ****   *            @arg RCC_MCODIV_1 up to RCC_MCODIV_15  : divider applied to MCOx clock
1263:lib/Drivers/STM32H7xx_HAL_Driver/Src/stm32h7xx_hal_rcc.c ****   * @retval None
1264:lib/Drivers/STM32H7xx_HAL_Driver/Src/stm32h7xx_hal_rcc.c ****   */
1265:lib/Drivers/STM32H7xx_HAL_Driver/Src/stm32h7xx_hal_rcc.c **** void HAL_RCC_MCOConfig(uint32_t RCC_MCOx, uint32_t RCC_MCOSource, uint32_t RCC_MCODiv)
1266:lib/Drivers/STM32H7xx_HAL_Driver/Src/stm32h7xx_hal_rcc.c **** {
 1763              		.loc 1 1266 1 is_stmt 1 view -0
 1764              		.cfi_startproc
 1765              		@ args = 0, pretend = 0, frame = 32
 1766              		@ frame_needed = 0, uses_anonymous_args = 0
 1767              		.loc 1 1266 1 is_stmt 0 view .LVU567
 1768 0000 70B5     		push	{r4, r5, r6, lr}
 1769              	.LCFI4:
 1770              		.cfi_def_cfa_offset 16
 1771              		.cfi_offset 4, -16
 1772              		.cfi_offset 5, -12
ARM GAS  /tmp/ccpTiR3W.s 			page 59


 1773              		.cfi_offset 6, -8
 1774              		.cfi_offset 14, -4
 1775 0002 88B0     		sub	sp, sp, #32
 1776              	.LCFI5:
 1777              		.cfi_def_cfa_offset 48
 1778 0004 0C46     		mov	r4, r1
 1779 0006 1546     		mov	r5, r2
1267:lib/Drivers/STM32H7xx_HAL_Driver/Src/stm32h7xx_hal_rcc.c ****   GPIO_InitTypeDef GPIO_InitStruct;
 1780              		.loc 1 1267 3 is_stmt 1 view .LVU568
1268:lib/Drivers/STM32H7xx_HAL_Driver/Src/stm32h7xx_hal_rcc.c ****   /* Check the parameters */
1269:lib/Drivers/STM32H7xx_HAL_Driver/Src/stm32h7xx_hal_rcc.c ****   assert_param(IS_RCC_MCO(RCC_MCOx));
 1781              		.loc 1 1269 3 view .LVU569
1270:lib/Drivers/STM32H7xx_HAL_Driver/Src/stm32h7xx_hal_rcc.c ****   assert_param(IS_RCC_MCODIV(RCC_MCODiv));
 1782              		.loc 1 1270 3 view .LVU570
1271:lib/Drivers/STM32H7xx_HAL_Driver/Src/stm32h7xx_hal_rcc.c ****   /* RCC_MCO1 */
1272:lib/Drivers/STM32H7xx_HAL_Driver/Src/stm32h7xx_hal_rcc.c ****   if(RCC_MCOx == RCC_MCO1)
 1783              		.loc 1 1272 3 view .LVU571
 1784              		.loc 1 1272 5 is_stmt 0 view .LVU572
 1785 0008 10BB     		cbnz	r0, .L170
1273:lib/Drivers/STM32H7xx_HAL_Driver/Src/stm32h7xx_hal_rcc.c ****   {
1274:lib/Drivers/STM32H7xx_HAL_Driver/Src/stm32h7xx_hal_rcc.c ****     assert_param(IS_RCC_MCO1SOURCE(RCC_MCOSource));
 1786              		.loc 1 1274 5 is_stmt 1 view .LVU573
1275:lib/Drivers/STM32H7xx_HAL_Driver/Src/stm32h7xx_hal_rcc.c **** 
1276:lib/Drivers/STM32H7xx_HAL_Driver/Src/stm32h7xx_hal_rcc.c ****     /* MCO1 Clock Enable */
1277:lib/Drivers/STM32H7xx_HAL_Driver/Src/stm32h7xx_hal_rcc.c ****     MCO1_CLK_ENABLE();
 1787              		.loc 1 1277 5 view .LVU574
 1788              	.LBB13:
 1789              		.loc 1 1277 5 view .LVU575
 1790              		.loc 1 1277 5 view .LVU576
 1791 000a 234E     		ldr	r6, .L173
 1792 000c D6F8E030 		ldr	r3, [r6, #224]
 1793 0010 43F00103 		orr	r3, r3, #1
 1794 0014 C6F8E030 		str	r3, [r6, #224]
 1795              		.loc 1 1277 5 view .LVU577
 1796 0018 D6F8E030 		ldr	r3, [r6, #224]
 1797 001c 03F00103 		and	r3, r3, #1
 1798 0020 0193     		str	r3, [sp, #4]
 1799              		.loc 1 1277 5 view .LVU578
 1800 0022 019B     		ldr	r3, [sp, #4]
 1801              	.LBE13:
 1802              		.loc 1 1277 5 view .LVU579
1278:lib/Drivers/STM32H7xx_HAL_Driver/Src/stm32h7xx_hal_rcc.c **** 
1279:lib/Drivers/STM32H7xx_HAL_Driver/Src/stm32h7xx_hal_rcc.c ****     /* Configure the MCO1 pin in alternate function mode */
1280:lib/Drivers/STM32H7xx_HAL_Driver/Src/stm32h7xx_hal_rcc.c ****     GPIO_InitStruct.Pin = MCO1_PIN;
 1803              		.loc 1 1280 5 view .LVU580
 1804              		.loc 1 1280 25 is_stmt 0 view .LVU581
 1805 0024 4FF48073 		mov	r3, #256
 1806 0028 0393     		str	r3, [sp, #12]
1281:lib/Drivers/STM32H7xx_HAL_Driver/Src/stm32h7xx_hal_rcc.c ****     GPIO_InitStruct.Mode = GPIO_MODE_AF_PP;
 1807              		.loc 1 1281 5 is_stmt 1 view .LVU582
 1808              		.loc 1 1281 26 is_stmt 0 view .LVU583
 1809 002a 0223     		movs	r3, #2
 1810 002c 0493     		str	r3, [sp, #16]
1282:lib/Drivers/STM32H7xx_HAL_Driver/Src/stm32h7xx_hal_rcc.c ****     GPIO_InitStruct.Speed = GPIO_SPEED_FREQ_VERY_HIGH;
 1811              		.loc 1 1282 5 is_stmt 1 view .LVU584
 1812              		.loc 1 1282 27 is_stmt 0 view .LVU585
 1813 002e 0323     		movs	r3, #3
ARM GAS  /tmp/ccpTiR3W.s 			page 60


 1814 0030 0693     		str	r3, [sp, #24]
1283:lib/Drivers/STM32H7xx_HAL_Driver/Src/stm32h7xx_hal_rcc.c ****     GPIO_InitStruct.Pull = GPIO_NOPULL;
 1815              		.loc 1 1283 5 is_stmt 1 view .LVU586
 1816              		.loc 1 1283 26 is_stmt 0 view .LVU587
 1817 0032 0023     		movs	r3, #0
 1818 0034 0593     		str	r3, [sp, #20]
1284:lib/Drivers/STM32H7xx_HAL_Driver/Src/stm32h7xx_hal_rcc.c ****     GPIO_InitStruct.Alternate = GPIO_AF0_MCO;
 1819              		.loc 1 1284 5 is_stmt 1 view .LVU588
 1820              		.loc 1 1284 31 is_stmt 0 view .LVU589
 1821 0036 0793     		str	r3, [sp, #28]
1285:lib/Drivers/STM32H7xx_HAL_Driver/Src/stm32h7xx_hal_rcc.c ****     HAL_GPIO_Init(MCO1_GPIO_PORT, &GPIO_InitStruct);
 1822              		.loc 1 1285 5 is_stmt 1 view .LVU590
 1823 0038 03A9     		add	r1, sp, #12
 1824              	.LVL148:
 1825              		.loc 1 1285 5 is_stmt 0 view .LVU591
 1826 003a 1848     		ldr	r0, .L173+4
 1827              	.LVL149:
 1828              		.loc 1 1285 5 view .LVU592
 1829 003c FFF7FEFF 		bl	HAL_GPIO_Init
 1830              	.LVL150:
1286:lib/Drivers/STM32H7xx_HAL_Driver/Src/stm32h7xx_hal_rcc.c **** 
1287:lib/Drivers/STM32H7xx_HAL_Driver/Src/stm32h7xx_hal_rcc.c ****     /* Mask MCO1 and MCO1PRE[3:0] bits then Select MCO1 clock source and pre-scaler */
1288:lib/Drivers/STM32H7xx_HAL_Driver/Src/stm32h7xx_hal_rcc.c ****     MODIFY_REG(RCC->CFGR, (RCC_CFGR_MCO1 | RCC_CFGR_MCO1PRE), (RCC_MCOSource | RCC_MCODiv));
 1831              		.loc 1 1288 5 is_stmt 1 view .LVU593
 1832 0040 3369     		ldr	r3, [r6, #16]
 1833 0042 23F0FE73 		bic	r3, r3, #33292288
 1834 0046 2543     		orrs	r5, r5, r4
 1835              	.LVL151:
 1836              		.loc 1 1288 5 is_stmt 0 view .LVU594
 1837 0048 1D43     		orrs	r5, r5, r3
 1838 004a 3561     		str	r5, [r6, #16]
 1839              	.LVL152:
 1840              	.L169:
1289:lib/Drivers/STM32H7xx_HAL_Driver/Src/stm32h7xx_hal_rcc.c ****   }
1290:lib/Drivers/STM32H7xx_HAL_Driver/Src/stm32h7xx_hal_rcc.c ****   else
1291:lib/Drivers/STM32H7xx_HAL_Driver/Src/stm32h7xx_hal_rcc.c ****   {
1292:lib/Drivers/STM32H7xx_HAL_Driver/Src/stm32h7xx_hal_rcc.c ****     assert_param(IS_RCC_MCO2SOURCE(RCC_MCOSource));
1293:lib/Drivers/STM32H7xx_HAL_Driver/Src/stm32h7xx_hal_rcc.c **** 
1294:lib/Drivers/STM32H7xx_HAL_Driver/Src/stm32h7xx_hal_rcc.c ****     /* MCO2 Clock Enable */
1295:lib/Drivers/STM32H7xx_HAL_Driver/Src/stm32h7xx_hal_rcc.c ****     MCO2_CLK_ENABLE();
1296:lib/Drivers/STM32H7xx_HAL_Driver/Src/stm32h7xx_hal_rcc.c **** 
1297:lib/Drivers/STM32H7xx_HAL_Driver/Src/stm32h7xx_hal_rcc.c ****     /* Configure the MCO2 pin in alternate function mode */
1298:lib/Drivers/STM32H7xx_HAL_Driver/Src/stm32h7xx_hal_rcc.c ****     GPIO_InitStruct.Pin = MCO2_PIN;
1299:lib/Drivers/STM32H7xx_HAL_Driver/Src/stm32h7xx_hal_rcc.c ****     GPIO_InitStruct.Mode = GPIO_MODE_AF_PP;
1300:lib/Drivers/STM32H7xx_HAL_Driver/Src/stm32h7xx_hal_rcc.c ****     GPIO_InitStruct.Speed = GPIO_SPEED_FREQ_VERY_HIGH;
1301:lib/Drivers/STM32H7xx_HAL_Driver/Src/stm32h7xx_hal_rcc.c ****     GPIO_InitStruct.Pull = GPIO_NOPULL;
1302:lib/Drivers/STM32H7xx_HAL_Driver/Src/stm32h7xx_hal_rcc.c ****     GPIO_InitStruct.Alternate = GPIO_AF0_MCO;
1303:lib/Drivers/STM32H7xx_HAL_Driver/Src/stm32h7xx_hal_rcc.c ****     HAL_GPIO_Init(MCO2_GPIO_PORT, &GPIO_InitStruct);
1304:lib/Drivers/STM32H7xx_HAL_Driver/Src/stm32h7xx_hal_rcc.c **** 
1305:lib/Drivers/STM32H7xx_HAL_Driver/Src/stm32h7xx_hal_rcc.c ****     /* Mask MCO2 and MCO2PRE[3:0] bits then Select MCO2 clock source and pre-scaler */
1306:lib/Drivers/STM32H7xx_HAL_Driver/Src/stm32h7xx_hal_rcc.c ****     MODIFY_REG(RCC->CFGR, (RCC_CFGR_MCO2 | RCC_CFGR_MCO2PRE), (RCC_MCOSource | (RCC_MCODiv << 7U)))
1307:lib/Drivers/STM32H7xx_HAL_Driver/Src/stm32h7xx_hal_rcc.c ****   }
1308:lib/Drivers/STM32H7xx_HAL_Driver/Src/stm32h7xx_hal_rcc.c **** }
 1841              		.loc 1 1308 1 view .LVU595
 1842 004c 08B0     		add	sp, sp, #32
 1843              	.LCFI6:
 1844              		.cfi_remember_state
ARM GAS  /tmp/ccpTiR3W.s 			page 61


 1845              		.cfi_def_cfa_offset 16
 1846              		@ sp needed
 1847 004e 70BD     		pop	{r4, r5, r6, pc}
 1848              	.LVL153:
 1849              	.L170:
 1850              	.LCFI7:
 1851              		.cfi_restore_state
1292:lib/Drivers/STM32H7xx_HAL_Driver/Src/stm32h7xx_hal_rcc.c **** 
 1852              		.loc 1 1292 5 is_stmt 1 view .LVU596
1295:lib/Drivers/STM32H7xx_HAL_Driver/Src/stm32h7xx_hal_rcc.c **** 
 1853              		.loc 1 1295 5 view .LVU597
 1854              	.LBB14:
1295:lib/Drivers/STM32H7xx_HAL_Driver/Src/stm32h7xx_hal_rcc.c **** 
 1855              		.loc 1 1295 5 view .LVU598
1295:lib/Drivers/STM32H7xx_HAL_Driver/Src/stm32h7xx_hal_rcc.c **** 
 1856              		.loc 1 1295 5 view .LVU599
 1857 0050 114E     		ldr	r6, .L173
 1858 0052 D6F8E030 		ldr	r3, [r6, #224]
 1859 0056 43F00403 		orr	r3, r3, #4
 1860 005a C6F8E030 		str	r3, [r6, #224]
1295:lib/Drivers/STM32H7xx_HAL_Driver/Src/stm32h7xx_hal_rcc.c **** 
 1861              		.loc 1 1295 5 view .LVU600
 1862 005e D6F8E030 		ldr	r3, [r6, #224]
 1863 0062 03F00403 		and	r3, r3, #4
 1864 0066 0293     		str	r3, [sp, #8]
1295:lib/Drivers/STM32H7xx_HAL_Driver/Src/stm32h7xx_hal_rcc.c **** 
 1865              		.loc 1 1295 5 view .LVU601
 1866 0068 029B     		ldr	r3, [sp, #8]
 1867              	.LBE14:
1295:lib/Drivers/STM32H7xx_HAL_Driver/Src/stm32h7xx_hal_rcc.c **** 
 1868              		.loc 1 1295 5 view .LVU602
1298:lib/Drivers/STM32H7xx_HAL_Driver/Src/stm32h7xx_hal_rcc.c ****     GPIO_InitStruct.Mode = GPIO_MODE_AF_PP;
 1869              		.loc 1 1298 5 view .LVU603
1298:lib/Drivers/STM32H7xx_HAL_Driver/Src/stm32h7xx_hal_rcc.c ****     GPIO_InitStruct.Mode = GPIO_MODE_AF_PP;
 1870              		.loc 1 1298 25 is_stmt 0 view .LVU604
 1871 006a 4FF40073 		mov	r3, #512
 1872 006e 0393     		str	r3, [sp, #12]
1299:lib/Drivers/STM32H7xx_HAL_Driver/Src/stm32h7xx_hal_rcc.c ****     GPIO_InitStruct.Speed = GPIO_SPEED_FREQ_VERY_HIGH;
 1873              		.loc 1 1299 5 is_stmt 1 view .LVU605
1299:lib/Drivers/STM32H7xx_HAL_Driver/Src/stm32h7xx_hal_rcc.c ****     GPIO_InitStruct.Speed = GPIO_SPEED_FREQ_VERY_HIGH;
 1874              		.loc 1 1299 26 is_stmt 0 view .LVU606
 1875 0070 0223     		movs	r3, #2
 1876 0072 0493     		str	r3, [sp, #16]
1300:lib/Drivers/STM32H7xx_HAL_Driver/Src/stm32h7xx_hal_rcc.c ****     GPIO_InitStruct.Pull = GPIO_NOPULL;
 1877              		.loc 1 1300 5 is_stmt 1 view .LVU607
1300:lib/Drivers/STM32H7xx_HAL_Driver/Src/stm32h7xx_hal_rcc.c ****     GPIO_InitStruct.Pull = GPIO_NOPULL;
 1878              		.loc 1 1300 27 is_stmt 0 view .LVU608
 1879 0074 0323     		movs	r3, #3
 1880 0076 0693     		str	r3, [sp, #24]
1301:lib/Drivers/STM32H7xx_HAL_Driver/Src/stm32h7xx_hal_rcc.c ****     GPIO_InitStruct.Alternate = GPIO_AF0_MCO;
 1881              		.loc 1 1301 5 is_stmt 1 view .LVU609
1301:lib/Drivers/STM32H7xx_HAL_Driver/Src/stm32h7xx_hal_rcc.c ****     GPIO_InitStruct.Alternate = GPIO_AF0_MCO;
 1882              		.loc 1 1301 26 is_stmt 0 view .LVU610
 1883 0078 0023     		movs	r3, #0
 1884 007a 0593     		str	r3, [sp, #20]
1302:lib/Drivers/STM32H7xx_HAL_Driver/Src/stm32h7xx_hal_rcc.c ****     HAL_GPIO_Init(MCO2_GPIO_PORT, &GPIO_InitStruct);
 1885              		.loc 1 1302 5 is_stmt 1 view .LVU611
ARM GAS  /tmp/ccpTiR3W.s 			page 62


1302:lib/Drivers/STM32H7xx_HAL_Driver/Src/stm32h7xx_hal_rcc.c ****     HAL_GPIO_Init(MCO2_GPIO_PORT, &GPIO_InitStruct);
 1886              		.loc 1 1302 31 is_stmt 0 view .LVU612
 1887 007c 0793     		str	r3, [sp, #28]
1303:lib/Drivers/STM32H7xx_HAL_Driver/Src/stm32h7xx_hal_rcc.c **** 
 1888              		.loc 1 1303 5 is_stmt 1 view .LVU613
 1889 007e 03A9     		add	r1, sp, #12
 1890              	.LVL154:
1303:lib/Drivers/STM32H7xx_HAL_Driver/Src/stm32h7xx_hal_rcc.c **** 
 1891              		.loc 1 1303 5 is_stmt 0 view .LVU614
 1892 0080 0748     		ldr	r0, .L173+8
 1893              	.LVL155:
1303:lib/Drivers/STM32H7xx_HAL_Driver/Src/stm32h7xx_hal_rcc.c **** 
 1894              		.loc 1 1303 5 view .LVU615
 1895 0082 FFF7FEFF 		bl	HAL_GPIO_Init
 1896              	.LVL156:
1306:lib/Drivers/STM32H7xx_HAL_Driver/Src/stm32h7xx_hal_rcc.c ****   }
 1897              		.loc 1 1306 5 is_stmt 1 view .LVU616
 1898 0086 3369     		ldr	r3, [r6, #16]
 1899 0088 23F07E43 		bic	r3, r3, #-33554432
 1900 008c 44EAC514 		orr	r4, r4, r5, lsl #7
 1901              	.LVL157:
1306:lib/Drivers/STM32H7xx_HAL_Driver/Src/stm32h7xx_hal_rcc.c ****   }
 1902              		.loc 1 1306 5 is_stmt 0 view .LVU617
 1903 0090 1C43     		orrs	r4, r4, r3
 1904 0092 3461     		str	r4, [r6, #16]
 1905              		.loc 1 1308 1 view .LVU618
 1906 0094 DAE7     		b	.L169
 1907              	.L174:
 1908 0096 00BF     		.align	2
 1909              	.L173:
 1910 0098 00440258 		.word	1476543488
 1911 009c 00000258 		.word	1476526080
 1912 00a0 00080258 		.word	1476528128
 1913              		.cfi_endproc
 1914              	.LFE147:
 1916              		.section	.text.HAL_RCC_EnableCSS,"ax",%progbits
 1917              		.align	1
 1918              		.global	HAL_RCC_EnableCSS
 1919              		.syntax unified
 1920              		.thumb
 1921              		.thumb_func
 1923              	HAL_RCC_EnableCSS:
 1924              	.LFB148:
1309:lib/Drivers/STM32H7xx_HAL_Driver/Src/stm32h7xx_hal_rcc.c **** 
1310:lib/Drivers/STM32H7xx_HAL_Driver/Src/stm32h7xx_hal_rcc.c **** /**
1311:lib/Drivers/STM32H7xx_HAL_Driver/Src/stm32h7xx_hal_rcc.c ****   * @brief  Enables the Clock Security System.
1312:lib/Drivers/STM32H7xx_HAL_Driver/Src/stm32h7xx_hal_rcc.c ****   * @note   If a failure is detected on the HSE oscillator clock, this oscillator
1313:lib/Drivers/STM32H7xx_HAL_Driver/Src/stm32h7xx_hal_rcc.c ****   *         is automatically disabled and an interrupt is generated to inform the
1314:lib/Drivers/STM32H7xx_HAL_Driver/Src/stm32h7xx_hal_rcc.c ****   *         software about the failure (Clock Security System Interrupt, CSSI),
1315:lib/Drivers/STM32H7xx_HAL_Driver/Src/stm32h7xx_hal_rcc.c ****   *         allowing the MCU to perform rescue operations. The CSSI is linked to
1316:lib/Drivers/STM32H7xx_HAL_Driver/Src/stm32h7xx_hal_rcc.c ****   *         the Cortex-M NMI (Non-Mask-able Interrupt) exception vector.
1317:lib/Drivers/STM32H7xx_HAL_Driver/Src/stm32h7xx_hal_rcc.c ****   * @retval None
1318:lib/Drivers/STM32H7xx_HAL_Driver/Src/stm32h7xx_hal_rcc.c ****   */
1319:lib/Drivers/STM32H7xx_HAL_Driver/Src/stm32h7xx_hal_rcc.c **** void HAL_RCC_EnableCSS(void)
1320:lib/Drivers/STM32H7xx_HAL_Driver/Src/stm32h7xx_hal_rcc.c **** {
 1925              		.loc 1 1320 1 is_stmt 1 view -0
 1926              		.cfi_startproc
ARM GAS  /tmp/ccpTiR3W.s 			page 63


 1927              		@ args = 0, pretend = 0, frame = 0
 1928              		@ frame_needed = 0, uses_anonymous_args = 0
 1929              		@ link register save eliminated.
1321:lib/Drivers/STM32H7xx_HAL_Driver/Src/stm32h7xx_hal_rcc.c ****   SET_BIT(RCC->CR, RCC_CR_CSSHSEON) ;
 1930              		.loc 1 1321 3 view .LVU620
 1931 0000 024A     		ldr	r2, .L176
 1932 0002 1368     		ldr	r3, [r2]
 1933 0004 43F40023 		orr	r3, r3, #524288
 1934 0008 1360     		str	r3, [r2]
1322:lib/Drivers/STM32H7xx_HAL_Driver/Src/stm32h7xx_hal_rcc.c **** }
 1935              		.loc 1 1322 1 is_stmt 0 view .LVU621
 1936 000a 7047     		bx	lr
 1937              	.L177:
 1938              		.align	2
 1939              	.L176:
 1940 000c 00440258 		.word	1476543488
 1941              		.cfi_endproc
 1942              	.LFE148:
 1944              		.section	.text.HAL_RCC_DisableCSS,"ax",%progbits
 1945              		.align	1
 1946              		.global	HAL_RCC_DisableCSS
 1947              		.syntax unified
 1948              		.thumb
 1949              		.thumb_func
 1951              	HAL_RCC_DisableCSS:
 1952              	.LFB149:
1323:lib/Drivers/STM32H7xx_HAL_Driver/Src/stm32h7xx_hal_rcc.c **** 
1324:lib/Drivers/STM32H7xx_HAL_Driver/Src/stm32h7xx_hal_rcc.c **** /**
1325:lib/Drivers/STM32H7xx_HAL_Driver/Src/stm32h7xx_hal_rcc.c ****   * @brief  Disables the Clock Security System.
1326:lib/Drivers/STM32H7xx_HAL_Driver/Src/stm32h7xx_hal_rcc.c ****   * @retval None
1327:lib/Drivers/STM32H7xx_HAL_Driver/Src/stm32h7xx_hal_rcc.c ****   */
1328:lib/Drivers/STM32H7xx_HAL_Driver/Src/stm32h7xx_hal_rcc.c **** void HAL_RCC_DisableCSS(void)
1329:lib/Drivers/STM32H7xx_HAL_Driver/Src/stm32h7xx_hal_rcc.c **** {
 1953              		.loc 1 1329 1 is_stmt 1 view -0
 1954              		.cfi_startproc
 1955              		@ args = 0, pretend = 0, frame = 0
 1956              		@ frame_needed = 0, uses_anonymous_args = 0
 1957              		@ link register save eliminated.
1330:lib/Drivers/STM32H7xx_HAL_Driver/Src/stm32h7xx_hal_rcc.c ****   CLEAR_BIT(RCC->CR, RCC_CR_CSSHSEON);
 1958              		.loc 1 1330 3 view .LVU623
 1959 0000 024A     		ldr	r2, .L179
 1960 0002 1368     		ldr	r3, [r2]
 1961 0004 23F40023 		bic	r3, r3, #524288
 1962 0008 1360     		str	r3, [r2]
1331:lib/Drivers/STM32H7xx_HAL_Driver/Src/stm32h7xx_hal_rcc.c **** }
 1963              		.loc 1 1331 1 is_stmt 0 view .LVU624
 1964 000a 7047     		bx	lr
 1965              	.L180:
 1966              		.align	2
 1967              	.L179:
 1968 000c 00440258 		.word	1476543488
 1969              		.cfi_endproc
 1970              	.LFE149:
 1972              		.section	.text.HAL_RCC_GetSysClockFreq,"ax",%progbits
 1973              		.align	1
 1974              		.global	HAL_RCC_GetSysClockFreq
 1975              		.syntax unified
ARM GAS  /tmp/ccpTiR3W.s 			page 64


 1976              		.thumb
 1977              		.thumb_func
 1979              	HAL_RCC_GetSysClockFreq:
 1980              	.LFB150:
1332:lib/Drivers/STM32H7xx_HAL_Driver/Src/stm32h7xx_hal_rcc.c **** 
1333:lib/Drivers/STM32H7xx_HAL_Driver/Src/stm32h7xx_hal_rcc.c **** /**
1334:lib/Drivers/STM32H7xx_HAL_Driver/Src/stm32h7xx_hal_rcc.c ****   * @brief  Returns the SYSCLK frequency
1335:lib/Drivers/STM32H7xx_HAL_Driver/Src/stm32h7xx_hal_rcc.c ****   *
1336:lib/Drivers/STM32H7xx_HAL_Driver/Src/stm32h7xx_hal_rcc.c ****   * @note   The system frequency computed by this function is not the real
1337:lib/Drivers/STM32H7xx_HAL_Driver/Src/stm32h7xx_hal_rcc.c ****   *         frequency in the chip. It is calculated based on the predefined
1338:lib/Drivers/STM32H7xx_HAL_Driver/Src/stm32h7xx_hal_rcc.c ****   *         constant and the selected clock source:
1339:lib/Drivers/STM32H7xx_HAL_Driver/Src/stm32h7xx_hal_rcc.c ****   * @note     If SYSCLK source is CSI, function returns values based on CSI_VALUE(*)
1340:lib/Drivers/STM32H7xx_HAL_Driver/Src/stm32h7xx_hal_rcc.c ****   * @note     If SYSCLK source is HSI, function returns values based on HSI_VALUE(**)
1341:lib/Drivers/STM32H7xx_HAL_Driver/Src/stm32h7xx_hal_rcc.c ****   * @note     If SYSCLK source is HSE, function returns values based on HSE_VALUE(***)
1342:lib/Drivers/STM32H7xx_HAL_Driver/Src/stm32h7xx_hal_rcc.c ****   * @note     If SYSCLK source is PLL, function returns values based on CSI_VALUE(*),
1343:lib/Drivers/STM32H7xx_HAL_Driver/Src/stm32h7xx_hal_rcc.c ****   *           HSI_VALUE(**) or HSE_VALUE(***) multiplied/divided by the PLL factors.
1344:lib/Drivers/STM32H7xx_HAL_Driver/Src/stm32h7xx_hal_rcc.c ****   * @note     (*) CSI_VALUE is a constant defined in stm32h7xx_hal_conf.h file (default value
1345:lib/Drivers/STM32H7xx_HAL_Driver/Src/stm32h7xx_hal_rcc.c ****   *               4 MHz) but the real value may vary depending on the variations
1346:lib/Drivers/STM32H7xx_HAL_Driver/Src/stm32h7xx_hal_rcc.c ****   *               in voltage and temperature.
1347:lib/Drivers/STM32H7xx_HAL_Driver/Src/stm32h7xx_hal_rcc.c ****   * @note     (**) HSI_VALUE is a constant defined in stm32h7xx_hal_conf.h file (default value
1348:lib/Drivers/STM32H7xx_HAL_Driver/Src/stm32h7xx_hal_rcc.c ****   *               64 MHz) but the real value may vary depending on the variations
1349:lib/Drivers/STM32H7xx_HAL_Driver/Src/stm32h7xx_hal_rcc.c ****   *               in voltage and temperature.
1350:lib/Drivers/STM32H7xx_HAL_Driver/Src/stm32h7xx_hal_rcc.c ****   * @note     (***) HSE_VALUE is a constant defined in stm32h7xx_hal_conf.h file (default value
1351:lib/Drivers/STM32H7xx_HAL_Driver/Src/stm32h7xx_hal_rcc.c ****   *                25 MHz), user has to ensure that HSE_VALUE is same as the real
1352:lib/Drivers/STM32H7xx_HAL_Driver/Src/stm32h7xx_hal_rcc.c ****   *                frequency of the crystal used. Otherwise, this function may
1353:lib/Drivers/STM32H7xx_HAL_Driver/Src/stm32h7xx_hal_rcc.c ****   *                have wrong result.
1354:lib/Drivers/STM32H7xx_HAL_Driver/Src/stm32h7xx_hal_rcc.c ****   *
1355:lib/Drivers/STM32H7xx_HAL_Driver/Src/stm32h7xx_hal_rcc.c ****   * @note   The result of this function could be not correct when using fractional
1356:lib/Drivers/STM32H7xx_HAL_Driver/Src/stm32h7xx_hal_rcc.c ****   *         value for HSE crystal.
1357:lib/Drivers/STM32H7xx_HAL_Driver/Src/stm32h7xx_hal_rcc.c ****   *
1358:lib/Drivers/STM32H7xx_HAL_Driver/Src/stm32h7xx_hal_rcc.c ****   * @note   This function can be used by the user application to compute the
1359:lib/Drivers/STM32H7xx_HAL_Driver/Src/stm32h7xx_hal_rcc.c ****   *         baud rate for the communication peripherals or configure other parameters.
1360:lib/Drivers/STM32H7xx_HAL_Driver/Src/stm32h7xx_hal_rcc.c ****   *
1361:lib/Drivers/STM32H7xx_HAL_Driver/Src/stm32h7xx_hal_rcc.c ****   * @note   Each time SYSCLK changes, this function must be called to update the
1362:lib/Drivers/STM32H7xx_HAL_Driver/Src/stm32h7xx_hal_rcc.c ****   *         right SYSCLK value. Otherwise, any configuration based on this function will be incorre
1363:lib/Drivers/STM32H7xx_HAL_Driver/Src/stm32h7xx_hal_rcc.c ****   *
1364:lib/Drivers/STM32H7xx_HAL_Driver/Src/stm32h7xx_hal_rcc.c ****   *
1365:lib/Drivers/STM32H7xx_HAL_Driver/Src/stm32h7xx_hal_rcc.c ****   * @retval SYSCLK frequency
1366:lib/Drivers/STM32H7xx_HAL_Driver/Src/stm32h7xx_hal_rcc.c ****   */
1367:lib/Drivers/STM32H7xx_HAL_Driver/Src/stm32h7xx_hal_rcc.c **** uint32_t HAL_RCC_GetSysClockFreq(void)
1368:lib/Drivers/STM32H7xx_HAL_Driver/Src/stm32h7xx_hal_rcc.c **** {
 1981              		.loc 1 1368 1 is_stmt 1 view -0
 1982              		.cfi_startproc
 1983              		@ args = 0, pretend = 0, frame = 0
 1984              		@ frame_needed = 0, uses_anonymous_args = 0
 1985              		@ link register save eliminated.
1369:lib/Drivers/STM32H7xx_HAL_Driver/Src/stm32h7xx_hal_rcc.c ****   uint32_t pllp, pllsource, pllm, pllfracen, hsivalue;
 1986              		.loc 1 1369 3 view .LVU626
1370:lib/Drivers/STM32H7xx_HAL_Driver/Src/stm32h7xx_hal_rcc.c ****   float_t fracn1, pllvco;
 1987              		.loc 1 1370 3 view .LVU627
1371:lib/Drivers/STM32H7xx_HAL_Driver/Src/stm32h7xx_hal_rcc.c ****   uint32_t sysclockfreq;
 1988              		.loc 1 1371 3 view .LVU628
1372:lib/Drivers/STM32H7xx_HAL_Driver/Src/stm32h7xx_hal_rcc.c **** 
1373:lib/Drivers/STM32H7xx_HAL_Driver/Src/stm32h7xx_hal_rcc.c ****   /* Get SYSCLK source -------------------------------------------------------*/
1374:lib/Drivers/STM32H7xx_HAL_Driver/Src/stm32h7xx_hal_rcc.c **** 
1375:lib/Drivers/STM32H7xx_HAL_Driver/Src/stm32h7xx_hal_rcc.c ****   switch (RCC->CFGR & RCC_CFGR_SWS)
 1989              		.loc 1 1375 3 view .LVU629
ARM GAS  /tmp/ccpTiR3W.s 			page 65


 1990              		.loc 1 1375 14 is_stmt 0 view .LVU630
 1991 0000 744B     		ldr	r3, .L197
 1992 0002 1B69     		ldr	r3, [r3, #16]
 1993              		.loc 1 1375 21 view .LVU631
 1994 0004 03F03803 		and	r3, r3, #56
 1995              		.loc 1 1375 3 view .LVU632
 1996 0008 102B     		cmp	r3, #16
 1997 000a 00F0DE80 		beq	.L189
 1998 000e 182B     		cmp	r3, #24
 1999 0010 0FD0     		beq	.L183
 2000 0012 0BB1     		cbz	r3, .L195
 2001 0014 7048     		ldr	r0, .L197+4
 2002 0016 7047     		bx	lr
 2003              	.L195:
1376:lib/Drivers/STM32H7xx_HAL_Driver/Src/stm32h7xx_hal_rcc.c ****   {
1377:lib/Drivers/STM32H7xx_HAL_Driver/Src/stm32h7xx_hal_rcc.c ****   case RCC_CFGR_SWS_HSI:  /* HSI used as system clock source */
1378:lib/Drivers/STM32H7xx_HAL_Driver/Src/stm32h7xx_hal_rcc.c **** 
1379:lib/Drivers/STM32H7xx_HAL_Driver/Src/stm32h7xx_hal_rcc.c ****    if (__HAL_RCC_GET_FLAG(RCC_FLAG_HSIDIV) != 0U)
 2004              		.loc 1 1379 4 is_stmt 1 view .LVU633
 2005              		.loc 1 1379 8 is_stmt 0 view .LVU634
 2006 0018 6E4B     		ldr	r3, .L197
 2007 001a 1B68     		ldr	r3, [r3]
 2008              		.loc 1 1379 7 view .LVU635
 2009 001c 13F0200F 		tst	r3, #32
 2010 0020 00F0D580 		beq	.L191
1380:lib/Drivers/STM32H7xx_HAL_Driver/Src/stm32h7xx_hal_rcc.c ****       {
1381:lib/Drivers/STM32H7xx_HAL_Driver/Src/stm32h7xx_hal_rcc.c ****         sysclockfreq = (uint32_t) (HSI_VALUE >> (__HAL_RCC_GET_HSI_DIVIDER()>> 3));
 2011              		.loc 1 1381 9 is_stmt 1 view .LVU636
 2012              		.loc 1 1381 50 is_stmt 0 view .LVU637
 2013 0024 6B4B     		ldr	r3, .L197
 2014 0026 1B68     		ldr	r3, [r3]
 2015              		.loc 1 1381 77 view .LVU638
 2016 0028 C3F3C103 		ubfx	r3, r3, #3, #2
 2017              		.loc 1 1381 22 view .LVU639
 2018 002c 6B48     		ldr	r0, .L197+8
 2019 002e D840     		lsrs	r0, r0, r3
 2020              	.LVL158:
 2021              		.loc 1 1381 22 view .LVU640
 2022 0030 7047     		bx	lr
 2023              	.LVL159:
 2024              	.L183:
1368:lib/Drivers/STM32H7xx_HAL_Driver/Src/stm32h7xx_hal_rcc.c ****   uint32_t pllp, pllsource, pllm, pllfracen, hsivalue;
 2025              		.loc 1 1368 1 view .LVU641
 2026 0032 10B4     		push	{r4}
 2027              	.LCFI8:
 2028              		.cfi_def_cfa_offset 4
 2029              		.cfi_offset 4, -4
1382:lib/Drivers/STM32H7xx_HAL_Driver/Src/stm32h7xx_hal_rcc.c ****       }
1383:lib/Drivers/STM32H7xx_HAL_Driver/Src/stm32h7xx_hal_rcc.c ****       else
1384:lib/Drivers/STM32H7xx_HAL_Driver/Src/stm32h7xx_hal_rcc.c ****       {
1385:lib/Drivers/STM32H7xx_HAL_Driver/Src/stm32h7xx_hal_rcc.c ****         sysclockfreq = (uint32_t) HSI_VALUE;
1386:lib/Drivers/STM32H7xx_HAL_Driver/Src/stm32h7xx_hal_rcc.c ****       }
1387:lib/Drivers/STM32H7xx_HAL_Driver/Src/stm32h7xx_hal_rcc.c **** 
1388:lib/Drivers/STM32H7xx_HAL_Driver/Src/stm32h7xx_hal_rcc.c ****     break;
1389:lib/Drivers/STM32H7xx_HAL_Driver/Src/stm32h7xx_hal_rcc.c **** 
1390:lib/Drivers/STM32H7xx_HAL_Driver/Src/stm32h7xx_hal_rcc.c ****   case RCC_CFGR_SWS_CSI:  /* CSI used as system clock  source */
1391:lib/Drivers/STM32H7xx_HAL_Driver/Src/stm32h7xx_hal_rcc.c ****     sysclockfreq = CSI_VALUE;
ARM GAS  /tmp/ccpTiR3W.s 			page 66


1392:lib/Drivers/STM32H7xx_HAL_Driver/Src/stm32h7xx_hal_rcc.c ****     break;
1393:lib/Drivers/STM32H7xx_HAL_Driver/Src/stm32h7xx_hal_rcc.c **** 
1394:lib/Drivers/STM32H7xx_HAL_Driver/Src/stm32h7xx_hal_rcc.c ****   case RCC_CFGR_SWS_HSE:  /* HSE used as system clock  source */
1395:lib/Drivers/STM32H7xx_HAL_Driver/Src/stm32h7xx_hal_rcc.c ****     sysclockfreq = HSE_VALUE;
1396:lib/Drivers/STM32H7xx_HAL_Driver/Src/stm32h7xx_hal_rcc.c ****     break;
1397:lib/Drivers/STM32H7xx_HAL_Driver/Src/stm32h7xx_hal_rcc.c **** 
1398:lib/Drivers/STM32H7xx_HAL_Driver/Src/stm32h7xx_hal_rcc.c ****   case RCC_CFGR_SWS_PLL1:  /* PLL1 used as system clock  source */
1399:lib/Drivers/STM32H7xx_HAL_Driver/Src/stm32h7xx_hal_rcc.c **** 
1400:lib/Drivers/STM32H7xx_HAL_Driver/Src/stm32h7xx_hal_rcc.c ****     /* PLL_VCO = (HSE_VALUE or HSI_VALUE or CSI_VALUE/ PLLM) * PLLN
1401:lib/Drivers/STM32H7xx_HAL_Driver/Src/stm32h7xx_hal_rcc.c ****     SYSCLK = PLL_VCO / PLLR
1402:lib/Drivers/STM32H7xx_HAL_Driver/Src/stm32h7xx_hal_rcc.c ****     */
1403:lib/Drivers/STM32H7xx_HAL_Driver/Src/stm32h7xx_hal_rcc.c ****     pllsource = (RCC->PLLCKSELR & RCC_PLLCKSELR_PLLSRC);
 2030              		.loc 1 1403 5 is_stmt 1 view .LVU642
 2031              		.loc 1 1403 21 is_stmt 0 view .LVU643
 2032 0034 674B     		ldr	r3, .L197
 2033 0036 9A6A     		ldr	r2, [r3, #40]
 2034              		.loc 1 1403 15 view .LVU644
 2035 0038 02F00302 		and	r2, r2, #3
 2036              	.LVL160:
1404:lib/Drivers/STM32H7xx_HAL_Driver/Src/stm32h7xx_hal_rcc.c ****     pllm = ((RCC->PLLCKSELR & RCC_PLLCKSELR_DIVM1)>> 4)  ;
 2037              		.loc 1 1404 5 is_stmt 1 view .LVU645
 2038              		.loc 1 1404 17 is_stmt 0 view .LVU646
 2039 003c 9C6A     		ldr	r4, [r3, #40]
 2040              		.loc 1 1404 10 view .LVU647
 2041 003e C4F30510 		ubfx	r0, r4, #4, #6
 2042              	.LVL161:
1405:lib/Drivers/STM32H7xx_HAL_Driver/Src/stm32h7xx_hal_rcc.c ****     pllfracen = ((RCC-> PLLCFGR & RCC_PLLCFGR_PLL1FRACEN)>>RCC_PLLCFGR_PLL1FRACEN_Pos);
 2043              		.loc 1 1405 5 is_stmt 1 view .LVU648
 2044              		.loc 1 1405 22 is_stmt 0 view .LVU649
 2045 0042 D96A     		ldr	r1, [r3, #44]
 2046              		.loc 1 1405 15 view .LVU650
 2047 0044 01F00101 		and	r1, r1, #1
 2048              	.LVL162:
1406:lib/Drivers/STM32H7xx_HAL_Driver/Src/stm32h7xx_hal_rcc.c ****     fracn1 = (float_t)(uint32_t)(pllfracen* ((RCC->PLL1FRACR & RCC_PLL1FRACR_FRACN1)>> 3));
 2049              		.loc 1 1406 5 is_stmt 1 view .LVU651
 2050              		.loc 1 1406 50 is_stmt 0 view .LVU652
 2051 0048 5B6B     		ldr	r3, [r3, #52]
 2052              		.loc 1 1406 85 view .LVU653
 2053 004a C3F3CC03 		ubfx	r3, r3, #3, #13
 2054              		.loc 1 1406 23 view .LVU654
 2055 004e 01FB03F3 		mul	r3, r1, r3
 2056              		.loc 1 1406 12 view .LVU655
 2057 0052 07EE903A 		vmov	s15, r3	@ int
 2058 0056 F8EE677A 		vcvt.f32.u32	s15, s15
 2059              	.LVL163:
1407:lib/Drivers/STM32H7xx_HAL_Driver/Src/stm32h7xx_hal_rcc.c **** 
1408:lib/Drivers/STM32H7xx_HAL_Driver/Src/stm32h7xx_hal_rcc.c ****     if (pllm != 0U)
 2060              		.loc 1 1408 5 is_stmt 1 view .LVU656
 2061              		.loc 1 1408 8 is_stmt 0 view .LVU657
 2062 005a 14F47C7F 		tst	r4, #1008
 2063 005e 00F09480 		beq	.L181
1409:lib/Drivers/STM32H7xx_HAL_Driver/Src/stm32h7xx_hal_rcc.c ****     {
1410:lib/Drivers/STM32H7xx_HAL_Driver/Src/stm32h7xx_hal_rcc.c ****       switch (pllsource)
 2064              		.loc 1 1410 7 is_stmt 1 view .LVU658
 2065 0062 012A     		cmp	r2, #1
 2066 0064 66D0     		beq	.L184
 2067 0066 022A     		cmp	r2, #2
ARM GAS  /tmp/ccpTiR3W.s 			page 67


 2068 0068 00F09280 		beq	.L185
 2069 006c E2B1     		cbz	r2, .L196
1411:lib/Drivers/STM32H7xx_HAL_Driver/Src/stm32h7xx_hal_rcc.c ****       {
1412:lib/Drivers/STM32H7xx_HAL_Driver/Src/stm32h7xx_hal_rcc.c ****       case RCC_PLLSOURCE_HSI:  /* HSI used as PLL clock source */
1413:lib/Drivers/STM32H7xx_HAL_Driver/Src/stm32h7xx_hal_rcc.c **** 
1414:lib/Drivers/STM32H7xx_HAL_Driver/Src/stm32h7xx_hal_rcc.c ****        if (__HAL_RCC_GET_FLAG(RCC_FLAG_HSIDIV) != 0U)
1415:lib/Drivers/STM32H7xx_HAL_Driver/Src/stm32h7xx_hal_rcc.c ****         {
1416:lib/Drivers/STM32H7xx_HAL_Driver/Src/stm32h7xx_hal_rcc.c ****           hsivalue= (HSI_VALUE >> (__HAL_RCC_GET_HSI_DIVIDER()>> 3));
1417:lib/Drivers/STM32H7xx_HAL_Driver/Src/stm32h7xx_hal_rcc.c ****           pllvco = ( (float_t)hsivalue / (float_t)pllm) * ((float_t)(uint32_t)(RCC->PLL1DIVR & RCC_
1418:lib/Drivers/STM32H7xx_HAL_Driver/Src/stm32h7xx_hal_rcc.c ****         }
1419:lib/Drivers/STM32H7xx_HAL_Driver/Src/stm32h7xx_hal_rcc.c ****         else
1420:lib/Drivers/STM32H7xx_HAL_Driver/Src/stm32h7xx_hal_rcc.c ****         {
1421:lib/Drivers/STM32H7xx_HAL_Driver/Src/stm32h7xx_hal_rcc.c ****           pllvco = ((float_t)HSI_VALUE / (float_t)pllm) * ((float_t)(uint32_t)(RCC->PLL1DIVR & RCC_
1422:lib/Drivers/STM32H7xx_HAL_Driver/Src/stm32h7xx_hal_rcc.c ****         }
1423:lib/Drivers/STM32H7xx_HAL_Driver/Src/stm32h7xx_hal_rcc.c ****         break;
1424:lib/Drivers/STM32H7xx_HAL_Driver/Src/stm32h7xx_hal_rcc.c **** 
1425:lib/Drivers/STM32H7xx_HAL_Driver/Src/stm32h7xx_hal_rcc.c ****       case RCC_PLLSOURCE_CSI:  /* CSI used as PLL clock source */
1426:lib/Drivers/STM32H7xx_HAL_Driver/Src/stm32h7xx_hal_rcc.c ****         pllvco = ((float_t)CSI_VALUE / (float_t)pllm) * ((float_t)(uint32_t)(RCC->PLL1DIVR & RCC_PL
1427:lib/Drivers/STM32H7xx_HAL_Driver/Src/stm32h7xx_hal_rcc.c ****         break;
1428:lib/Drivers/STM32H7xx_HAL_Driver/Src/stm32h7xx_hal_rcc.c **** 
1429:lib/Drivers/STM32H7xx_HAL_Driver/Src/stm32h7xx_hal_rcc.c ****       case RCC_PLLSOURCE_HSE:  /* HSE used as PLL clock source */
1430:lib/Drivers/STM32H7xx_HAL_Driver/Src/stm32h7xx_hal_rcc.c ****         pllvco = ((float_t)HSE_VALUE / (float_t)pllm) * ((float_t)(uint32_t)(RCC->PLL1DIVR & RCC_PL
1431:lib/Drivers/STM32H7xx_HAL_Driver/Src/stm32h7xx_hal_rcc.c ****         break;
1432:lib/Drivers/STM32H7xx_HAL_Driver/Src/stm32h7xx_hal_rcc.c **** 
1433:lib/Drivers/STM32H7xx_HAL_Driver/Src/stm32h7xx_hal_rcc.c ****       default:
1434:lib/Drivers/STM32H7xx_HAL_Driver/Src/stm32h7xx_hal_rcc.c ****         pllvco = ((float_t)CSI_VALUE / (float_t)pllm) * ((float_t)(uint32_t)(RCC->PLL1DIVR & RCC_PL
 2070              		.loc 1 1434 9 view .LVU659
 2071              		.loc 1 1434 40 is_stmt 0 view .LVU660
 2072 006e 07EE100A 		vmov	s14, r0	@ int
 2073 0072 F8EE476A 		vcvt.f32.u32	s13, s14
 2074              		.loc 1 1434 38 view .LVU661
 2075 0076 9FED5A6A 		vldr.32	s12, .L197+12
 2076 007a 86EE267A 		vdiv.f32	s14, s12, s13
 2077              		.loc 1 1434 81 view .LVU662
 2078 007e 554B     		ldr	r3, .L197
 2079 0080 1B6B     		ldr	r3, [r3, #48]
 2080              		.loc 1 1434 67 view .LVU663
 2081 0082 C3F30803 		ubfx	r3, r3, #0, #9
 2082              		.loc 1 1434 58 view .LVU664
 2083 0086 06EE903A 		vmov	s13, r3	@ int
 2084 008a F8EE666A 		vcvt.f32.u32	s13, s13
 2085              		.loc 1 1434 120 view .LVU665
 2086 008e 9FED556A 		vldr.32	s12, .L197+16
 2087 0092 67EE867A 		vmul.f32	s15, s15, s12
 2088              	.LVL164:
 2089              		.loc 1 1434 111 view .LVU666
 2090 0096 76EEA77A 		vadd.f32	s15, s13, s15
 2091              		.loc 1 1434 138 view .LVU667
 2092 009a F7EE006A 		vmov.f32	s13, #1.0e+0
 2093 009e 77EEA67A 		vadd.f32	s15, s15, s13
 2094              		.loc 1 1434 16 view .LVU668
 2095 00a2 27EE277A 		vmul.f32	s14, s14, s15
 2096              	.LVL165:
1435:lib/Drivers/STM32H7xx_HAL_Driver/Src/stm32h7xx_hal_rcc.c ****         break;
 2097              		.loc 1 1435 9 is_stmt 1 view .LVU669
 2098 00a6 61E0     		b	.L188
 2099              	.LVL166:
ARM GAS  /tmp/ccpTiR3W.s 			page 68


 2100              	.L196:
1414:lib/Drivers/STM32H7xx_HAL_Driver/Src/stm32h7xx_hal_rcc.c ****         {
 2101              		.loc 1 1414 8 view .LVU670
1414:lib/Drivers/STM32H7xx_HAL_Driver/Src/stm32h7xx_hal_rcc.c ****         {
 2102              		.loc 1 1414 12 is_stmt 0 view .LVU671
 2103 00a8 4A4B     		ldr	r3, .L197
 2104 00aa 1B68     		ldr	r3, [r3]
1414:lib/Drivers/STM32H7xx_HAL_Driver/Src/stm32h7xx_hal_rcc.c ****         {
 2105              		.loc 1 1414 11 view .LVU672
 2106 00ac 13F0200F 		tst	r3, #32
 2107 00b0 23D0     		beq	.L187
1416:lib/Drivers/STM32H7xx_HAL_Driver/Src/stm32h7xx_hal_rcc.c ****           pllvco = ( (float_t)hsivalue / (float_t)pllm) * ((float_t)(uint32_t)(RCC->PLL1DIVR & RCC_
 2108              		.loc 1 1416 11 is_stmt 1 view .LVU673
1416:lib/Drivers/STM32H7xx_HAL_Driver/Src/stm32h7xx_hal_rcc.c ****           pllvco = ( (float_t)hsivalue / (float_t)pllm) * ((float_t)(uint32_t)(RCC->PLL1DIVR & RCC_
 2109              		.loc 1 1416 36 is_stmt 0 view .LVU674
 2110 00b2 4849     		ldr	r1, .L197
 2111              	.LVL167:
1416:lib/Drivers/STM32H7xx_HAL_Driver/Src/stm32h7xx_hal_rcc.c ****           pllvco = ( (float_t)hsivalue / (float_t)pllm) * ((float_t)(uint32_t)(RCC->PLL1DIVR & RCC_
 2112              		.loc 1 1416 36 view .LVU675
 2113 00b4 0A68     		ldr	r2, [r1]
 2114              	.LVL168:
1416:lib/Drivers/STM32H7xx_HAL_Driver/Src/stm32h7xx_hal_rcc.c ****           pllvco = ( (float_t)hsivalue / (float_t)pllm) * ((float_t)(uint32_t)(RCC->PLL1DIVR & RCC_
 2115              		.loc 1 1416 63 view .LVU676
 2116 00b6 C2F3C102 		ubfx	r2, r2, #3, #2
1416:lib/Drivers/STM32H7xx_HAL_Driver/Src/stm32h7xx_hal_rcc.c ****           pllvco = ( (float_t)hsivalue / (float_t)pllm) * ((float_t)(uint32_t)(RCC->PLL1DIVR & RCC_
 2117              		.loc 1 1416 19 view .LVU677
 2118 00ba 484B     		ldr	r3, .L197+8
 2119 00bc D340     		lsrs	r3, r3, r2
 2120              	.LVL169:
1417:lib/Drivers/STM32H7xx_HAL_Driver/Src/stm32h7xx_hal_rcc.c ****         }
 2121              		.loc 1 1417 11 is_stmt 1 view .LVU678
1417:lib/Drivers/STM32H7xx_HAL_Driver/Src/stm32h7xx_hal_rcc.c ****         }
 2122              		.loc 1 1417 22 is_stmt 0 view .LVU679
 2123 00be 07EE103A 		vmov	s14, r3	@ int
 2124 00c2 F8EE476A 		vcvt.f32.u32	s13, s14
1417:lib/Drivers/STM32H7xx_HAL_Driver/Src/stm32h7xx_hal_rcc.c ****         }
 2125              		.loc 1 1417 42 view .LVU680
 2126 00c6 07EE100A 		vmov	s14, r0	@ int
 2127 00ca B8EE476A 		vcvt.f32.u32	s12, s14
1417:lib/Drivers/STM32H7xx_HAL_Driver/Src/stm32h7xx_hal_rcc.c ****         }
 2128              		.loc 1 1417 40 view .LVU681
 2129 00ce 86EE867A 		vdiv.f32	s14, s13, s12
1417:lib/Drivers/STM32H7xx_HAL_Driver/Src/stm32h7xx_hal_rcc.c ****         }
 2130              		.loc 1 1417 83 view .LVU682
 2131 00d2 0B6B     		ldr	r3, [r1, #48]
 2132              	.LVL170:
1417:lib/Drivers/STM32H7xx_HAL_Driver/Src/stm32h7xx_hal_rcc.c ****         }
 2133              		.loc 1 1417 69 view .LVU683
 2134 00d4 C3F30803 		ubfx	r3, r3, #0, #9
1417:lib/Drivers/STM32H7xx_HAL_Driver/Src/stm32h7xx_hal_rcc.c ****         }
 2135              		.loc 1 1417 60 view .LVU684
 2136 00d8 06EE903A 		vmov	s13, r3	@ int
 2137 00dc F8EE666A 		vcvt.f32.u32	s13, s13
1417:lib/Drivers/STM32H7xx_HAL_Driver/Src/stm32h7xx_hal_rcc.c ****         }
 2138              		.loc 1 1417 122 view .LVU685
 2139 00e0 9FED406A 		vldr.32	s12, .L197+16
 2140 00e4 67EE867A 		vmul.f32	s15, s15, s12
ARM GAS  /tmp/ccpTiR3W.s 			page 69


 2141              	.LVL171:
1417:lib/Drivers/STM32H7xx_HAL_Driver/Src/stm32h7xx_hal_rcc.c ****         }
 2142              		.loc 1 1417 113 view .LVU686
 2143 00e8 76EEA77A 		vadd.f32	s15, s13, s15
1417:lib/Drivers/STM32H7xx_HAL_Driver/Src/stm32h7xx_hal_rcc.c ****         }
 2144              		.loc 1 1417 140 view .LVU687
 2145 00ec F7EE006A 		vmov.f32	s13, #1.0e+0
 2146 00f0 77EEA67A 		vadd.f32	s15, s15, s13
1417:lib/Drivers/STM32H7xx_HAL_Driver/Src/stm32h7xx_hal_rcc.c ****         }
 2147              		.loc 1 1417 18 view .LVU688
 2148 00f4 27EE277A 		vmul.f32	s14, s14, s15
 2149              	.LVL172:
1417:lib/Drivers/STM32H7xx_HAL_Driver/Src/stm32h7xx_hal_rcc.c ****         }
 2150              		.loc 1 1417 18 view .LVU689
 2151 00f8 38E0     		b	.L188
 2152              	.LVL173:
 2153              	.L187:
1421:lib/Drivers/STM32H7xx_HAL_Driver/Src/stm32h7xx_hal_rcc.c ****         }
 2154              		.loc 1 1421 11 is_stmt 1 view .LVU690
1421:lib/Drivers/STM32H7xx_HAL_Driver/Src/stm32h7xx_hal_rcc.c ****         }
 2155              		.loc 1 1421 42 is_stmt 0 view .LVU691
 2156 00fa 07EE100A 		vmov	s14, r0	@ int
 2157 00fe F8EE476A 		vcvt.f32.u32	s13, s14
1421:lib/Drivers/STM32H7xx_HAL_Driver/Src/stm32h7xx_hal_rcc.c ****         }
 2158              		.loc 1 1421 40 view .LVU692
 2159 0102 9FED396A 		vldr.32	s12, .L197+20
 2160 0106 86EE267A 		vdiv.f32	s14, s12, s13
1421:lib/Drivers/STM32H7xx_HAL_Driver/Src/stm32h7xx_hal_rcc.c ****         }
 2161              		.loc 1 1421 83 view .LVU693
 2162 010a 324B     		ldr	r3, .L197
 2163 010c 1B6B     		ldr	r3, [r3, #48]
1421:lib/Drivers/STM32H7xx_HAL_Driver/Src/stm32h7xx_hal_rcc.c ****         }
 2164              		.loc 1 1421 69 view .LVU694
 2165 010e C3F30803 		ubfx	r3, r3, #0, #9
1421:lib/Drivers/STM32H7xx_HAL_Driver/Src/stm32h7xx_hal_rcc.c ****         }
 2166              		.loc 1 1421 60 view .LVU695
 2167 0112 06EE903A 		vmov	s13, r3	@ int
 2168 0116 F8EE666A 		vcvt.f32.u32	s13, s13
1421:lib/Drivers/STM32H7xx_HAL_Driver/Src/stm32h7xx_hal_rcc.c ****         }
 2169              		.loc 1 1421 122 view .LVU696
 2170 011a 9FED326A 		vldr.32	s12, .L197+16
 2171 011e 67EE867A 		vmul.f32	s15, s15, s12
 2172              	.LVL174:
1421:lib/Drivers/STM32H7xx_HAL_Driver/Src/stm32h7xx_hal_rcc.c ****         }
 2173              		.loc 1 1421 113 view .LVU697
 2174 0122 76EEA77A 		vadd.f32	s15, s13, s15
1421:lib/Drivers/STM32H7xx_HAL_Driver/Src/stm32h7xx_hal_rcc.c ****         }
 2175              		.loc 1 1421 140 view .LVU698
 2176 0126 F7EE006A 		vmov.f32	s13, #1.0e+0
 2177 012a 77EEA67A 		vadd.f32	s15, s15, s13
1421:lib/Drivers/STM32H7xx_HAL_Driver/Src/stm32h7xx_hal_rcc.c ****         }
 2178              		.loc 1 1421 18 view .LVU699
 2179 012e 27EE277A 		vmul.f32	s14, s14, s15
 2180              	.LVL175:
1421:lib/Drivers/STM32H7xx_HAL_Driver/Src/stm32h7xx_hal_rcc.c ****         }
 2181              		.loc 1 1421 18 view .LVU700
 2182 0132 1BE0     		b	.L188
ARM GAS  /tmp/ccpTiR3W.s 			page 70


 2183              	.LVL176:
 2184              	.L184:
1426:lib/Drivers/STM32H7xx_HAL_Driver/Src/stm32h7xx_hal_rcc.c ****         break;
 2185              		.loc 1 1426 9 is_stmt 1 view .LVU701
1426:lib/Drivers/STM32H7xx_HAL_Driver/Src/stm32h7xx_hal_rcc.c ****         break;
 2186              		.loc 1 1426 40 is_stmt 0 view .LVU702
 2187 0134 07EE100A 		vmov	s14, r0	@ int
 2188 0138 F8EE476A 		vcvt.f32.u32	s13, s14
1426:lib/Drivers/STM32H7xx_HAL_Driver/Src/stm32h7xx_hal_rcc.c ****         break;
 2189              		.loc 1 1426 38 view .LVU703
 2190 013c 9FED286A 		vldr.32	s12, .L197+12
 2191 0140 86EE267A 		vdiv.f32	s14, s12, s13
1426:lib/Drivers/STM32H7xx_HAL_Driver/Src/stm32h7xx_hal_rcc.c ****         break;
 2192              		.loc 1 1426 81 view .LVU704
 2193 0144 234B     		ldr	r3, .L197
 2194 0146 1B6B     		ldr	r3, [r3, #48]
1426:lib/Drivers/STM32H7xx_HAL_Driver/Src/stm32h7xx_hal_rcc.c ****         break;
 2195              		.loc 1 1426 67 view .LVU705
 2196 0148 C3F30803 		ubfx	r3, r3, #0, #9
1426:lib/Drivers/STM32H7xx_HAL_Driver/Src/stm32h7xx_hal_rcc.c ****         break;
 2197              		.loc 1 1426 58 view .LVU706
 2198 014c 06EE903A 		vmov	s13, r3	@ int
 2199 0150 F8EE666A 		vcvt.f32.u32	s13, s13
1426:lib/Drivers/STM32H7xx_HAL_Driver/Src/stm32h7xx_hal_rcc.c ****         break;
 2200              		.loc 1 1426 120 view .LVU707
 2201 0154 9FED236A 		vldr.32	s12, .L197+16
 2202 0158 67EE867A 		vmul.f32	s15, s15, s12
 2203              	.LVL177:
1426:lib/Drivers/STM32H7xx_HAL_Driver/Src/stm32h7xx_hal_rcc.c ****         break;
 2204              		.loc 1 1426 111 view .LVU708
 2205 015c 76EEA77A 		vadd.f32	s15, s13, s15
1426:lib/Drivers/STM32H7xx_HAL_Driver/Src/stm32h7xx_hal_rcc.c ****         break;
 2206              		.loc 1 1426 138 view .LVU709
 2207 0160 F7EE006A 		vmov.f32	s13, #1.0e+0
 2208 0164 77EEA67A 		vadd.f32	s15, s15, s13
1426:lib/Drivers/STM32H7xx_HAL_Driver/Src/stm32h7xx_hal_rcc.c ****         break;
 2209              		.loc 1 1426 16 view .LVU710
 2210 0168 27EE277A 		vmul.f32	s14, s14, s15
 2211              	.LVL178:
1427:lib/Drivers/STM32H7xx_HAL_Driver/Src/stm32h7xx_hal_rcc.c **** 
 2212              		.loc 1 1427 9 is_stmt 1 view .LVU711
 2213              	.L188:
1436:lib/Drivers/STM32H7xx_HAL_Driver/Src/stm32h7xx_hal_rcc.c ****       }
1437:lib/Drivers/STM32H7xx_HAL_Driver/Src/stm32h7xx_hal_rcc.c ****       pllp = (((RCC->PLL1DIVR & RCC_PLL1DIVR_P1) >>9) + 1U ) ;
 2214              		.loc 1 1437 7 view .LVU712
 2215              		.loc 1 1437 20 is_stmt 0 view .LVU713
 2216 016c 194B     		ldr	r3, .L197
 2217 016e 1B6B     		ldr	r3, [r3, #48]
 2218              		.loc 1 1437 50 view .LVU714
 2219 0170 C3F34623 		ubfx	r3, r3, #9, #7
 2220              		.loc 1 1437 12 view .LVU715
 2221 0174 0133     		adds	r3, r3, #1
 2222              	.LVL179:
1438:lib/Drivers/STM32H7xx_HAL_Driver/Src/stm32h7xx_hal_rcc.c ****       sysclockfreq =  (uint32_t)(float_t)(pllvco/(float_t)pllp);
 2223              		.loc 1 1438 7 is_stmt 1 view .LVU716
 2224              		.loc 1 1438 50 is_stmt 0 view .LVU717
 2225 0176 07EE903A 		vmov	s15, r3	@ int
ARM GAS  /tmp/ccpTiR3W.s 			page 71


 2226 017a F8EE677A 		vcvt.f32.u32	s15, s15
 2227              		.loc 1 1438 33 view .LVU718
 2228 017e C7EE276A 		vdiv.f32	s13, s14, s15
 2229              		.loc 1 1438 20 view .LVU719
 2230 0182 FCEEE67A 		vcvt.u32.f32	s15, s13
 2231 0186 17EE900A 		vmov	r0, s15	@ int
 2232              	.LVL180:
 2233              	.L181:
1439:lib/Drivers/STM32H7xx_HAL_Driver/Src/stm32h7xx_hal_rcc.c ****     }
1440:lib/Drivers/STM32H7xx_HAL_Driver/Src/stm32h7xx_hal_rcc.c ****     else
1441:lib/Drivers/STM32H7xx_HAL_Driver/Src/stm32h7xx_hal_rcc.c ****     {
1442:lib/Drivers/STM32H7xx_HAL_Driver/Src/stm32h7xx_hal_rcc.c ****       sysclockfreq = 0U;
1443:lib/Drivers/STM32H7xx_HAL_Driver/Src/stm32h7xx_hal_rcc.c ****     }
1444:lib/Drivers/STM32H7xx_HAL_Driver/Src/stm32h7xx_hal_rcc.c ****     break;
1445:lib/Drivers/STM32H7xx_HAL_Driver/Src/stm32h7xx_hal_rcc.c **** 
1446:lib/Drivers/STM32H7xx_HAL_Driver/Src/stm32h7xx_hal_rcc.c ****   default:
1447:lib/Drivers/STM32H7xx_HAL_Driver/Src/stm32h7xx_hal_rcc.c ****     sysclockfreq = CSI_VALUE;
1448:lib/Drivers/STM32H7xx_HAL_Driver/Src/stm32h7xx_hal_rcc.c ****     break;
1449:lib/Drivers/STM32H7xx_HAL_Driver/Src/stm32h7xx_hal_rcc.c ****   }
1450:lib/Drivers/STM32H7xx_HAL_Driver/Src/stm32h7xx_hal_rcc.c **** 
1451:lib/Drivers/STM32H7xx_HAL_Driver/Src/stm32h7xx_hal_rcc.c ****   return sysclockfreq;
1452:lib/Drivers/STM32H7xx_HAL_Driver/Src/stm32h7xx_hal_rcc.c **** }
 2234              		.loc 1 1452 1 view .LVU720
 2235 018a 5DF8044B 		ldr	r4, [sp], #4
 2236              	.LCFI9:
 2237              		.cfi_remember_state
 2238              		.cfi_restore 4
 2239              		.cfi_def_cfa_offset 0
 2240              	.LVL181:
 2241              		.loc 1 1452 1 view .LVU721
 2242 018e 7047     		bx	lr
 2243              	.LVL182:
 2244              	.L185:
 2245              	.LCFI10:
 2246              		.cfi_restore_state
1430:lib/Drivers/STM32H7xx_HAL_Driver/Src/stm32h7xx_hal_rcc.c ****         break;
 2247              		.loc 1 1430 9 is_stmt 1 view .LVU722
1430:lib/Drivers/STM32H7xx_HAL_Driver/Src/stm32h7xx_hal_rcc.c ****         break;
 2248              		.loc 1 1430 40 is_stmt 0 view .LVU723
 2249 0190 07EE100A 		vmov	s14, r0	@ int
 2250 0194 F8EE476A 		vcvt.f32.u32	s13, s14
1430:lib/Drivers/STM32H7xx_HAL_Driver/Src/stm32h7xx_hal_rcc.c ****         break;
 2251              		.loc 1 1430 38 view .LVU724
 2252 0198 9FED146A 		vldr.32	s12, .L197+24
 2253 019c 86EE267A 		vdiv.f32	s14, s12, s13
1430:lib/Drivers/STM32H7xx_HAL_Driver/Src/stm32h7xx_hal_rcc.c ****         break;
 2254              		.loc 1 1430 81 view .LVU725
 2255 01a0 0C4B     		ldr	r3, .L197
 2256 01a2 1B6B     		ldr	r3, [r3, #48]
1430:lib/Drivers/STM32H7xx_HAL_Driver/Src/stm32h7xx_hal_rcc.c ****         break;
 2257              		.loc 1 1430 67 view .LVU726
 2258 01a4 C3F30803 		ubfx	r3, r3, #0, #9
1430:lib/Drivers/STM32H7xx_HAL_Driver/Src/stm32h7xx_hal_rcc.c ****         break;
 2259              		.loc 1 1430 58 view .LVU727
 2260 01a8 06EE903A 		vmov	s13, r3	@ int
 2261 01ac F8EE666A 		vcvt.f32.u32	s13, s13
1430:lib/Drivers/STM32H7xx_HAL_Driver/Src/stm32h7xx_hal_rcc.c ****         break;
ARM GAS  /tmp/ccpTiR3W.s 			page 72


 2262              		.loc 1 1430 120 view .LVU728
 2263 01b0 9FED0C6A 		vldr.32	s12, .L197+16
 2264 01b4 67EE867A 		vmul.f32	s15, s15, s12
 2265              	.LVL183:
1430:lib/Drivers/STM32H7xx_HAL_Driver/Src/stm32h7xx_hal_rcc.c ****         break;
 2266              		.loc 1 1430 111 view .LVU729
 2267 01b8 76EEA77A 		vadd.f32	s15, s13, s15
1430:lib/Drivers/STM32H7xx_HAL_Driver/Src/stm32h7xx_hal_rcc.c ****         break;
 2268              		.loc 1 1430 138 view .LVU730
 2269 01bc F7EE006A 		vmov.f32	s13, #1.0e+0
 2270 01c0 77EEA67A 		vadd.f32	s15, s15, s13
1430:lib/Drivers/STM32H7xx_HAL_Driver/Src/stm32h7xx_hal_rcc.c ****         break;
 2271              		.loc 1 1430 16 view .LVU731
 2272 01c4 27EE277A 		vmul.f32	s14, s14, s15
 2273              	.LVL184:
1431:lib/Drivers/STM32H7xx_HAL_Driver/Src/stm32h7xx_hal_rcc.c **** 
 2274              		.loc 1 1431 9 is_stmt 1 view .LVU732
 2275 01c8 D0E7     		b	.L188
 2276              	.LVL185:
 2277              	.L189:
 2278              	.LCFI11:
 2279              		.cfi_def_cfa_offset 0
 2280              		.cfi_restore 4
1395:lib/Drivers/STM32H7xx_HAL_Driver/Src/stm32h7xx_hal_rcc.c ****     break;
 2281              		.loc 1 1395 18 is_stmt 0 view .LVU733
 2282 01ca 0948     		ldr	r0, .L197+28
 2283 01cc 7047     		bx	lr
 2284              	.L191:
1385:lib/Drivers/STM32H7xx_HAL_Driver/Src/stm32h7xx_hal_rcc.c ****       }
 2285              		.loc 1 1385 22 view .LVU734
 2286 01ce 0348     		ldr	r0, .L197+8
 2287              	.LVL186:
1451:lib/Drivers/STM32H7xx_HAL_Driver/Src/stm32h7xx_hal_rcc.c **** }
 2288              		.loc 1 1451 3 is_stmt 1 view .LVU735
 2289              		.loc 1 1452 1 is_stmt 0 view .LVU736
 2290 01d0 7047     		bx	lr
 2291              	.L198:
 2292 01d2 00BF     		.align	2
 2293              	.L197:
 2294 01d4 00440258 		.word	1476543488
 2295 01d8 00093D00 		.word	4000000
 2296 01dc 0090D003 		.word	64000000
 2297 01e0 0024744A 		.word	1249125376
 2298 01e4 00000039 		.word	956301312
 2299 01e8 0024744C 		.word	1282679808
 2300 01ec 20BCBE4B 		.word	1270791200
 2301 01f0 40787D01 		.word	25000000
 2302              		.cfi_endproc
 2303              	.LFE150:
 2305              		.section	.text.HAL_RCC_ClockConfig,"ax",%progbits
 2306              		.align	1
 2307              		.global	HAL_RCC_ClockConfig
 2308              		.syntax unified
 2309              		.thumb
 2310              		.thumb_func
 2312              	HAL_RCC_ClockConfig:
 2313              	.LVL187:
ARM GAS  /tmp/ccpTiR3W.s 			page 73


 2314              	.LFB146:
 902:lib/Drivers/STM32H7xx_HAL_Driver/Src/stm32h7xx_hal_rcc.c ****   HAL_StatusTypeDef halstatus;
 2315              		.loc 1 902 1 is_stmt 1 view -0
 2316              		.cfi_startproc
 2317              		@ args = 0, pretend = 0, frame = 0
 2318              		@ frame_needed = 0, uses_anonymous_args = 0
 903:lib/Drivers/STM32H7xx_HAL_Driver/Src/stm32h7xx_hal_rcc.c ****   uint32_t tickstart;
 2319              		.loc 1 903 3 view .LVU738
 904:lib/Drivers/STM32H7xx_HAL_Driver/Src/stm32h7xx_hal_rcc.c ****   uint32_t common_system_clock;
 2320              		.loc 1 904 3 view .LVU739
 905:lib/Drivers/STM32H7xx_HAL_Driver/Src/stm32h7xx_hal_rcc.c **** 
 2321              		.loc 1 905 3 view .LVU740
 908:lib/Drivers/STM32H7xx_HAL_Driver/Src/stm32h7xx_hal_rcc.c ****   {
 2322              		.loc 1 908 3 view .LVU741
 908:lib/Drivers/STM32H7xx_HAL_Driver/Src/stm32h7xx_hal_rcc.c ****   {
 2323              		.loc 1 908 5 is_stmt 0 view .LVU742
 2324 0000 0028     		cmp	r0, #0
 2325 0002 00F03281 		beq	.L220
 902:lib/Drivers/STM32H7xx_HAL_Driver/Src/stm32h7xx_hal_rcc.c ****   HAL_StatusTypeDef halstatus;
 2326              		.loc 1 902 1 view .LVU743
 2327 0006 70B5     		push	{r4, r5, r6, lr}
 2328              	.LCFI12:
 2329              		.cfi_def_cfa_offset 16
 2330              		.cfi_offset 4, -16
 2331              		.cfi_offset 5, -12
 2332              		.cfi_offset 6, -8
 2333              		.cfi_offset 14, -4
 2334 0008 0D46     		mov	r5, r1
 2335 000a 0446     		mov	r4, r0
 914:lib/Drivers/STM32H7xx_HAL_Driver/Src/stm32h7xx_hal_rcc.c ****   assert_param(IS_FLASH_LATENCY(FLatency));
 2336              		.loc 1 914 3 is_stmt 1 view .LVU744
 915:lib/Drivers/STM32H7xx_HAL_Driver/Src/stm32h7xx_hal_rcc.c **** 
 2337              		.loc 1 915 3 view .LVU745
 922:lib/Drivers/STM32H7xx_HAL_Driver/Src/stm32h7xx_hal_rcc.c ****   {
 2338              		.loc 1 922 3 view .LVU746
 922:lib/Drivers/STM32H7xx_HAL_Driver/Src/stm32h7xx_hal_rcc.c ****   {
 2339              		.loc 1 922 17 is_stmt 0 view .LVU747
 2340 000c 9B4B     		ldr	r3, .L236
 2341 000e 1B68     		ldr	r3, [r3]
 2342 0010 03F00F03 		and	r3, r3, #15
 922:lib/Drivers/STM32H7xx_HAL_Driver/Src/stm32h7xx_hal_rcc.c ****   {
 2343              		.loc 1 922 5 view .LVU748
 2344 0014 8B42     		cmp	r3, r1
 2345 0016 0BD2     		bcs	.L201
 925:lib/Drivers/STM32H7xx_HAL_Driver/Src/stm32h7xx_hal_rcc.c **** 
 2346              		.loc 1 925 5 is_stmt 1 view .LVU749
 2347 0018 984A     		ldr	r2, .L236
 2348 001a 1368     		ldr	r3, [r2]
 2349 001c 23F00F03 		bic	r3, r3, #15
 2350 0020 0B43     		orrs	r3, r3, r1
 2351 0022 1360     		str	r3, [r2]
 929:lib/Drivers/STM32H7xx_HAL_Driver/Src/stm32h7xx_hal_rcc.c ****     {
 2352              		.loc 1 929 5 view .LVU750
 929:lib/Drivers/STM32H7xx_HAL_Driver/Src/stm32h7xx_hal_rcc.c ****     {
 2353              		.loc 1 929 8 is_stmt 0 view .LVU751
 2354 0024 1368     		ldr	r3, [r2]
 2355 0026 03F00F03 		and	r3, r3, #15
ARM GAS  /tmp/ccpTiR3W.s 			page 74


 929:lib/Drivers/STM32H7xx_HAL_Driver/Src/stm32h7xx_hal_rcc.c ****     {
 2356              		.loc 1 929 7 view .LVU752
 2357 002a 8B42     		cmp	r3, r1
 2358 002c 40F01F81 		bne	.L221
 2359              	.L201:
 938:lib/Drivers/STM32H7xx_HAL_Driver/Src/stm32h7xx_hal_rcc.c ****   {
 2360              		.loc 1 938 3 is_stmt 1 view .LVU753
 938:lib/Drivers/STM32H7xx_HAL_Driver/Src/stm32h7xx_hal_rcc.c ****   {
 2361              		.loc 1 938 25 is_stmt 0 view .LVU754
 2362 0030 2368     		ldr	r3, [r4]
 938:lib/Drivers/STM32H7xx_HAL_Driver/Src/stm32h7xx_hal_rcc.c ****   {
 2363              		.loc 1 938 5 view .LVU755
 2364 0032 13F0040F 		tst	r3, #4
 2365 0036 0CD0     		beq	.L202
 941:lib/Drivers/STM32H7xx_HAL_Driver/Src/stm32h7xx_hal_rcc.c ****     {
 2366              		.loc 1 941 5 is_stmt 1 view .LVU756
 941:lib/Drivers/STM32H7xx_HAL_Driver/Src/stm32h7xx_hal_rcc.c ****     {
 2367              		.loc 1 941 26 is_stmt 0 view .LVU757
 2368 0038 2269     		ldr	r2, [r4, #16]
 941:lib/Drivers/STM32H7xx_HAL_Driver/Src/stm32h7xx_hal_rcc.c ****     {
 2369              		.loc 1 941 50 view .LVU758
 2370 003a 914B     		ldr	r3, .L236+4
 2371 003c 9B69     		ldr	r3, [r3, #24]
 941:lib/Drivers/STM32H7xx_HAL_Driver/Src/stm32h7xx_hal_rcc.c ****     {
 2372              		.loc 1 941 59 view .LVU759
 2373 003e 03F07003 		and	r3, r3, #112
 941:lib/Drivers/STM32H7xx_HAL_Driver/Src/stm32h7xx_hal_rcc.c ****     {
 2374              		.loc 1 941 7 view .LVU760
 2375 0042 9A42     		cmp	r2, r3
 2376 0044 05D9     		bls	.L202
 943:lib/Drivers/STM32H7xx_HAL_Driver/Src/stm32h7xx_hal_rcc.c ****       MODIFY_REG(RCC->D1CFGR, RCC_D1CFGR_D1PPRE, RCC_ClkInitStruct->APB3CLKDivider);
 2377              		.loc 1 943 7 is_stmt 1 view .LVU761
 944:lib/Drivers/STM32H7xx_HAL_Driver/Src/stm32h7xx_hal_rcc.c ****     }
 2378              		.loc 1 944 7 view .LVU762
 2379 0046 8E49     		ldr	r1, .L236+4
 2380              	.LVL188:
 944:lib/Drivers/STM32H7xx_HAL_Driver/Src/stm32h7xx_hal_rcc.c ****     }
 2381              		.loc 1 944 7 is_stmt 0 view .LVU763
 2382 0048 8B69     		ldr	r3, [r1, #24]
 2383 004a 23F07003 		bic	r3, r3, #112
 2384 004e 1A43     		orrs	r2, r2, r3
 2385 0050 8A61     		str	r2, [r1, #24]
 2386              	.L202:
 956:lib/Drivers/STM32H7xx_HAL_Driver/Src/stm32h7xx_hal_rcc.c ****   {
 2387              		.loc 1 956 3 is_stmt 1 view .LVU764
 956:lib/Drivers/STM32H7xx_HAL_Driver/Src/stm32h7xx_hal_rcc.c ****   {
 2388              		.loc 1 956 25 is_stmt 0 view .LVU765
 2389 0052 2368     		ldr	r3, [r4]
 956:lib/Drivers/STM32H7xx_HAL_Driver/Src/stm32h7xx_hal_rcc.c ****   {
 2390              		.loc 1 956 5 view .LVU766
 2391 0054 13F0080F 		tst	r3, #8
 2392 0058 0CD0     		beq	.L203
 959:lib/Drivers/STM32H7xx_HAL_Driver/Src/stm32h7xx_hal_rcc.c ****     {
 2393              		.loc 1 959 5 is_stmt 1 view .LVU767
 959:lib/Drivers/STM32H7xx_HAL_Driver/Src/stm32h7xx_hal_rcc.c ****     {
 2394              		.loc 1 959 26 is_stmt 0 view .LVU768
 2395 005a 6269     		ldr	r2, [r4, #20]
ARM GAS  /tmp/ccpTiR3W.s 			page 75


 959:lib/Drivers/STM32H7xx_HAL_Driver/Src/stm32h7xx_hal_rcc.c ****     {
 2396              		.loc 1 959 50 view .LVU769
 2397 005c 884B     		ldr	r3, .L236+4
 2398 005e DB69     		ldr	r3, [r3, #28]
 959:lib/Drivers/STM32H7xx_HAL_Driver/Src/stm32h7xx_hal_rcc.c ****     {
 2399              		.loc 1 959 59 view .LVU770
 2400 0060 03F07003 		and	r3, r3, #112
 959:lib/Drivers/STM32H7xx_HAL_Driver/Src/stm32h7xx_hal_rcc.c ****     {
 2401              		.loc 1 959 7 view .LVU771
 2402 0064 9A42     		cmp	r2, r3
 2403 0066 05D9     		bls	.L203
 961:lib/Drivers/STM32H7xx_HAL_Driver/Src/stm32h7xx_hal_rcc.c ****       MODIFY_REG(RCC->D2CFGR, RCC_D2CFGR_D2PPRE1, (RCC_ClkInitStruct->APB1CLKDivider));
 2404              		.loc 1 961 7 is_stmt 1 view .LVU772
 962:lib/Drivers/STM32H7xx_HAL_Driver/Src/stm32h7xx_hal_rcc.c ****     }
 2405              		.loc 1 962 7 view .LVU773
 2406 0068 8549     		ldr	r1, .L236+4
 2407 006a CB69     		ldr	r3, [r1, #28]
 2408 006c 23F07003 		bic	r3, r3, #112
 2409 0070 1A43     		orrs	r2, r2, r3
 2410 0072 CA61     		str	r2, [r1, #28]
 2411              	.L203:
 973:lib/Drivers/STM32H7xx_HAL_Driver/Src/stm32h7xx_hal_rcc.c ****   {
 2412              		.loc 1 973 3 view .LVU774
 973:lib/Drivers/STM32H7xx_HAL_Driver/Src/stm32h7xx_hal_rcc.c ****   {
 2413              		.loc 1 973 25 is_stmt 0 view .LVU775
 2414 0074 2368     		ldr	r3, [r4]
 973:lib/Drivers/STM32H7xx_HAL_Driver/Src/stm32h7xx_hal_rcc.c ****   {
 2415              		.loc 1 973 5 view .LVU776
 2416 0076 13F0100F 		tst	r3, #16
 2417 007a 0CD0     		beq	.L204
 976:lib/Drivers/STM32H7xx_HAL_Driver/Src/stm32h7xx_hal_rcc.c ****     {
 2418              		.loc 1 976 5 is_stmt 1 view .LVU777
 976:lib/Drivers/STM32H7xx_HAL_Driver/Src/stm32h7xx_hal_rcc.c ****     {
 2419              		.loc 1 976 26 is_stmt 0 view .LVU778
 2420 007c A269     		ldr	r2, [r4, #24]
 976:lib/Drivers/STM32H7xx_HAL_Driver/Src/stm32h7xx_hal_rcc.c ****     {
 2421              		.loc 1 976 50 view .LVU779
 2422 007e 804B     		ldr	r3, .L236+4
 2423 0080 DB69     		ldr	r3, [r3, #28]
 976:lib/Drivers/STM32H7xx_HAL_Driver/Src/stm32h7xx_hal_rcc.c ****     {
 2424              		.loc 1 976 59 view .LVU780
 2425 0082 03F4E063 		and	r3, r3, #1792
 976:lib/Drivers/STM32H7xx_HAL_Driver/Src/stm32h7xx_hal_rcc.c ****     {
 2426              		.loc 1 976 7 view .LVU781
 2427 0086 9A42     		cmp	r2, r3
 2428 0088 05D9     		bls	.L204
 978:lib/Drivers/STM32H7xx_HAL_Driver/Src/stm32h7xx_hal_rcc.c ****       MODIFY_REG(RCC->D2CFGR, RCC_D2CFGR_D2PPRE2, (RCC_ClkInitStruct->APB2CLKDivider));
 2429              		.loc 1 978 7 is_stmt 1 view .LVU782
 979:lib/Drivers/STM32H7xx_HAL_Driver/Src/stm32h7xx_hal_rcc.c ****     }
 2430              		.loc 1 979 7 view .LVU783
 2431 008a 7D49     		ldr	r1, .L236+4
 2432 008c CB69     		ldr	r3, [r1, #28]
 2433 008e 23F4E063 		bic	r3, r3, #1792
 2434 0092 1A43     		orrs	r2, r2, r3
 2435 0094 CA61     		str	r2, [r1, #28]
 2436              	.L204:
 991:lib/Drivers/STM32H7xx_HAL_Driver/Src/stm32h7xx_hal_rcc.c ****   {
ARM GAS  /tmp/ccpTiR3W.s 			page 76


 2437              		.loc 1 991 3 view .LVU784
 991:lib/Drivers/STM32H7xx_HAL_Driver/Src/stm32h7xx_hal_rcc.c ****   {
 2438              		.loc 1 991 25 is_stmt 0 view .LVU785
 2439 0096 2368     		ldr	r3, [r4]
 991:lib/Drivers/STM32H7xx_HAL_Driver/Src/stm32h7xx_hal_rcc.c ****   {
 2440              		.loc 1 991 5 view .LVU786
 2441 0098 13F0200F 		tst	r3, #32
 2442 009c 0CD0     		beq	.L205
 994:lib/Drivers/STM32H7xx_HAL_Driver/Src/stm32h7xx_hal_rcc.c ****     {
 2443              		.loc 1 994 5 is_stmt 1 view .LVU787
 994:lib/Drivers/STM32H7xx_HAL_Driver/Src/stm32h7xx_hal_rcc.c ****     {
 2444              		.loc 1 994 26 is_stmt 0 view .LVU788
 2445 009e E269     		ldr	r2, [r4, #28]
 994:lib/Drivers/STM32H7xx_HAL_Driver/Src/stm32h7xx_hal_rcc.c ****     {
 2446              		.loc 1 994 50 view .LVU789
 2447 00a0 774B     		ldr	r3, .L236+4
 2448 00a2 1B6A     		ldr	r3, [r3, #32]
 994:lib/Drivers/STM32H7xx_HAL_Driver/Src/stm32h7xx_hal_rcc.c ****     {
 2449              		.loc 1 994 59 view .LVU790
 2450 00a4 03F07003 		and	r3, r3, #112
 994:lib/Drivers/STM32H7xx_HAL_Driver/Src/stm32h7xx_hal_rcc.c ****     {
 2451              		.loc 1 994 7 view .LVU791
 2452 00a8 9A42     		cmp	r2, r3
 2453 00aa 05D9     		bls	.L205
 996:lib/Drivers/STM32H7xx_HAL_Driver/Src/stm32h7xx_hal_rcc.c ****       MODIFY_REG(RCC->D3CFGR, RCC_D3CFGR_D3PPRE, (RCC_ClkInitStruct->APB4CLKDivider) );
 2454              		.loc 1 996 7 is_stmt 1 view .LVU792
 997:lib/Drivers/STM32H7xx_HAL_Driver/Src/stm32h7xx_hal_rcc.c ****     }
 2455              		.loc 1 997 7 view .LVU793
 2456 00ac 7449     		ldr	r1, .L236+4
 2457 00ae 0B6A     		ldr	r3, [r1, #32]
 2458 00b0 23F07003 		bic	r3, r3, #112
 2459 00b4 1A43     		orrs	r2, r2, r3
 2460 00b6 0A62     		str	r2, [r1, #32]
 2461              	.L205:
1009:lib/Drivers/STM32H7xx_HAL_Driver/Src/stm32h7xx_hal_rcc.c ****   {
 2462              		.loc 1 1009 3 view .LVU794
1009:lib/Drivers/STM32H7xx_HAL_Driver/Src/stm32h7xx_hal_rcc.c ****   {
 2463              		.loc 1 1009 25 is_stmt 0 view .LVU795
 2464 00b8 2368     		ldr	r3, [r4]
1009:lib/Drivers/STM32H7xx_HAL_Driver/Src/stm32h7xx_hal_rcc.c ****   {
 2465              		.loc 1 1009 5 view .LVU796
 2466 00ba 13F0020F 		tst	r3, #2
 2467 00be 0CD0     		beq	.L206
1012:lib/Drivers/STM32H7xx_HAL_Driver/Src/stm32h7xx_hal_rcc.c ****     {
 2468              		.loc 1 1012 5 is_stmt 1 view .LVU797
1012:lib/Drivers/STM32H7xx_HAL_Driver/Src/stm32h7xx_hal_rcc.c ****     {
 2469              		.loc 1 1012 26 is_stmt 0 view .LVU798
 2470 00c0 E268     		ldr	r2, [r4, #12]
1012:lib/Drivers/STM32H7xx_HAL_Driver/Src/stm32h7xx_hal_rcc.c ****     {
 2471              		.loc 1 1012 49 view .LVU799
 2472 00c2 6F4B     		ldr	r3, .L236+4
 2473 00c4 9B69     		ldr	r3, [r3, #24]
1012:lib/Drivers/STM32H7xx_HAL_Driver/Src/stm32h7xx_hal_rcc.c ****     {
 2474              		.loc 1 1012 58 view .LVU800
 2475 00c6 03F00F03 		and	r3, r3, #15
1012:lib/Drivers/STM32H7xx_HAL_Driver/Src/stm32h7xx_hal_rcc.c ****     {
 2476              		.loc 1 1012 7 view .LVU801
ARM GAS  /tmp/ccpTiR3W.s 			page 77


 2477 00ca 9A42     		cmp	r2, r3
 2478 00cc 05D9     		bls	.L206
1015:lib/Drivers/STM32H7xx_HAL_Driver/Src/stm32h7xx_hal_rcc.c ****       MODIFY_REG(RCC->D1CFGR, RCC_D1CFGR_HPRE, RCC_ClkInitStruct->AHBCLKDivider);
 2479              		.loc 1 1015 7 is_stmt 1 view .LVU802
1016:lib/Drivers/STM32H7xx_HAL_Driver/Src/stm32h7xx_hal_rcc.c ****     }
 2480              		.loc 1 1016 7 view .LVU803
 2481 00ce 6C49     		ldr	r1, .L236+4
 2482 00d0 8B69     		ldr	r3, [r1, #24]
 2483 00d2 23F00F03 		bic	r3, r3, #15
 2484 00d6 1A43     		orrs	r2, r2, r3
 2485 00d8 8A61     		str	r2, [r1, #24]
 2486              	.L206:
1029:lib/Drivers/STM32H7xx_HAL_Driver/Src/stm32h7xx_hal_rcc.c ****     {
 2487              		.loc 1 1029 5 view .LVU804
1029:lib/Drivers/STM32H7xx_HAL_Driver/Src/stm32h7xx_hal_rcc.c ****     {
 2488              		.loc 1 1029 27 is_stmt 0 view .LVU805
 2489 00da 2368     		ldr	r3, [r4]
1029:lib/Drivers/STM32H7xx_HAL_Driver/Src/stm32h7xx_hal_rcc.c ****     {
 2490              		.loc 1 1029 7 view .LVU806
 2491 00dc 13F0010F 		tst	r3, #1
 2492 00e0 41D0     		beq	.L207
1031:lib/Drivers/STM32H7xx_HAL_Driver/Src/stm32h7xx_hal_rcc.c ****       assert_param(IS_RCC_SYSCLKSOURCE(RCC_ClkInitStruct->SYSCLKSource));
 2493              		.loc 1 1031 7 is_stmt 1 view .LVU807
1032:lib/Drivers/STM32H7xx_HAL_Driver/Src/stm32h7xx_hal_rcc.c **** #if defined(RCC_D1CFGR_D1CPRE)
 2494              		.loc 1 1032 7 view .LVU808
1034:lib/Drivers/STM32H7xx_HAL_Driver/Src/stm32h7xx_hal_rcc.c **** #else
 2495              		.loc 1 1034 7 view .LVU809
 2496 00e2 674A     		ldr	r2, .L236+4
 2497 00e4 9369     		ldr	r3, [r2, #24]
 2498 00e6 23F47063 		bic	r3, r3, #3840
 2499 00ea A168     		ldr	r1, [r4, #8]
 2500 00ec 0B43     		orrs	r3, r3, r1
 2501 00ee 9361     		str	r3, [r2, #24]
1039:lib/Drivers/STM32H7xx_HAL_Driver/Src/stm32h7xx_hal_rcc.c ****       {
 2502              		.loc 1 1039 7 view .LVU810
1039:lib/Drivers/STM32H7xx_HAL_Driver/Src/stm32h7xx_hal_rcc.c ****       {
 2503              		.loc 1 1039 27 is_stmt 0 view .LVU811
 2504 00f0 6368     		ldr	r3, [r4, #4]
1039:lib/Drivers/STM32H7xx_HAL_Driver/Src/stm32h7xx_hal_rcc.c ****       {
 2505              		.loc 1 1039 9 view .LVU812
 2506 00f2 022B     		cmp	r3, #2
 2507 00f4 0AD0     		beq	.L232
1048:lib/Drivers/STM32H7xx_HAL_Driver/Src/stm32h7xx_hal_rcc.c ****       {
 2508              		.loc 1 1048 12 is_stmt 1 view .LVU813
1048:lib/Drivers/STM32H7xx_HAL_Driver/Src/stm32h7xx_hal_rcc.c ****       {
 2509              		.loc 1 1048 14 is_stmt 0 view .LVU814
 2510 00f6 032B     		cmp	r3, #3
 2511 00f8 27D0     		beq	.L233
1057:lib/Drivers/STM32H7xx_HAL_Driver/Src/stm32h7xx_hal_rcc.c ****       {
 2512              		.loc 1 1057 12 is_stmt 1 view .LVU815
1057:lib/Drivers/STM32H7xx_HAL_Driver/Src/stm32h7xx_hal_rcc.c ****       {
 2513              		.loc 1 1057 14 is_stmt 0 view .LVU816
 2514 00fa 012B     		cmp	r3, #1
 2515 00fc 2CD0     		beq	.L234
1069:lib/Drivers/STM32H7xx_HAL_Driver/Src/stm32h7xx_hal_rcc.c ****         {
 2516              		.loc 1 1069 9 is_stmt 1 view .LVU817
1069:lib/Drivers/STM32H7xx_HAL_Driver/Src/stm32h7xx_hal_rcc.c ****         {
ARM GAS  /tmp/ccpTiR3W.s 			page 78


 2517              		.loc 1 1069 12 is_stmt 0 view .LVU818
 2518 00fe 604A     		ldr	r2, .L236+4
 2519 0100 1268     		ldr	r2, [r2]
1069:lib/Drivers/STM32H7xx_HAL_Driver/Src/stm32h7xx_hal_rcc.c ****         {
 2520              		.loc 1 1069 11 view .LVU819
 2521 0102 12F0040F 		tst	r2, #4
 2522 0106 06D1     		bne	.L209
1071:lib/Drivers/STM32H7xx_HAL_Driver/Src/stm32h7xx_hal_rcc.c ****         }
 2523              		.loc 1 1071 18 view .LVU820
 2524 0108 0120     		movs	r0, #1
 2525              	.LVL189:
1071:lib/Drivers/STM32H7xx_HAL_Driver/Src/stm32h7xx_hal_rcc.c ****         }
 2526              		.loc 1 1071 18 view .LVU821
 2527 010a ADE0     		b	.L200
 2528              	.LVL190:
 2529              	.L232:
1042:lib/Drivers/STM32H7xx_HAL_Driver/Src/stm32h7xx_hal_rcc.c ****         {
 2530              		.loc 1 1042 9 is_stmt 1 view .LVU822
1042:lib/Drivers/STM32H7xx_HAL_Driver/Src/stm32h7xx_hal_rcc.c ****         {
 2531              		.loc 1 1042 12 is_stmt 0 view .LVU823
 2532 010c 1268     		ldr	r2, [r2]
1042:lib/Drivers/STM32H7xx_HAL_Driver/Src/stm32h7xx_hal_rcc.c ****         {
 2533              		.loc 1 1042 11 view .LVU824
 2534 010e 12F4003F 		tst	r2, #131072
 2535 0112 00F0AE80 		beq	.L235
 2536              	.L209:
1074:lib/Drivers/STM32H7xx_HAL_Driver/Src/stm32h7xx_hal_rcc.c **** 
 2537              		.loc 1 1074 7 is_stmt 1 view .LVU825
 2538 0116 5A49     		ldr	r1, .L236+4
 2539 0118 0A69     		ldr	r2, [r1, #16]
 2540 011a 22F00702 		bic	r2, r2, #7
 2541 011e 1343     		orrs	r3, r3, r2
 2542 0120 0B61     		str	r3, [r1, #16]
1077:lib/Drivers/STM32H7xx_HAL_Driver/Src/stm32h7xx_hal_rcc.c **** 
 2543              		.loc 1 1077 7 view .LVU826
1077:lib/Drivers/STM32H7xx_HAL_Driver/Src/stm32h7xx_hal_rcc.c **** 
 2544              		.loc 1 1077 19 is_stmt 0 view .LVU827
 2545 0122 FFF7FEFF 		bl	HAL_GetTick
 2546              	.LVL191:
1077:lib/Drivers/STM32H7xx_HAL_Driver/Src/stm32h7xx_hal_rcc.c **** 
 2547              		.loc 1 1077 19 view .LVU828
 2548 0126 0646     		mov	r6, r0
 2549              	.LVL192:
1079:lib/Drivers/STM32H7xx_HAL_Driver/Src/stm32h7xx_hal_rcc.c ****         {
 2550              		.loc 1 1079 9 is_stmt 1 view .LVU829
 2551              	.L212:
1079:lib/Drivers/STM32H7xx_HAL_Driver/Src/stm32h7xx_hal_rcc.c ****         {
 2552              		.loc 1 1079 46 view .LVU830
1079:lib/Drivers/STM32H7xx_HAL_Driver/Src/stm32h7xx_hal_rcc.c ****         {
 2553              		.loc 1 1079 16 is_stmt 0 view .LVU831
 2554 0128 554B     		ldr	r3, .L236+4
 2555 012a 1B69     		ldr	r3, [r3, #16]
 2556 012c 03F03803 		and	r3, r3, #56
1079:lib/Drivers/STM32H7xx_HAL_Driver/Src/stm32h7xx_hal_rcc.c ****         {
 2557              		.loc 1 1079 68 view .LVU832
 2558 0130 6268     		ldr	r2, [r4, #4]
1079:lib/Drivers/STM32H7xx_HAL_Driver/Src/stm32h7xx_hal_rcc.c ****         {
ARM GAS  /tmp/ccpTiR3W.s 			page 79


 2559              		.loc 1 1079 46 view .LVU833
 2560 0132 B3EBC20F 		cmp	r3, r2, lsl #3
 2561 0136 16D0     		beq	.L207
1081:lib/Drivers/STM32H7xx_HAL_Driver/Src/stm32h7xx_hal_rcc.c ****           {
 2562              		.loc 1 1081 11 is_stmt 1 view .LVU834
1081:lib/Drivers/STM32H7xx_HAL_Driver/Src/stm32h7xx_hal_rcc.c ****           {
 2563              		.loc 1 1081 15 is_stmt 0 view .LVU835
 2564 0138 FFF7FEFF 		bl	HAL_GetTick
 2565              	.LVL193:
1081:lib/Drivers/STM32H7xx_HAL_Driver/Src/stm32h7xx_hal_rcc.c ****           {
 2566              		.loc 1 1081 29 view .LVU836
 2567 013c 801B     		subs	r0, r0, r6
1081:lib/Drivers/STM32H7xx_HAL_Driver/Src/stm32h7xx_hal_rcc.c ****           {
 2568              		.loc 1 1081 13 view .LVU837
 2569 013e 41F28833 		movw	r3, #5000
 2570 0142 9842     		cmp	r0, r3
 2571 0144 F0D9     		bls	.L212
1083:lib/Drivers/STM32H7xx_HAL_Driver/Src/stm32h7xx_hal_rcc.c ****           }
 2572              		.loc 1 1083 20 view .LVU838
 2573 0146 0320     		movs	r0, #3
 2574 0148 8EE0     		b	.L200
 2575              	.LVL194:
 2576              	.L233:
1051:lib/Drivers/STM32H7xx_HAL_Driver/Src/stm32h7xx_hal_rcc.c ****         {
 2577              		.loc 1 1051 9 is_stmt 1 view .LVU839
1051:lib/Drivers/STM32H7xx_HAL_Driver/Src/stm32h7xx_hal_rcc.c ****         {
 2578              		.loc 1 1051 12 is_stmt 0 view .LVU840
 2579 014a 4D4A     		ldr	r2, .L236+4
 2580 014c 1268     		ldr	r2, [r2]
1051:lib/Drivers/STM32H7xx_HAL_Driver/Src/stm32h7xx_hal_rcc.c ****         {
 2581              		.loc 1 1051 11 view .LVU841
 2582 014e 12F0007F 		tst	r2, #33554432
 2583 0152 E0D1     		bne	.L209
1053:lib/Drivers/STM32H7xx_HAL_Driver/Src/stm32h7xx_hal_rcc.c ****         }
 2584              		.loc 1 1053 18 view .LVU842
 2585 0154 0120     		movs	r0, #1
 2586              	.LVL195:
1053:lib/Drivers/STM32H7xx_HAL_Driver/Src/stm32h7xx_hal_rcc.c ****         }
 2587              		.loc 1 1053 18 view .LVU843
 2588 0156 87E0     		b	.L200
 2589              	.LVL196:
 2590              	.L234:
1060:lib/Drivers/STM32H7xx_HAL_Driver/Src/stm32h7xx_hal_rcc.c ****         {
 2591              		.loc 1 1060 9 is_stmt 1 view .LVU844
1060:lib/Drivers/STM32H7xx_HAL_Driver/Src/stm32h7xx_hal_rcc.c ****         {
 2592              		.loc 1 1060 12 is_stmt 0 view .LVU845
 2593 0158 494A     		ldr	r2, .L236+4
 2594 015a 1268     		ldr	r2, [r2]
1060:lib/Drivers/STM32H7xx_HAL_Driver/Src/stm32h7xx_hal_rcc.c ****         {
 2595              		.loc 1 1060 11 view .LVU846
 2596 015c 12F4807F 		tst	r2, #256
 2597 0160 D9D1     		bne	.L209
1062:lib/Drivers/STM32H7xx_HAL_Driver/Src/stm32h7xx_hal_rcc.c ****         }
 2598              		.loc 1 1062 18 view .LVU847
 2599 0162 0120     		movs	r0, #1
 2600              	.LVL197:
1062:lib/Drivers/STM32H7xx_HAL_Driver/Src/stm32h7xx_hal_rcc.c ****         }
ARM GAS  /tmp/ccpTiR3W.s 			page 80


 2601              		.loc 1 1062 18 view .LVU848
 2602 0164 80E0     		b	.L200
 2603              	.L207:
1091:lib/Drivers/STM32H7xx_HAL_Driver/Src/stm32h7xx_hal_rcc.c ****   {
 2604              		.loc 1 1091 3 is_stmt 1 view .LVU849
1091:lib/Drivers/STM32H7xx_HAL_Driver/Src/stm32h7xx_hal_rcc.c ****   {
 2605              		.loc 1 1091 25 is_stmt 0 view .LVU850
 2606 0166 2368     		ldr	r3, [r4]
1091:lib/Drivers/STM32H7xx_HAL_Driver/Src/stm32h7xx_hal_rcc.c ****   {
 2607              		.loc 1 1091 5 view .LVU851
 2608 0168 13F0020F 		tst	r3, #2
 2609 016c 0CD0     		beq	.L214
1094:lib/Drivers/STM32H7xx_HAL_Driver/Src/stm32h7xx_hal_rcc.c ****     {
 2610              		.loc 1 1094 5 is_stmt 1 view .LVU852
1094:lib/Drivers/STM32H7xx_HAL_Driver/Src/stm32h7xx_hal_rcc.c ****     {
 2611              		.loc 1 1094 26 is_stmt 0 view .LVU853
 2612 016e E268     		ldr	r2, [r4, #12]
1094:lib/Drivers/STM32H7xx_HAL_Driver/Src/stm32h7xx_hal_rcc.c ****     {
 2613              		.loc 1 1094 49 view .LVU854
 2614 0170 434B     		ldr	r3, .L236+4
 2615 0172 9B69     		ldr	r3, [r3, #24]
1094:lib/Drivers/STM32H7xx_HAL_Driver/Src/stm32h7xx_hal_rcc.c ****     {
 2616              		.loc 1 1094 58 view .LVU855
 2617 0174 03F00F03 		and	r3, r3, #15
1094:lib/Drivers/STM32H7xx_HAL_Driver/Src/stm32h7xx_hal_rcc.c ****     {
 2618              		.loc 1 1094 7 view .LVU856
 2619 0178 9A42     		cmp	r2, r3
 2620 017a 05D2     		bcs	.L214
1097:lib/Drivers/STM32H7xx_HAL_Driver/Src/stm32h7xx_hal_rcc.c ****       MODIFY_REG(RCC->D1CFGR, RCC_D1CFGR_HPRE, RCC_ClkInitStruct->AHBCLKDivider);
 2621              		.loc 1 1097 7 is_stmt 1 view .LVU857
1098:lib/Drivers/STM32H7xx_HAL_Driver/Src/stm32h7xx_hal_rcc.c ****     }
 2622              		.loc 1 1098 7 view .LVU858
 2623 017c 4049     		ldr	r1, .L236+4
 2624 017e 8B69     		ldr	r3, [r1, #24]
 2625 0180 23F00F03 		bic	r3, r3, #15
 2626 0184 1A43     		orrs	r2, r2, r3
 2627 0186 8A61     		str	r2, [r1, #24]
 2628              	.L214:
1111:lib/Drivers/STM32H7xx_HAL_Driver/Src/stm32h7xx_hal_rcc.c ****   {
 2629              		.loc 1 1111 3 view .LVU859
1111:lib/Drivers/STM32H7xx_HAL_Driver/Src/stm32h7xx_hal_rcc.c ****   {
 2630              		.loc 1 1111 17 is_stmt 0 view .LVU860
 2631 0188 3C4B     		ldr	r3, .L236
 2632 018a 1B68     		ldr	r3, [r3]
 2633 018c 03F00F03 		and	r3, r3, #15
1111:lib/Drivers/STM32H7xx_HAL_Driver/Src/stm32h7xx_hal_rcc.c ****   {
 2634              		.loc 1 1111 5 view .LVU861
 2635 0190 AB42     		cmp	r3, r5
 2636 0192 0AD9     		bls	.L215
1114:lib/Drivers/STM32H7xx_HAL_Driver/Src/stm32h7xx_hal_rcc.c **** 
 2637              		.loc 1 1114 5 is_stmt 1 view .LVU862
 2638 0194 394A     		ldr	r2, .L236
 2639 0196 1368     		ldr	r3, [r2]
 2640 0198 23F00F03 		bic	r3, r3, #15
 2641 019c 2B43     		orrs	r3, r3, r5
 2642 019e 1360     		str	r3, [r2]
1118:lib/Drivers/STM32H7xx_HAL_Driver/Src/stm32h7xx_hal_rcc.c ****     {
ARM GAS  /tmp/ccpTiR3W.s 			page 81


 2643              		.loc 1 1118 5 view .LVU863
1118:lib/Drivers/STM32H7xx_HAL_Driver/Src/stm32h7xx_hal_rcc.c ****     {
 2644              		.loc 1 1118 8 is_stmt 0 view .LVU864
 2645 01a0 1368     		ldr	r3, [r2]
 2646 01a2 03F00F03 		and	r3, r3, #15
1118:lib/Drivers/STM32H7xx_HAL_Driver/Src/stm32h7xx_hal_rcc.c ****     {
 2647              		.loc 1 1118 7 view .LVU865
 2648 01a6 AB42     		cmp	r3, r5
 2649 01a8 65D1     		bne	.L227
 2650              	.L215:
1125:lib/Drivers/STM32H7xx_HAL_Driver/Src/stm32h7xx_hal_rcc.c ****  {
 2651              		.loc 1 1125 2 is_stmt 1 view .LVU866
1125:lib/Drivers/STM32H7xx_HAL_Driver/Src/stm32h7xx_hal_rcc.c ****  {
 2652              		.loc 1 1125 24 is_stmt 0 view .LVU867
 2653 01aa 2368     		ldr	r3, [r4]
1125:lib/Drivers/STM32H7xx_HAL_Driver/Src/stm32h7xx_hal_rcc.c ****  {
 2654              		.loc 1 1125 4 view .LVU868
 2655 01ac 13F0040F 		tst	r3, #4
 2656 01b0 0CD0     		beq	.L216
1128:lib/Drivers/STM32H7xx_HAL_Driver/Src/stm32h7xx_hal_rcc.c ****    {
 2657              		.loc 1 1128 4 is_stmt 1 view .LVU869
1128:lib/Drivers/STM32H7xx_HAL_Driver/Src/stm32h7xx_hal_rcc.c ****    {
 2658              		.loc 1 1128 25 is_stmt 0 view .LVU870
 2659 01b2 2269     		ldr	r2, [r4, #16]
1128:lib/Drivers/STM32H7xx_HAL_Driver/Src/stm32h7xx_hal_rcc.c ****    {
 2660              		.loc 1 1128 49 view .LVU871
 2661 01b4 324B     		ldr	r3, .L236+4
 2662 01b6 9B69     		ldr	r3, [r3, #24]
1128:lib/Drivers/STM32H7xx_HAL_Driver/Src/stm32h7xx_hal_rcc.c ****    {
 2663              		.loc 1 1128 58 view .LVU872
 2664 01b8 03F07003 		and	r3, r3, #112
1128:lib/Drivers/STM32H7xx_HAL_Driver/Src/stm32h7xx_hal_rcc.c ****    {
 2665              		.loc 1 1128 6 view .LVU873
 2666 01bc 9A42     		cmp	r2, r3
 2667 01be 05D2     		bcs	.L216
1130:lib/Drivers/STM32H7xx_HAL_Driver/Src/stm32h7xx_hal_rcc.c ****      MODIFY_REG(RCC->D1CFGR, RCC_D1CFGR_D1PPRE, RCC_ClkInitStruct->APB3CLKDivider);
 2668              		.loc 1 1130 6 is_stmt 1 view .LVU874
1131:lib/Drivers/STM32H7xx_HAL_Driver/Src/stm32h7xx_hal_rcc.c ****    }
 2669              		.loc 1 1131 6 view .LVU875
 2670 01c0 2F49     		ldr	r1, .L236+4
 2671 01c2 8B69     		ldr	r3, [r1, #24]
 2672 01c4 23F07003 		bic	r3, r3, #112
 2673 01c8 1A43     		orrs	r2, r2, r3
 2674 01ca 8A61     		str	r2, [r1, #24]
 2675              	.L216:
1143:lib/Drivers/STM32H7xx_HAL_Driver/Src/stm32h7xx_hal_rcc.c ****  {
 2676              		.loc 1 1143 2 view .LVU876
1143:lib/Drivers/STM32H7xx_HAL_Driver/Src/stm32h7xx_hal_rcc.c ****  {
 2677              		.loc 1 1143 24 is_stmt 0 view .LVU877
 2678 01cc 2368     		ldr	r3, [r4]
1143:lib/Drivers/STM32H7xx_HAL_Driver/Src/stm32h7xx_hal_rcc.c ****  {
 2679              		.loc 1 1143 4 view .LVU878
 2680 01ce 13F0080F 		tst	r3, #8
 2681 01d2 0CD0     		beq	.L217
1146:lib/Drivers/STM32H7xx_HAL_Driver/Src/stm32h7xx_hal_rcc.c ****    {
 2682              		.loc 1 1146 4 is_stmt 1 view .LVU879
1146:lib/Drivers/STM32H7xx_HAL_Driver/Src/stm32h7xx_hal_rcc.c ****    {
ARM GAS  /tmp/ccpTiR3W.s 			page 82


 2683              		.loc 1 1146 25 is_stmt 0 view .LVU880
 2684 01d4 6269     		ldr	r2, [r4, #20]
1146:lib/Drivers/STM32H7xx_HAL_Driver/Src/stm32h7xx_hal_rcc.c ****    {
 2685              		.loc 1 1146 49 view .LVU881
 2686 01d6 2A4B     		ldr	r3, .L236+4
 2687 01d8 DB69     		ldr	r3, [r3, #28]
1146:lib/Drivers/STM32H7xx_HAL_Driver/Src/stm32h7xx_hal_rcc.c ****    {
 2688              		.loc 1 1146 58 view .LVU882
 2689 01da 03F07003 		and	r3, r3, #112
1146:lib/Drivers/STM32H7xx_HAL_Driver/Src/stm32h7xx_hal_rcc.c ****    {
 2690              		.loc 1 1146 6 view .LVU883
 2691 01de 9A42     		cmp	r2, r3
 2692 01e0 05D2     		bcs	.L217
1148:lib/Drivers/STM32H7xx_HAL_Driver/Src/stm32h7xx_hal_rcc.c ****      MODIFY_REG(RCC->D2CFGR, RCC_D2CFGR_D2PPRE1, (RCC_ClkInitStruct->APB1CLKDivider));
 2693              		.loc 1 1148 6 is_stmt 1 view .LVU884
1149:lib/Drivers/STM32H7xx_HAL_Driver/Src/stm32h7xx_hal_rcc.c ****    }
 2694              		.loc 1 1149 6 view .LVU885
 2695 01e2 2749     		ldr	r1, .L236+4
 2696 01e4 CB69     		ldr	r3, [r1, #28]
 2697 01e6 23F07003 		bic	r3, r3, #112
 2698 01ea 1A43     		orrs	r2, r2, r3
 2699 01ec CA61     		str	r2, [r1, #28]
 2700              	.L217:
1161:lib/Drivers/STM32H7xx_HAL_Driver/Src/stm32h7xx_hal_rcc.c ****  {
 2701              		.loc 1 1161 2 view .LVU886
1161:lib/Drivers/STM32H7xx_HAL_Driver/Src/stm32h7xx_hal_rcc.c ****  {
 2702              		.loc 1 1161 24 is_stmt 0 view .LVU887
 2703 01ee 2368     		ldr	r3, [r4]
1161:lib/Drivers/STM32H7xx_HAL_Driver/Src/stm32h7xx_hal_rcc.c ****  {
 2704              		.loc 1 1161 4 view .LVU888
 2705 01f0 13F0100F 		tst	r3, #16
 2706 01f4 0CD0     		beq	.L218
1164:lib/Drivers/STM32H7xx_HAL_Driver/Src/stm32h7xx_hal_rcc.c ****    {
 2707              		.loc 1 1164 4 is_stmt 1 view .LVU889
1164:lib/Drivers/STM32H7xx_HAL_Driver/Src/stm32h7xx_hal_rcc.c ****    {
 2708              		.loc 1 1164 25 is_stmt 0 view .LVU890
 2709 01f6 A269     		ldr	r2, [r4, #24]
1164:lib/Drivers/STM32H7xx_HAL_Driver/Src/stm32h7xx_hal_rcc.c ****    {
 2710              		.loc 1 1164 49 view .LVU891
 2711 01f8 214B     		ldr	r3, .L236+4
 2712 01fa DB69     		ldr	r3, [r3, #28]
1164:lib/Drivers/STM32H7xx_HAL_Driver/Src/stm32h7xx_hal_rcc.c ****    {
 2713              		.loc 1 1164 58 view .LVU892
 2714 01fc 03F4E063 		and	r3, r3, #1792
1164:lib/Drivers/STM32H7xx_HAL_Driver/Src/stm32h7xx_hal_rcc.c ****    {
 2715              		.loc 1 1164 6 view .LVU893
 2716 0200 9A42     		cmp	r2, r3
 2717 0202 05D2     		bcs	.L218
1166:lib/Drivers/STM32H7xx_HAL_Driver/Src/stm32h7xx_hal_rcc.c ****      MODIFY_REG(RCC->D2CFGR, RCC_D2CFGR_D2PPRE2, (RCC_ClkInitStruct->APB2CLKDivider));
 2718              		.loc 1 1166 6 is_stmt 1 view .LVU894
1167:lib/Drivers/STM32H7xx_HAL_Driver/Src/stm32h7xx_hal_rcc.c ****    }
 2719              		.loc 1 1167 6 view .LVU895
 2720 0204 1E49     		ldr	r1, .L236+4
 2721 0206 CB69     		ldr	r3, [r1, #28]
 2722 0208 23F4E063 		bic	r3, r3, #1792
 2723 020c 1A43     		orrs	r2, r2, r3
 2724 020e CA61     		str	r2, [r1, #28]
ARM GAS  /tmp/ccpTiR3W.s 			page 83


 2725              	.L218:
1179:lib/Drivers/STM32H7xx_HAL_Driver/Src/stm32h7xx_hal_rcc.c ****  {
 2726              		.loc 1 1179 2 view .LVU896
1179:lib/Drivers/STM32H7xx_HAL_Driver/Src/stm32h7xx_hal_rcc.c ****  {
 2727              		.loc 1 1179 24 is_stmt 0 view .LVU897
 2728 0210 2368     		ldr	r3, [r4]
1179:lib/Drivers/STM32H7xx_HAL_Driver/Src/stm32h7xx_hal_rcc.c ****  {
 2729              		.loc 1 1179 4 view .LVU898
 2730 0212 13F0200F 		tst	r3, #32
 2731 0216 0CD0     		beq	.L219
1182:lib/Drivers/STM32H7xx_HAL_Driver/Src/stm32h7xx_hal_rcc.c ****    {
 2732              		.loc 1 1182 4 is_stmt 1 view .LVU899
1182:lib/Drivers/STM32H7xx_HAL_Driver/Src/stm32h7xx_hal_rcc.c ****    {
 2733              		.loc 1 1182 25 is_stmt 0 view .LVU900
 2734 0218 E269     		ldr	r2, [r4, #28]
1182:lib/Drivers/STM32H7xx_HAL_Driver/Src/stm32h7xx_hal_rcc.c ****    {
 2735              		.loc 1 1182 49 view .LVU901
 2736 021a 194B     		ldr	r3, .L236+4
 2737 021c 1B6A     		ldr	r3, [r3, #32]
1182:lib/Drivers/STM32H7xx_HAL_Driver/Src/stm32h7xx_hal_rcc.c ****    {
 2738              		.loc 1 1182 58 view .LVU902
 2739 021e 03F07003 		and	r3, r3, #112
1182:lib/Drivers/STM32H7xx_HAL_Driver/Src/stm32h7xx_hal_rcc.c ****    {
 2740              		.loc 1 1182 6 view .LVU903
 2741 0222 9A42     		cmp	r2, r3
 2742 0224 05D2     		bcs	.L219
1184:lib/Drivers/STM32H7xx_HAL_Driver/Src/stm32h7xx_hal_rcc.c ****      MODIFY_REG(RCC->D3CFGR, RCC_D3CFGR_D3PPRE, (RCC_ClkInitStruct->APB4CLKDivider) );
 2743              		.loc 1 1184 6 is_stmt 1 view .LVU904
1185:lib/Drivers/STM32H7xx_HAL_Driver/Src/stm32h7xx_hal_rcc.c ****    }
 2744              		.loc 1 1185 6 view .LVU905
 2745 0226 1649     		ldr	r1, .L236+4
 2746 0228 0B6A     		ldr	r3, [r1, #32]
 2747 022a 23F07003 		bic	r3, r3, #112
 2748 022e 1A43     		orrs	r2, r2, r3
 2749 0230 0A62     		str	r2, [r1, #32]
 2750              	.L219:
1198:lib/Drivers/STM32H7xx_HAL_Driver/Src/stm32h7xx_hal_rcc.c **** #else
 2751              		.loc 1 1198 3 view .LVU906
1198:lib/Drivers/STM32H7xx_HAL_Driver/Src/stm32h7xx_hal_rcc.c **** #else
 2752              		.loc 1 1198 25 is_stmt 0 view .LVU907
 2753 0232 FFF7FEFF 		bl	HAL_RCC_GetSysClockFreq
 2754              	.LVL198:
1198:lib/Drivers/STM32H7xx_HAL_Driver/Src/stm32h7xx_hal_rcc.c **** #else
 2755              		.loc 1 1198 77 view .LVU908
 2756 0236 1249     		ldr	r1, .L236+4
 2757 0238 8B69     		ldr	r3, [r1, #24]
1198:lib/Drivers/STM32H7xx_HAL_Driver/Src/stm32h7xx_hal_rcc.c **** #else
 2758              		.loc 1 1198 106 view .LVU909
 2759 023a C3F30323 		ubfx	r3, r3, #8, #4
1198:lib/Drivers/STM32H7xx_HAL_Driver/Src/stm32h7xx_hal_rcc.c **** #else
 2760              		.loc 1 1198 72 view .LVU910
 2761 023e 114A     		ldr	r2, .L236+8
 2762 0240 D35C     		ldrb	r3, [r2, r3]	@ zero_extendqisi2
1198:lib/Drivers/STM32H7xx_HAL_Driver/Src/stm32h7xx_hal_rcc.c **** #else
 2763              		.loc 1 1198 133 view .LVU911
 2764 0242 03F01F03 		and	r3, r3, #31
1198:lib/Drivers/STM32H7xx_HAL_Driver/Src/stm32h7xx_hal_rcc.c **** #else
ARM GAS  /tmp/ccpTiR3W.s 			page 84


 2765              		.loc 1 1198 23 view .LVU912
 2766 0246 D840     		lsrs	r0, r0, r3
 2767              	.LVL199:
1204:lib/Drivers/STM32H7xx_HAL_Driver/Src/stm32h7xx_hal_rcc.c **** #else
 2768              		.loc 1 1204 3 is_stmt 1 view .LVU913
1204:lib/Drivers/STM32H7xx_HAL_Driver/Src/stm32h7xx_hal_rcc.c **** #else
 2769              		.loc 1 1204 66 is_stmt 0 view .LVU914
 2770 0248 8B69     		ldr	r3, [r1, #24]
1204:lib/Drivers/STM32H7xx_HAL_Driver/Src/stm32h7xx_hal_rcc.c **** #else
 2771              		.loc 1 1204 93 view .LVU915
 2772 024a 03F00F03 		and	r3, r3, #15
1204:lib/Drivers/STM32H7xx_HAL_Driver/Src/stm32h7xx_hal_rcc.c **** #else
 2773              		.loc 1 1204 61 view .LVU916
 2774 024e D35C     		ldrb	r3, [r2, r3]	@ zero_extendqisi2
1204:lib/Drivers/STM32H7xx_HAL_Driver/Src/stm32h7xx_hal_rcc.c **** #else
 2775              		.loc 1 1204 118 view .LVU917
 2776 0250 03F01F03 		and	r3, r3, #31
1204:lib/Drivers/STM32H7xx_HAL_Driver/Src/stm32h7xx_hal_rcc.c **** #else
 2777              		.loc 1 1204 40 view .LVU918
 2778 0254 20FA03F3 		lsr	r3, r0, r3
1204:lib/Drivers/STM32H7xx_HAL_Driver/Src/stm32h7xx_hal_rcc.c **** #else
 2779              		.loc 1 1204 17 view .LVU919
 2780 0258 0B4A     		ldr	r2, .L236+12
 2781 025a 1360     		str	r3, [r2]
1212:lib/Drivers/STM32H7xx_HAL_Driver/Src/stm32h7xx_hal_rcc.c **** #endif /* DUAL_CORE && CORE_CM4 */
 2782              		.loc 1 1212 3 is_stmt 1 view .LVU920
1212:lib/Drivers/STM32H7xx_HAL_Driver/Src/stm32h7xx_hal_rcc.c **** #endif /* DUAL_CORE && CORE_CM4 */
 2783              		.loc 1 1212 19 is_stmt 0 view .LVU921
 2784 025c 0B4B     		ldr	r3, .L236+16
 2785 025e 1860     		str	r0, [r3]
1216:lib/Drivers/STM32H7xx_HAL_Driver/Src/stm32h7xx_hal_rcc.c **** 
 2786              		.loc 1 1216 3 is_stmt 1 view .LVU922
1216:lib/Drivers/STM32H7xx_HAL_Driver/Src/stm32h7xx_hal_rcc.c **** 
 2787              		.loc 1 1216 15 is_stmt 0 view .LVU923
 2788 0260 0B4B     		ldr	r3, .L236+20
 2789 0262 1868     		ldr	r0, [r3]
 2790              	.LVL200:
1216:lib/Drivers/STM32H7xx_HAL_Driver/Src/stm32h7xx_hal_rcc.c **** 
 2791              		.loc 1 1216 15 view .LVU924
 2792 0264 FFF7FEFF 		bl	HAL_InitTick
 2793              	.LVL201:
1218:lib/Drivers/STM32H7xx_HAL_Driver/Src/stm32h7xx_hal_rcc.c **** }
 2794              		.loc 1 1218 3 is_stmt 1 view .LVU925
 2795              	.L200:
1219:lib/Drivers/STM32H7xx_HAL_Driver/Src/stm32h7xx_hal_rcc.c **** 
 2796              		.loc 1 1219 1 is_stmt 0 view .LVU926
 2797 0268 70BD     		pop	{r4, r5, r6, pc}
 2798              	.LVL202:
 2799              	.L220:
 2800              	.LCFI13:
 2801              		.cfi_def_cfa_offset 0
 2802              		.cfi_restore 4
 2803              		.cfi_restore 5
 2804              		.cfi_restore 6
 2805              		.cfi_restore 14
 910:lib/Drivers/STM32H7xx_HAL_Driver/Src/stm32h7xx_hal_rcc.c ****   }
 2806              		.loc 1 910 12 view .LVU927
ARM GAS  /tmp/ccpTiR3W.s 			page 85


 2807 026a 0120     		movs	r0, #1
 2808              	.LVL203:
1219:lib/Drivers/STM32H7xx_HAL_Driver/Src/stm32h7xx_hal_rcc.c **** 
 2809              		.loc 1 1219 1 view .LVU928
 2810 026c 7047     		bx	lr
 2811              	.LVL204:
 2812              	.L221:
 2813              	.LCFI14:
 2814              		.cfi_def_cfa_offset 16
 2815              		.cfi_offset 4, -16
 2816              		.cfi_offset 5, -12
 2817              		.cfi_offset 6, -8
 2818              		.cfi_offset 14, -4
 931:lib/Drivers/STM32H7xx_HAL_Driver/Src/stm32h7xx_hal_rcc.c ****     }
 2819              		.loc 1 931 14 view .LVU929
 2820 026e 0120     		movs	r0, #1
 2821              	.LVL205:
 931:lib/Drivers/STM32H7xx_HAL_Driver/Src/stm32h7xx_hal_rcc.c ****     }
 2822              		.loc 1 931 14 view .LVU930
 2823 0270 FAE7     		b	.L200
 2824              	.LVL206:
 2825              	.L235:
1044:lib/Drivers/STM32H7xx_HAL_Driver/Src/stm32h7xx_hal_rcc.c ****         }
 2826              		.loc 1 1044 18 view .LVU931
 2827 0272 0120     		movs	r0, #1
 2828              	.LVL207:
1044:lib/Drivers/STM32H7xx_HAL_Driver/Src/stm32h7xx_hal_rcc.c ****         }
 2829              		.loc 1 1044 18 view .LVU932
 2830 0274 F8E7     		b	.L200
 2831              	.L227:
1120:lib/Drivers/STM32H7xx_HAL_Driver/Src/stm32h7xx_hal_rcc.c ****     }
 2832              		.loc 1 1120 14 view .LVU933
 2833 0276 0120     		movs	r0, #1
 2834 0278 F6E7     		b	.L200
 2835              	.L237:
 2836 027a 00BF     		.align	2
 2837              	.L236:
 2838 027c 00200052 		.word	1375739904
 2839 0280 00440258 		.word	1476543488
 2840 0284 00000000 		.word	D1CorePrescTable
 2841 0288 00000000 		.word	SystemD2Clock
 2842 028c 00000000 		.word	SystemCoreClock
 2843 0290 00000000 		.word	uwTickPrio
 2844              		.cfi_endproc
 2845              	.LFE146:
 2847              		.section	.text.HAL_RCC_GetHCLKFreq,"ax",%progbits
 2848              		.align	1
 2849              		.global	HAL_RCC_GetHCLKFreq
 2850              		.syntax unified
 2851              		.thumb
 2852              		.thumb_func
 2854              	HAL_RCC_GetHCLKFreq:
 2855              	.LFB151:
1453:lib/Drivers/STM32H7xx_HAL_Driver/Src/stm32h7xx_hal_rcc.c **** 
1454:lib/Drivers/STM32H7xx_HAL_Driver/Src/stm32h7xx_hal_rcc.c **** 
1455:lib/Drivers/STM32H7xx_HAL_Driver/Src/stm32h7xx_hal_rcc.c **** /**
1456:lib/Drivers/STM32H7xx_HAL_Driver/Src/stm32h7xx_hal_rcc.c ****   * @brief  Returns the HCLK frequency
ARM GAS  /tmp/ccpTiR3W.s 			page 86


1457:lib/Drivers/STM32H7xx_HAL_Driver/Src/stm32h7xx_hal_rcc.c ****   * @note   Each time HCLK changes, this function must be called to update the
1458:lib/Drivers/STM32H7xx_HAL_Driver/Src/stm32h7xx_hal_rcc.c ****   *         right HCLK value. Otherwise, any configuration based on this function will be incorrect
1459:lib/Drivers/STM32H7xx_HAL_Driver/Src/stm32h7xx_hal_rcc.c ****   *
1460:lib/Drivers/STM32H7xx_HAL_Driver/Src/stm32h7xx_hal_rcc.c ****   * @note   The SystemD2Clock CMSIS variable is used to store System domain2 Clock Frequency
1461:lib/Drivers/STM32H7xx_HAL_Driver/Src/stm32h7xx_hal_rcc.c ****   *         and updated within this function
1462:lib/Drivers/STM32H7xx_HAL_Driver/Src/stm32h7xx_hal_rcc.c ****   * @retval HCLK frequency
1463:lib/Drivers/STM32H7xx_HAL_Driver/Src/stm32h7xx_hal_rcc.c ****   */
1464:lib/Drivers/STM32H7xx_HAL_Driver/Src/stm32h7xx_hal_rcc.c **** uint32_t HAL_RCC_GetHCLKFreq(void)
1465:lib/Drivers/STM32H7xx_HAL_Driver/Src/stm32h7xx_hal_rcc.c **** {
 2856              		.loc 1 1465 1 is_stmt 1 view -0
 2857              		.cfi_startproc
 2858              		@ args = 0, pretend = 0, frame = 0
 2859              		@ frame_needed = 0, uses_anonymous_args = 0
 2860 0000 08B5     		push	{r3, lr}
 2861              	.LCFI15:
 2862              		.cfi_def_cfa_offset 8
 2863              		.cfi_offset 3, -8
 2864              		.cfi_offset 14, -4
1466:lib/Drivers/STM32H7xx_HAL_Driver/Src/stm32h7xx_hal_rcc.c **** uint32_t common_system_clock;
 2865              		.loc 1 1466 1 view .LVU935
1467:lib/Drivers/STM32H7xx_HAL_Driver/Src/stm32h7xx_hal_rcc.c **** 
1468:lib/Drivers/STM32H7xx_HAL_Driver/Src/stm32h7xx_hal_rcc.c **** #if defined(RCC_D1CFGR_D1CPRE)
1469:lib/Drivers/STM32H7xx_HAL_Driver/Src/stm32h7xx_hal_rcc.c ****   common_system_clock = HAL_RCC_GetSysClockFreq() >> (D1CorePrescTable[(RCC->D1CFGR & RCC_D1CFGR_D1
 2866              		.loc 1 1469 3 view .LVU936
 2867              		.loc 1 1469 25 is_stmt 0 view .LVU937
 2868 0002 FFF7FEFF 		bl	HAL_RCC_GetSysClockFreq
 2869              	.LVL208:
 2870              		.loc 1 1469 76 view .LVU938
 2871 0006 0B4A     		ldr	r2, .L240
 2872 0008 9369     		ldr	r3, [r2, #24]
 2873              		.loc 1 1469 105 view .LVU939
 2874 000a C3F30323 		ubfx	r3, r3, #8, #4
 2875              		.loc 1 1469 71 view .LVU940
 2876 000e 0A49     		ldr	r1, .L240+4
 2877 0010 CB5C     		ldrb	r3, [r1, r3]	@ zero_extendqisi2
 2878              		.loc 1 1469 131 view .LVU941
 2879 0012 03F01F03 		and	r3, r3, #31
 2880              		.loc 1 1469 23 view .LVU942
 2881 0016 20FA03F3 		lsr	r3, r0, r3
 2882              	.LVL209:
1470:lib/Drivers/STM32H7xx_HAL_Driver/Src/stm32h7xx_hal_rcc.c **** #else
1471:lib/Drivers/STM32H7xx_HAL_Driver/Src/stm32h7xx_hal_rcc.c ****   common_system_clock = HAL_RCC_GetSysClockFreq() >> (D1CorePrescTable[(RCC->CDCFGR1 & RCC_CDCFGR1_
1472:lib/Drivers/STM32H7xx_HAL_Driver/Src/stm32h7xx_hal_rcc.c **** #endif
1473:lib/Drivers/STM32H7xx_HAL_Driver/Src/stm32h7xx_hal_rcc.c **** 
1474:lib/Drivers/STM32H7xx_HAL_Driver/Src/stm32h7xx_hal_rcc.c **** #if defined(RCC_D1CFGR_HPRE)
1475:lib/Drivers/STM32H7xx_HAL_Driver/Src/stm32h7xx_hal_rcc.c ****   SystemD2Clock = (common_system_clock >> ((D1CorePrescTable[(RCC->D1CFGR & RCC_D1CFGR_HPRE)>> RCC_
 2883              		.loc 1 1475 3 is_stmt 1 view .LVU943
 2884              		.loc 1 1475 66 is_stmt 0 view .LVU944
 2885 001a 9269     		ldr	r2, [r2, #24]
 2886              		.loc 1 1475 93 view .LVU945
 2887 001c 02F00F02 		and	r2, r2, #15
 2888              		.loc 1 1475 61 view .LVU946
 2889 0020 885C     		ldrb	r0, [r1, r2]	@ zero_extendqisi2
 2890              		.loc 1 1475 118 view .LVU947
 2891 0022 00F01F00 		and	r0, r0, #31
 2892              		.loc 1 1475 40 view .LVU948
 2893 0026 23FA00F0 		lsr	r0, r3, r0
ARM GAS  /tmp/ccpTiR3W.s 			page 87


 2894              		.loc 1 1475 17 view .LVU949
 2895 002a 044A     		ldr	r2, .L240+8
 2896 002c 1060     		str	r0, [r2]
1476:lib/Drivers/STM32H7xx_HAL_Driver/Src/stm32h7xx_hal_rcc.c **** #else
1477:lib/Drivers/STM32H7xx_HAL_Driver/Src/stm32h7xx_hal_rcc.c ****   SystemD2Clock = (common_system_clock >> ((D1CorePrescTable[(RCC->CDCFGR1 & RCC_CDCFGR1_HPRE)>> RC
1478:lib/Drivers/STM32H7xx_HAL_Driver/Src/stm32h7xx_hal_rcc.c **** #endif
1479:lib/Drivers/STM32H7xx_HAL_Driver/Src/stm32h7xx_hal_rcc.c **** 
1480:lib/Drivers/STM32H7xx_HAL_Driver/Src/stm32h7xx_hal_rcc.c **** #if defined(DUAL_CORE) && defined(CORE_CM4)
1481:lib/Drivers/STM32H7xx_HAL_Driver/Src/stm32h7xx_hal_rcc.c ****   SystemCoreClock = SystemD2Clock;
1482:lib/Drivers/STM32H7xx_HAL_Driver/Src/stm32h7xx_hal_rcc.c **** #else
1483:lib/Drivers/STM32H7xx_HAL_Driver/Src/stm32h7xx_hal_rcc.c ****   SystemCoreClock = common_system_clock;
 2897              		.loc 1 1483 3 is_stmt 1 view .LVU950
 2898              		.loc 1 1483 19 is_stmt 0 view .LVU951
 2899 002e 044A     		ldr	r2, .L240+12
 2900 0030 1360     		str	r3, [r2]
1484:lib/Drivers/STM32H7xx_HAL_Driver/Src/stm32h7xx_hal_rcc.c **** #endif /* DUAL_CORE && CORE_CM4 */
1485:lib/Drivers/STM32H7xx_HAL_Driver/Src/stm32h7xx_hal_rcc.c **** 
1486:lib/Drivers/STM32H7xx_HAL_Driver/Src/stm32h7xx_hal_rcc.c ****   return SystemD2Clock;
 2901              		.loc 1 1486 3 is_stmt 1 view .LVU952
1487:lib/Drivers/STM32H7xx_HAL_Driver/Src/stm32h7xx_hal_rcc.c **** }
 2902              		.loc 1 1487 1 is_stmt 0 view .LVU953
 2903 0032 08BD     		pop	{r3, pc}
 2904              	.LVL210:
 2905              	.L241:
 2906              		.loc 1 1487 1 view .LVU954
 2907              		.align	2
 2908              	.L240:
 2909 0034 00440258 		.word	1476543488
 2910 0038 00000000 		.word	D1CorePrescTable
 2911 003c 00000000 		.word	SystemD2Clock
 2912 0040 00000000 		.word	SystemCoreClock
 2913              		.cfi_endproc
 2914              	.LFE151:
 2916              		.section	.text.HAL_RCC_GetPCLK1Freq,"ax",%progbits
 2917              		.align	1
 2918              		.global	HAL_RCC_GetPCLK1Freq
 2919              		.syntax unified
 2920              		.thumb
 2921              		.thumb_func
 2923              	HAL_RCC_GetPCLK1Freq:
 2924              	.LFB152:
1488:lib/Drivers/STM32H7xx_HAL_Driver/Src/stm32h7xx_hal_rcc.c **** 
1489:lib/Drivers/STM32H7xx_HAL_Driver/Src/stm32h7xx_hal_rcc.c **** 
1490:lib/Drivers/STM32H7xx_HAL_Driver/Src/stm32h7xx_hal_rcc.c **** /**
1491:lib/Drivers/STM32H7xx_HAL_Driver/Src/stm32h7xx_hal_rcc.c ****   * @brief  Returns the PCLK1 frequency
1492:lib/Drivers/STM32H7xx_HAL_Driver/Src/stm32h7xx_hal_rcc.c ****   * @note   Each time PCLK1 changes, this function must be called to update the
1493:lib/Drivers/STM32H7xx_HAL_Driver/Src/stm32h7xx_hal_rcc.c ****   *         right PCLK1 value. Otherwise, any configuration based on this function will be incorrec
1494:lib/Drivers/STM32H7xx_HAL_Driver/Src/stm32h7xx_hal_rcc.c ****   * @retval PCLK1 frequency
1495:lib/Drivers/STM32H7xx_HAL_Driver/Src/stm32h7xx_hal_rcc.c ****   */
1496:lib/Drivers/STM32H7xx_HAL_Driver/Src/stm32h7xx_hal_rcc.c **** uint32_t HAL_RCC_GetPCLK1Freq(void)
1497:lib/Drivers/STM32H7xx_HAL_Driver/Src/stm32h7xx_hal_rcc.c **** {
 2925              		.loc 1 1497 1 is_stmt 1 view -0
 2926              		.cfi_startproc
 2927              		@ args = 0, pretend = 0, frame = 0
 2928              		@ frame_needed = 0, uses_anonymous_args = 0
 2929 0000 08B5     		push	{r3, lr}
 2930              	.LCFI16:
ARM GAS  /tmp/ccpTiR3W.s 			page 88


 2931              		.cfi_def_cfa_offset 8
 2932              		.cfi_offset 3, -8
 2933              		.cfi_offset 14, -4
1498:lib/Drivers/STM32H7xx_HAL_Driver/Src/stm32h7xx_hal_rcc.c **** #if defined (RCC_D2CFGR_D2PPRE1)
1499:lib/Drivers/STM32H7xx_HAL_Driver/Src/stm32h7xx_hal_rcc.c ****   /* Get HCLK source and Compute PCLK1 frequency ---------------------------*/
1500:lib/Drivers/STM32H7xx_HAL_Driver/Src/stm32h7xx_hal_rcc.c ****   return (HAL_RCC_GetHCLKFreq() >> ((D1CorePrescTable[(RCC->D2CFGR & RCC_D2CFGR_D2PPRE1)>> RCC_D2CF
 2934              		.loc 1 1500 3 view .LVU956
 2935              		.loc 1 1500 11 is_stmt 0 view .LVU957
 2936 0002 FFF7FEFF 		bl	HAL_RCC_GetHCLKFreq
 2937              	.LVL211:
 2938              		.loc 1 1500 59 view .LVU958
 2939 0006 054B     		ldr	r3, .L244
 2940 0008 DB69     		ldr	r3, [r3, #28]
 2941              		.loc 1 1500 89 view .LVU959
 2942 000a C3F30213 		ubfx	r3, r3, #4, #3
 2943              		.loc 1 1500 54 view .LVU960
 2944 000e 044A     		ldr	r2, .L244+4
 2945 0010 D35C     		ldrb	r3, [r2, r3]	@ zero_extendqisi2
 2946              		.loc 1 1500 117 view .LVU961
 2947 0012 03F01F03 		and	r3, r3, #31
1501:lib/Drivers/STM32H7xx_HAL_Driver/Src/stm32h7xx_hal_rcc.c **** #else
1502:lib/Drivers/STM32H7xx_HAL_Driver/Src/stm32h7xx_hal_rcc.c ****  /* Get HCLK source and Compute PCLK1 frequency ---------------------------*/
1503:lib/Drivers/STM32H7xx_HAL_Driver/Src/stm32h7xx_hal_rcc.c ****   return (HAL_RCC_GetHCLKFreq() >> ((D1CorePrescTable[(RCC->CDCFGR2 & RCC_CDCFGR2_CDPPRE1)>> RCC_CD
1504:lib/Drivers/STM32H7xx_HAL_Driver/Src/stm32h7xx_hal_rcc.c **** #endif
1505:lib/Drivers/STM32H7xx_HAL_Driver/Src/stm32h7xx_hal_rcc.c **** }
 2948              		.loc 1 1505 1 view .LVU962
 2949 0016 D840     		lsrs	r0, r0, r3
 2950 0018 08BD     		pop	{r3, pc}
 2951              	.L245:
 2952 001a 00BF     		.align	2
 2953              	.L244:
 2954 001c 00440258 		.word	1476543488
 2955 0020 00000000 		.word	D1CorePrescTable
 2956              		.cfi_endproc
 2957              	.LFE152:
 2959              		.section	.text.HAL_RCC_GetPCLK2Freq,"ax",%progbits
 2960              		.align	1
 2961              		.global	HAL_RCC_GetPCLK2Freq
 2962              		.syntax unified
 2963              		.thumb
 2964              		.thumb_func
 2966              	HAL_RCC_GetPCLK2Freq:
 2967              	.LFB153:
1506:lib/Drivers/STM32H7xx_HAL_Driver/Src/stm32h7xx_hal_rcc.c **** 
1507:lib/Drivers/STM32H7xx_HAL_Driver/Src/stm32h7xx_hal_rcc.c **** 
1508:lib/Drivers/STM32H7xx_HAL_Driver/Src/stm32h7xx_hal_rcc.c **** /**
1509:lib/Drivers/STM32H7xx_HAL_Driver/Src/stm32h7xx_hal_rcc.c ****   * @brief  Returns the PCLK2 frequency
1510:lib/Drivers/STM32H7xx_HAL_Driver/Src/stm32h7xx_hal_rcc.c ****   * @note   Each time PCLK2 changes, this function must be called to update the
1511:lib/Drivers/STM32H7xx_HAL_Driver/Src/stm32h7xx_hal_rcc.c ****   *         right PCLK2 value. Otherwise, any configuration based on this function will be incorrec
1512:lib/Drivers/STM32H7xx_HAL_Driver/Src/stm32h7xx_hal_rcc.c ****   * @retval PCLK1 frequency
1513:lib/Drivers/STM32H7xx_HAL_Driver/Src/stm32h7xx_hal_rcc.c ****   */
1514:lib/Drivers/STM32H7xx_HAL_Driver/Src/stm32h7xx_hal_rcc.c **** uint32_t HAL_RCC_GetPCLK2Freq(void)
1515:lib/Drivers/STM32H7xx_HAL_Driver/Src/stm32h7xx_hal_rcc.c **** {
 2968              		.loc 1 1515 1 is_stmt 1 view -0
 2969              		.cfi_startproc
 2970              		@ args = 0, pretend = 0, frame = 0
 2971              		@ frame_needed = 0, uses_anonymous_args = 0
ARM GAS  /tmp/ccpTiR3W.s 			page 89


 2972 0000 08B5     		push	{r3, lr}
 2973              	.LCFI17:
 2974              		.cfi_def_cfa_offset 8
 2975              		.cfi_offset 3, -8
 2976              		.cfi_offset 14, -4
1516:lib/Drivers/STM32H7xx_HAL_Driver/Src/stm32h7xx_hal_rcc.c ****   /* Get HCLK source and Compute PCLK1 frequency ---------------------------*/
1517:lib/Drivers/STM32H7xx_HAL_Driver/Src/stm32h7xx_hal_rcc.c **** #if defined(RCC_D2CFGR_D2PPRE2)
1518:lib/Drivers/STM32H7xx_HAL_Driver/Src/stm32h7xx_hal_rcc.c ****   return (HAL_RCC_GetHCLKFreq() >> ((D1CorePrescTable[(RCC->D2CFGR & RCC_D2CFGR_D2PPRE2)>> RCC_D2CF
 2977              		.loc 1 1518 3 view .LVU964
 2978              		.loc 1 1518 11 is_stmt 0 view .LVU965
 2979 0002 FFF7FEFF 		bl	HAL_RCC_GetHCLKFreq
 2980              	.LVL212:
 2981              		.loc 1 1518 59 view .LVU966
 2982 0006 054B     		ldr	r3, .L248
 2983 0008 DB69     		ldr	r3, [r3, #28]
 2984              		.loc 1 1518 89 view .LVU967
 2985 000a C3F30223 		ubfx	r3, r3, #8, #3
 2986              		.loc 1 1518 54 view .LVU968
 2987 000e 044A     		ldr	r2, .L248+4
 2988 0010 D35C     		ldrb	r3, [r2, r3]	@ zero_extendqisi2
 2989              		.loc 1 1518 117 view .LVU969
 2990 0012 03F01F03 		and	r3, r3, #31
1519:lib/Drivers/STM32H7xx_HAL_Driver/Src/stm32h7xx_hal_rcc.c **** #else
1520:lib/Drivers/STM32H7xx_HAL_Driver/Src/stm32h7xx_hal_rcc.c ****   return (HAL_RCC_GetHCLKFreq() >> ((D1CorePrescTable[(RCC->CDCFGR2 & RCC_CDCFGR2_CDPPRE2)>> RCC_CD
1521:lib/Drivers/STM32H7xx_HAL_Driver/Src/stm32h7xx_hal_rcc.c **** #endif
1522:lib/Drivers/STM32H7xx_HAL_Driver/Src/stm32h7xx_hal_rcc.c **** }
 2991              		.loc 1 1522 1 view .LVU970
 2992 0016 D840     		lsrs	r0, r0, r3
 2993 0018 08BD     		pop	{r3, pc}
 2994              	.L249:
 2995 001a 00BF     		.align	2
 2996              	.L248:
 2997 001c 00440258 		.word	1476543488
 2998 0020 00000000 		.word	D1CorePrescTable
 2999              		.cfi_endproc
 3000              	.LFE153:
 3002              		.section	.text.HAL_RCC_GetOscConfig,"ax",%progbits
 3003              		.align	1
 3004              		.global	HAL_RCC_GetOscConfig
 3005              		.syntax unified
 3006              		.thumb
 3007              		.thumb_func
 3009              	HAL_RCC_GetOscConfig:
 3010              	.LVL213:
 3011              	.LFB154:
1523:lib/Drivers/STM32H7xx_HAL_Driver/Src/stm32h7xx_hal_rcc.c **** 
1524:lib/Drivers/STM32H7xx_HAL_Driver/Src/stm32h7xx_hal_rcc.c **** /**
1525:lib/Drivers/STM32H7xx_HAL_Driver/Src/stm32h7xx_hal_rcc.c ****   * @brief  Configures the RCC_OscInitStruct according to the internal
1526:lib/Drivers/STM32H7xx_HAL_Driver/Src/stm32h7xx_hal_rcc.c ****   * RCC configuration registers.
1527:lib/Drivers/STM32H7xx_HAL_Driver/Src/stm32h7xx_hal_rcc.c ****   * @param  RCC_OscInitStruct: pointer to an RCC_OscInitTypeDef structure that
1528:lib/Drivers/STM32H7xx_HAL_Driver/Src/stm32h7xx_hal_rcc.c ****   * will be configured.
1529:lib/Drivers/STM32H7xx_HAL_Driver/Src/stm32h7xx_hal_rcc.c ****   * @retval None
1530:lib/Drivers/STM32H7xx_HAL_Driver/Src/stm32h7xx_hal_rcc.c ****   */
1531:lib/Drivers/STM32H7xx_HAL_Driver/Src/stm32h7xx_hal_rcc.c **** void HAL_RCC_GetOscConfig(RCC_OscInitTypeDef  *RCC_OscInitStruct)
1532:lib/Drivers/STM32H7xx_HAL_Driver/Src/stm32h7xx_hal_rcc.c **** {
 3012              		.loc 1 1532 1 is_stmt 1 view -0
 3013              		.cfi_startproc
ARM GAS  /tmp/ccpTiR3W.s 			page 90


 3014              		@ args = 0, pretend = 0, frame = 0
 3015              		@ frame_needed = 0, uses_anonymous_args = 0
 3016              		.loc 1 1532 1 is_stmt 0 view .LVU972
 3017 0000 10B5     		push	{r4, lr}
 3018              	.LCFI18:
 3019              		.cfi_def_cfa_offset 8
 3020              		.cfi_offset 4, -8
 3021              		.cfi_offset 14, -4
 3022 0002 0446     		mov	r4, r0
1533:lib/Drivers/STM32H7xx_HAL_Driver/Src/stm32h7xx_hal_rcc.c ****   /* Set all possible values for the Oscillator type parameter ---------------*/
1534:lib/Drivers/STM32H7xx_HAL_Driver/Src/stm32h7xx_hal_rcc.c ****   RCC_OscInitStruct->OscillatorType = RCC_OSCILLATORTYPE_HSE | RCC_OSCILLATORTYPE_HSI | RCC_OSCILLA
 3023              		.loc 1 1534 3 is_stmt 1 view .LVU973
 3024              		.loc 1 1534 37 is_stmt 0 view .LVU974
 3025 0004 3F23     		movs	r3, #63
 3026 0006 0360     		str	r3, [r0]
1535:lib/Drivers/STM32H7xx_HAL_Driver/Src/stm32h7xx_hal_rcc.c ****                                       RCC_OSCILLATORTYPE_LSE | RCC_OSCILLATORTYPE_LSI| RCC_OSCILLAT
1536:lib/Drivers/STM32H7xx_HAL_Driver/Src/stm32h7xx_hal_rcc.c **** 
1537:lib/Drivers/STM32H7xx_HAL_Driver/Src/stm32h7xx_hal_rcc.c ****   /* Get the HSE configuration -----------------------------------------------*/
1538:lib/Drivers/STM32H7xx_HAL_Driver/Src/stm32h7xx_hal_rcc.c **** #if defined(RCC_CR_HSEEXT)
1539:lib/Drivers/STM32H7xx_HAL_Driver/Src/stm32h7xx_hal_rcc.c ****   if((RCC->CR &(RCC_CR_HSEBYP | RCC_CR_HSEEXT)) == RCC_CR_HSEBYP)
1540:lib/Drivers/STM32H7xx_HAL_Driver/Src/stm32h7xx_hal_rcc.c ****   {
1541:lib/Drivers/STM32H7xx_HAL_Driver/Src/stm32h7xx_hal_rcc.c ****     RCC_OscInitStruct->HSEState = RCC_HSE_BYPASS;
1542:lib/Drivers/STM32H7xx_HAL_Driver/Src/stm32h7xx_hal_rcc.c ****   }
1543:lib/Drivers/STM32H7xx_HAL_Driver/Src/stm32h7xx_hal_rcc.c ****   else if((RCC->CR &(RCC_CR_HSEBYP | RCC_CR_HSEEXT)) == (RCC_CR_HSEBYP | RCC_CR_HSEEXT))
1544:lib/Drivers/STM32H7xx_HAL_Driver/Src/stm32h7xx_hal_rcc.c ****   {
1545:lib/Drivers/STM32H7xx_HAL_Driver/Src/stm32h7xx_hal_rcc.c ****     RCC_OscInitStruct->HSEState = RCC_HSE_BYPASS_DIGITAL;
1546:lib/Drivers/STM32H7xx_HAL_Driver/Src/stm32h7xx_hal_rcc.c ****   }
1547:lib/Drivers/STM32H7xx_HAL_Driver/Src/stm32h7xx_hal_rcc.c ****   else if((RCC->CR &RCC_CR_HSEON) == RCC_CR_HSEON)
1548:lib/Drivers/STM32H7xx_HAL_Driver/Src/stm32h7xx_hal_rcc.c ****   {
1549:lib/Drivers/STM32H7xx_HAL_Driver/Src/stm32h7xx_hal_rcc.c ****     RCC_OscInitStruct->HSEState = RCC_HSE_ON;
1550:lib/Drivers/STM32H7xx_HAL_Driver/Src/stm32h7xx_hal_rcc.c ****   }
1551:lib/Drivers/STM32H7xx_HAL_Driver/Src/stm32h7xx_hal_rcc.c ****   else
1552:lib/Drivers/STM32H7xx_HAL_Driver/Src/stm32h7xx_hal_rcc.c ****   {
1553:lib/Drivers/STM32H7xx_HAL_Driver/Src/stm32h7xx_hal_rcc.c ****     RCC_OscInitStruct->HSEState = RCC_HSE_OFF;
1554:lib/Drivers/STM32H7xx_HAL_Driver/Src/stm32h7xx_hal_rcc.c ****   }
1555:lib/Drivers/STM32H7xx_HAL_Driver/Src/stm32h7xx_hal_rcc.c **** #else
1556:lib/Drivers/STM32H7xx_HAL_Driver/Src/stm32h7xx_hal_rcc.c ****   if((RCC->CR &RCC_CR_HSEBYP) == RCC_CR_HSEBYP)
 3027              		.loc 1 1556 3 is_stmt 1 view .LVU975
 3028              		.loc 1 1556 10 is_stmt 0 view .LVU976
 3029 0008 514B     		ldr	r3, .L272
 3030 000a 1B68     		ldr	r3, [r3]
 3031              		.loc 1 1556 5 view .LVU977
 3032 000c 13F4802F 		tst	r3, #262144
 3033 0010 6CD0     		beq	.L251
1557:lib/Drivers/STM32H7xx_HAL_Driver/Src/stm32h7xx_hal_rcc.c ****   {
1558:lib/Drivers/STM32H7xx_HAL_Driver/Src/stm32h7xx_hal_rcc.c ****     RCC_OscInitStruct->HSEState = RCC_HSE_BYPASS;
 3034              		.loc 1 1558 5 is_stmt 1 view .LVU978
 3035              		.loc 1 1558 33 is_stmt 0 view .LVU979
 3036 0012 4FF4A023 		mov	r3, #327680
 3037 0016 4360     		str	r3, [r0, #4]
 3038              	.L252:
1559:lib/Drivers/STM32H7xx_HAL_Driver/Src/stm32h7xx_hal_rcc.c ****   }
1560:lib/Drivers/STM32H7xx_HAL_Driver/Src/stm32h7xx_hal_rcc.c ****   else if((RCC->CR &RCC_CR_HSEON) == RCC_CR_HSEON)
1561:lib/Drivers/STM32H7xx_HAL_Driver/Src/stm32h7xx_hal_rcc.c ****   {
1562:lib/Drivers/STM32H7xx_HAL_Driver/Src/stm32h7xx_hal_rcc.c ****     RCC_OscInitStruct->HSEState = RCC_HSE_ON;
1563:lib/Drivers/STM32H7xx_HAL_Driver/Src/stm32h7xx_hal_rcc.c ****   }
1564:lib/Drivers/STM32H7xx_HAL_Driver/Src/stm32h7xx_hal_rcc.c ****   else
ARM GAS  /tmp/ccpTiR3W.s 			page 91


1565:lib/Drivers/STM32H7xx_HAL_Driver/Src/stm32h7xx_hal_rcc.c ****   {
1566:lib/Drivers/STM32H7xx_HAL_Driver/Src/stm32h7xx_hal_rcc.c ****     RCC_OscInitStruct->HSEState = RCC_HSE_OFF;
1567:lib/Drivers/STM32H7xx_HAL_Driver/Src/stm32h7xx_hal_rcc.c ****   }
1568:lib/Drivers/STM32H7xx_HAL_Driver/Src/stm32h7xx_hal_rcc.c **** #endif /* RCC_CR_HSEEXT */
1569:lib/Drivers/STM32H7xx_HAL_Driver/Src/stm32h7xx_hal_rcc.c **** 
1570:lib/Drivers/STM32H7xx_HAL_Driver/Src/stm32h7xx_hal_rcc.c ****    /* Get the CSI configuration -----------------------------------------------*/
1571:lib/Drivers/STM32H7xx_HAL_Driver/Src/stm32h7xx_hal_rcc.c ****   if((RCC->CR &RCC_CR_CSION) == RCC_CR_CSION)
 3039              		.loc 1 1571 3 is_stmt 1 view .LVU980
 3040              		.loc 1 1571 10 is_stmt 0 view .LVU981
 3041 0018 4D4B     		ldr	r3, .L272
 3042 001a 1B68     		ldr	r3, [r3]
 3043              		.loc 1 1571 5 view .LVU982
 3044 001c 13F0800F 		tst	r3, #128
 3045 0020 70D0     		beq	.L254
1572:lib/Drivers/STM32H7xx_HAL_Driver/Src/stm32h7xx_hal_rcc.c ****   {
1573:lib/Drivers/STM32H7xx_HAL_Driver/Src/stm32h7xx_hal_rcc.c ****     RCC_OscInitStruct->CSIState = RCC_CSI_ON;
 3046              		.loc 1 1573 5 is_stmt 1 view .LVU983
 3047              		.loc 1 1573 33 is_stmt 0 view .LVU984
 3048 0022 8023     		movs	r3, #128
 3049 0024 E361     		str	r3, [r4, #28]
 3050              	.L255:
1574:lib/Drivers/STM32H7xx_HAL_Driver/Src/stm32h7xx_hal_rcc.c ****   }
1575:lib/Drivers/STM32H7xx_HAL_Driver/Src/stm32h7xx_hal_rcc.c ****   else
1576:lib/Drivers/STM32H7xx_HAL_Driver/Src/stm32h7xx_hal_rcc.c ****   {
1577:lib/Drivers/STM32H7xx_HAL_Driver/Src/stm32h7xx_hal_rcc.c ****     RCC_OscInitStruct->CSIState = RCC_CSI_OFF;
1578:lib/Drivers/STM32H7xx_HAL_Driver/Src/stm32h7xx_hal_rcc.c ****   }
1579:lib/Drivers/STM32H7xx_HAL_Driver/Src/stm32h7xx_hal_rcc.c **** 
1580:lib/Drivers/STM32H7xx_HAL_Driver/Src/stm32h7xx_hal_rcc.c **** #if defined(RCC_VER_X)
1581:lib/Drivers/STM32H7xx_HAL_Driver/Src/stm32h7xx_hal_rcc.c ****   if(HAL_GetREVID() <= REV_ID_Y)
 3051              		.loc 1 1581 3 is_stmt 1 view .LVU985
 3052              		.loc 1 1581 6 is_stmt 0 view .LVU986
 3053 0026 FFF7FEFF 		bl	HAL_GetREVID
 3054              	.LVL214:
 3055              		.loc 1 1581 5 view .LVU987
 3056 002a 41F20303 		movw	r3, #4099
 3057 002e 9842     		cmp	r0, r3
 3058 0030 6BD8     		bhi	.L256
1582:lib/Drivers/STM32H7xx_HAL_Driver/Src/stm32h7xx_hal_rcc.c ****   {
1583:lib/Drivers/STM32H7xx_HAL_Driver/Src/stm32h7xx_hal_rcc.c ****     RCC_OscInitStruct->CSICalibrationValue = (uint32_t)(READ_BIT(RCC->HSICFGR, HAL_RCC_REV_Y_CSITRI
 3059              		.loc 1 1583 5 is_stmt 1 view .LVU988
 3060              		.loc 1 1583 57 is_stmt 0 view .LVU989
 3061 0032 474B     		ldr	r3, .L272
 3062 0034 5B68     		ldr	r3, [r3, #4]
 3063              		.loc 1 1583 46 view .LVU990
 3064 0036 C3F38463 		ubfx	r3, r3, #26, #5
 3065              		.loc 1 1583 44 view .LVU991
 3066 003a 2362     		str	r3, [r4, #32]
 3067              	.L257:
1584:lib/Drivers/STM32H7xx_HAL_Driver/Src/stm32h7xx_hal_rcc.c ****   }
1585:lib/Drivers/STM32H7xx_HAL_Driver/Src/stm32h7xx_hal_rcc.c ****   else
1586:lib/Drivers/STM32H7xx_HAL_Driver/Src/stm32h7xx_hal_rcc.c ****   {
1587:lib/Drivers/STM32H7xx_HAL_Driver/Src/stm32h7xx_hal_rcc.c ****     RCC_OscInitStruct->CSICalibrationValue = (uint32_t)(READ_BIT(RCC->CSICFGR, RCC_CSICFGR_CSITRIM)
1588:lib/Drivers/STM32H7xx_HAL_Driver/Src/stm32h7xx_hal_rcc.c ****   }
1589:lib/Drivers/STM32H7xx_HAL_Driver/Src/stm32h7xx_hal_rcc.c **** #else
1590:lib/Drivers/STM32H7xx_HAL_Driver/Src/stm32h7xx_hal_rcc.c ****  RCC_OscInitStruct->CSICalibrationValue = (uint32_t)(READ_BIT(RCC->CSICFGR, RCC_CSICFGR_CSITRIM) >>
1591:lib/Drivers/STM32H7xx_HAL_Driver/Src/stm32h7xx_hal_rcc.c **** #endif /*RCC_VER_X*/
1592:lib/Drivers/STM32H7xx_HAL_Driver/Src/stm32h7xx_hal_rcc.c **** 
ARM GAS  /tmp/ccpTiR3W.s 			page 92


1593:lib/Drivers/STM32H7xx_HAL_Driver/Src/stm32h7xx_hal_rcc.c ****   /* Get the HSI configuration -----------------------------------------------*/
1594:lib/Drivers/STM32H7xx_HAL_Driver/Src/stm32h7xx_hal_rcc.c ****   if((RCC->CR &RCC_CR_HSION) == RCC_CR_HSION)
 3068              		.loc 1 1594 3 is_stmt 1 view .LVU992
 3069              		.loc 1 1594 10 is_stmt 0 view .LVU993
 3070 003c 444B     		ldr	r3, .L272
 3071 003e 1B68     		ldr	r3, [r3]
 3072              		.loc 1 1594 5 view .LVU994
 3073 0040 13F0010F 		tst	r3, #1
 3074 0044 67D0     		beq	.L258
1595:lib/Drivers/STM32H7xx_HAL_Driver/Src/stm32h7xx_hal_rcc.c ****   {
1596:lib/Drivers/STM32H7xx_HAL_Driver/Src/stm32h7xx_hal_rcc.c ****     RCC_OscInitStruct->HSIState = RCC_HSI_ON;
 3075              		.loc 1 1596 5 is_stmt 1 view .LVU995
 3076              		.loc 1 1596 33 is_stmt 0 view .LVU996
 3077 0046 0123     		movs	r3, #1
 3078 0048 E360     		str	r3, [r4, #12]
 3079              	.L259:
1597:lib/Drivers/STM32H7xx_HAL_Driver/Src/stm32h7xx_hal_rcc.c ****   }
1598:lib/Drivers/STM32H7xx_HAL_Driver/Src/stm32h7xx_hal_rcc.c ****   else
1599:lib/Drivers/STM32H7xx_HAL_Driver/Src/stm32h7xx_hal_rcc.c ****   {
1600:lib/Drivers/STM32H7xx_HAL_Driver/Src/stm32h7xx_hal_rcc.c ****     RCC_OscInitStruct->HSIState = RCC_HSI_OFF;
1601:lib/Drivers/STM32H7xx_HAL_Driver/Src/stm32h7xx_hal_rcc.c ****   }
1602:lib/Drivers/STM32H7xx_HAL_Driver/Src/stm32h7xx_hal_rcc.c **** 
1603:lib/Drivers/STM32H7xx_HAL_Driver/Src/stm32h7xx_hal_rcc.c **** #if defined(RCC_VER_X)
1604:lib/Drivers/STM32H7xx_HAL_Driver/Src/stm32h7xx_hal_rcc.c ****   if(HAL_GetREVID() <= REV_ID_Y)
 3080              		.loc 1 1604 3 is_stmt 1 view .LVU997
 3081              		.loc 1 1604 6 is_stmt 0 view .LVU998
 3082 004a FFF7FEFF 		bl	HAL_GetREVID
 3083              	.LVL215:
 3084              		.loc 1 1604 5 view .LVU999
 3085 004e 41F20303 		movw	r3, #4099
 3086 0052 9842     		cmp	r0, r3
 3087 0054 62D8     		bhi	.L260
1605:lib/Drivers/STM32H7xx_HAL_Driver/Src/stm32h7xx_hal_rcc.c ****   {
1606:lib/Drivers/STM32H7xx_HAL_Driver/Src/stm32h7xx_hal_rcc.c ****     RCC_OscInitStruct->HSICalibrationValue = (uint32_t)(READ_BIT(RCC->HSICFGR, HAL_RCC_REV_Y_HSITRI
 3088              		.loc 1 1606 5 is_stmt 1 view .LVU1000
 3089              		.loc 1 1606 57 is_stmt 0 view .LVU1001
 3090 0056 3E4B     		ldr	r3, .L272
 3091 0058 5B68     		ldr	r3, [r3, #4]
 3092              		.loc 1 1606 46 view .LVU1002
 3093 005a C3F30533 		ubfx	r3, r3, #12, #6
 3094              		.loc 1 1606 44 view .LVU1003
 3095 005e 2361     		str	r3, [r4, #16]
 3096              	.L261:
1607:lib/Drivers/STM32H7xx_HAL_Driver/Src/stm32h7xx_hal_rcc.c ****   }
1608:lib/Drivers/STM32H7xx_HAL_Driver/Src/stm32h7xx_hal_rcc.c ****   else
1609:lib/Drivers/STM32H7xx_HAL_Driver/Src/stm32h7xx_hal_rcc.c ****   {
1610:lib/Drivers/STM32H7xx_HAL_Driver/Src/stm32h7xx_hal_rcc.c ****     RCC_OscInitStruct->HSICalibrationValue = (uint32_t)(READ_BIT(RCC->HSICFGR, RCC_HSICFGR_HSITRIM)
1611:lib/Drivers/STM32H7xx_HAL_Driver/Src/stm32h7xx_hal_rcc.c ****   }
1612:lib/Drivers/STM32H7xx_HAL_Driver/Src/stm32h7xx_hal_rcc.c **** #else
1613:lib/Drivers/STM32H7xx_HAL_Driver/Src/stm32h7xx_hal_rcc.c ****     RCC_OscInitStruct->HSICalibrationValue = (uint32_t)(READ_BIT(RCC->HSICFGR, RCC_HSICFGR_HSITRIM)
1614:lib/Drivers/STM32H7xx_HAL_Driver/Src/stm32h7xx_hal_rcc.c **** #endif /*RCC_VER_X*/
1615:lib/Drivers/STM32H7xx_HAL_Driver/Src/stm32h7xx_hal_rcc.c **** 
1616:lib/Drivers/STM32H7xx_HAL_Driver/Src/stm32h7xx_hal_rcc.c ****   /* Get the LSE configuration -----------------------------------------------*/
1617:lib/Drivers/STM32H7xx_HAL_Driver/Src/stm32h7xx_hal_rcc.c **** #if defined(RCC_BDCR_LSEEXT)
1618:lib/Drivers/STM32H7xx_HAL_Driver/Src/stm32h7xx_hal_rcc.c ****   if((RCC->BDCR &(RCC_BDCR_LSEBYP|RCC_BDCR_LSEEXT)) == RCC_BDCR_LSEBYP)
1619:lib/Drivers/STM32H7xx_HAL_Driver/Src/stm32h7xx_hal_rcc.c ****   {
1620:lib/Drivers/STM32H7xx_HAL_Driver/Src/stm32h7xx_hal_rcc.c ****     RCC_OscInitStruct->LSEState = RCC_LSE_BYPASS;
ARM GAS  /tmp/ccpTiR3W.s 			page 93


1621:lib/Drivers/STM32H7xx_HAL_Driver/Src/stm32h7xx_hal_rcc.c ****   }
1622:lib/Drivers/STM32H7xx_HAL_Driver/Src/stm32h7xx_hal_rcc.c ****   else if((RCC->BDCR &(RCC_BDCR_LSEBYP|RCC_BDCR_LSEEXT)) == (RCC_BDCR_LSEBYP|RCC_BDCR_LSEEXT))
1623:lib/Drivers/STM32H7xx_HAL_Driver/Src/stm32h7xx_hal_rcc.c ****   {
1624:lib/Drivers/STM32H7xx_HAL_Driver/Src/stm32h7xx_hal_rcc.c ****     RCC_OscInitStruct->LSEState = RCC_LSE_BYPASS_DIGITAL;
1625:lib/Drivers/STM32H7xx_HAL_Driver/Src/stm32h7xx_hal_rcc.c ****   }
1626:lib/Drivers/STM32H7xx_HAL_Driver/Src/stm32h7xx_hal_rcc.c ****   else if((RCC->BDCR &RCC_BDCR_LSEON) == RCC_BDCR_LSEON)
1627:lib/Drivers/STM32H7xx_HAL_Driver/Src/stm32h7xx_hal_rcc.c ****   {
1628:lib/Drivers/STM32H7xx_HAL_Driver/Src/stm32h7xx_hal_rcc.c ****     RCC_OscInitStruct->LSEState = RCC_LSE_ON;
1629:lib/Drivers/STM32H7xx_HAL_Driver/Src/stm32h7xx_hal_rcc.c ****   }
1630:lib/Drivers/STM32H7xx_HAL_Driver/Src/stm32h7xx_hal_rcc.c ****   else
1631:lib/Drivers/STM32H7xx_HAL_Driver/Src/stm32h7xx_hal_rcc.c ****   {
1632:lib/Drivers/STM32H7xx_HAL_Driver/Src/stm32h7xx_hal_rcc.c ****     RCC_OscInitStruct->LSEState = RCC_LSE_OFF;
1633:lib/Drivers/STM32H7xx_HAL_Driver/Src/stm32h7xx_hal_rcc.c ****   }
1634:lib/Drivers/STM32H7xx_HAL_Driver/Src/stm32h7xx_hal_rcc.c **** #else
1635:lib/Drivers/STM32H7xx_HAL_Driver/Src/stm32h7xx_hal_rcc.c ****   if((RCC->BDCR &RCC_BDCR_LSEBYP) == RCC_BDCR_LSEBYP)
 3097              		.loc 1 1635 3 is_stmt 1 view .LVU1004
 3098              		.loc 1 1635 10 is_stmt 0 view .LVU1005
 3099 0060 3B4B     		ldr	r3, .L272
 3100 0062 1B6F     		ldr	r3, [r3, #112]
 3101              		.loc 1 1635 5 view .LVU1006
 3102 0064 13F0040F 		tst	r3, #4
 3103 0068 5ED0     		beq	.L262
1636:lib/Drivers/STM32H7xx_HAL_Driver/Src/stm32h7xx_hal_rcc.c ****   {
1637:lib/Drivers/STM32H7xx_HAL_Driver/Src/stm32h7xx_hal_rcc.c ****     RCC_OscInitStruct->LSEState = RCC_LSE_BYPASS;
 3104              		.loc 1 1637 5 is_stmt 1 view .LVU1007
 3105              		.loc 1 1637 33 is_stmt 0 view .LVU1008
 3106 006a 0523     		movs	r3, #5
 3107 006c A360     		str	r3, [r4, #8]
 3108              	.L263:
1638:lib/Drivers/STM32H7xx_HAL_Driver/Src/stm32h7xx_hal_rcc.c ****   }
1639:lib/Drivers/STM32H7xx_HAL_Driver/Src/stm32h7xx_hal_rcc.c ****   else if((RCC->BDCR &RCC_BDCR_LSEON) == RCC_BDCR_LSEON)
1640:lib/Drivers/STM32H7xx_HAL_Driver/Src/stm32h7xx_hal_rcc.c ****   {
1641:lib/Drivers/STM32H7xx_HAL_Driver/Src/stm32h7xx_hal_rcc.c ****     RCC_OscInitStruct->LSEState = RCC_LSE_ON;
1642:lib/Drivers/STM32H7xx_HAL_Driver/Src/stm32h7xx_hal_rcc.c ****   }
1643:lib/Drivers/STM32H7xx_HAL_Driver/Src/stm32h7xx_hal_rcc.c ****   else
1644:lib/Drivers/STM32H7xx_HAL_Driver/Src/stm32h7xx_hal_rcc.c ****   {
1645:lib/Drivers/STM32H7xx_HAL_Driver/Src/stm32h7xx_hal_rcc.c ****     RCC_OscInitStruct->LSEState = RCC_LSE_OFF;
1646:lib/Drivers/STM32H7xx_HAL_Driver/Src/stm32h7xx_hal_rcc.c ****   }
1647:lib/Drivers/STM32H7xx_HAL_Driver/Src/stm32h7xx_hal_rcc.c **** #endif /* RCC_BDCR_LSEEXT */
1648:lib/Drivers/STM32H7xx_HAL_Driver/Src/stm32h7xx_hal_rcc.c **** 
1649:lib/Drivers/STM32H7xx_HAL_Driver/Src/stm32h7xx_hal_rcc.c ****   /* Get the LSI configuration -----------------------------------------------*/
1650:lib/Drivers/STM32H7xx_HAL_Driver/Src/stm32h7xx_hal_rcc.c ****   if((RCC->CSR &RCC_CSR_LSION) == RCC_CSR_LSION)
 3109              		.loc 1 1650 3 is_stmt 1 view .LVU1009
 3110              		.loc 1 1650 10 is_stmt 0 view .LVU1010
 3111 006e 384B     		ldr	r3, .L272
 3112 0070 5B6F     		ldr	r3, [r3, #116]
 3113              		.loc 1 1650 5 view .LVU1011
 3114 0072 13F0010F 		tst	r3, #1
 3115 0076 62D0     		beq	.L265
1651:lib/Drivers/STM32H7xx_HAL_Driver/Src/stm32h7xx_hal_rcc.c ****   {
1652:lib/Drivers/STM32H7xx_HAL_Driver/Src/stm32h7xx_hal_rcc.c ****     RCC_OscInitStruct->LSIState = RCC_LSI_ON;
 3116              		.loc 1 1652 5 is_stmt 1 view .LVU1012
 3117              		.loc 1 1652 33 is_stmt 0 view .LVU1013
 3118 0078 0123     		movs	r3, #1
 3119 007a 6361     		str	r3, [r4, #20]
 3120              	.L266:
1653:lib/Drivers/STM32H7xx_HAL_Driver/Src/stm32h7xx_hal_rcc.c ****   }
ARM GAS  /tmp/ccpTiR3W.s 			page 94


1654:lib/Drivers/STM32H7xx_HAL_Driver/Src/stm32h7xx_hal_rcc.c ****   else
1655:lib/Drivers/STM32H7xx_HAL_Driver/Src/stm32h7xx_hal_rcc.c ****   {
1656:lib/Drivers/STM32H7xx_HAL_Driver/Src/stm32h7xx_hal_rcc.c ****     RCC_OscInitStruct->LSIState = RCC_LSI_OFF;
1657:lib/Drivers/STM32H7xx_HAL_Driver/Src/stm32h7xx_hal_rcc.c ****   }
1658:lib/Drivers/STM32H7xx_HAL_Driver/Src/stm32h7xx_hal_rcc.c **** 
1659:lib/Drivers/STM32H7xx_HAL_Driver/Src/stm32h7xx_hal_rcc.c ****   /* Get the HSI48 configuration ---------------------------------------------*/
1660:lib/Drivers/STM32H7xx_HAL_Driver/Src/stm32h7xx_hal_rcc.c ****   if((RCC->CR & RCC_CR_HSI48ON) == RCC_CR_HSI48ON)
 3121              		.loc 1 1660 3 is_stmt 1 view .LVU1014
 3122              		.loc 1 1660 10 is_stmt 0 view .LVU1015
 3123 007c 344B     		ldr	r3, .L272
 3124 007e 1B68     		ldr	r3, [r3]
 3125              		.loc 1 1660 5 view .LVU1016
 3126 0080 13F4805F 		tst	r3, #4096
 3127 0084 5ED0     		beq	.L267
1661:lib/Drivers/STM32H7xx_HAL_Driver/Src/stm32h7xx_hal_rcc.c ****   {
1662:lib/Drivers/STM32H7xx_HAL_Driver/Src/stm32h7xx_hal_rcc.c ****     RCC_OscInitStruct->HSI48State = RCC_HSI48_ON;
 3128              		.loc 1 1662 5 is_stmt 1 view .LVU1017
 3129              		.loc 1 1662 35 is_stmt 0 view .LVU1018
 3130 0086 0123     		movs	r3, #1
 3131 0088 A361     		str	r3, [r4, #24]
 3132              	.L268:
1663:lib/Drivers/STM32H7xx_HAL_Driver/Src/stm32h7xx_hal_rcc.c ****   }
1664:lib/Drivers/STM32H7xx_HAL_Driver/Src/stm32h7xx_hal_rcc.c ****   else
1665:lib/Drivers/STM32H7xx_HAL_Driver/Src/stm32h7xx_hal_rcc.c ****   {
1666:lib/Drivers/STM32H7xx_HAL_Driver/Src/stm32h7xx_hal_rcc.c ****     RCC_OscInitStruct->HSI48State = RCC_HSI48_OFF;
1667:lib/Drivers/STM32H7xx_HAL_Driver/Src/stm32h7xx_hal_rcc.c ****   }
1668:lib/Drivers/STM32H7xx_HAL_Driver/Src/stm32h7xx_hal_rcc.c **** 
1669:lib/Drivers/STM32H7xx_HAL_Driver/Src/stm32h7xx_hal_rcc.c ****   /* Get the PLL configuration -----------------------------------------------*/
1670:lib/Drivers/STM32H7xx_HAL_Driver/Src/stm32h7xx_hal_rcc.c ****   if((RCC->CR &RCC_CR_PLLON) == RCC_CR_PLLON)
 3133              		.loc 1 1670 3 is_stmt 1 view .LVU1019
 3134              		.loc 1 1670 10 is_stmt 0 view .LVU1020
 3135 008a 314B     		ldr	r3, .L272
 3136 008c 1B68     		ldr	r3, [r3]
 3137              		.loc 1 1670 5 view .LVU1021
 3138 008e 13F0807F 		tst	r3, #16777216
 3139 0092 5AD0     		beq	.L269
1671:lib/Drivers/STM32H7xx_HAL_Driver/Src/stm32h7xx_hal_rcc.c ****   {
1672:lib/Drivers/STM32H7xx_HAL_Driver/Src/stm32h7xx_hal_rcc.c ****     RCC_OscInitStruct->PLL.PLLState = RCC_PLL_ON;
 3140              		.loc 1 1672 5 is_stmt 1 view .LVU1022
 3141              		.loc 1 1672 37 is_stmt 0 view .LVU1023
 3142 0094 0223     		movs	r3, #2
 3143 0096 6362     		str	r3, [r4, #36]
 3144              	.L270:
1673:lib/Drivers/STM32H7xx_HAL_Driver/Src/stm32h7xx_hal_rcc.c ****   }
1674:lib/Drivers/STM32H7xx_HAL_Driver/Src/stm32h7xx_hal_rcc.c ****   else
1675:lib/Drivers/STM32H7xx_HAL_Driver/Src/stm32h7xx_hal_rcc.c ****   {
1676:lib/Drivers/STM32H7xx_HAL_Driver/Src/stm32h7xx_hal_rcc.c ****     RCC_OscInitStruct->PLL.PLLState = RCC_PLL_OFF;
1677:lib/Drivers/STM32H7xx_HAL_Driver/Src/stm32h7xx_hal_rcc.c ****   }
1678:lib/Drivers/STM32H7xx_HAL_Driver/Src/stm32h7xx_hal_rcc.c ****   RCC_OscInitStruct->PLL.PLLSource = (uint32_t)(RCC->PLLCKSELR & RCC_PLLCKSELR_PLLSRC);
 3145              		.loc 1 1678 3 is_stmt 1 view .LVU1024
 3146              		.loc 1 1678 52 is_stmt 0 view .LVU1025
 3147 0098 2D4B     		ldr	r3, .L272
 3148 009a 9A6A     		ldr	r2, [r3, #40]
 3149              		.loc 1 1678 38 view .LVU1026
 3150 009c 02F00302 		and	r2, r2, #3
 3151              		.loc 1 1678 36 view .LVU1027
 3152 00a0 A262     		str	r2, [r4, #40]
ARM GAS  /tmp/ccpTiR3W.s 			page 95


1679:lib/Drivers/STM32H7xx_HAL_Driver/Src/stm32h7xx_hal_rcc.c ****   RCC_OscInitStruct->PLL.PLLM = (uint32_t)((RCC->PLLCKSELR & RCC_PLLCKSELR_DIVM1)>> RCC_PLLCKSELR_D
 3153              		.loc 1 1679 3 is_stmt 1 view .LVU1028
 3154              		.loc 1 1679 48 is_stmt 0 view .LVU1029
 3155 00a2 9A6A     		ldr	r2, [r3, #40]
 3156              		.loc 1 1679 33 view .LVU1030
 3157 00a4 C2F30512 		ubfx	r2, r2, #4, #6
 3158              		.loc 1 1679 31 view .LVU1031
 3159 00a8 E262     		str	r2, [r4, #44]
1680:lib/Drivers/STM32H7xx_HAL_Driver/Src/stm32h7xx_hal_rcc.c ****   RCC_OscInitStruct->PLL.PLLN = (uint32_t)((RCC->PLL1DIVR & RCC_PLL1DIVR_N1) >> RCC_PLL1DIVR_N1_Pos
 3160              		.loc 1 1680 3 is_stmt 1 view .LVU1032
 3161              		.loc 1 1680 48 is_stmt 0 view .LVU1033
 3162 00aa 1A6B     		ldr	r2, [r3, #48]
 3163              		.loc 1 1680 33 view .LVU1034
 3164 00ac C2F30802 		ubfx	r2, r2, #0, #9
 3165              		.loc 1 1680 101 view .LVU1035
 3166 00b0 0132     		adds	r2, r2, #1
 3167              		.loc 1 1680 31 view .LVU1036
 3168 00b2 2263     		str	r2, [r4, #48]
1681:lib/Drivers/STM32H7xx_HAL_Driver/Src/stm32h7xx_hal_rcc.c ****   RCC_OscInitStruct->PLL.PLLR = (uint32_t)((RCC->PLL1DIVR & RCC_PLL1DIVR_R1) >> RCC_PLL1DIVR_R1_Pos
 3169              		.loc 1 1681 3 is_stmt 1 view .LVU1037
 3170              		.loc 1 1681 48 is_stmt 0 view .LVU1038
 3171 00b4 1A6B     		ldr	r2, [r3, #48]
 3172              		.loc 1 1681 33 view .LVU1039
 3173 00b6 C2F30662 		ubfx	r2, r2, #24, #7
 3174              		.loc 1 1681 101 view .LVU1040
 3175 00ba 0132     		adds	r2, r2, #1
 3176              		.loc 1 1681 31 view .LVU1041
 3177 00bc E263     		str	r2, [r4, #60]
1682:lib/Drivers/STM32H7xx_HAL_Driver/Src/stm32h7xx_hal_rcc.c ****   RCC_OscInitStruct->PLL.PLLP = (uint32_t)((RCC->PLL1DIVR & RCC_PLL1DIVR_P1) >> RCC_PLL1DIVR_P1_Pos
 3178              		.loc 1 1682 3 is_stmt 1 view .LVU1042
 3179              		.loc 1 1682 48 is_stmt 0 view .LVU1043
 3180 00be 1A6B     		ldr	r2, [r3, #48]
 3181              		.loc 1 1682 33 view .LVU1044
 3182 00c0 C2F34622 		ubfx	r2, r2, #9, #7
 3183              		.loc 1 1682 101 view .LVU1045
 3184 00c4 0132     		adds	r2, r2, #1
 3185              		.loc 1 1682 31 view .LVU1046
 3186 00c6 6263     		str	r2, [r4, #52]
1683:lib/Drivers/STM32H7xx_HAL_Driver/Src/stm32h7xx_hal_rcc.c ****   RCC_OscInitStruct->PLL.PLLQ = (uint32_t)((RCC->PLL1DIVR & RCC_PLL1DIVR_Q1) >> RCC_PLL1DIVR_Q1_Pos
 3187              		.loc 1 1683 3 is_stmt 1 view .LVU1047
 3188              		.loc 1 1683 48 is_stmt 0 view .LVU1048
 3189 00c8 1A6B     		ldr	r2, [r3, #48]
 3190              		.loc 1 1683 33 view .LVU1049
 3191 00ca C2F30642 		ubfx	r2, r2, #16, #7
 3192              		.loc 1 1683 101 view .LVU1050
 3193 00ce 0132     		adds	r2, r2, #1
 3194              		.loc 1 1683 31 view .LVU1051
 3195 00d0 A263     		str	r2, [r4, #56]
1684:lib/Drivers/STM32H7xx_HAL_Driver/Src/stm32h7xx_hal_rcc.c ****   RCC_OscInitStruct->PLL.PLLRGE = (uint32_t)((RCC->PLLCFGR & RCC_PLLCFGR_PLL1RGE));
 3196              		.loc 1 1684 3 is_stmt 1 view .LVU1052
 3197              		.loc 1 1684 50 is_stmt 0 view .LVU1053
 3198 00d2 DA6A     		ldr	r2, [r3, #44]
 3199              		.loc 1 1684 35 view .LVU1054
 3200 00d4 02F00C02 		and	r2, r2, #12
 3201              		.loc 1 1684 33 view .LVU1055
 3202 00d8 2264     		str	r2, [r4, #64]
1685:lib/Drivers/STM32H7xx_HAL_Driver/Src/stm32h7xx_hal_rcc.c ****   RCC_OscInitStruct->PLL.PLLVCOSEL = (uint32_t)((RCC->PLLCFGR & RCC_PLLCFGR_PLL1VCOSEL) >> RCC_PLLC
ARM GAS  /tmp/ccpTiR3W.s 			page 96


 3203              		.loc 1 1685 3 is_stmt 1 view .LVU1056
 3204              		.loc 1 1685 53 is_stmt 0 view .LVU1057
 3205 00da DA6A     		ldr	r2, [r3, #44]
 3206              		.loc 1 1685 38 view .LVU1058
 3207 00dc C2F34002 		ubfx	r2, r2, #1, #1
 3208              		.loc 1 1685 36 view .LVU1059
 3209 00e0 6264     		str	r2, [r4, #68]
1686:lib/Drivers/STM32H7xx_HAL_Driver/Src/stm32h7xx_hal_rcc.c ****   RCC_OscInitStruct->PLL.PLLFRACN = (uint32_t)(((RCC->PLL1FRACR & RCC_PLL1FRACR_FRACN1) >> RCC_PLL1
 3210              		.loc 1 1686 3 is_stmt 1 view .LVU1060
 3211              		.loc 1 1686 53 is_stmt 0 view .LVU1061
 3212 00e2 5B6B     		ldr	r3, [r3, #52]
 3213              		.loc 1 1686 37 view .LVU1062
 3214 00e4 C3F3CC03 		ubfx	r3, r3, #3, #13
 3215              		.loc 1 1686 35 view .LVU1063
 3216 00e8 A364     		str	r3, [r4, #72]
1687:lib/Drivers/STM32H7xx_HAL_Driver/Src/stm32h7xx_hal_rcc.c **** }
 3217              		.loc 1 1687 1 view .LVU1064
 3218 00ea 10BD     		pop	{r4, pc}
 3219              	.LVL216:
 3220              	.L251:
1560:lib/Drivers/STM32H7xx_HAL_Driver/Src/stm32h7xx_hal_rcc.c ****   {
 3221              		.loc 1 1560 8 is_stmt 1 view .LVU1065
1560:lib/Drivers/STM32H7xx_HAL_Driver/Src/stm32h7xx_hal_rcc.c ****   {
 3222              		.loc 1 1560 15 is_stmt 0 view .LVU1066
 3223 00ec 184B     		ldr	r3, .L272
 3224 00ee 1B68     		ldr	r3, [r3]
1560:lib/Drivers/STM32H7xx_HAL_Driver/Src/stm32h7xx_hal_rcc.c ****   {
 3225              		.loc 1 1560 10 view .LVU1067
 3226 00f0 13F4803F 		tst	r3, #65536
 3227 00f4 03D0     		beq	.L253
1562:lib/Drivers/STM32H7xx_HAL_Driver/Src/stm32h7xx_hal_rcc.c ****   }
 3228              		.loc 1 1562 5 is_stmt 1 view .LVU1068
1562:lib/Drivers/STM32H7xx_HAL_Driver/Src/stm32h7xx_hal_rcc.c ****   }
 3229              		.loc 1 1562 33 is_stmt 0 view .LVU1069
 3230 00f6 4FF48033 		mov	r3, #65536
 3231 00fa 4360     		str	r3, [r0, #4]
 3232 00fc 8CE7     		b	.L252
 3233              	.L253:
1566:lib/Drivers/STM32H7xx_HAL_Driver/Src/stm32h7xx_hal_rcc.c ****   }
 3234              		.loc 1 1566 5 is_stmt 1 view .LVU1070
1566:lib/Drivers/STM32H7xx_HAL_Driver/Src/stm32h7xx_hal_rcc.c ****   }
 3235              		.loc 1 1566 33 is_stmt 0 view .LVU1071
 3236 00fe 0023     		movs	r3, #0
 3237 0100 4360     		str	r3, [r0, #4]
 3238 0102 89E7     		b	.L252
 3239              	.L254:
1577:lib/Drivers/STM32H7xx_HAL_Driver/Src/stm32h7xx_hal_rcc.c ****   }
 3240              		.loc 1 1577 5 is_stmt 1 view .LVU1072
1577:lib/Drivers/STM32H7xx_HAL_Driver/Src/stm32h7xx_hal_rcc.c ****   }
 3241              		.loc 1 1577 33 is_stmt 0 view .LVU1073
 3242 0104 0023     		movs	r3, #0
 3243 0106 E361     		str	r3, [r4, #28]
 3244 0108 8DE7     		b	.L255
 3245              	.LVL217:
 3246              	.L256:
1587:lib/Drivers/STM32H7xx_HAL_Driver/Src/stm32h7xx_hal_rcc.c ****   }
 3247              		.loc 1 1587 5 is_stmt 1 view .LVU1074
ARM GAS  /tmp/ccpTiR3W.s 			page 97


1587:lib/Drivers/STM32H7xx_HAL_Driver/Src/stm32h7xx_hal_rcc.c ****   }
 3248              		.loc 1 1587 57 is_stmt 0 view .LVU1075
 3249 010a 114B     		ldr	r3, .L272
 3250 010c DB68     		ldr	r3, [r3, #12]
1587:lib/Drivers/STM32H7xx_HAL_Driver/Src/stm32h7xx_hal_rcc.c ****   }
 3251              		.loc 1 1587 46 view .LVU1076
 3252 010e C3F30563 		ubfx	r3, r3, #24, #6
1587:lib/Drivers/STM32H7xx_HAL_Driver/Src/stm32h7xx_hal_rcc.c ****   }
 3253              		.loc 1 1587 44 view .LVU1077
 3254 0112 2362     		str	r3, [r4, #32]
 3255 0114 92E7     		b	.L257
 3256              	.L258:
1600:lib/Drivers/STM32H7xx_HAL_Driver/Src/stm32h7xx_hal_rcc.c ****   }
 3257              		.loc 1 1600 5 is_stmt 1 view .LVU1078
1600:lib/Drivers/STM32H7xx_HAL_Driver/Src/stm32h7xx_hal_rcc.c ****   }
 3258              		.loc 1 1600 33 is_stmt 0 view .LVU1079
 3259 0116 0023     		movs	r3, #0
 3260 0118 E360     		str	r3, [r4, #12]
 3261 011a 96E7     		b	.L259
 3262              	.L260:
1610:lib/Drivers/STM32H7xx_HAL_Driver/Src/stm32h7xx_hal_rcc.c ****   }
 3263              		.loc 1 1610 5 is_stmt 1 view .LVU1080
1610:lib/Drivers/STM32H7xx_HAL_Driver/Src/stm32h7xx_hal_rcc.c ****   }
 3264              		.loc 1 1610 57 is_stmt 0 view .LVU1081
 3265 011c 0C4B     		ldr	r3, .L272
 3266 011e 5B68     		ldr	r3, [r3, #4]
1610:lib/Drivers/STM32H7xx_HAL_Driver/Src/stm32h7xx_hal_rcc.c ****   }
 3267              		.loc 1 1610 46 view .LVU1082
 3268 0120 C3F30663 		ubfx	r3, r3, #24, #7
1610:lib/Drivers/STM32H7xx_HAL_Driver/Src/stm32h7xx_hal_rcc.c ****   }
 3269              		.loc 1 1610 44 view .LVU1083
 3270 0124 2361     		str	r3, [r4, #16]
 3271 0126 9BE7     		b	.L261
 3272              	.L262:
1639:lib/Drivers/STM32H7xx_HAL_Driver/Src/stm32h7xx_hal_rcc.c ****   {
 3273              		.loc 1 1639 8 is_stmt 1 view .LVU1084
1639:lib/Drivers/STM32H7xx_HAL_Driver/Src/stm32h7xx_hal_rcc.c ****   {
 3274              		.loc 1 1639 15 is_stmt 0 view .LVU1085
 3275 0128 094B     		ldr	r3, .L272
 3276 012a 1B6F     		ldr	r3, [r3, #112]
1639:lib/Drivers/STM32H7xx_HAL_Driver/Src/stm32h7xx_hal_rcc.c ****   {
 3277              		.loc 1 1639 10 view .LVU1086
 3278 012c 13F0010F 		tst	r3, #1
 3279 0130 02D0     		beq	.L264
1641:lib/Drivers/STM32H7xx_HAL_Driver/Src/stm32h7xx_hal_rcc.c ****   }
 3280              		.loc 1 1641 5 is_stmt 1 view .LVU1087
1641:lib/Drivers/STM32H7xx_HAL_Driver/Src/stm32h7xx_hal_rcc.c ****   }
 3281              		.loc 1 1641 33 is_stmt 0 view .LVU1088
 3282 0132 0123     		movs	r3, #1
 3283 0134 A360     		str	r3, [r4, #8]
 3284 0136 9AE7     		b	.L263
 3285              	.L264:
1645:lib/Drivers/STM32H7xx_HAL_Driver/Src/stm32h7xx_hal_rcc.c ****   }
 3286              		.loc 1 1645 5 is_stmt 1 view .LVU1089
1645:lib/Drivers/STM32H7xx_HAL_Driver/Src/stm32h7xx_hal_rcc.c ****   }
 3287              		.loc 1 1645 33 is_stmt 0 view .LVU1090
 3288 0138 0023     		movs	r3, #0
ARM GAS  /tmp/ccpTiR3W.s 			page 98


 3289 013a A360     		str	r3, [r4, #8]
 3290 013c 97E7     		b	.L263
 3291              	.L265:
1656:lib/Drivers/STM32H7xx_HAL_Driver/Src/stm32h7xx_hal_rcc.c ****   }
 3292              		.loc 1 1656 5 is_stmt 1 view .LVU1091
1656:lib/Drivers/STM32H7xx_HAL_Driver/Src/stm32h7xx_hal_rcc.c ****   }
 3293              		.loc 1 1656 33 is_stmt 0 view .LVU1092
 3294 013e 0023     		movs	r3, #0
 3295 0140 6361     		str	r3, [r4, #20]
 3296 0142 9BE7     		b	.L266
 3297              	.L267:
1666:lib/Drivers/STM32H7xx_HAL_Driver/Src/stm32h7xx_hal_rcc.c ****   }
 3298              		.loc 1 1666 5 is_stmt 1 view .LVU1093
1666:lib/Drivers/STM32H7xx_HAL_Driver/Src/stm32h7xx_hal_rcc.c ****   }
 3299              		.loc 1 1666 35 is_stmt 0 view .LVU1094
 3300 0144 0023     		movs	r3, #0
 3301 0146 A361     		str	r3, [r4, #24]
 3302 0148 9FE7     		b	.L268
 3303              	.L269:
1676:lib/Drivers/STM32H7xx_HAL_Driver/Src/stm32h7xx_hal_rcc.c ****   }
 3304              		.loc 1 1676 5 is_stmt 1 view .LVU1095
1676:lib/Drivers/STM32H7xx_HAL_Driver/Src/stm32h7xx_hal_rcc.c ****   }
 3305              		.loc 1 1676 37 is_stmt 0 view .LVU1096
 3306 014a 0123     		movs	r3, #1
 3307 014c 6362     		str	r3, [r4, #36]
 3308 014e A3E7     		b	.L270
 3309              	.L273:
 3310              		.align	2
 3311              	.L272:
 3312 0150 00440258 		.word	1476543488
 3313              		.cfi_endproc
 3314              	.LFE154:
 3316              		.section	.text.HAL_RCC_GetClockConfig,"ax",%progbits
 3317              		.align	1
 3318              		.global	HAL_RCC_GetClockConfig
 3319              		.syntax unified
 3320              		.thumb
 3321              		.thumb_func
 3323              	HAL_RCC_GetClockConfig:
 3324              	.LVL218:
 3325              	.LFB155:
1688:lib/Drivers/STM32H7xx_HAL_Driver/Src/stm32h7xx_hal_rcc.c **** 
1689:lib/Drivers/STM32H7xx_HAL_Driver/Src/stm32h7xx_hal_rcc.c **** /**
1690:lib/Drivers/STM32H7xx_HAL_Driver/Src/stm32h7xx_hal_rcc.c ****   * @brief  Configures the RCC_ClkInitStruct according to the internal
1691:lib/Drivers/STM32H7xx_HAL_Driver/Src/stm32h7xx_hal_rcc.c ****   * RCC configuration registers.
1692:lib/Drivers/STM32H7xx_HAL_Driver/Src/stm32h7xx_hal_rcc.c ****   * @param  RCC_ClkInitStruct: pointer to an RCC_ClkInitTypeDef structure that
1693:lib/Drivers/STM32H7xx_HAL_Driver/Src/stm32h7xx_hal_rcc.c ****   * will be configured.
1694:lib/Drivers/STM32H7xx_HAL_Driver/Src/stm32h7xx_hal_rcc.c ****   * @param  pFLatency: Pointer on the Flash Latency.
1695:lib/Drivers/STM32H7xx_HAL_Driver/Src/stm32h7xx_hal_rcc.c ****   * @retval None
1696:lib/Drivers/STM32H7xx_HAL_Driver/Src/stm32h7xx_hal_rcc.c ****   */
1697:lib/Drivers/STM32H7xx_HAL_Driver/Src/stm32h7xx_hal_rcc.c **** void HAL_RCC_GetClockConfig(RCC_ClkInitTypeDef  *RCC_ClkInitStruct, uint32_t *pFLatency)
1698:lib/Drivers/STM32H7xx_HAL_Driver/Src/stm32h7xx_hal_rcc.c **** {
 3326              		.loc 1 1698 1 is_stmt 1 view -0
 3327              		.cfi_startproc
 3328              		@ args = 0, pretend = 0, frame = 0
 3329              		@ frame_needed = 0, uses_anonymous_args = 0
 3330              		@ link register save eliminated.
ARM GAS  /tmp/ccpTiR3W.s 			page 99


1699:lib/Drivers/STM32H7xx_HAL_Driver/Src/stm32h7xx_hal_rcc.c ****   /* Set all possible values for the Clock type parameter --------------------*/
1700:lib/Drivers/STM32H7xx_HAL_Driver/Src/stm32h7xx_hal_rcc.c ****   RCC_ClkInitStruct->ClockType = RCC_CLOCKTYPE_SYSCLK | RCC_CLOCKTYPE_HCLK | RCC_CLOCKTYPE_D1PCLK1 
 3331              		.loc 1 1700 3 view .LVU1098
 3332              		.loc 1 1700 32 is_stmt 0 view .LVU1099
 3333 0000 3F23     		movs	r3, #63
 3334 0002 0360     		str	r3, [r0]
1701:lib/Drivers/STM32H7xx_HAL_Driver/Src/stm32h7xx_hal_rcc.c ****                                  RCC_CLOCKTYPE_PCLK2 |  RCC_CLOCKTYPE_D3PCLK1  ;
1702:lib/Drivers/STM32H7xx_HAL_Driver/Src/stm32h7xx_hal_rcc.c **** 
1703:lib/Drivers/STM32H7xx_HAL_Driver/Src/stm32h7xx_hal_rcc.c ****   /* Get the SYSCLK configuration --------------------------------------------*/
1704:lib/Drivers/STM32H7xx_HAL_Driver/Src/stm32h7xx_hal_rcc.c ****   RCC_ClkInitStruct->SYSCLKSource = (uint32_t)(RCC->CFGR & RCC_CFGR_SW);
 3335              		.loc 1 1704 3 is_stmt 1 view .LVU1100
 3336              		.loc 1 1704 51 is_stmt 0 view .LVU1101
 3337 0004 114B     		ldr	r3, .L275
 3338 0006 1A69     		ldr	r2, [r3, #16]
 3339              		.loc 1 1704 37 view .LVU1102
 3340 0008 02F00702 		and	r2, r2, #7
 3341              		.loc 1 1704 35 view .LVU1103
 3342 000c 4260     		str	r2, [r0, #4]
1705:lib/Drivers/STM32H7xx_HAL_Driver/Src/stm32h7xx_hal_rcc.c **** 
1706:lib/Drivers/STM32H7xx_HAL_Driver/Src/stm32h7xx_hal_rcc.c **** #if defined(RCC_D1CFGR_D1CPRE)
1707:lib/Drivers/STM32H7xx_HAL_Driver/Src/stm32h7xx_hal_rcc.c ****   /* Get the SYSCLK configuration ----------------------------------------------*/
1708:lib/Drivers/STM32H7xx_HAL_Driver/Src/stm32h7xx_hal_rcc.c ****   RCC_ClkInitStruct->SYSCLKDivider = (uint32_t)(RCC->D1CFGR & RCC_D1CFGR_D1CPRE);
 3343              		.loc 1 1708 3 is_stmt 1 view .LVU1104
 3344              		.loc 1 1708 52 is_stmt 0 view .LVU1105
 3345 000e 9A69     		ldr	r2, [r3, #24]
 3346              		.loc 1 1708 38 view .LVU1106
 3347 0010 02F47062 		and	r2, r2, #3840
 3348              		.loc 1 1708 36 view .LVU1107
 3349 0014 8260     		str	r2, [r0, #8]
1709:lib/Drivers/STM32H7xx_HAL_Driver/Src/stm32h7xx_hal_rcc.c **** 
1710:lib/Drivers/STM32H7xx_HAL_Driver/Src/stm32h7xx_hal_rcc.c ****   /* Get the D1HCLK configuration ----------------------------------------------*/
1711:lib/Drivers/STM32H7xx_HAL_Driver/Src/stm32h7xx_hal_rcc.c ****   RCC_ClkInitStruct->AHBCLKDivider = (uint32_t)(RCC->D1CFGR & RCC_D1CFGR_HPRE);
 3350              		.loc 1 1711 3 is_stmt 1 view .LVU1108
 3351              		.loc 1 1711 52 is_stmt 0 view .LVU1109
 3352 0016 9A69     		ldr	r2, [r3, #24]
 3353              		.loc 1 1711 38 view .LVU1110
 3354 0018 02F00F02 		and	r2, r2, #15
 3355              		.loc 1 1711 36 view .LVU1111
 3356 001c C260     		str	r2, [r0, #12]
1712:lib/Drivers/STM32H7xx_HAL_Driver/Src/stm32h7xx_hal_rcc.c **** 
1713:lib/Drivers/STM32H7xx_HAL_Driver/Src/stm32h7xx_hal_rcc.c ****   /* Get the APB3 configuration ----------------------------------------------*/
1714:lib/Drivers/STM32H7xx_HAL_Driver/Src/stm32h7xx_hal_rcc.c ****   RCC_ClkInitStruct->APB3CLKDivider = (uint32_t)(RCC->D1CFGR & RCC_D1CFGR_D1PPRE);
 3357              		.loc 1 1714 3 is_stmt 1 view .LVU1112
 3358              		.loc 1 1714 53 is_stmt 0 view .LVU1113
 3359 001e 9A69     		ldr	r2, [r3, #24]
 3360              		.loc 1 1714 39 view .LVU1114
 3361 0020 02F07002 		and	r2, r2, #112
 3362              		.loc 1 1714 37 view .LVU1115
 3363 0024 0261     		str	r2, [r0, #16]
1715:lib/Drivers/STM32H7xx_HAL_Driver/Src/stm32h7xx_hal_rcc.c **** 
1716:lib/Drivers/STM32H7xx_HAL_Driver/Src/stm32h7xx_hal_rcc.c ****   /* Get the APB1 configuration ----------------------------------------------*/
1717:lib/Drivers/STM32H7xx_HAL_Driver/Src/stm32h7xx_hal_rcc.c ****   RCC_ClkInitStruct->APB1CLKDivider = (uint32_t)(RCC->D2CFGR & RCC_D2CFGR_D2PPRE1);
 3364              		.loc 1 1717 3 is_stmt 1 view .LVU1116
 3365              		.loc 1 1717 53 is_stmt 0 view .LVU1117
 3366 0026 DA69     		ldr	r2, [r3, #28]
 3367              		.loc 1 1717 39 view .LVU1118
 3368 0028 02F07002 		and	r2, r2, #112
ARM GAS  /tmp/ccpTiR3W.s 			page 100


 3369              		.loc 1 1717 37 view .LVU1119
 3370 002c 4261     		str	r2, [r0, #20]
1718:lib/Drivers/STM32H7xx_HAL_Driver/Src/stm32h7xx_hal_rcc.c **** 
1719:lib/Drivers/STM32H7xx_HAL_Driver/Src/stm32h7xx_hal_rcc.c ****   /* Get the APB2 configuration ----------------------------------------------*/
1720:lib/Drivers/STM32H7xx_HAL_Driver/Src/stm32h7xx_hal_rcc.c ****   RCC_ClkInitStruct->APB2CLKDivider = (uint32_t)(RCC->D2CFGR & RCC_D2CFGR_D2PPRE2);
 3371              		.loc 1 1720 3 is_stmt 1 view .LVU1120
 3372              		.loc 1 1720 53 is_stmt 0 view .LVU1121
 3373 002e DA69     		ldr	r2, [r3, #28]
 3374              		.loc 1 1720 39 view .LVU1122
 3375 0030 02F4E062 		and	r2, r2, #1792
 3376              		.loc 1 1720 37 view .LVU1123
 3377 0034 8261     		str	r2, [r0, #24]
1721:lib/Drivers/STM32H7xx_HAL_Driver/Src/stm32h7xx_hal_rcc.c **** 
1722:lib/Drivers/STM32H7xx_HAL_Driver/Src/stm32h7xx_hal_rcc.c ****   /* Get the APB4 configuration ----------------------------------------------*/
1723:lib/Drivers/STM32H7xx_HAL_Driver/Src/stm32h7xx_hal_rcc.c ****   RCC_ClkInitStruct->APB4CLKDivider = (uint32_t)(RCC->D3CFGR & RCC_D3CFGR_D3PPRE);
 3378              		.loc 1 1723 3 is_stmt 1 view .LVU1124
 3379              		.loc 1 1723 53 is_stmt 0 view .LVU1125
 3380 0036 1B6A     		ldr	r3, [r3, #32]
 3381              		.loc 1 1723 39 view .LVU1126
 3382 0038 03F07003 		and	r3, r3, #112
 3383              		.loc 1 1723 37 view .LVU1127
 3384 003c C361     		str	r3, [r0, #28]
1724:lib/Drivers/STM32H7xx_HAL_Driver/Src/stm32h7xx_hal_rcc.c **** #else
1725:lib/Drivers/STM32H7xx_HAL_Driver/Src/stm32h7xx_hal_rcc.c ****   /* Get the SYSCLK configuration ----------------------------------------------*/
1726:lib/Drivers/STM32H7xx_HAL_Driver/Src/stm32h7xx_hal_rcc.c ****   RCC_ClkInitStruct->SYSCLKDivider = (uint32_t)(RCC->CDCFGR1 & RCC_CDCFGR1_CDCPRE);
1727:lib/Drivers/STM32H7xx_HAL_Driver/Src/stm32h7xx_hal_rcc.c **** 
1728:lib/Drivers/STM32H7xx_HAL_Driver/Src/stm32h7xx_hal_rcc.c ****   /* Get the D1HCLK configuration ----------------------------------------------*/
1729:lib/Drivers/STM32H7xx_HAL_Driver/Src/stm32h7xx_hal_rcc.c ****   RCC_ClkInitStruct->AHBCLKDivider = (uint32_t)(RCC->CDCFGR1 & RCC_CDCFGR1_HPRE);
1730:lib/Drivers/STM32H7xx_HAL_Driver/Src/stm32h7xx_hal_rcc.c **** 
1731:lib/Drivers/STM32H7xx_HAL_Driver/Src/stm32h7xx_hal_rcc.c ****   /* Get the APB3 configuration ----------------------------------------------*/
1732:lib/Drivers/STM32H7xx_HAL_Driver/Src/stm32h7xx_hal_rcc.c ****   RCC_ClkInitStruct->APB3CLKDivider = (uint32_t)(RCC->CDCFGR1 & RCC_CDCFGR1_CDPPRE);
1733:lib/Drivers/STM32H7xx_HAL_Driver/Src/stm32h7xx_hal_rcc.c **** 
1734:lib/Drivers/STM32H7xx_HAL_Driver/Src/stm32h7xx_hal_rcc.c ****   /* Get the APB1 configuration ----------------------------------------------*/
1735:lib/Drivers/STM32H7xx_HAL_Driver/Src/stm32h7xx_hal_rcc.c ****   RCC_ClkInitStruct->APB1CLKDivider = (uint32_t)(RCC->CDCFGR2 & RCC_CDCFGR2_CDPPRE1);
1736:lib/Drivers/STM32H7xx_HAL_Driver/Src/stm32h7xx_hal_rcc.c **** 
1737:lib/Drivers/STM32H7xx_HAL_Driver/Src/stm32h7xx_hal_rcc.c ****   /* Get the APB2 configuration ----------------------------------------------*/
1738:lib/Drivers/STM32H7xx_HAL_Driver/Src/stm32h7xx_hal_rcc.c ****   RCC_ClkInitStruct->APB2CLKDivider = (uint32_t)(RCC->CDCFGR2 & RCC_CDCFGR2_CDPPRE2);
1739:lib/Drivers/STM32H7xx_HAL_Driver/Src/stm32h7xx_hal_rcc.c **** 
1740:lib/Drivers/STM32H7xx_HAL_Driver/Src/stm32h7xx_hal_rcc.c ****   /* Get the APB4 configuration ----------------------------------------------*/
1741:lib/Drivers/STM32H7xx_HAL_Driver/Src/stm32h7xx_hal_rcc.c ****   RCC_ClkInitStruct->APB4CLKDivider = (uint32_t)(RCC->SRDCFGR & RCC_SRDCFGR_SRDPPRE);
1742:lib/Drivers/STM32H7xx_HAL_Driver/Src/stm32h7xx_hal_rcc.c **** #endif
1743:lib/Drivers/STM32H7xx_HAL_Driver/Src/stm32h7xx_hal_rcc.c **** 
1744:lib/Drivers/STM32H7xx_HAL_Driver/Src/stm32h7xx_hal_rcc.c ****   /* Get the Flash Wait State (Latency) configuration ------------------------*/
1745:lib/Drivers/STM32H7xx_HAL_Driver/Src/stm32h7xx_hal_rcc.c ****   *pFLatency = (uint32_t)(FLASH->ACR & FLASH_ACR_LATENCY);
 3385              		.loc 1 1745 3 is_stmt 1 view .LVU1128
 3386              		.loc 1 1745 32 is_stmt 0 view .LVU1129
 3387 003e 044B     		ldr	r3, .L275+4
 3388 0040 1B68     		ldr	r3, [r3]
 3389              		.loc 1 1745 16 view .LVU1130
 3390 0042 03F00F03 		and	r3, r3, #15
 3391              		.loc 1 1745 14 view .LVU1131
 3392 0046 0B60     		str	r3, [r1]
1746:lib/Drivers/STM32H7xx_HAL_Driver/Src/stm32h7xx_hal_rcc.c **** }
 3393              		.loc 1 1746 1 view .LVU1132
 3394 0048 7047     		bx	lr
 3395              	.L276:
 3396 004a 00BF     		.align	2
ARM GAS  /tmp/ccpTiR3W.s 			page 101


 3397              	.L275:
 3398 004c 00440258 		.word	1476543488
 3399 0050 00200052 		.word	1375739904
 3400              		.cfi_endproc
 3401              	.LFE155:
 3403              		.section	.text.HAL_RCC_CSSCallback,"ax",%progbits
 3404              		.align	1
 3405              		.weak	HAL_RCC_CSSCallback
 3406              		.syntax unified
 3407              		.thumb
 3408              		.thumb_func
 3410              	HAL_RCC_CSSCallback:
 3411              	.LFB157:
1747:lib/Drivers/STM32H7xx_HAL_Driver/Src/stm32h7xx_hal_rcc.c **** 
1748:lib/Drivers/STM32H7xx_HAL_Driver/Src/stm32h7xx_hal_rcc.c **** /**
1749:lib/Drivers/STM32H7xx_HAL_Driver/Src/stm32h7xx_hal_rcc.c ****   * @brief This function handles the RCC CSS interrupt request.
1750:lib/Drivers/STM32H7xx_HAL_Driver/Src/stm32h7xx_hal_rcc.c ****   * @note This API should be called under the NMI_Handler().
1751:lib/Drivers/STM32H7xx_HAL_Driver/Src/stm32h7xx_hal_rcc.c ****   * @retval None
1752:lib/Drivers/STM32H7xx_HAL_Driver/Src/stm32h7xx_hal_rcc.c ****   */
1753:lib/Drivers/STM32H7xx_HAL_Driver/Src/stm32h7xx_hal_rcc.c **** void HAL_RCC_NMI_IRQHandler(void)
1754:lib/Drivers/STM32H7xx_HAL_Driver/Src/stm32h7xx_hal_rcc.c **** {
1755:lib/Drivers/STM32H7xx_HAL_Driver/Src/stm32h7xx_hal_rcc.c ****   /* Check RCC CSSF flag  */
1756:lib/Drivers/STM32H7xx_HAL_Driver/Src/stm32h7xx_hal_rcc.c ****   if(__HAL_RCC_GET_IT(RCC_IT_CSS))
1757:lib/Drivers/STM32H7xx_HAL_Driver/Src/stm32h7xx_hal_rcc.c ****   {
1758:lib/Drivers/STM32H7xx_HAL_Driver/Src/stm32h7xx_hal_rcc.c ****     /* RCC Clock Security System interrupt user callback */
1759:lib/Drivers/STM32H7xx_HAL_Driver/Src/stm32h7xx_hal_rcc.c ****     HAL_RCC_CCSCallback();
1760:lib/Drivers/STM32H7xx_HAL_Driver/Src/stm32h7xx_hal_rcc.c **** 
1761:lib/Drivers/STM32H7xx_HAL_Driver/Src/stm32h7xx_hal_rcc.c ****     /* Clear RCC CSS pending bit */
1762:lib/Drivers/STM32H7xx_HAL_Driver/Src/stm32h7xx_hal_rcc.c ****     __HAL_RCC_CLEAR_IT(RCC_IT_CSS);
1763:lib/Drivers/STM32H7xx_HAL_Driver/Src/stm32h7xx_hal_rcc.c ****   }
1764:lib/Drivers/STM32H7xx_HAL_Driver/Src/stm32h7xx_hal_rcc.c **** }
1765:lib/Drivers/STM32H7xx_HAL_Driver/Src/stm32h7xx_hal_rcc.c **** 
1766:lib/Drivers/STM32H7xx_HAL_Driver/Src/stm32h7xx_hal_rcc.c **** /**
1767:lib/Drivers/STM32H7xx_HAL_Driver/Src/stm32h7xx_hal_rcc.c ****   * @brief  RCC Clock Security System interrupt callback
1768:lib/Drivers/STM32H7xx_HAL_Driver/Src/stm32h7xx_hal_rcc.c ****   * @retval none
1769:lib/Drivers/STM32H7xx_HAL_Driver/Src/stm32h7xx_hal_rcc.c ****   */
1770:lib/Drivers/STM32H7xx_HAL_Driver/Src/stm32h7xx_hal_rcc.c **** __weak void HAL_RCC_CCSCallback(void)
1771:lib/Drivers/STM32H7xx_HAL_Driver/Src/stm32h7xx_hal_rcc.c **** {
 3412              		.loc 1 1771 1 is_stmt 1 view -0
 3413              		.cfi_startproc
 3414              		@ args = 0, pretend = 0, frame = 0
 3415              		@ frame_needed = 0, uses_anonymous_args = 0
 3416              		@ link register save eliminated.
1772:lib/Drivers/STM32H7xx_HAL_Driver/Src/stm32h7xx_hal_rcc.c ****   /* NOTE : This function Should not be modified, when the callback is needed,
1773:lib/Drivers/STM32H7xx_HAL_Driver/Src/stm32h7xx_hal_rcc.c ****             the HAL_RCC_CCSCallback could be implemented in the user file
1774:lib/Drivers/STM32H7xx_HAL_Driver/Src/stm32h7xx_hal_rcc.c ****    */
1775:lib/Drivers/STM32H7xx_HAL_Driver/Src/stm32h7xx_hal_rcc.c **** }
 3417              		.loc 1 1775 1 view .LVU1134
 3418 0000 7047     		bx	lr
 3419              		.cfi_endproc
 3420              	.LFE157:
 3422              		.section	.text.HAL_RCC_NMI_IRQHandler,"ax",%progbits
 3423              		.align	1
 3424              		.global	HAL_RCC_NMI_IRQHandler
 3425              		.syntax unified
 3426              		.thumb
 3427              		.thumb_func
ARM GAS  /tmp/ccpTiR3W.s 			page 102


 3429              	HAL_RCC_NMI_IRQHandler:
 3430              	.LFB156:
1754:lib/Drivers/STM32H7xx_HAL_Driver/Src/stm32h7xx_hal_rcc.c ****   /* Check RCC CSSF flag  */
 3431              		.loc 1 1754 1 view -0
 3432              		.cfi_startproc
 3433              		@ args = 0, pretend = 0, frame = 0
 3434              		@ frame_needed = 0, uses_anonymous_args = 0
 3435 0000 08B5     		push	{r3, lr}
 3436              	.LCFI19:
 3437              		.cfi_def_cfa_offset 8
 3438              		.cfi_offset 3, -8
 3439              		.cfi_offset 14, -4
1756:lib/Drivers/STM32H7xx_HAL_Driver/Src/stm32h7xx_hal_rcc.c ****   {
 3440              		.loc 1 1756 3 view .LVU1136
1756:lib/Drivers/STM32H7xx_HAL_Driver/Src/stm32h7xx_hal_rcc.c ****   {
 3441              		.loc 1 1756 6 is_stmt 0 view .LVU1137
 3442 0002 064B     		ldr	r3, .L282
 3443 0004 5B6E     		ldr	r3, [r3, #100]
1756:lib/Drivers/STM32H7xx_HAL_Driver/Src/stm32h7xx_hal_rcc.c ****   {
 3444              		.loc 1 1756 5 view .LVU1138
 3445 0006 13F4806F 		tst	r3, #1024
 3446 000a 00D1     		bne	.L281
 3447              	.L278:
1764:lib/Drivers/STM32H7xx_HAL_Driver/Src/stm32h7xx_hal_rcc.c **** 
 3448              		.loc 1 1764 1 view .LVU1139
 3449 000c 08BD     		pop	{r3, pc}
 3450              	.L281:
1759:lib/Drivers/STM32H7xx_HAL_Driver/Src/stm32h7xx_hal_rcc.c **** 
 3451              		.loc 1 1759 5 is_stmt 1 view .LVU1140
 3452 000e FFF7FEFF 		bl	HAL_RCC_CSSCallback
 3453              	.LVL219:
1762:lib/Drivers/STM32H7xx_HAL_Driver/Src/stm32h7xx_hal_rcc.c ****   }
 3454              		.loc 1 1762 5 view .LVU1141
 3455 0012 024B     		ldr	r3, .L282
 3456 0014 4FF48062 		mov	r2, #1024
 3457 0018 9A66     		str	r2, [r3, #104]
1764:lib/Drivers/STM32H7xx_HAL_Driver/Src/stm32h7xx_hal_rcc.c **** 
 3458              		.loc 1 1764 1 is_stmt 0 view .LVU1142
 3459 001a F7E7     		b	.L278
 3460              	.L283:
 3461              		.align	2
 3462              	.L282:
 3463 001c 00440258 		.word	1476543488
 3464              		.cfi_endproc
 3465              	.LFE156:
 3467              		.text
 3468              	.Letext0:
 3469              		.file 2 "/usr/arm-none-eabi/include/machine/_default_types.h"
 3470              		.file 3 "/usr/arm-none-eabi/include/sys/_stdint.h"
 3471              		.file 4 "lib/Drivers/CMSIS/Device/ST/STM32H7xx/Include/system_stm32h7xx.h"
 3472              		.file 5 "lib/Drivers/CMSIS/Device/ST/STM32H7xx/Include/stm32h750xx.h"
 3473              		.file 6 "/usr/arm-none-eabi/include/math.h"
 3474              		.file 7 "lib/Drivers/STM32H7xx_HAL_Driver/Inc/stm32h7xx_hal_def.h"
 3475              		.file 8 "lib/Drivers/STM32H7xx_HAL_Driver/Inc/stm32h7xx_hal_rcc.h"
 3476              		.file 9 "lib/Drivers/STM32H7xx_HAL_Driver/Inc/stm32h7xx_hal_gpio.h"
 3477              		.file 10 "lib/Drivers/STM32H7xx_HAL_Driver/Inc/stm32h7xx_hal.h"
ARM GAS  /tmp/ccpTiR3W.s 			page 103


DEFINED SYMBOLS
                            *ABS*:0000000000000000 stm32h7xx_hal_rcc.c
     /tmp/ccpTiR3W.s:20     .text.HAL_RCC_DeInit:0000000000000000 $t
     /tmp/ccpTiR3W.s:26     .text.HAL_RCC_DeInit:0000000000000000 HAL_RCC_DeInit
     /tmp/ccpTiR3W.s:372    .text.HAL_RCC_DeInit:00000000000001a4 $d
     /tmp/ccpTiR3W.s:386    .text.HAL_RCC_OscConfig:0000000000000000 $t
     /tmp/ccpTiR3W.s:392    .text.HAL_RCC_OscConfig:0000000000000000 HAL_RCC_OscConfig
     /tmp/ccpTiR3W.s:906    .text.HAL_RCC_OscConfig:0000000000000264 $d
     /tmp/ccpTiR3W.s:913    .text.HAL_RCC_OscConfig:0000000000000268 $t
     /tmp/ccpTiR3W.s:1420   .text.HAL_RCC_OscConfig:00000000000004f8 $d
     /tmp/ccpTiR3W.s:1434   .text.HAL_RCC_OscConfig:0000000000000500 $t
     /tmp/ccpTiR3W.s:1747   .text.HAL_RCC_OscConfig:0000000000000668 $d
     /tmp/ccpTiR3W.s:1754   .text.HAL_RCC_MCOConfig:0000000000000000 $t
     /tmp/ccpTiR3W.s:1760   .text.HAL_RCC_MCOConfig:0000000000000000 HAL_RCC_MCOConfig
     /tmp/ccpTiR3W.s:1910   .text.HAL_RCC_MCOConfig:0000000000000098 $d
     /tmp/ccpTiR3W.s:1917   .text.HAL_RCC_EnableCSS:0000000000000000 $t
     /tmp/ccpTiR3W.s:1923   .text.HAL_RCC_EnableCSS:0000000000000000 HAL_RCC_EnableCSS
     /tmp/ccpTiR3W.s:1940   .text.HAL_RCC_EnableCSS:000000000000000c $d
     /tmp/ccpTiR3W.s:1945   .text.HAL_RCC_DisableCSS:0000000000000000 $t
     /tmp/ccpTiR3W.s:1951   .text.HAL_RCC_DisableCSS:0000000000000000 HAL_RCC_DisableCSS
     /tmp/ccpTiR3W.s:1968   .text.HAL_RCC_DisableCSS:000000000000000c $d
     /tmp/ccpTiR3W.s:1973   .text.HAL_RCC_GetSysClockFreq:0000000000000000 $t
     /tmp/ccpTiR3W.s:1979   .text.HAL_RCC_GetSysClockFreq:0000000000000000 HAL_RCC_GetSysClockFreq
     /tmp/ccpTiR3W.s:2294   .text.HAL_RCC_GetSysClockFreq:00000000000001d4 $d
     /tmp/ccpTiR3W.s:2306   .text.HAL_RCC_ClockConfig:0000000000000000 $t
     /tmp/ccpTiR3W.s:2312   .text.HAL_RCC_ClockConfig:0000000000000000 HAL_RCC_ClockConfig
     /tmp/ccpTiR3W.s:2838   .text.HAL_RCC_ClockConfig:000000000000027c $d
     /tmp/ccpTiR3W.s:2848   .text.HAL_RCC_GetHCLKFreq:0000000000000000 $t
     /tmp/ccpTiR3W.s:2854   .text.HAL_RCC_GetHCLKFreq:0000000000000000 HAL_RCC_GetHCLKFreq
     /tmp/ccpTiR3W.s:2909   .text.HAL_RCC_GetHCLKFreq:0000000000000034 $d
     /tmp/ccpTiR3W.s:2917   .text.HAL_RCC_GetPCLK1Freq:0000000000000000 $t
     /tmp/ccpTiR3W.s:2923   .text.HAL_RCC_GetPCLK1Freq:0000000000000000 HAL_RCC_GetPCLK1Freq
     /tmp/ccpTiR3W.s:2954   .text.HAL_RCC_GetPCLK1Freq:000000000000001c $d
     /tmp/ccpTiR3W.s:2960   .text.HAL_RCC_GetPCLK2Freq:0000000000000000 $t
     /tmp/ccpTiR3W.s:2966   .text.HAL_RCC_GetPCLK2Freq:0000000000000000 HAL_RCC_GetPCLK2Freq
     /tmp/ccpTiR3W.s:2997   .text.HAL_RCC_GetPCLK2Freq:000000000000001c $d
     /tmp/ccpTiR3W.s:3003   .text.HAL_RCC_GetOscConfig:0000000000000000 $t
     /tmp/ccpTiR3W.s:3009   .text.HAL_RCC_GetOscConfig:0000000000000000 HAL_RCC_GetOscConfig
     /tmp/ccpTiR3W.s:3312   .text.HAL_RCC_GetOscConfig:0000000000000150 $d
     /tmp/ccpTiR3W.s:3317   .text.HAL_RCC_GetClockConfig:0000000000000000 $t
     /tmp/ccpTiR3W.s:3323   .text.HAL_RCC_GetClockConfig:0000000000000000 HAL_RCC_GetClockConfig
     /tmp/ccpTiR3W.s:3398   .text.HAL_RCC_GetClockConfig:000000000000004c $d
     /tmp/ccpTiR3W.s:3404   .text.HAL_RCC_CSSCallback:0000000000000000 $t
     /tmp/ccpTiR3W.s:3410   .text.HAL_RCC_CSSCallback:0000000000000000 HAL_RCC_CSSCallback
     /tmp/ccpTiR3W.s:3423   .text.HAL_RCC_NMI_IRQHandler:0000000000000000 $t
     /tmp/ccpTiR3W.s:3429   .text.HAL_RCC_NMI_IRQHandler:0000000000000000 HAL_RCC_NMI_IRQHandler
     /tmp/ccpTiR3W.s:3463   .text.HAL_RCC_NMI_IRQHandler:000000000000001c $d

UNDEFINED SYMBOLS
HAL_GetTick
HAL_InitTick
SystemCoreClock
SystemD2Clock
uwTickPrio
HAL_GetREVID
HAL_GPIO_Init
D1CorePrescTable
ARM GAS  /tmp/ccpTiR3W.s 			page 104


