ARM GAS  /tmp/ccxxvisT.s 			page 1


   1              		.cpu cortex-m7
   2              		.arch armv7e-m
   3              		.fpu fpv5-d16
   4              		.eabi_attribute 28, 1
   5              		.eabi_attribute 20, 1
   6              		.eabi_attribute 21, 1
   7              		.eabi_attribute 23, 3
   8              		.eabi_attribute 24, 1
   9              		.eabi_attribute 25, 1
  10              		.eabi_attribute 26, 1
  11              		.eabi_attribute 30, 1
  12              		.eabi_attribute 34, 1
  13              		.eabi_attribute 18, 4
  14              		.file	"system_stm32h7xx.c"
  15              		.text
  16              	.Ltext0:
  17              		.cfi_sections	.debug_frame
  18              		.file 1 "lib/Core/Src/system_stm32h7xx.c"
  19              		.section	.text.SystemInit,"ax",%progbits
  20              		.align	1
  21              		.global	SystemInit
  22              		.syntax unified
  23              		.thumb
  24              		.thumb_func
  26              	SystemInit:
  27              	.LFB144:
   1:lib/Core/Src/system_stm32h7xx.c **** /**
   2:lib/Core/Src/system_stm32h7xx.c ****   ******************************************************************************
   3:lib/Core/Src/system_stm32h7xx.c ****   * @file    system_stm32h7xx.c
   4:lib/Core/Src/system_stm32h7xx.c ****   * @author  MCD Application Team
   5:lib/Core/Src/system_stm32h7xx.c ****   * @brief   CMSIS Cortex-Mx Device Peripheral Access Layer System Source File.
   6:lib/Core/Src/system_stm32h7xx.c ****   *
   7:lib/Core/Src/system_stm32h7xx.c ****   *   This file provides two functions and one global variable to be called from
   8:lib/Core/Src/system_stm32h7xx.c ****   *   user application:
   9:lib/Core/Src/system_stm32h7xx.c ****   *      - SystemInit(): This function is called at startup just after reset and
  10:lib/Core/Src/system_stm32h7xx.c ****   *                      before branch to main program. This call is made inside
  11:lib/Core/Src/system_stm32h7xx.c ****   *                      the "startup_stm32h7xx.s" file.
  12:lib/Core/Src/system_stm32h7xx.c ****   *
  13:lib/Core/Src/system_stm32h7xx.c ****   *      - SystemCoreClock variable: Contains the core clock, it can be used
  14:lib/Core/Src/system_stm32h7xx.c ****   *                                  by the user application to setup the SysTick
  15:lib/Core/Src/system_stm32h7xx.c ****   *                                  timer or configure other parameters.
  16:lib/Core/Src/system_stm32h7xx.c ****   *
  17:lib/Core/Src/system_stm32h7xx.c ****   *      - SystemCoreClockUpdate(): Updates the variable SystemCoreClock and must
  18:lib/Core/Src/system_stm32h7xx.c ****   *                                 be called whenever the core clock is changed
  19:lib/Core/Src/system_stm32h7xx.c ****   *                                 during program execution.
  20:lib/Core/Src/system_stm32h7xx.c ****   *
  21:lib/Core/Src/system_stm32h7xx.c ****   *
  22:lib/Core/Src/system_stm32h7xx.c ****   ******************************************************************************
  23:lib/Core/Src/system_stm32h7xx.c ****   * @attention
  24:lib/Core/Src/system_stm32h7xx.c ****   *
  25:lib/Core/Src/system_stm32h7xx.c ****   * Copyright (c) 2017 STMicroelectronics.
  26:lib/Core/Src/system_stm32h7xx.c ****   * All rights reserved.
  27:lib/Core/Src/system_stm32h7xx.c ****   *
  28:lib/Core/Src/system_stm32h7xx.c ****   * This software is licensed under terms that can be found in the LICENSE file
  29:lib/Core/Src/system_stm32h7xx.c ****   * in the root directory of this software component.
  30:lib/Core/Src/system_stm32h7xx.c ****   * If no LICENSE file comes with this software, it is provided AS-IS.
  31:lib/Core/Src/system_stm32h7xx.c ****   *
ARM GAS  /tmp/ccxxvisT.s 			page 2


  32:lib/Core/Src/system_stm32h7xx.c ****   ******************************************************************************
  33:lib/Core/Src/system_stm32h7xx.c ****   */
  34:lib/Core/Src/system_stm32h7xx.c **** 
  35:lib/Core/Src/system_stm32h7xx.c **** /** @addtogroup CMSIS
  36:lib/Core/Src/system_stm32h7xx.c ****   * @{
  37:lib/Core/Src/system_stm32h7xx.c ****   */
  38:lib/Core/Src/system_stm32h7xx.c **** 
  39:lib/Core/Src/system_stm32h7xx.c **** /** @addtogroup stm32h7xx_system
  40:lib/Core/Src/system_stm32h7xx.c ****   * @{
  41:lib/Core/Src/system_stm32h7xx.c ****   */
  42:lib/Core/Src/system_stm32h7xx.c **** 
  43:lib/Core/Src/system_stm32h7xx.c **** /** @addtogroup STM32H7xx_System_Private_Includes
  44:lib/Core/Src/system_stm32h7xx.c ****   * @{
  45:lib/Core/Src/system_stm32h7xx.c ****   */
  46:lib/Core/Src/system_stm32h7xx.c **** 
  47:lib/Core/Src/system_stm32h7xx.c **** #include "stm32h7xx.h"
  48:lib/Core/Src/system_stm32h7xx.c **** #include <math.h>
  49:lib/Core/Src/system_stm32h7xx.c **** #if !defined  (HSE_VALUE)
  50:lib/Core/Src/system_stm32h7xx.c **** #define HSE_VALUE    ((uint32_t)25000000) /*!< Value of the External oscillator in Hz */
  51:lib/Core/Src/system_stm32h7xx.c **** #endif /* HSE_VALUE */
  52:lib/Core/Src/system_stm32h7xx.c **** 
  53:lib/Core/Src/system_stm32h7xx.c **** #if !defined  (CSI_VALUE)
  54:lib/Core/Src/system_stm32h7xx.c ****   #define CSI_VALUE    ((uint32_t)4000000) /*!< Value of the Internal oscillator in Hz*/
  55:lib/Core/Src/system_stm32h7xx.c **** #endif /* CSI_VALUE */
  56:lib/Core/Src/system_stm32h7xx.c **** 
  57:lib/Core/Src/system_stm32h7xx.c **** #if !defined  (HSI_VALUE)
  58:lib/Core/Src/system_stm32h7xx.c ****   #define HSI_VALUE    ((uint32_t)64000000) /*!< Value of the Internal oscillator in Hz*/
  59:lib/Core/Src/system_stm32h7xx.c **** #endif /* HSI_VALUE */
  60:lib/Core/Src/system_stm32h7xx.c **** 
  61:lib/Core/Src/system_stm32h7xx.c **** 
  62:lib/Core/Src/system_stm32h7xx.c **** /**
  63:lib/Core/Src/system_stm32h7xx.c ****   * @}
  64:lib/Core/Src/system_stm32h7xx.c ****   */
  65:lib/Core/Src/system_stm32h7xx.c **** 
  66:lib/Core/Src/system_stm32h7xx.c **** /** @addtogroup STM32H7xx_System_Private_TypesDefinitions
  67:lib/Core/Src/system_stm32h7xx.c ****   * @{
  68:lib/Core/Src/system_stm32h7xx.c ****   */
  69:lib/Core/Src/system_stm32h7xx.c **** 
  70:lib/Core/Src/system_stm32h7xx.c **** /**
  71:lib/Core/Src/system_stm32h7xx.c ****   * @}
  72:lib/Core/Src/system_stm32h7xx.c ****   */
  73:lib/Core/Src/system_stm32h7xx.c **** 
  74:lib/Core/Src/system_stm32h7xx.c **** /** @addtogroup STM32H7xx_System_Private_Defines
  75:lib/Core/Src/system_stm32h7xx.c ****   * @{
  76:lib/Core/Src/system_stm32h7xx.c ****   */
  77:lib/Core/Src/system_stm32h7xx.c **** 
  78:lib/Core/Src/system_stm32h7xx.c **** /************************* Miscellaneous Configuration ************************/
  79:lib/Core/Src/system_stm32h7xx.c **** /*!< Uncomment the following line if you need to use initialized data in D2 domain SRAM (AHB SRAM) 
  80:lib/Core/Src/system_stm32h7xx.c **** /* #define DATA_IN_D2_SRAM */
  81:lib/Core/Src/system_stm32h7xx.c **** 
  82:lib/Core/Src/system_stm32h7xx.c **** /* Note: Following vector table addresses must be defined in line with linker
  83:lib/Core/Src/system_stm32h7xx.c ****          configuration. */
  84:lib/Core/Src/system_stm32h7xx.c **** /*!< Uncomment the following line if you need to relocate the vector table
  85:lib/Core/Src/system_stm32h7xx.c ****      anywhere in FLASH BANK1 or AXI SRAM, else the vector table is kept at the automatic
  86:lib/Core/Src/system_stm32h7xx.c ****      remap of boot address selected */
  87:lib/Core/Src/system_stm32h7xx.c **** /* #define USER_VECT_TAB_ADDRESS */
  88:lib/Core/Src/system_stm32h7xx.c **** 
ARM GAS  /tmp/ccxxvisT.s 			page 3


  89:lib/Core/Src/system_stm32h7xx.c **** #if defined(USER_VECT_TAB_ADDRESS)
  90:lib/Core/Src/system_stm32h7xx.c **** #if defined(DUAL_CORE) && defined(CORE_CM4)
  91:lib/Core/Src/system_stm32h7xx.c **** /*!< Uncomment the following line if you need to relocate your vector Table
  92:lib/Core/Src/system_stm32h7xx.c ****      in D2 AXI SRAM else user remap will be done in FLASH BANK2. */
  93:lib/Core/Src/system_stm32h7xx.c **** /* #define VECT_TAB_SRAM */
  94:lib/Core/Src/system_stm32h7xx.c **** #if defined(VECT_TAB_SRAM)
  95:lib/Core/Src/system_stm32h7xx.c **** #define VECT_TAB_BASE_ADDRESS   D2_AXISRAM_BASE   /*!< Vector Table base address field.
  96:lib/Core/Src/system_stm32h7xx.c ****                                                        This value must be a multiple of 0x200. */
  97:lib/Core/Src/system_stm32h7xx.c **** #define VECT_TAB_OFFSET         0x00000000U       /*!< Vector Table base offset field.
  98:lib/Core/Src/system_stm32h7xx.c ****                                                        This value must be a multiple of 0x200. */
  99:lib/Core/Src/system_stm32h7xx.c **** #else
 100:lib/Core/Src/system_stm32h7xx.c **** #define VECT_TAB_BASE_ADDRESS   FLASH_BANK2_BASE  /*!< Vector Table base address field.
 101:lib/Core/Src/system_stm32h7xx.c ****                                                        This value must be a multiple of 0x200. */
 102:lib/Core/Src/system_stm32h7xx.c **** #define VECT_TAB_OFFSET         0x00000000U       /*!< Vector Table base offset field.
 103:lib/Core/Src/system_stm32h7xx.c ****                                                        This value must be a multiple of 0x200. */
 104:lib/Core/Src/system_stm32h7xx.c **** #endif /* VECT_TAB_SRAM */
 105:lib/Core/Src/system_stm32h7xx.c **** #else
 106:lib/Core/Src/system_stm32h7xx.c **** /*!< Uncomment the following line if you need to relocate your vector Table
 107:lib/Core/Src/system_stm32h7xx.c ****      in D1 AXI SRAM else user remap will be done in FLASH BANK1. */
 108:lib/Core/Src/system_stm32h7xx.c **** /* #define VECT_TAB_SRAM */
 109:lib/Core/Src/system_stm32h7xx.c **** #if defined(VECT_TAB_SRAM)
 110:lib/Core/Src/system_stm32h7xx.c **** #define VECT_TAB_BASE_ADDRESS   D1_AXISRAM_BASE   /*!< Vector Table base address field.
 111:lib/Core/Src/system_stm32h7xx.c ****                                                        This value must be a multiple of 0x200. */
 112:lib/Core/Src/system_stm32h7xx.c **** #define VECT_TAB_OFFSET         0x00000000U       /*!< Vector Table base offset field.
 113:lib/Core/Src/system_stm32h7xx.c ****                                                        This value must be a multiple of 0x200. */
 114:lib/Core/Src/system_stm32h7xx.c **** #else
 115:lib/Core/Src/system_stm32h7xx.c **** #define VECT_TAB_BASE_ADDRESS   FLASH_BANK1_BASE  /*!< Vector Table base address field.
 116:lib/Core/Src/system_stm32h7xx.c ****                                                        This value must be a multiple of 0x200. */
 117:lib/Core/Src/system_stm32h7xx.c **** #define VECT_TAB_OFFSET         0x00000000U       /*!< Vector Table base offset field.
 118:lib/Core/Src/system_stm32h7xx.c ****                                                        This value must be a multiple of 0x200. */
 119:lib/Core/Src/system_stm32h7xx.c **** #endif /* VECT_TAB_SRAM */
 120:lib/Core/Src/system_stm32h7xx.c **** #endif /* DUAL_CORE && CORE_CM4 */
 121:lib/Core/Src/system_stm32h7xx.c **** #endif /* USER_VECT_TAB_ADDRESS */
 122:lib/Core/Src/system_stm32h7xx.c **** /******************************************************************************/
 123:lib/Core/Src/system_stm32h7xx.c **** 
 124:lib/Core/Src/system_stm32h7xx.c **** /**
 125:lib/Core/Src/system_stm32h7xx.c ****   * @}
 126:lib/Core/Src/system_stm32h7xx.c ****   */
 127:lib/Core/Src/system_stm32h7xx.c **** 
 128:lib/Core/Src/system_stm32h7xx.c **** /** @addtogroup STM32H7xx_System_Private_Macros
 129:lib/Core/Src/system_stm32h7xx.c ****   * @{
 130:lib/Core/Src/system_stm32h7xx.c ****   */
 131:lib/Core/Src/system_stm32h7xx.c **** 
 132:lib/Core/Src/system_stm32h7xx.c **** /**
 133:lib/Core/Src/system_stm32h7xx.c ****   * @}
 134:lib/Core/Src/system_stm32h7xx.c ****   */
 135:lib/Core/Src/system_stm32h7xx.c **** 
 136:lib/Core/Src/system_stm32h7xx.c **** /** @addtogroup STM32H7xx_System_Private_Variables
 137:lib/Core/Src/system_stm32h7xx.c ****   * @{
 138:lib/Core/Src/system_stm32h7xx.c ****   */
 139:lib/Core/Src/system_stm32h7xx.c ****   /* This variable is updated in three ways:
 140:lib/Core/Src/system_stm32h7xx.c ****       1) by calling CMSIS function SystemCoreClockUpdate()
 141:lib/Core/Src/system_stm32h7xx.c ****       2) by calling HAL API function HAL_RCC_GetHCLKFreq()
 142:lib/Core/Src/system_stm32h7xx.c ****       3) each time HAL_RCC_ClockConfig() is called to configure the system clock frequency
 143:lib/Core/Src/system_stm32h7xx.c ****          Note: If you use this function to configure the system clock; then there
 144:lib/Core/Src/system_stm32h7xx.c ****                is no need to call the 2 first functions listed above, since SystemCoreClock
 145:lib/Core/Src/system_stm32h7xx.c ****                variable is updated automatically.
ARM GAS  /tmp/ccxxvisT.s 			page 4


 146:lib/Core/Src/system_stm32h7xx.c ****   */
 147:lib/Core/Src/system_stm32h7xx.c ****   uint32_t SystemCoreClock = 64000000;
 148:lib/Core/Src/system_stm32h7xx.c ****   uint32_t SystemD2Clock = 64000000;
 149:lib/Core/Src/system_stm32h7xx.c ****   const  uint8_t D1CorePrescTable[16] = {0, 0, 0, 0, 1, 2, 3, 4, 1, 2, 3, 4, 6, 7, 8, 9};
 150:lib/Core/Src/system_stm32h7xx.c **** 
 151:lib/Core/Src/system_stm32h7xx.c **** /**
 152:lib/Core/Src/system_stm32h7xx.c ****   * @}
 153:lib/Core/Src/system_stm32h7xx.c ****   */
 154:lib/Core/Src/system_stm32h7xx.c **** 
 155:lib/Core/Src/system_stm32h7xx.c **** /** @addtogroup STM32H7xx_System_Private_FunctionPrototypes
 156:lib/Core/Src/system_stm32h7xx.c ****   * @{
 157:lib/Core/Src/system_stm32h7xx.c ****   */
 158:lib/Core/Src/system_stm32h7xx.c **** 
 159:lib/Core/Src/system_stm32h7xx.c **** /**
 160:lib/Core/Src/system_stm32h7xx.c ****   * @}
 161:lib/Core/Src/system_stm32h7xx.c ****   */
 162:lib/Core/Src/system_stm32h7xx.c **** 
 163:lib/Core/Src/system_stm32h7xx.c **** /** @addtogroup STM32H7xx_System_Private_Functions
 164:lib/Core/Src/system_stm32h7xx.c ****   * @{
 165:lib/Core/Src/system_stm32h7xx.c ****   */
 166:lib/Core/Src/system_stm32h7xx.c **** 
 167:lib/Core/Src/system_stm32h7xx.c **** /**
 168:lib/Core/Src/system_stm32h7xx.c ****   * @brief  Setup the microcontroller system
 169:lib/Core/Src/system_stm32h7xx.c ****   *         Initialize the FPU setting and  vector table location
 170:lib/Core/Src/system_stm32h7xx.c ****   *         configuration.
 171:lib/Core/Src/system_stm32h7xx.c ****   * @param  None
 172:lib/Core/Src/system_stm32h7xx.c ****   * @retval None
 173:lib/Core/Src/system_stm32h7xx.c ****   */
 174:lib/Core/Src/system_stm32h7xx.c **** void SystemInit (void)
 175:lib/Core/Src/system_stm32h7xx.c **** {
  28              		.loc 1 175 1 view -0
  29              		.cfi_startproc
  30              		@ args = 0, pretend = 0, frame = 0
  31              		@ frame_needed = 0, uses_anonymous_args = 0
  32              		@ link register save eliminated.
 176:lib/Core/Src/system_stm32h7xx.c **** #if defined (DATA_IN_D2_SRAM)
 177:lib/Core/Src/system_stm32h7xx.c ****  __IO uint32_t tmpreg;
 178:lib/Core/Src/system_stm32h7xx.c **** #endif /* DATA_IN_D2_SRAM */
 179:lib/Core/Src/system_stm32h7xx.c **** 
 180:lib/Core/Src/system_stm32h7xx.c ****   /* FPU settings ------------------------------------------------------------*/
 181:lib/Core/Src/system_stm32h7xx.c ****   #if (__FPU_PRESENT == 1) && (__FPU_USED == 1)
 182:lib/Core/Src/system_stm32h7xx.c ****     SCB->CPACR |= ((3UL << (10*2))|(3UL << (11*2)));  /* set CP10 and CP11 Full Access */
  33              		.loc 1 182 5 view .LVU1
  34              		.loc 1 182 8 is_stmt 0 view .LVU2
  35 0000 274A     		ldr	r2, .L5
  36 0002 D2F88830 		ldr	r3, [r2, #136]
  37              		.loc 1 182 16 view .LVU3
  38 0006 43F47003 		orr	r3, r3, #15728640
  39 000a C2F88830 		str	r3, [r2, #136]
 183:lib/Core/Src/system_stm32h7xx.c ****   #endif
 184:lib/Core/Src/system_stm32h7xx.c ****   /* Reset the RCC clock configuration to the default reset state ------------*/
 185:lib/Core/Src/system_stm32h7xx.c **** 
 186:lib/Core/Src/system_stm32h7xx.c ****    /* Increasing the CPU frequency */
 187:lib/Core/Src/system_stm32h7xx.c ****   if(FLASH_LATENCY_DEFAULT  > (READ_BIT((FLASH->ACR), FLASH_ACR_LATENCY)))
  40              		.loc 1 187 3 is_stmt 1 view .LVU4
  41              		.loc 1 187 32 is_stmt 0 view .LVU5
  42 000e 254B     		ldr	r3, .L5+4
ARM GAS  /tmp/ccxxvisT.s 			page 5


  43 0010 1B68     		ldr	r3, [r3]
  44 0012 03F00F03 		and	r3, r3, #15
  45              		.loc 1 187 5 view .LVU6
  46 0016 062B     		cmp	r3, #6
  47 0018 06D8     		bhi	.L2
 188:lib/Core/Src/system_stm32h7xx.c ****   {
 189:lib/Core/Src/system_stm32h7xx.c ****     /* Program the new number of wait states to the LATENCY bits in the FLASH_ACR register */
 190:lib/Core/Src/system_stm32h7xx.c **** 	MODIFY_REG(FLASH->ACR, FLASH_ACR_LATENCY, (uint32_t)(FLASH_LATENCY_DEFAULT));
  48              		.loc 1 190 2 is_stmt 1 view .LVU7
  49 001a 224A     		ldr	r2, .L5+4
  50 001c 1368     		ldr	r3, [r2]
  51 001e 23F00F03 		bic	r3, r3, #15
  52 0022 43F00703 		orr	r3, r3, #7
  53 0026 1360     		str	r3, [r2]
  54              	.L2:
 191:lib/Core/Src/system_stm32h7xx.c ****   }
 192:lib/Core/Src/system_stm32h7xx.c **** 
 193:lib/Core/Src/system_stm32h7xx.c ****   /* Set HSION bit */
 194:lib/Core/Src/system_stm32h7xx.c ****   RCC->CR |= RCC_CR_HSION;
  55              		.loc 1 194 3 view .LVU8
  56              		.loc 1 194 6 is_stmt 0 view .LVU9
  57 0028 1F4B     		ldr	r3, .L5+8
  58 002a 1A68     		ldr	r2, [r3]
  59              		.loc 1 194 11 view .LVU10
  60 002c 42F00102 		orr	r2, r2, #1
  61 0030 1A60     		str	r2, [r3]
 195:lib/Core/Src/system_stm32h7xx.c **** 
 196:lib/Core/Src/system_stm32h7xx.c ****   /* Reset CFGR register */
 197:lib/Core/Src/system_stm32h7xx.c ****   RCC->CFGR = 0x00000000;
  62              		.loc 1 197 3 is_stmt 1 view .LVU11
  63              		.loc 1 197 13 is_stmt 0 view .LVU12
  64 0032 0022     		movs	r2, #0
  65 0034 1A61     		str	r2, [r3, #16]
 198:lib/Core/Src/system_stm32h7xx.c **** 
 199:lib/Core/Src/system_stm32h7xx.c ****   /* Reset HSEON, HSECSSON, CSION, HSI48ON, CSIKERON, PLL1ON, PLL2ON and PLL3ON bits */
 200:lib/Core/Src/system_stm32h7xx.c ****   RCC->CR &= 0xEAF6ED7FU;
  66              		.loc 1 200 3 is_stmt 1 view .LVU13
  67              		.loc 1 200 6 is_stmt 0 view .LVU14
  68 0036 1968     		ldr	r1, [r3]
  69              		.loc 1 200 11 view .LVU15
  70 0038 1C4A     		ldr	r2, .L5+12
  71 003a 0A40     		ands	r2, r2, r1
  72 003c 1A60     		str	r2, [r3]
 201:lib/Core/Src/system_stm32h7xx.c ****   
 202:lib/Core/Src/system_stm32h7xx.c ****    /* Decreasing the number of wait states because of lower CPU frequency */
 203:lib/Core/Src/system_stm32h7xx.c ****   if(FLASH_LATENCY_DEFAULT  < (READ_BIT((FLASH->ACR), FLASH_ACR_LATENCY)))
  73              		.loc 1 203 3 is_stmt 1 view .LVU16
  74              		.loc 1 203 32 is_stmt 0 view .LVU17
  75 003e 194B     		ldr	r3, .L5+4
  76 0040 1B68     		ldr	r3, [r3]
  77              		.loc 1 203 5 view .LVU18
  78 0042 13F0080F 		tst	r3, #8
  79 0046 06D0     		beq	.L3
 204:lib/Core/Src/system_stm32h7xx.c ****   {
 205:lib/Core/Src/system_stm32h7xx.c ****     /* Program the new number of wait states to the LATENCY bits in the FLASH_ACR register */
 206:lib/Core/Src/system_stm32h7xx.c **** 	MODIFY_REG(FLASH->ACR, FLASH_ACR_LATENCY, (uint32_t)(FLASH_LATENCY_DEFAULT));
  80              		.loc 1 206 2 is_stmt 1 view .LVU19
ARM GAS  /tmp/ccxxvisT.s 			page 6


  81 0048 164A     		ldr	r2, .L5+4
  82 004a 1368     		ldr	r3, [r2]
  83 004c 23F00F03 		bic	r3, r3, #15
  84 0050 43F00703 		orr	r3, r3, #7
  85 0054 1360     		str	r3, [r2]
  86              	.L3:
 207:lib/Core/Src/system_stm32h7xx.c ****   }
 208:lib/Core/Src/system_stm32h7xx.c **** 
 209:lib/Core/Src/system_stm32h7xx.c **** #if defined(D3_SRAM_BASE)
 210:lib/Core/Src/system_stm32h7xx.c ****   /* Reset D1CFGR register */
 211:lib/Core/Src/system_stm32h7xx.c ****   RCC->D1CFGR = 0x00000000;
  87              		.loc 1 211 3 view .LVU20
  88              		.loc 1 211 15 is_stmt 0 view .LVU21
  89 0056 144B     		ldr	r3, .L5+8
  90 0058 0022     		movs	r2, #0
  91 005a 9A61     		str	r2, [r3, #24]
 212:lib/Core/Src/system_stm32h7xx.c **** 
 213:lib/Core/Src/system_stm32h7xx.c ****   /* Reset D2CFGR register */
 214:lib/Core/Src/system_stm32h7xx.c ****   RCC->D2CFGR = 0x00000000;
  92              		.loc 1 214 3 is_stmt 1 view .LVU22
  93              		.loc 1 214 15 is_stmt 0 view .LVU23
  94 005c DA61     		str	r2, [r3, #28]
 215:lib/Core/Src/system_stm32h7xx.c **** 
 216:lib/Core/Src/system_stm32h7xx.c ****   /* Reset D3CFGR register */
 217:lib/Core/Src/system_stm32h7xx.c ****   RCC->D3CFGR = 0x00000000;
  95              		.loc 1 217 3 is_stmt 1 view .LVU24
  96              		.loc 1 217 15 is_stmt 0 view .LVU25
  97 005e 1A62     		str	r2, [r3, #32]
 218:lib/Core/Src/system_stm32h7xx.c **** #else
 219:lib/Core/Src/system_stm32h7xx.c ****   /* Reset CDCFGR1 register */
 220:lib/Core/Src/system_stm32h7xx.c ****   RCC->CDCFGR1 = 0x00000000;
 221:lib/Core/Src/system_stm32h7xx.c **** 
 222:lib/Core/Src/system_stm32h7xx.c ****   /* Reset CDCFGR2 register */
 223:lib/Core/Src/system_stm32h7xx.c ****   RCC->CDCFGR2 = 0x00000000;
 224:lib/Core/Src/system_stm32h7xx.c **** 
 225:lib/Core/Src/system_stm32h7xx.c ****   /* Reset SRDCFGR register */
 226:lib/Core/Src/system_stm32h7xx.c ****   RCC->SRDCFGR = 0x00000000;
 227:lib/Core/Src/system_stm32h7xx.c **** #endif
 228:lib/Core/Src/system_stm32h7xx.c ****   /* Reset PLLCKSELR register */
 229:lib/Core/Src/system_stm32h7xx.c ****   RCC->PLLCKSELR = 0x02020200;
  98              		.loc 1 229 3 is_stmt 1 view .LVU26
  99              		.loc 1 229 18 is_stmt 0 view .LVU27
 100 0060 1349     		ldr	r1, .L5+16
 101 0062 9962     		str	r1, [r3, #40]
 230:lib/Core/Src/system_stm32h7xx.c **** 
 231:lib/Core/Src/system_stm32h7xx.c ****   /* Reset PLLCFGR register */
 232:lib/Core/Src/system_stm32h7xx.c ****   RCC->PLLCFGR = 0x01FF0000;
 102              		.loc 1 232 3 is_stmt 1 view .LVU28
 103              		.loc 1 232 16 is_stmt 0 view .LVU29
 104 0064 1349     		ldr	r1, .L5+20
 105 0066 D962     		str	r1, [r3, #44]
 233:lib/Core/Src/system_stm32h7xx.c ****   /* Reset PLL1DIVR register */
 234:lib/Core/Src/system_stm32h7xx.c ****   RCC->PLL1DIVR = 0x01010280;
 106              		.loc 1 234 3 is_stmt 1 view .LVU30
 107              		.loc 1 234 17 is_stmt 0 view .LVU31
 108 0068 1349     		ldr	r1, .L5+24
 109 006a 1963     		str	r1, [r3, #48]
ARM GAS  /tmp/ccxxvisT.s 			page 7


 235:lib/Core/Src/system_stm32h7xx.c ****   /* Reset PLL1FRACR register */
 236:lib/Core/Src/system_stm32h7xx.c ****   RCC->PLL1FRACR = 0x00000000;
 110              		.loc 1 236 3 is_stmt 1 view .LVU32
 111              		.loc 1 236 18 is_stmt 0 view .LVU33
 112 006c 5A63     		str	r2, [r3, #52]
 237:lib/Core/Src/system_stm32h7xx.c **** 
 238:lib/Core/Src/system_stm32h7xx.c ****   /* Reset PLL2DIVR register */
 239:lib/Core/Src/system_stm32h7xx.c ****   RCC->PLL2DIVR = 0x01010280;
 113              		.loc 1 239 3 is_stmt 1 view .LVU34
 114              		.loc 1 239 17 is_stmt 0 view .LVU35
 115 006e 9963     		str	r1, [r3, #56]
 240:lib/Core/Src/system_stm32h7xx.c **** 
 241:lib/Core/Src/system_stm32h7xx.c ****   /* Reset PLL2FRACR register */
 242:lib/Core/Src/system_stm32h7xx.c **** 
 243:lib/Core/Src/system_stm32h7xx.c ****   RCC->PLL2FRACR = 0x00000000;
 116              		.loc 1 243 3 is_stmt 1 view .LVU36
 117              		.loc 1 243 18 is_stmt 0 view .LVU37
 118 0070 DA63     		str	r2, [r3, #60]
 244:lib/Core/Src/system_stm32h7xx.c ****   /* Reset PLL3DIVR register */
 245:lib/Core/Src/system_stm32h7xx.c ****   RCC->PLL3DIVR = 0x01010280;
 119              		.loc 1 245 3 is_stmt 1 view .LVU38
 120              		.loc 1 245 17 is_stmt 0 view .LVU39
 121 0072 1964     		str	r1, [r3, #64]
 246:lib/Core/Src/system_stm32h7xx.c **** 
 247:lib/Core/Src/system_stm32h7xx.c ****   /* Reset PLL3FRACR register */
 248:lib/Core/Src/system_stm32h7xx.c ****   RCC->PLL3FRACR = 0x00000000;
 122              		.loc 1 248 3 is_stmt 1 view .LVU40
 123              		.loc 1 248 18 is_stmt 0 view .LVU41
 124 0074 5A64     		str	r2, [r3, #68]
 249:lib/Core/Src/system_stm32h7xx.c **** 
 250:lib/Core/Src/system_stm32h7xx.c ****   /* Reset HSEBYP bit */
 251:lib/Core/Src/system_stm32h7xx.c ****   RCC->CR &= 0xFFFBFFFFU;
 125              		.loc 1 251 3 is_stmt 1 view .LVU42
 126              		.loc 1 251 6 is_stmt 0 view .LVU43
 127 0076 1968     		ldr	r1, [r3]
 128              		.loc 1 251 11 view .LVU44
 129 0078 21F48021 		bic	r1, r1, #262144
 130 007c 1960     		str	r1, [r3]
 252:lib/Core/Src/system_stm32h7xx.c **** 
 253:lib/Core/Src/system_stm32h7xx.c ****   /* Disable all interrupts */
 254:lib/Core/Src/system_stm32h7xx.c ****   RCC->CIER = 0x00000000;
 131              		.loc 1 254 3 is_stmt 1 view .LVU45
 132              		.loc 1 254 13 is_stmt 0 view .LVU46
 133 007e 1A66     		str	r2, [r3, #96]
 255:lib/Core/Src/system_stm32h7xx.c **** 
 256:lib/Core/Src/system_stm32h7xx.c **** #if (STM32H7_DEV_ID == 0x450UL)
 257:lib/Core/Src/system_stm32h7xx.c ****   /* dual core CM7 or single core line */
 258:lib/Core/Src/system_stm32h7xx.c ****   if((DBGMCU->IDCODE & 0xFFFF0000U) < 0x20000000U)
 134              		.loc 1 258 3 is_stmt 1 view .LVU47
 135              		.loc 1 258 13 is_stmt 0 view .LVU48
 136 0080 0E4B     		ldr	r3, .L5+28
 137 0082 1A68     		ldr	r2, [r3]
 138              		.loc 1 258 22 view .LVU49
 139 0084 0E4B     		ldr	r3, .L5+32
 140 0086 1340     		ands	r3, r3, r2
 141              		.loc 1 258 5 view .LVU50
 142 0088 B3F1005F 		cmp	r3, #536870912
ARM GAS  /tmp/ccxxvisT.s 			page 8


 143 008c 03D2     		bcs	.L4
 259:lib/Core/Src/system_stm32h7xx.c ****   {
 260:lib/Core/Src/system_stm32h7xx.c ****     /* if stm32h7 revY*/
 261:lib/Core/Src/system_stm32h7xx.c ****     /* Change  the switch matrix read issuing capability to 1 for the AXI SRAM target (Target 7) */
 262:lib/Core/Src/system_stm32h7xx.c ****     *((__IO uint32_t*)0x51008108) = 0x000000001U;
 144              		.loc 1 262 5 is_stmt 1 view .LVU51
 145              		.loc 1 262 35 is_stmt 0 view .LVU52
 146 008e 0D4B     		ldr	r3, .L5+36
 147 0090 0122     		movs	r2, #1
 148 0092 C3F80821 		str	r2, [r3, #264]
 149              	.L4:
 263:lib/Core/Src/system_stm32h7xx.c ****   }
 264:lib/Core/Src/system_stm32h7xx.c **** #endif
 265:lib/Core/Src/system_stm32h7xx.c **** 
 266:lib/Core/Src/system_stm32h7xx.c **** #if defined (DATA_IN_D2_SRAM)
 267:lib/Core/Src/system_stm32h7xx.c ****   /* in case of initialized data in D2 SRAM (AHB SRAM) , enable the D2 SRAM clock (AHB SRAM clock) 
 268:lib/Core/Src/system_stm32h7xx.c **** #if defined(RCC_AHB2ENR_D2SRAM3EN)
 269:lib/Core/Src/system_stm32h7xx.c ****   RCC->AHB2ENR |= (RCC_AHB2ENR_D2SRAM1EN | RCC_AHB2ENR_D2SRAM2EN | RCC_AHB2ENR_D2SRAM3EN);
 270:lib/Core/Src/system_stm32h7xx.c **** #elif defined(RCC_AHB2ENR_D2SRAM2EN)
 271:lib/Core/Src/system_stm32h7xx.c ****   RCC->AHB2ENR |= (RCC_AHB2ENR_D2SRAM1EN | RCC_AHB2ENR_D2SRAM2EN);
 272:lib/Core/Src/system_stm32h7xx.c **** #else
 273:lib/Core/Src/system_stm32h7xx.c ****   RCC->AHB2ENR |= (RCC_AHB2ENR_AHBSRAM1EN | RCC_AHB2ENR_AHBSRAM2EN);
 274:lib/Core/Src/system_stm32h7xx.c **** #endif /* RCC_AHB2ENR_D2SRAM3EN */
 275:lib/Core/Src/system_stm32h7xx.c **** 
 276:lib/Core/Src/system_stm32h7xx.c ****   tmpreg = RCC->AHB2ENR;
 277:lib/Core/Src/system_stm32h7xx.c ****   (void) tmpreg;
 278:lib/Core/Src/system_stm32h7xx.c **** #endif /* DATA_IN_D2_SRAM */
 279:lib/Core/Src/system_stm32h7xx.c **** 
 280:lib/Core/Src/system_stm32h7xx.c **** #if defined(DUAL_CORE) && defined(CORE_CM4)
 281:lib/Core/Src/system_stm32h7xx.c ****   /* Configure the Vector Table location add offset address for cortex-M4 ------------------*/
 282:lib/Core/Src/system_stm32h7xx.c **** #if defined(USER_VECT_TAB_ADDRESS)
 283:lib/Core/Src/system_stm32h7xx.c ****   SCB->VTOR = VECT_TAB_BASE_ADDRESS | VECT_TAB_OFFSET; /* Vector Table Relocation in Internal D2 AX
 284:lib/Core/Src/system_stm32h7xx.c **** #endif /* USER_VECT_TAB_ADDRESS */
 285:lib/Core/Src/system_stm32h7xx.c **** 
 286:lib/Core/Src/system_stm32h7xx.c **** #else
 287:lib/Core/Src/system_stm32h7xx.c **** 
 288:lib/Core/Src/system_stm32h7xx.c ****   /*
 289:lib/Core/Src/system_stm32h7xx.c ****    * Disable the FMC bank1 (enabled after reset).
 290:lib/Core/Src/system_stm32h7xx.c ****    * This, prevents CPU speculation access on this bank which blocks the use of FMC during
 291:lib/Core/Src/system_stm32h7xx.c ****    * 24us. During this time the others FMC master (such as LTDC) cannot use it!
 292:lib/Core/Src/system_stm32h7xx.c ****    */
 293:lib/Core/Src/system_stm32h7xx.c ****   FMC_Bank1_R->BTCR[0] = 0x000030D2;
 150              		.loc 1 293 3 is_stmt 1 view .LVU53
 151              		.loc 1 293 24 is_stmt 0 view .LVU54
 152 0096 0C4B     		ldr	r3, .L5+40
 153 0098 43F2D202 		movw	r2, #12498
 154 009c 1A60     		str	r2, [r3]
 294:lib/Core/Src/system_stm32h7xx.c **** 
 295:lib/Core/Src/system_stm32h7xx.c ****   /* Configure the Vector Table location -------------------------------------*/
 296:lib/Core/Src/system_stm32h7xx.c **** #if defined(USER_VECT_TAB_ADDRESS)
 297:lib/Core/Src/system_stm32h7xx.c ****   SCB->VTOR = VECT_TAB_BASE_ADDRESS | VECT_TAB_OFFSET; /* Vector Table Relocation in Internal D1 AX
 298:lib/Core/Src/system_stm32h7xx.c **** #endif /* USER_VECT_TAB_ADDRESS */
 299:lib/Core/Src/system_stm32h7xx.c **** 
 300:lib/Core/Src/system_stm32h7xx.c **** #endif /*DUAL_CORE && CORE_CM4*/
 301:lib/Core/Src/system_stm32h7xx.c **** 
 302:lib/Core/Src/system_stm32h7xx.c **** }
 155              		.loc 1 302 1 view .LVU55
ARM GAS  /tmp/ccxxvisT.s 			page 9


 156 009e 7047     		bx	lr
 157              	.L6:
 158              		.align	2
 159              	.L5:
 160 00a0 00ED00E0 		.word	-536810240
 161 00a4 00200052 		.word	1375739904
 162 00a8 00440258 		.word	1476543488
 163 00ac 7FEDF6EA 		.word	-352916097
 164 00b0 00020202 		.word	33686016
 165 00b4 0000FF01 		.word	33488896
 166 00b8 80020101 		.word	16843392
 167 00bc 0010005C 		.word	1543507968
 168 00c0 0000FFFF 		.word	-65536
 169 00c4 00800051 		.word	1358987264
 170 00c8 00400052 		.word	1375748096
 171              		.cfi_endproc
 172              	.LFE144:
 174              		.section	.text.SystemCoreClockUpdate,"ax",%progbits
 175              		.align	1
 176              		.global	SystemCoreClockUpdate
 177              		.syntax unified
 178              		.thumb
 179              		.thumb_func
 181              	SystemCoreClockUpdate:
 182              	.LFB145:
 303:lib/Core/Src/system_stm32h7xx.c **** 
 304:lib/Core/Src/system_stm32h7xx.c **** /**
 305:lib/Core/Src/system_stm32h7xx.c ****    * @brief  Update SystemCoreClock variable according to Clock Register Values.
 306:lib/Core/Src/system_stm32h7xx.c ****   *         The SystemCoreClock variable contains the core clock , it can
 307:lib/Core/Src/system_stm32h7xx.c ****   *         be used by the user application to setup the SysTick timer or configure
 308:lib/Core/Src/system_stm32h7xx.c ****   *         other parameters.
 309:lib/Core/Src/system_stm32h7xx.c ****   *
 310:lib/Core/Src/system_stm32h7xx.c ****   * @note   Each time the core clock changes, this function must be called
 311:lib/Core/Src/system_stm32h7xx.c ****   *         to update SystemCoreClock variable value. Otherwise, any configuration
 312:lib/Core/Src/system_stm32h7xx.c ****   *         based on this variable will be incorrect.
 313:lib/Core/Src/system_stm32h7xx.c ****   *
 314:lib/Core/Src/system_stm32h7xx.c ****   * @note   - The system frequency computed by this function is not the real
 315:lib/Core/Src/system_stm32h7xx.c ****   *           frequency in the chip. It is calculated based on the predefined
 316:lib/Core/Src/system_stm32h7xx.c ****   *           constant and the selected clock source:
 317:lib/Core/Src/system_stm32h7xx.c ****   *
 318:lib/Core/Src/system_stm32h7xx.c ****   *           - If SYSCLK source is CSI, SystemCoreClock will contain the CSI_VALUE(*)
 319:lib/Core/Src/system_stm32h7xx.c ****   *           - If SYSCLK source is HSI, SystemCoreClock will contain the HSI_VALUE(**)
 320:lib/Core/Src/system_stm32h7xx.c ****   *           - If SYSCLK source is HSE, SystemCoreClock will contain the HSE_VALUE(***)
 321:lib/Core/Src/system_stm32h7xx.c ****   *           - If SYSCLK source is PLL, SystemCoreClock will contain the CSI_VALUE(*),
 322:lib/Core/Src/system_stm32h7xx.c ****   *             HSI_VALUE(**) or HSE_VALUE(***) multiplied/divided by the PLL factors.
 323:lib/Core/Src/system_stm32h7xx.c ****   *
 324:lib/Core/Src/system_stm32h7xx.c ****   *         (*) CSI_VALUE is a constant defined in stm32h7xx_hal.h file (default value
 325:lib/Core/Src/system_stm32h7xx.c ****   *             4 MHz) but the real value may vary depending on the variations
 326:lib/Core/Src/system_stm32h7xx.c ****   *             in voltage and temperature.
 327:lib/Core/Src/system_stm32h7xx.c ****   *         (**) HSI_VALUE is a constant defined in stm32h7xx_hal.h file (default value
 328:lib/Core/Src/system_stm32h7xx.c ****   *             64 MHz) but the real value may vary depending on the variations
 329:lib/Core/Src/system_stm32h7xx.c ****   *             in voltage and temperature.
 330:lib/Core/Src/system_stm32h7xx.c ****   *
 331:lib/Core/Src/system_stm32h7xx.c ****   *         (***)HSE_VALUE is a constant defined in stm32h7xx_hal.h file (default value
 332:lib/Core/Src/system_stm32h7xx.c ****   *              25 MHz), user has to ensure that HSE_VALUE is same as the real
 333:lib/Core/Src/system_stm32h7xx.c ****   *              frequency of the crystal used. Otherwise, this function may
 334:lib/Core/Src/system_stm32h7xx.c ****   *              have wrong result.
ARM GAS  /tmp/ccxxvisT.s 			page 10


 335:lib/Core/Src/system_stm32h7xx.c ****   *
 336:lib/Core/Src/system_stm32h7xx.c ****   *         - The result of this function could be not correct when using fractional
 337:lib/Core/Src/system_stm32h7xx.c ****   *           value for HSE crystal.
 338:lib/Core/Src/system_stm32h7xx.c ****   * @param  None
 339:lib/Core/Src/system_stm32h7xx.c ****   * @retval None
 340:lib/Core/Src/system_stm32h7xx.c ****   */
 341:lib/Core/Src/system_stm32h7xx.c **** void SystemCoreClockUpdate (void)
 342:lib/Core/Src/system_stm32h7xx.c **** {
 183              		.loc 1 342 1 is_stmt 1 view -0
 184              		.cfi_startproc
 185              		@ args = 0, pretend = 0, frame = 0
 186              		@ frame_needed = 0, uses_anonymous_args = 0
 187              		@ link register save eliminated.
 188 0000 10B4     		push	{r4}
 189              	.LCFI0:
 190              		.cfi_def_cfa_offset 4
 191              		.cfi_offset 4, -4
 343:lib/Core/Src/system_stm32h7xx.c ****   uint32_t pllp, pllsource, pllm, pllfracen, hsivalue, tmp;
 192              		.loc 1 343 3 view .LVU57
 344:lib/Core/Src/system_stm32h7xx.c ****   uint32_t common_system_clock;
 193              		.loc 1 344 3 view .LVU58
 345:lib/Core/Src/system_stm32h7xx.c ****   float_t fracn1, pllvco;
 194              		.loc 1 345 3 view .LVU59
 346:lib/Core/Src/system_stm32h7xx.c **** 
 347:lib/Core/Src/system_stm32h7xx.c **** 
 348:lib/Core/Src/system_stm32h7xx.c ****   /* Get SYSCLK source -------------------------------------------------------*/
 349:lib/Core/Src/system_stm32h7xx.c **** 
 350:lib/Core/Src/system_stm32h7xx.c ****   switch (RCC->CFGR & RCC_CFGR_SWS)
 195              		.loc 1 350 3 view .LVU60
 196              		.loc 1 350 14 is_stmt 0 view .LVU61
 197 0002 7A4B     		ldr	r3, .L21
 198 0004 1B69     		ldr	r3, [r3, #16]
 199              		.loc 1 350 21 view .LVU62
 200 0006 03F03803 		and	r3, r3, #56
 201              		.loc 1 350 3 view .LVU63
 202 000a 182B     		cmp	r3, #24
 203 000c 00F2E580 		bhi	.L8
 204 0010 DFE813F0 		tbh	[pc, r3, lsl #1]
 205              	.L10:
 206 0014 1B00     		.2byte	(.L13-.L10)/2
 207 0016 E300     		.2byte	(.L8-.L10)/2
 208 0018 E300     		.2byte	(.L8-.L10)/2
 209 001a E300     		.2byte	(.L8-.L10)/2
 210 001c E300     		.2byte	(.L8-.L10)/2
 211 001e E300     		.2byte	(.L8-.L10)/2
 212 0020 E300     		.2byte	(.L8-.L10)/2
 213 0022 E300     		.2byte	(.L8-.L10)/2
 214 0024 1900     		.2byte	(.L12-.L10)/2
 215 0026 E300     		.2byte	(.L8-.L10)/2
 216 0028 E300     		.2byte	(.L8-.L10)/2
 217 002a E300     		.2byte	(.L8-.L10)/2
 218 002c E300     		.2byte	(.L8-.L10)/2
 219 002e E300     		.2byte	(.L8-.L10)/2
 220 0030 E300     		.2byte	(.L8-.L10)/2
 221 0032 E300     		.2byte	(.L8-.L10)/2
 222 0034 EA00     		.2byte	(.L18-.L10)/2
 223 0036 E300     		.2byte	(.L8-.L10)/2
ARM GAS  /tmp/ccxxvisT.s 			page 11


 224 0038 E300     		.2byte	(.L8-.L10)/2
 225 003a E300     		.2byte	(.L8-.L10)/2
 226 003c E300     		.2byte	(.L8-.L10)/2
 227 003e E300     		.2byte	(.L8-.L10)/2
 228 0040 E300     		.2byte	(.L8-.L10)/2
 229 0042 E300     		.2byte	(.L8-.L10)/2
 230 0044 3700     		.2byte	(.L9-.L10)/2
 231              		.p2align 1
 232              	.L12:
 233 0046 6A4A     		ldr	r2, .L21+4
 234 0048 05E0     		b	.L11
 235              	.L13:
 351:lib/Core/Src/system_stm32h7xx.c ****   {
 352:lib/Core/Src/system_stm32h7xx.c ****   case RCC_CFGR_SWS_HSI:  /* HSI used as system clock source */
 353:lib/Core/Src/system_stm32h7xx.c ****     common_system_clock = (uint32_t) (HSI_VALUE >> ((RCC->CR & RCC_CR_HSIDIV)>> 3));
 236              		.loc 1 353 5 is_stmt 1 view .LVU64
 237              		.loc 1 353 57 is_stmt 0 view .LVU65
 238 004a 684B     		ldr	r3, .L21
 239 004c 1B68     		ldr	r3, [r3]
 240              		.loc 1 353 78 view .LVU66
 241 004e C3F3C103 		ubfx	r3, r3, #3, #2
 242              		.loc 1 353 25 view .LVU67
 243 0052 684A     		ldr	r2, .L21+8
 244 0054 DA40     		lsrs	r2, r2, r3
 245              	.LVL0:
 354:lib/Core/Src/system_stm32h7xx.c ****     break;
 246              		.loc 1 354 5 is_stmt 1 view .LVU68
 247              	.L11:
 355:lib/Core/Src/system_stm32h7xx.c **** 
 356:lib/Core/Src/system_stm32h7xx.c ****   case RCC_CFGR_SWS_CSI:  /* CSI used as system clock  source */
 357:lib/Core/Src/system_stm32h7xx.c ****     common_system_clock = CSI_VALUE;
 358:lib/Core/Src/system_stm32h7xx.c ****     break;
 359:lib/Core/Src/system_stm32h7xx.c **** 
 360:lib/Core/Src/system_stm32h7xx.c ****   case RCC_CFGR_SWS_HSE:  /* HSE used as system clock  source */
 361:lib/Core/Src/system_stm32h7xx.c ****     common_system_clock = HSE_VALUE;
 362:lib/Core/Src/system_stm32h7xx.c ****     break;
 363:lib/Core/Src/system_stm32h7xx.c **** 
 364:lib/Core/Src/system_stm32h7xx.c ****   case RCC_CFGR_SWS_PLL1:  /* PLL1 used as system clock  source */
 365:lib/Core/Src/system_stm32h7xx.c **** 
 366:lib/Core/Src/system_stm32h7xx.c ****     /* PLL_VCO = (HSE_VALUE or HSI_VALUE or CSI_VALUE/ PLLM) * PLLN
 367:lib/Core/Src/system_stm32h7xx.c ****     SYSCLK = PLL_VCO / PLLR
 368:lib/Core/Src/system_stm32h7xx.c ****     */
 369:lib/Core/Src/system_stm32h7xx.c ****     pllsource = (RCC->PLLCKSELR & RCC_PLLCKSELR_PLLSRC);
 370:lib/Core/Src/system_stm32h7xx.c ****     pllm = ((RCC->PLLCKSELR & RCC_PLLCKSELR_DIVM1)>> 4)  ;
 371:lib/Core/Src/system_stm32h7xx.c ****     pllfracen = ((RCC->PLLCFGR & RCC_PLLCFGR_PLL1FRACEN)>>RCC_PLLCFGR_PLL1FRACEN_Pos);
 372:lib/Core/Src/system_stm32h7xx.c ****     fracn1 = (float_t)(uint32_t)(pllfracen* ((RCC->PLL1FRACR & RCC_PLL1FRACR_FRACN1)>> 3));
 373:lib/Core/Src/system_stm32h7xx.c **** 
 374:lib/Core/Src/system_stm32h7xx.c ****     if (pllm != 0U)
 375:lib/Core/Src/system_stm32h7xx.c ****     {
 376:lib/Core/Src/system_stm32h7xx.c ****       switch (pllsource)
 377:lib/Core/Src/system_stm32h7xx.c ****       {
 378:lib/Core/Src/system_stm32h7xx.c ****         case RCC_PLLCKSELR_PLLSRC_HSI:  /* HSI used as PLL clock source */
 379:lib/Core/Src/system_stm32h7xx.c **** 
 380:lib/Core/Src/system_stm32h7xx.c ****         hsivalue = (HSI_VALUE >> ((RCC->CR & RCC_CR_HSIDIV)>> 3)) ;
 381:lib/Core/Src/system_stm32h7xx.c ****         pllvco = ( (float_t)hsivalue / (float_t)pllm) * ((float_t)(uint32_t)(RCC->PLL1DIVR & RCC_PL
 382:lib/Core/Src/system_stm32h7xx.c **** 
 383:lib/Core/Src/system_stm32h7xx.c ****         break;
ARM GAS  /tmp/ccxxvisT.s 			page 12


 384:lib/Core/Src/system_stm32h7xx.c **** 
 385:lib/Core/Src/system_stm32h7xx.c ****         case RCC_PLLCKSELR_PLLSRC_CSI:  /* CSI used as PLL clock source */
 386:lib/Core/Src/system_stm32h7xx.c ****           pllvco = ((float_t)CSI_VALUE / (float_t)pllm) * ((float_t)(uint32_t)(RCC->PLL1DIVR & RCC_
 387:lib/Core/Src/system_stm32h7xx.c ****         break;
 388:lib/Core/Src/system_stm32h7xx.c **** 
 389:lib/Core/Src/system_stm32h7xx.c ****         case RCC_PLLCKSELR_PLLSRC_HSE:  /* HSE used as PLL clock source */
 390:lib/Core/Src/system_stm32h7xx.c ****           pllvco = ((float_t)HSE_VALUE / (float_t)pllm) * ((float_t)(uint32_t)(RCC->PLL1DIVR & RCC_
 391:lib/Core/Src/system_stm32h7xx.c ****         break;
 392:lib/Core/Src/system_stm32h7xx.c **** 
 393:lib/Core/Src/system_stm32h7xx.c ****       default:
 394:lib/Core/Src/system_stm32h7xx.c ****           hsivalue = (HSI_VALUE >> ((RCC->CR & RCC_CR_HSIDIV)>> 3)) ;
 395:lib/Core/Src/system_stm32h7xx.c ****           pllvco = ((float_t)hsivalue / (float_t)pllm) * ((float_t)(uint32_t)(RCC->PLL1DIVR & RCC_P
 396:lib/Core/Src/system_stm32h7xx.c ****         break;
 397:lib/Core/Src/system_stm32h7xx.c ****       }
 398:lib/Core/Src/system_stm32h7xx.c ****       pllp = (((RCC->PLL1DIVR & RCC_PLL1DIVR_P1) >>9) + 1U ) ;
 399:lib/Core/Src/system_stm32h7xx.c ****       common_system_clock =  (uint32_t)(float_t)(pllvco/(float_t)pllp);
 400:lib/Core/Src/system_stm32h7xx.c ****     }
 401:lib/Core/Src/system_stm32h7xx.c ****     else
 402:lib/Core/Src/system_stm32h7xx.c ****     {
 403:lib/Core/Src/system_stm32h7xx.c ****       common_system_clock = 0U;
 404:lib/Core/Src/system_stm32h7xx.c ****     }
 405:lib/Core/Src/system_stm32h7xx.c ****     break;
 406:lib/Core/Src/system_stm32h7xx.c **** 
 407:lib/Core/Src/system_stm32h7xx.c ****   default:
 408:lib/Core/Src/system_stm32h7xx.c ****     common_system_clock = (uint32_t) (HSI_VALUE >> ((RCC->CR & RCC_CR_HSIDIV)>> 3));
 409:lib/Core/Src/system_stm32h7xx.c ****     break;
 410:lib/Core/Src/system_stm32h7xx.c ****   }
 411:lib/Core/Src/system_stm32h7xx.c **** 
 412:lib/Core/Src/system_stm32h7xx.c ****   /* Compute SystemClock frequency --------------------------------------------------*/
 413:lib/Core/Src/system_stm32h7xx.c **** #if defined (RCC_D1CFGR_D1CPRE)
 414:lib/Core/Src/system_stm32h7xx.c ****   tmp = D1CorePrescTable[(RCC->D1CFGR & RCC_D1CFGR_D1CPRE)>> RCC_D1CFGR_D1CPRE_Pos];
 248              		.loc 1 414 3 view .LVU69
 249              		.loc 1 414 30 is_stmt 0 view .LVU70
 250 0056 6548     		ldr	r0, .L21
 251 0058 8369     		ldr	r3, [r0, #24]
 252              		.loc 1 414 59 view .LVU71
 253 005a C3F30323 		ubfx	r3, r3, #8, #4
 254              		.loc 1 414 25 view .LVU72
 255 005e 6649     		ldr	r1, .L21+12
 256 0060 CB5C     		ldrb	r3, [r1, r3]	@ zero_extendqisi2
 257              	.LVL1:
 415:lib/Core/Src/system_stm32h7xx.c **** 
 416:lib/Core/Src/system_stm32h7xx.c ****   /* common_system_clock frequency : CM7 CPU frequency  */
 417:lib/Core/Src/system_stm32h7xx.c ****   common_system_clock >>= tmp;
 258              		.loc 1 417 3 is_stmt 1 view .LVU73
 259              		.loc 1 417 23 is_stmt 0 view .LVU74
 260 0062 DA40     		lsrs	r2, r2, r3
 261              	.LVL2:
 418:lib/Core/Src/system_stm32h7xx.c **** 
 419:lib/Core/Src/system_stm32h7xx.c ****   /* SystemD2Clock frequency : CM4 CPU, AXI and AHBs Clock frequency  */
 420:lib/Core/Src/system_stm32h7xx.c ****   SystemD2Clock = (common_system_clock >> ((D1CorePrescTable[(RCC->D1CFGR & RCC_D1CFGR_HPRE)>> RCC_
 262              		.loc 1 420 3 is_stmt 1 view .LVU75
 263              		.loc 1 420 66 is_stmt 0 view .LVU76
 264 0064 8369     		ldr	r3, [r0, #24]
 265              	.LVL3:
 266              		.loc 1 420 93 view .LVU77
 267 0066 03F00F03 		and	r3, r3, #15
ARM GAS  /tmp/ccxxvisT.s 			page 13


 268              		.loc 1 420 61 view .LVU78
 269 006a CB5C     		ldrb	r3, [r1, r3]	@ zero_extendqisi2
 270              		.loc 1 420 118 view .LVU79
 271 006c 03F01F03 		and	r3, r3, #31
 272              		.loc 1 420 40 view .LVU80
 273 0070 22FA03F3 		lsr	r3, r2, r3
 274              		.loc 1 420 17 view .LVU81
 275 0074 6149     		ldr	r1, .L21+16
 276              		.loc 1 420 17 view .LVU82
 277 0076 0B60     		str	r3, [r1]
 421:lib/Core/Src/system_stm32h7xx.c **** 
 422:lib/Core/Src/system_stm32h7xx.c **** #else
 423:lib/Core/Src/system_stm32h7xx.c ****   tmp = D1CorePrescTable[(RCC->CDCFGR1 & RCC_CDCFGR1_CDCPRE)>> RCC_CDCFGR1_CDCPRE_Pos];
 424:lib/Core/Src/system_stm32h7xx.c **** 
 425:lib/Core/Src/system_stm32h7xx.c ****   /* common_system_clock frequency : CM7 CPU frequency  */
 426:lib/Core/Src/system_stm32h7xx.c ****   common_system_clock >>= tmp;
 427:lib/Core/Src/system_stm32h7xx.c **** 
 428:lib/Core/Src/system_stm32h7xx.c ****   /* SystemD2Clock frequency : AXI and AHBs Clock frequency  */
 429:lib/Core/Src/system_stm32h7xx.c ****   SystemD2Clock = (common_system_clock >> ((D1CorePrescTable[(RCC->CDCFGR1 & RCC_CDCFGR1_HPRE)>> RC
 430:lib/Core/Src/system_stm32h7xx.c **** 
 431:lib/Core/Src/system_stm32h7xx.c **** #endif
 432:lib/Core/Src/system_stm32h7xx.c **** 
 433:lib/Core/Src/system_stm32h7xx.c **** #if defined(DUAL_CORE) && defined(CORE_CM4)
 434:lib/Core/Src/system_stm32h7xx.c ****   SystemCoreClock = SystemD2Clock;
 435:lib/Core/Src/system_stm32h7xx.c **** #else
 436:lib/Core/Src/system_stm32h7xx.c ****   SystemCoreClock = common_system_clock;
 278              		.loc 1 436 3 is_stmt 1 view .LVU83
 279              		.loc 1 436 19 is_stmt 0 view .LVU84
 280 0078 614B     		ldr	r3, .L21+20
 281 007a 1A60     		str	r2, [r3]
 437:lib/Core/Src/system_stm32h7xx.c **** #endif /* DUAL_CORE && CORE_CM4 */
 438:lib/Core/Src/system_stm32h7xx.c **** }
 282              		.loc 1 438 1 view .LVU85
 283 007c 5DF8044B 		ldr	r4, [sp], #4
 284              	.LCFI1:
 285              		.cfi_remember_state
 286              		.cfi_restore 4
 287              		.cfi_def_cfa_offset 0
 288 0080 7047     		bx	lr
 289              	.LVL4:
 290              	.L9:
 291              	.LCFI2:
 292              		.cfi_restore_state
 369:lib/Core/Src/system_stm32h7xx.c ****     pllm = ((RCC->PLLCKSELR & RCC_PLLCKSELR_DIVM1)>> 4)  ;
 293              		.loc 1 369 5 is_stmt 1 view .LVU86
 369:lib/Core/Src/system_stm32h7xx.c ****     pllm = ((RCC->PLLCKSELR & RCC_PLLCKSELR_DIVM1)>> 4)  ;
 294              		.loc 1 369 21 is_stmt 0 view .LVU87
 295 0082 5A4B     		ldr	r3, .L21
 296 0084 996A     		ldr	r1, [r3, #40]
 369:lib/Core/Src/system_stm32h7xx.c ****     pllm = ((RCC->PLLCKSELR & RCC_PLLCKSELR_DIVM1)>> 4)  ;
 297              		.loc 1 369 15 view .LVU88
 298 0086 01F00301 		and	r1, r1, #3
 299              	.LVL5:
 370:lib/Core/Src/system_stm32h7xx.c ****     pllfracen = ((RCC->PLLCFGR & RCC_PLLCFGR_PLL1FRACEN)>>RCC_PLLCFGR_PLL1FRACEN_Pos);
 300              		.loc 1 370 5 is_stmt 1 view .LVU89
 370:lib/Core/Src/system_stm32h7xx.c ****     pllfracen = ((RCC->PLLCFGR & RCC_PLLCFGR_PLL1FRACEN)>>RCC_PLLCFGR_PLL1FRACEN_Pos);
 301              		.loc 1 370 17 is_stmt 0 view .LVU90
ARM GAS  /tmp/ccxxvisT.s 			page 14


 302 008a 9C6A     		ldr	r4, [r3, #40]
 370:lib/Core/Src/system_stm32h7xx.c ****     pllfracen = ((RCC->PLLCFGR & RCC_PLLCFGR_PLL1FRACEN)>>RCC_PLLCFGR_PLL1FRACEN_Pos);
 303              		.loc 1 370 10 view .LVU91
 304 008c C4F30512 		ubfx	r2, r4, #4, #6
 305              	.LVL6:
 371:lib/Core/Src/system_stm32h7xx.c ****     fracn1 = (float_t)(uint32_t)(pllfracen* ((RCC->PLL1FRACR & RCC_PLL1FRACR_FRACN1)>> 3));
 306              		.loc 1 371 5 is_stmt 1 view .LVU92
 371:lib/Core/Src/system_stm32h7xx.c ****     fracn1 = (float_t)(uint32_t)(pllfracen* ((RCC->PLL1FRACR & RCC_PLL1FRACR_FRACN1)>> 3));
 307              		.loc 1 371 22 is_stmt 0 view .LVU93
 308 0090 D86A     		ldr	r0, [r3, #44]
 371:lib/Core/Src/system_stm32h7xx.c ****     fracn1 = (float_t)(uint32_t)(pllfracen* ((RCC->PLL1FRACR & RCC_PLL1FRACR_FRACN1)>> 3));
 309              		.loc 1 371 15 view .LVU94
 310 0092 00F00100 		and	r0, r0, #1
 311              	.LVL7:
 372:lib/Core/Src/system_stm32h7xx.c **** 
 312              		.loc 1 372 5 is_stmt 1 view .LVU95
 372:lib/Core/Src/system_stm32h7xx.c **** 
 313              		.loc 1 372 50 is_stmt 0 view .LVU96
 314 0096 5B6B     		ldr	r3, [r3, #52]
 372:lib/Core/Src/system_stm32h7xx.c **** 
 315              		.loc 1 372 85 view .LVU97
 316 0098 C3F3CC03 		ubfx	r3, r3, #3, #13
 372:lib/Core/Src/system_stm32h7xx.c **** 
 317              		.loc 1 372 23 view .LVU98
 318 009c 00FB03F3 		mul	r3, r0, r3
 372:lib/Core/Src/system_stm32h7xx.c **** 
 319              		.loc 1 372 12 view .LVU99
 320 00a0 07EE903A 		vmov	s15, r3	@ int
 321 00a4 F8EE677A 		vcvt.f32.u32	s15, s15
 322              	.LVL8:
 374:lib/Core/Src/system_stm32h7xx.c ****     {
 323              		.loc 1 374 5 is_stmt 1 view .LVU100
 374:lib/Core/Src/system_stm32h7xx.c ****     {
 324              		.loc 1 374 8 is_stmt 0 view .LVU101
 325 00a8 14F47C7F 		tst	r4, #1008
 326 00ac D3D0     		beq	.L11
 376:lib/Core/Src/system_stm32h7xx.c ****       {
 327              		.loc 1 376 7 is_stmt 1 view .LVU102
 328 00ae 0129     		cmp	r1, #1
 329 00b0 59D0     		beq	.L14
 330 00b2 0229     		cmp	r1, #2
 331 00b4 74D0     		beq	.L15
 332 00b6 19B3     		cbz	r1, .L20
 394:lib/Core/Src/system_stm32h7xx.c ****           pllvco = ((float_t)hsivalue / (float_t)pllm) * ((float_t)(uint32_t)(RCC->PLL1DIVR & RCC_P
 333              		.loc 1 394 11 view .LVU103
 394:lib/Core/Src/system_stm32h7xx.c ****           pllvco = ((float_t)hsivalue / (float_t)pllm) * ((float_t)(uint32_t)(RCC->PLL1DIVR & RCC_P
 334              		.loc 1 394 41 is_stmt 0 view .LVU104
 335 00b8 4C48     		ldr	r0, .L21
 336              	.LVL9:
 394:lib/Core/Src/system_stm32h7xx.c ****           pllvco = ((float_t)hsivalue / (float_t)pllm) * ((float_t)(uint32_t)(RCC->PLL1DIVR & RCC_P
 337              		.loc 1 394 41 view .LVU105
 338 00ba 0168     		ldr	r1, [r0]
 339              	.LVL10:
 394:lib/Core/Src/system_stm32h7xx.c ****           pllvco = ((float_t)hsivalue / (float_t)pllm) * ((float_t)(uint32_t)(RCC->PLL1DIVR & RCC_P
 340              		.loc 1 394 62 view .LVU106
 341 00bc C1F3C101 		ubfx	r1, r1, #3, #2
 394:lib/Core/Src/system_stm32h7xx.c ****           pllvco = ((float_t)hsivalue / (float_t)pllm) * ((float_t)(uint32_t)(RCC->PLL1DIVR & RCC_P
ARM GAS  /tmp/ccxxvisT.s 			page 15


 342              		.loc 1 394 20 view .LVU107
 343 00c0 4C4B     		ldr	r3, .L21+8
 344 00c2 CB40     		lsrs	r3, r3, r1
 345              	.LVL11:
 395:lib/Core/Src/system_stm32h7xx.c ****         break;
 346              		.loc 1 395 11 is_stmt 1 view .LVU108
 395:lib/Core/Src/system_stm32h7xx.c ****         break;
 347              		.loc 1 395 21 is_stmt 0 view .LVU109
 348 00c4 07EE103A 		vmov	s14, r3	@ int
 349 00c8 F8EE476A 		vcvt.f32.u32	s13, s14
 395:lib/Core/Src/system_stm32h7xx.c ****         break;
 350              		.loc 1 395 41 view .LVU110
 351 00cc 07EE102A 		vmov	s14, r2	@ int
 352 00d0 B8EE476A 		vcvt.f32.u32	s12, s14
 395:lib/Core/Src/system_stm32h7xx.c ****         break;
 353              		.loc 1 395 39 view .LVU111
 354 00d4 86EE867A 		vdiv.f32	s14, s13, s12
 395:lib/Core/Src/system_stm32h7xx.c ****         break;
 355              		.loc 1 395 82 view .LVU112
 356 00d8 036B     		ldr	r3, [r0, #48]
 357              	.LVL12:
 395:lib/Core/Src/system_stm32h7xx.c ****         break;
 358              		.loc 1 395 68 view .LVU113
 359 00da C3F30803 		ubfx	r3, r3, #0, #9
 395:lib/Core/Src/system_stm32h7xx.c ****         break;
 360              		.loc 1 395 59 view .LVU114
 361 00de 06EE903A 		vmov	s13, r3	@ int
 362 00e2 F8EE666A 		vcvt.f32.u32	s13, s13
 395:lib/Core/Src/system_stm32h7xx.c ****         break;
 363              		.loc 1 395 121 view .LVU115
 364 00e6 9FED476A 		vldr.32	s12, .L21+24
 365 00ea 67EE867A 		vmul.f32	s15, s15, s12
 366              	.LVL13:
 395:lib/Core/Src/system_stm32h7xx.c ****         break;
 367              		.loc 1 395 112 view .LVU116
 368 00ee 76EEA77A 		vadd.f32	s15, s13, s15
 395:lib/Core/Src/system_stm32h7xx.c ****         break;
 369              		.loc 1 395 139 view .LVU117
 370 00f2 F7EE006A 		vmov.f32	s13, #1.0e+0
 371 00f6 77EEA67A 		vadd.f32	s15, s15, s13
 395:lib/Core/Src/system_stm32h7xx.c ****         break;
 372              		.loc 1 395 18 view .LVU118
 373 00fa 27EE277A 		vmul.f32	s14, s14, s15
 374              	.LVL14:
 396:lib/Core/Src/system_stm32h7xx.c ****       }
 375              		.loc 1 396 9 is_stmt 1 view .LVU119
 376 00fe 22E0     		b	.L17
 377              	.LVL15:
 378              	.L20:
 380:lib/Core/Src/system_stm32h7xx.c ****         pllvco = ( (float_t)hsivalue / (float_t)pllm) * ((float_t)(uint32_t)(RCC->PLL1DIVR & RCC_PL
 379              		.loc 1 380 9 view .LVU120
 380:lib/Core/Src/system_stm32h7xx.c ****         pllvco = ( (float_t)hsivalue / (float_t)pllm) * ((float_t)(uint32_t)(RCC->PLL1DIVR & RCC_PL
 380              		.loc 1 380 39 is_stmt 0 view .LVU121
 381 0100 3A48     		ldr	r0, .L21
 382              	.LVL16:
 380:lib/Core/Src/system_stm32h7xx.c ****         pllvco = ( (float_t)hsivalue / (float_t)pllm) * ((float_t)(uint32_t)(RCC->PLL1DIVR & RCC_PL
 383              		.loc 1 380 39 view .LVU122
ARM GAS  /tmp/ccxxvisT.s 			page 16


 384 0102 0168     		ldr	r1, [r0]
 385              	.LVL17:
 380:lib/Core/Src/system_stm32h7xx.c ****         pllvco = ( (float_t)hsivalue / (float_t)pllm) * ((float_t)(uint32_t)(RCC->PLL1DIVR & RCC_PL
 386              		.loc 1 380 60 view .LVU123
 387 0104 C1F3C101 		ubfx	r1, r1, #3, #2
 380:lib/Core/Src/system_stm32h7xx.c ****         pllvco = ( (float_t)hsivalue / (float_t)pllm) * ((float_t)(uint32_t)(RCC->PLL1DIVR & RCC_PL
 388              		.loc 1 380 18 view .LVU124
 389 0108 3A4B     		ldr	r3, .L21+8
 390 010a CB40     		lsrs	r3, r3, r1
 391              	.LVL18:
 381:lib/Core/Src/system_stm32h7xx.c **** 
 392              		.loc 1 381 9 is_stmt 1 view .LVU125
 381:lib/Core/Src/system_stm32h7xx.c **** 
 393              		.loc 1 381 20 is_stmt 0 view .LVU126
 394 010c 07EE103A 		vmov	s14, r3	@ int
 395 0110 F8EE476A 		vcvt.f32.u32	s13, s14
 381:lib/Core/Src/system_stm32h7xx.c **** 
 396              		.loc 1 381 40 view .LVU127
 397 0114 07EE102A 		vmov	s14, r2	@ int
 398 0118 B8EE476A 		vcvt.f32.u32	s12, s14
 381:lib/Core/Src/system_stm32h7xx.c **** 
 399              		.loc 1 381 38 view .LVU128
 400 011c 86EE867A 		vdiv.f32	s14, s13, s12
 381:lib/Core/Src/system_stm32h7xx.c **** 
 401              		.loc 1 381 81 view .LVU129
 402 0120 036B     		ldr	r3, [r0, #48]
 403              	.LVL19:
 381:lib/Core/Src/system_stm32h7xx.c **** 
 404              		.loc 1 381 67 view .LVU130
 405 0122 C3F30803 		ubfx	r3, r3, #0, #9
 381:lib/Core/Src/system_stm32h7xx.c **** 
 406              		.loc 1 381 58 view .LVU131
 407 0126 06EE903A 		vmov	s13, r3	@ int
 408 012a F8EE666A 		vcvt.f32.u32	s13, s13
 381:lib/Core/Src/system_stm32h7xx.c **** 
 409              		.loc 1 381 120 view .LVU132
 410 012e 9FED356A 		vldr.32	s12, .L21+24
 411 0132 67EE867A 		vmul.f32	s15, s15, s12
 412              	.LVL20:
 381:lib/Core/Src/system_stm32h7xx.c **** 
 413              		.loc 1 381 111 view .LVU133
 414 0136 76EEA77A 		vadd.f32	s15, s13, s15
 381:lib/Core/Src/system_stm32h7xx.c **** 
 415              		.loc 1 381 138 view .LVU134
 416 013a F7EE006A 		vmov.f32	s13, #1.0e+0
 417 013e 77EEA67A 		vadd.f32	s15, s15, s13
 381:lib/Core/Src/system_stm32h7xx.c **** 
 418              		.loc 1 381 16 view .LVU135
 419 0142 27EE277A 		vmul.f32	s14, s14, s15
 420              	.LVL21:
 383:lib/Core/Src/system_stm32h7xx.c **** 
 421              		.loc 1 383 9 is_stmt 1 view .LVU136
 422              	.L17:
 398:lib/Core/Src/system_stm32h7xx.c ****       common_system_clock =  (uint32_t)(float_t)(pllvco/(float_t)pllp);
 423              		.loc 1 398 7 view .LVU137
 398:lib/Core/Src/system_stm32h7xx.c ****       common_system_clock =  (uint32_t)(float_t)(pllvco/(float_t)pllp);
 424              		.loc 1 398 20 is_stmt 0 view .LVU138
ARM GAS  /tmp/ccxxvisT.s 			page 17


 425 0146 294B     		ldr	r3, .L21
 426 0148 1B6B     		ldr	r3, [r3, #48]
 398:lib/Core/Src/system_stm32h7xx.c ****       common_system_clock =  (uint32_t)(float_t)(pllvco/(float_t)pllp);
 427              		.loc 1 398 50 view .LVU139
 428 014a C3F34623 		ubfx	r3, r3, #9, #7
 398:lib/Core/Src/system_stm32h7xx.c ****       common_system_clock =  (uint32_t)(float_t)(pllvco/(float_t)pllp);
 429              		.loc 1 398 12 view .LVU140
 430 014e 0133     		adds	r3, r3, #1
 431              	.LVL22:
 399:lib/Core/Src/system_stm32h7xx.c ****     }
 432              		.loc 1 399 7 is_stmt 1 view .LVU141
 399:lib/Core/Src/system_stm32h7xx.c ****     }
 433              		.loc 1 399 57 is_stmt 0 view .LVU142
 434 0150 07EE903A 		vmov	s15, r3	@ int
 435 0154 F8EE677A 		vcvt.f32.u32	s15, s15
 399:lib/Core/Src/system_stm32h7xx.c ****     }
 436              		.loc 1 399 40 view .LVU143
 437 0158 C7EE276A 		vdiv.f32	s13, s14, s15
 399:lib/Core/Src/system_stm32h7xx.c ****     }
 438              		.loc 1 399 27 view .LVU144
 439 015c FCEEE67A 		vcvt.u32.f32	s15, s13
 440 0160 17EE902A 		vmov	r2, s15	@ int
 441              	.LVL23:
 399:lib/Core/Src/system_stm32h7xx.c ****     }
 442              		.loc 1 399 27 view .LVU145
 443 0164 77E7     		b	.L11
 444              	.LVL24:
 445              	.L14:
 386:lib/Core/Src/system_stm32h7xx.c ****         break;
 446              		.loc 1 386 11 is_stmt 1 view .LVU146
 386:lib/Core/Src/system_stm32h7xx.c ****         break;
 447              		.loc 1 386 42 is_stmt 0 view .LVU147
 448 0166 07EE102A 		vmov	s14, r2	@ int
 449 016a F8EE476A 		vcvt.f32.u32	s13, s14
 386:lib/Core/Src/system_stm32h7xx.c ****         break;
 450              		.loc 1 386 40 view .LVU148
 451 016e 9FED266A 		vldr.32	s12, .L21+28
 452 0172 86EE267A 		vdiv.f32	s14, s12, s13
 386:lib/Core/Src/system_stm32h7xx.c ****         break;
 453              		.loc 1 386 83 view .LVU149
 454 0176 1D4B     		ldr	r3, .L21
 455 0178 1B6B     		ldr	r3, [r3, #48]
 386:lib/Core/Src/system_stm32h7xx.c ****         break;
 456              		.loc 1 386 69 view .LVU150
 457 017a C3F30803 		ubfx	r3, r3, #0, #9
 386:lib/Core/Src/system_stm32h7xx.c ****         break;
 458              		.loc 1 386 60 view .LVU151
 459 017e 06EE903A 		vmov	s13, r3	@ int
 460 0182 F8EE666A 		vcvt.f32.u32	s13, s13
 386:lib/Core/Src/system_stm32h7xx.c ****         break;
 461              		.loc 1 386 122 view .LVU152
 462 0186 9FED1F6A 		vldr.32	s12, .L21+24
 463 018a 67EE867A 		vmul.f32	s15, s15, s12
 464              	.LVL25:
 386:lib/Core/Src/system_stm32h7xx.c ****         break;
 465              		.loc 1 386 113 view .LVU153
 466 018e 76EEA77A 		vadd.f32	s15, s13, s15
ARM GAS  /tmp/ccxxvisT.s 			page 18


 386:lib/Core/Src/system_stm32h7xx.c ****         break;
 467              		.loc 1 386 140 view .LVU154
 468 0192 F7EE006A 		vmov.f32	s13, #1.0e+0
 469 0196 77EEA67A 		vadd.f32	s15, s15, s13
 386:lib/Core/Src/system_stm32h7xx.c ****         break;
 470              		.loc 1 386 18 view .LVU155
 471 019a 27EE277A 		vmul.f32	s14, s14, s15
 472              	.LVL26:
 387:lib/Core/Src/system_stm32h7xx.c **** 
 473              		.loc 1 387 9 is_stmt 1 view .LVU156
 474 019e D2E7     		b	.L17
 475              	.LVL27:
 476              	.L15:
 390:lib/Core/Src/system_stm32h7xx.c ****         break;
 477              		.loc 1 390 11 view .LVU157
 390:lib/Core/Src/system_stm32h7xx.c ****         break;
 478              		.loc 1 390 42 is_stmt 0 view .LVU158
 479 01a0 07EE102A 		vmov	s14, r2	@ int
 480 01a4 F8EE476A 		vcvt.f32.u32	s13, s14
 390:lib/Core/Src/system_stm32h7xx.c ****         break;
 481              		.loc 1 390 40 view .LVU159
 482 01a8 9FED186A 		vldr.32	s12, .L21+32
 483 01ac 86EE267A 		vdiv.f32	s14, s12, s13
 390:lib/Core/Src/system_stm32h7xx.c ****         break;
 484              		.loc 1 390 83 view .LVU160
 485 01b0 0E4B     		ldr	r3, .L21
 486 01b2 1B6B     		ldr	r3, [r3, #48]
 390:lib/Core/Src/system_stm32h7xx.c ****         break;
 487              		.loc 1 390 69 view .LVU161
 488 01b4 C3F30803 		ubfx	r3, r3, #0, #9
 390:lib/Core/Src/system_stm32h7xx.c ****         break;
 489              		.loc 1 390 60 view .LVU162
 490 01b8 06EE903A 		vmov	s13, r3	@ int
 491 01bc F8EE666A 		vcvt.f32.u32	s13, s13
 390:lib/Core/Src/system_stm32h7xx.c ****         break;
 492              		.loc 1 390 122 view .LVU163
 493 01c0 9FED106A 		vldr.32	s12, .L21+24
 494 01c4 67EE867A 		vmul.f32	s15, s15, s12
 495              	.LVL28:
 390:lib/Core/Src/system_stm32h7xx.c ****         break;
 496              		.loc 1 390 113 view .LVU164
 497 01c8 76EEA77A 		vadd.f32	s15, s13, s15
 390:lib/Core/Src/system_stm32h7xx.c ****         break;
 498              		.loc 1 390 140 view .LVU165
 499 01cc F7EE006A 		vmov.f32	s13, #1.0e+0
 500 01d0 77EEA67A 		vadd.f32	s15, s15, s13
 390:lib/Core/Src/system_stm32h7xx.c ****         break;
 501              		.loc 1 390 18 view .LVU166
 502 01d4 27EE277A 		vmul.f32	s14, s14, s15
 503              	.LVL29:
 391:lib/Core/Src/system_stm32h7xx.c **** 
 504              		.loc 1 391 9 is_stmt 1 view .LVU167
 505 01d8 B5E7     		b	.L17
 506              	.LVL30:
 507              	.L8:
 408:lib/Core/Src/system_stm32h7xx.c ****     break;
 508              		.loc 1 408 5 view .LVU168
ARM GAS  /tmp/ccxxvisT.s 			page 19


 408:lib/Core/Src/system_stm32h7xx.c ****     break;
 509              		.loc 1 408 57 is_stmt 0 view .LVU169
 510 01da 044B     		ldr	r3, .L21
 511 01dc 1B68     		ldr	r3, [r3]
 408:lib/Core/Src/system_stm32h7xx.c ****     break;
 512              		.loc 1 408 78 view .LVU170
 513 01de C3F3C103 		ubfx	r3, r3, #3, #2
 408:lib/Core/Src/system_stm32h7xx.c ****     break;
 514              		.loc 1 408 25 view .LVU171
 515 01e2 044A     		ldr	r2, .L21+8
 516 01e4 DA40     		lsrs	r2, r2, r3
 517              	.LVL31:
 409:lib/Core/Src/system_stm32h7xx.c ****   }
 518              		.loc 1 409 5 is_stmt 1 view .LVU172
 519 01e6 36E7     		b	.L11
 520              	.LVL32:
 521              	.L18:
 361:lib/Core/Src/system_stm32h7xx.c ****     break;
 522              		.loc 1 361 25 is_stmt 0 view .LVU173
 523 01e8 094A     		ldr	r2, .L21+36
 524 01ea 34E7     		b	.L11
 525              	.L22:
 526              		.align	2
 527              	.L21:
 528 01ec 00440258 		.word	1476543488
 529 01f0 00093D00 		.word	4000000
 530 01f4 0090D003 		.word	64000000
 531 01f8 00000000 		.word	D1CorePrescTable
 532 01fc 00000000 		.word	SystemD2Clock
 533 0200 00000000 		.word	SystemCoreClock
 534 0204 00000039 		.word	956301312
 535 0208 0024744A 		.word	1249125376
 536 020c 20BCBE4B 		.word	1270791200
 537 0210 40787D01 		.word	25000000
 538              		.cfi_endproc
 539              	.LFE145:
 541              		.global	D1CorePrescTable
 542              		.section	.rodata.D1CorePrescTable,"a"
 543              		.align	2
 546              	D1CorePrescTable:
 547 0000 00000000 		.ascii	"\000\000\000\000\001\002\003\004\001\002\003\004\006"
 547      01020304 
 547      01020304 
 547      06
 548 000d 070809   		.ascii	"\007\010\011"
 549              		.global	SystemD2Clock
 550              		.section	.data.SystemD2Clock,"aw"
 551              		.align	2
 554              	SystemD2Clock:
 555 0000 0090D003 		.word	64000000
 556              		.global	SystemCoreClock
 557              		.section	.data.SystemCoreClock,"aw"
 558              		.align	2
 561              	SystemCoreClock:
 562 0000 0090D003 		.word	64000000
 563              		.text
 564              	.Letext0:
ARM GAS  /tmp/ccxxvisT.s 			page 20


 565              		.file 2 "/usr/arm-none-eabi/include/machine/_default_types.h"
 566              		.file 3 "/usr/arm-none-eabi/include/sys/_stdint.h"
 567              		.file 4 "lib/Drivers/CMSIS/Include/core_cm7.h"
 568              		.file 5 "lib/Drivers/CMSIS/Device/ST/STM32H7xx/Include/system_stm32h7xx.h"
 569              		.file 6 "lib/Drivers/CMSIS/Device/ST/STM32H7xx/Include/stm32h750xx.h"
 570              		.file 7 "/usr/arm-none-eabi/include/math.h"
ARM GAS  /tmp/ccxxvisT.s 			page 21

